 hvh

 Timestamp is 5eb31a60 (Wed May  6 23:13:20 2020)

 Preferred load address is 10000000

 Start         Length     Name                   Class
 0001:00000000 00000760H .text$di                CODE
 0001:00000760 0004ad30H .text$mn                CODE
 0001:0004b490 000017e0H .text$x                 CODE
 0001:0004cc70 00000099H .text$yd                CODE
 0002:00000000 000002dcH .idata$5                DATA
 0002:000002dc 00000004H .00cfg                  DATA
 0002:000002e0 00000004H .CRT$XCA                DATA
 0002:000002e4 00000004H .CRT$XCL                DATA
 0002:000002e8 000000c4H .CRT$XCU                DATA
 0002:000003ac 00000004H .CRT$XCZ                DATA
 0002:000003b0 00000004H .CRT$XIA                DATA
 0002:000003b4 00000004H .CRT$XIC                DATA
 0002:000003b8 00000004H .CRT$XIZ                DATA
 0002:000003bc 00000004H .CRT$XLA                DATA
 0002:000003c0 00000004H .CRT$XLZ                DATA
 0002:000003c4 00000004H .CRT$XPA                DATA
 0002:000003c8 00000004H .CRT$XPZ                DATA
 0002:000003cc 00000004H .CRT$XTA                DATA
 0002:000003d0 00000010H .CRT$XTZ                DATA
 0002:000003d4 00000000H .gfids$y                DATA
 0002:000003e0 00008ff8H .rdata                  DATA
 0002:000093d8 00000018H .rdata$T                DATA
 0002:000093f0 000005a0H .rdata$r                DATA
 0002:00009990 000001c4H .rdata$sxdata           DATA
 0002:00009b54 00000390H .rdata$zzzdbg           DATA
 0002:00009ee4 00000004H .rtc$IAA                DATA
 0002:00009ee8 00000004H .rtc$IZZ                DATA
 0002:00009eec 00000004H .rtc$TAA                DATA
 0002:00009ef0 00000004H .rtc$TZZ                DATA
 0002:00009ef4 00000004H .tls                    DATA
 0002:00009ef8 00000004H .tls$                   DATA
 0002:00009efc 00000004H .tls$ZZZ                DATA
 0002:00009f00 00001848H .xdata$x                DATA
 0002:0000b748 00000000H .edata                  DATA
 0002:0000b748 00000104H .idata$2                DATA
 0002:0000b84c 00000014H .idata$3                DATA
 0002:0000b860 000002dcH .idata$4                DATA
 0002:0000bb3c 0000157aH .idata$6                DATA
 0003:00000000 00000068H .data                   DATA
 0003:00000068 000002e0H .data$r                 DATA
 0003:00000348 0007c50cH .bss                    DATA
 0004:00000000 00000060H .rsrc$01                DATA
 0004:00000060 00000180H .rsrc$02                DATA

  Address         Publics by Value              Rva+Base       Lib:Object

 0000:00000000       ___guard_longjmp_table     00000000     <absolute>
 0000:00000000       ___guard_fids_count        00000000     <absolute>
 0000:00000000       ___guard_fids_table        00000000     <absolute>
 0000:00000000       ___guard_iat_count         00000000     <absolute>
 0000:00000000       ___dynamic_value_reloc_table 00000000     <absolute>
 0000:00000000       ___guard_longjmp_count     00000000     <absolute>
 0000:00000000       ___guard_iat_table         00000000     <absolute>
 0000:00000000       ___hybrid_code_map_count   00000000     <absolute>
 0000:00000000       ___hybrid_auxiliary_iat    00000000     <absolute>
 0000:00000000       ___enclave_config          00000000     <absolute>
 0000:00000000       ___volatile_metadata       00000000     <absolute>
 0000:00000000       ___hybrid_code_map         00000000     <absolute>
 0000:0000002c       __tls_array                0000002c     <absolute>
 0000:00000071       ___safe_se_handler_count   00000071     <absolute>
 0000:00000100       ___guard_flags             00000100     <absolute>
 0000:00000000       ___ImageBase               10000000     <linker-defined>
 0001:00000760       ??$?0$$V@?$_Compressed_pair@V?$allocator@_W@std@@V?$_String_val@U?$_Simple_types@_W@std@@@2@$00@std@@QAE@U_Zero_then_variadic_args_t@1@@Z 10001760 f i config_system.obj
 0001:00000760       ??$?0$$V@?$_Compressed_pair@V?$allocator@D@std@@V?$_String_val@U?$_Simple_types@D@std@@@2@$00@std@@QAE@U_Zero_then_variadic_args_t@1@@Z 10001760 f i c_hooks.obj
 0001:00000780       ??$?0AAPAV_Facet_base@std@@@?$_Compressed_pair@U?$default_delete@V_Facet_base@std@@@std@@PAV_Facet_base@2@$00@std@@QAE@U_Zero_then_variadic_args_t@1@AAPAV_Facet_base@1@@Z 10001780 f i config_system.obj
 0001:00000780       ??$?0AAPAI@?$_Compressed_pair@U?$default_delete@$$BY0A@I@std@@PAI$00@std@@QAE@U_Zero_then_variadic_args_t@1@AAPAI@Z 10001780 f i c_hooks.obj
 0001:00000780       ??$?0AAPAVShadowVTManager@@@?$_Compressed_pair@U?$default_delete@VShadowVTManager@@@std@@PAVShadowVTManager@@$00@std@@QAE@U_Zero_then_variadic_args_t@1@AAPAVShadowVTManager@@@Z 10001780 f i c_hooks.obj
 0001:00000780       ??$?0AAPAVNetvarTree@@@?$_Compressed_pair@U?$default_delete@VNetvarTree@@@std@@PAVNetvarTree@@$00@std@@QAE@U_Zero_then_variadic_args_t@1@AAPAVNetvarTree@@@Z 10001780 f i c_hooks.obj
 0001:00000780       ??$?0AAPAVVMTHook@@@?$_Compressed_pair@U?$default_delete@VVMTHook@@@std@@PAVVMTHook@@$00@std@@QAE@U_Zero_then_variadic_args_t@1@AAPAVVMTHook@@@Z 10001780 f i c_hooks.obj
 0001:000007b0       ??$?0PAVVMTHook@@@?$_Unique_ptr_base@VVMTHook@@U?$default_delete@VVMTHook@@@std@@@std@@QAE@PAVVMTHook@@@Z 100017b0 f i c_hooks.obj
 0001:000007b0       ??$?0PAV_Facet_base@std@@@?$_Unique_ptr_base@V_Facet_base@std@@U?$default_delete@V_Facet_base@std@@@2@@std@@QAE@PAV_Facet_base@1@@Z 100017b0 f i config_system.obj
 0001:000007b0       ??$?0PAVNetvarTree@@@?$_Unique_ptr_base@VNetvarTree@@U?$default_delete@VNetvarTree@@@std@@@std@@QAE@PAVNetvarTree@@@Z 100017b0 f i c_hooks.obj
 0001:000007b0       ??$?0PAVShadowVTManager@@@?$_Unique_ptr_base@VShadowVTManager@@U?$default_delete@VShadowVTManager@@@std@@@std@@QAE@PAVShadowVTManager@@@Z 100017b0 f i c_hooks.obj
 0001:000007b0       ??$?0PAI@?$_Unique_ptr_base@IU?$default_delete@$$BY0A@I@std@@@std@@QAE@PAI@Z 100017b0 f i c_hooks.obj
 0001:000007e0       ??$?0U?$default_delete@VVMTHook@@@std@@$0A@@?$unique_ptr@VVMTHook@@U?$default_delete@VVMTHook@@@std@@@std@@QAE@PAVVMTHook@@@Z 100017e0 f i c_hooks.obj
 0001:000007e0       ??$?0U?$default_delete@V_Facet_base@std@@@std@@$0A@@?$unique_ptr@V_Facet_base@std@@U?$default_delete@V_Facet_base@std@@@2@@std@@QAE@PAV_Facet_base@1@@Z 100017e0 f i config_system.obj
 0001:000007e0       ??$?0PAIU?$default_delete@$$BY0A@I@std@@$0A@X@?$unique_ptr@$$BY0A@IU?$default_delete@$$BY0A@I@std@@@std@@QAE@PAI@Z 100017e0 f i c_hooks.obj
 0001:000007e0       ??$?0U?$default_delete@VNetvarTree@@@std@@$0A@@?$unique_ptr@VNetvarTree@@U?$default_delete@VNetvarTree@@@std@@@std@@QAE@PAVNetvarTree@@@Z 100017e0 f i c_hooks.obj
 0001:00000830       ??$?0U?$default_delete@$$BY0A@I@std@@$0A@@?$unique_ptr@$$BY0A@IU?$default_delete@$$BY0A@I@std@@@std@@QAE@$$T@Z 10001830 f i c_hooks.obj
 0001:00000880       ??$?0U?$default_delete@VVMTHook@@@std@@$0A@@?$unique_ptr@VVMTHook@@U?$default_delete@VVMTHook@@@std@@@std@@QAE@XZ 10001880 f i c_hooks.obj
 0001:00000880       ??$?0U?$default_delete@VNetvarTree@@@std@@$0A@@?$unique_ptr@VNetvarTree@@U?$default_delete@VNetvarTree@@@std@@@std@@QAE@XZ 10001880 f i NetvarManager.obj
 0001:00000880       ??$?0U?$default_delete@VShadowVTManager@@@std@@$0A@@?$unique_ptr@VShadowVTManager@@U?$default_delete@VShadowVTManager@@@std@@@std@@QAE@XZ 10001880 f i c_hooks.obj
 0001:000008d0       ??$?RI$0A@@?$default_delete@$$BY0A@I@std@@QBEXPAI@Z 100018d0 f i c_hooks.obj
 0001:00000900       ??$_Allocate@$07U_Default_allocate_traits@std@@$0A@@std@@YAPAXI@Z 10001900 f i c_hooks.obj
 0001:00000940       ??$_Allocate_manually_vector_aligned@U_Default_allocate_traits@std@@@std@@YAPAXI@Z 10001940 f i c_hooks.obj
 0001:000009b0       ??$forward@V?$allocator@D@std@@@std@@YA$$QAV?$allocator@D@0@AAV10@@Z 100019b0 f i Aimbot.obj
 0001:000009b0       ??$forward@ABQAD@std@@YAABQADABQAD@Z 100019b0 f i c_hooks.obj
 0001:000009b0       ??$forward@V?$tuple@$$QAV?$basic_string@DU?$char_traits@D@std@@V?$allocator@D@2@@std@@@std@@@std@@YA$$QAV?$tuple@$$QAV?$basic_string@DU?$char_traits@D@std@@V?$allocator@D@2@@std@@@0@AAV10@@Z 100019b0 f i Aimbot.obj
 0001:000009b0       ??$move@AAH@std@@YA$$QAHAAH@Z 100019b0 f i Aimbot.obj
 0001:000009b0       ??$_Convert_size@I@std@@YAII@Z 100019b0 f i c_hooks.obj
 0001:000009b0       ??$forward@AAPAVIPanel@@@std@@YAAAPAVIPanel@@AAPAV1@@Z 100019b0 f i c_hooks.obj
 0001:000009b0       ??$forward@ABV?$allocator@U?$pair@$$CBV?$basic_string@DU?$char_traits@D@std@@V?$allocator@D@2@@std@@V?$shared_ptr@UNode@NetvarTree@@@2@@std@@@std@@@std@@YAABV?$allocator@U?$pair@$$CBV?$basic_string@DU?$char_traits@D@std@@V?$allocator@D@2@@std@@V?$shared_ptr@UNode@NetvarTree@@@2@@std@@@0@ABV10@@Z 100019b0 f i NetvarManager.obj
 0001:000009b0       ??$_Get_unwrapped@D@std@@YAPADQAD@Z 100019b0 f i c_esp.obj
 0001:000009b0       ??$forward@AAPAU?$_List_node@U?$pair@$$CBV?$basic_string@DU?$char_traits@D@std@@V?$allocator@D@2@@std@@V?$shared_ptr@UNode@NetvarTree@@@2@@std@@PAX@std@@@std@@YAAAPAU?$_List_node@U?$pair@$$CBV?$basic_string@DU?$char_traits@D@std@@V?$allocator@D@2@@std@@V?$shared_ptr@UNode@NetvarTree@@@2@@std@@PAX@0@AAPAU10@@Z 100019b0 f i Aimbot.obj
 0001:000009b0       ??$forward@AAPAVVMTHook@@@std@@YAAAPAVVMTHook@@AAPAV1@@Z 100019b0 f i c_hooks.obj
 0001:000009b0       ??$forward@AAV?$_List_iterator@V?$_List_val@U?$_List_simple_types@U?$pair@$$CBV?$basic_string@DU?$char_traits@D@std@@V?$allocator@D@2@@std@@V?$shared_ptr@UNode@NetvarTree@@@2@@std@@@std@@@std@@@std@@@std@@YAAAV?$_List_iterator@V?$_List_val@U?$_List_simple_types@U?$pair@$$CBV?$basic_string@DU?$char_traits@D@std@@V?$allocator@D@2@@std@@V?$shared_ptr@UNode@NetvarTree@@@2@@std@@@std@@@std@@@0@AAV10@@Z 100019b0 f i Aimbot.obj
 0001:000009b0       ??$forward@AAPAVNetvarTree@@@std@@YAAAPAVNetvarTree@@AAPAV1@@Z 100019b0 f i c_hooks.obj
 0001:000009b0       ??$forward@AAU?$hash@V?$basic_string@DU?$char_traits@D@std@@V?$allocator@D@2@@std@@@std@@@std@@YAAAU?$hash@V?$basic_string@DU?$char_traits@D@std@@V?$allocator@D@2@@std@@@0@AAU10@@Z 100019b0 f i NetvarManager.obj
 0001:000009b0       ??$addressof@V?$unique_ptr@VNetvarTree@@U?$default_delete@VNetvarTree@@@std@@@std@@@std@@YAPAV?$unique_ptr@VNetvarTree@@U?$default_delete@VNetvarTree@@@std@@@0@AAV10@@Z 100019b0 f i c_hooks.obj
 0001:000009b0       ??$_Get_unwrapped_n@PAUPlayerRecords@@H$0A@@std@@YAPAPAUPlayerRecords@@QAPAU1@H@Z 100019b0 f i LagComp.obj
 0001:000009b0       ??$forward@V?$_List_iterator@V?$_List_val@U?$_List_simple_types@U?$pair@$$CBV?$basic_string@DU?$char_traits@D@std@@V?$allocator@D@2@@std@@V?$shared_ptr@UNode@NetvarTree@@@2@@std@@@std@@@std@@@std@@@std@@YA$$QAV?$_List_iterator@V?$_List_val@U?$_List_simple_types@U?$pair@$$CBV?$basic_string@DU?$char_traits@D@std@@V?$allocator@D@2@@std@@V?$shared_ptr@UNode@NetvarTree@@@2@@std@@@std@@@std@@@0@AAV10@@Z 100019b0 f i Aimbot.obj
 0001:000009b0       ??$forward@U?$default_delete@VVMTHook@@@std@@@std@@YA$$QAU?$default_delete@VVMTHook@@@0@AAU10@@Z 100019b0 f i c_hooks.obj
 0001:000009b0       ??$forward@ABV?$allocator@V?$_List_unchecked_iterator@V?$_List_val@U?$_List_simple_types@U?$pair@$$CBV?$basic_string@DU?$char_traits@D@std@@V?$allocator@D@2@@std@@V?$shared_ptr@UNode@NetvarTree@@@2@@std@@@std@@@std@@@std@@@std@@@std@@YAABV?$allocator@V?$_List_unchecked_iterator@V?$_List_val@U?$_List_simple_types@U?$pair@$$CBV?$basic_string@DU?$char_traits@D@std@@V?$allocator@D@2@@std@@V?$shared_ptr@UNode@NetvarTree@@@2@@std@@@std@@@std@@@std@@@0@ABV10@@Z 100019b0 f i NetvarManager.obj
 0001:000009b0       ??$addressof@V?$unique_ptr@VVMTHook@@U?$default_delete@VVMTHook@@@std@@@std@@@std@@YAPAV?$unique_ptr@VVMTHook@@U?$default_delete@VVMTHook@@@std@@@0@AAV10@@Z 100019b0 f i c_hooks.obj
 0001:000009b0       ??$addressof@PAD@std@@YAPAPADAAPAD@Z 100019b0 f i c_hooks.obj
 0001:000009b0       ??$forward@U_One_then_variadic_args_t@std@@@std@@YA$$QAU_One_then_variadic_args_t@0@AAU10@@Z 100019b0 f i NetvarManager.obj
 0001:000009b0       ??$addressof@PAULegitPlayerRecords@@@std@@YAPAPAULegitPlayerRecords@@AAPAU1@@Z 100019b0 f i Legitbot.obj
 0001:000009b0       ??$_Refancy@PAD$0A@@std@@YAPADPAD@Z 100019b0 f i c_esp.obj
 0001:000009b0       ??$forward@ABV?$_List_unchecked_iterator@V?$_List_val@U?$_List_simple_types@U?$pair@$$CBV?$basic_string@DU?$char_traits@D@std@@V?$allocator@D@2@@std@@V?$shared_ptr@UNode@NetvarTree@@@2@@std@@@std@@@std@@@std@@@std@@YAABV?$_List_unchecked_iterator@V?$_List_val@U?$_List_simple_types@U?$pair@$$CBV?$basic_string@DU?$char_traits@D@std@@V?$allocator@D@2@@std@@V?$shared_ptr@UNode@NetvarTree@@@2@@std@@@std@@@std@@@0@ABV10@@Z 100019b0 f i Aimbot.obj
 0001:000009b0       ??$forward@U?$default_delete@VNetvarTree@@@std@@@std@@YA$$QAU?$default_delete@VNetvarTree@@@0@AAU10@@Z 100019b0 f i c_hooks.obj
 0001:000009b0       ??$forward@V?$basic_string@DU?$char_traits@D@std@@V?$allocator@D@2@@std@@@std@@YA$$QAV?$basic_string@DU?$char_traits@D@std@@V?$allocator@D@2@@0@AAV10@@Z 100019b0 f i Aimbot.obj
 0001:000009b0       ??$addressof@V?$_String_val@U?$_Simple_types@D@std@@@std@@@std@@YAPAV?$_String_val@U?$_Simple_types@D@std@@@0@AAV10@@Z 100019b0 f i Aimbot.obj
 0001:000009b0       ??$_Unfancy@UPlayerRecords@@@std@@YAPAUPlayerRecords@@PAU1@@Z 100019b0 f i LagComp.obj
 0001:000009b0       ??$_Get_unwrapped_n@PAULegitPlayerRecords@@H$0A@@std@@YAPAPAULegitPlayerRecords@@QAPAU1@H@Z 100019b0 f i Legitbot.obj
 0001:000009b0       ??$forward@AAU?$pair@$$CBV?$basic_string@DU?$char_traits@D@std@@V?$allocator@D@2@@std@@V?$shared_ptr@UNode@NetvarTree@@@2@@std@@@std@@YAAAU?$pair@$$CBV?$basic_string@DU?$char_traits@D@std@@V?$allocator@D@2@@std@@V?$shared_ptr@UNode@NetvarTree@@@2@@0@AAU10@@Z 100019b0 f i Aimbot.obj
 0001:000009b0       ??$_Get_unwrapped_n@HH$0A@@std@@YAPAHQAHH@Z 100019b0 f i Aimbot.obj
 0001:000009b0       ??$_Get_size_of_n@$00@std@@YAII@Z 100019b0 f i c_hooks.obj
 0001:000009b0       ??$addressof@$$CBV?$_Deque_val@U?$_Deque_simple_types@UPlayerRecords@@@std@@@std@@@std@@YAPBV?$_Deque_val@U?$_Deque_simple_types@UPlayerRecords@@@std@@@0@ABV10@@Z 100019b0 f i LagComp.obj
 0001:000009b0       ??$move@AAV?$shared_ptr@UNode@NetvarTree@@@std@@@std@@YA$$QAV?$shared_ptr@UNode@NetvarTree@@@0@AAV10@@Z 100019b0 f i NetvarManager.obj
 0001:000009b0       ??$move@AAV?$basic_ofstream@DU?$char_traits@D@std@@@std@@@std@@YA$$QAV?$basic_ofstream@DU?$char_traits@D@std@@@0@AAV10@@Z 100019b0 f i Interfaces.obj
 0001:000009b0       ??$forward@PAPAK@std@@YA$$QAPAPAKAAPAPAK@Z 100019b0 f i c_hooks.obj
 0001:000009b0       ??$addressof@V?$unique_ptr@$$BY0A@IU?$default_delete@$$BY0A@I@std@@@std@@@std@@YAPAV?$unique_ptr@$$BY0A@IU?$default_delete@$$BY0A@I@std@@@0@AAV10@@Z 100019b0 f i c_hooks.obj
 0001:000009b0       ??$forward@M@std@@YA$$QAMAAM@Z 100019b0 f i NetvarManager.obj
 0001:000009b0       ??$_Get_unwrapped@PAUPlayerRecords@@@std@@YAPAPAUPlayerRecords@@QAPAU1@@Z 100019b0 f i LagComp.obj
 0001:000009b0       ??$move@AAU?$default_delete@$$BY0A@I@std@@@std@@YA$$QAU?$default_delete@$$BY0A@I@0@AAU10@@Z 100019b0 f i c_hooks.obj
 0001:000009b0       ??$forward@AAPAV_Facet_base@std@@@std@@YAAAPAV_Facet_base@0@AAPAV10@@Z 100019b0 f i config_system.obj
 0001:000009b0       ??$_Unfancy@U_Container_proxy@std@@@std@@YAPAU_Container_proxy@0@PAU10@@Z 100019b0 f i LagComp.obj
 0001:000009b0       ??$addressof@V?$_Deque_val@U?$_Deque_simple_types@UPlayerRecords@@@std@@@std@@@std@@YAPAV?$_Deque_val@U?$_Deque_simple_types@UPlayerRecords@@@std@@@0@AAV10@@Z 100019b0 f i Aimbot.obj
 0001:000009b0       ??$forward@U_Container_proxy@std@@@std@@YA$$QAU_Container_proxy@0@AAU10@@Z 100019b0 f i LagComp.obj
 0001:000009b0       ??$forward@AAPAVISurface@@@std@@YAAAPAVISurface@@AAPAV1@@Z 100019b0 f i c_hooks.obj
 0001:000009b0       ??$addressof@$$CBV?$_Deque_val@U?$_Deque_simple_types@ULegitPlayerRecords@@@std@@@std@@@std@@YAPBV?$_Deque_val@U?$_Deque_simple_types@ULegitPlayerRecords@@@std@@@0@ABV10@@Z 100019b0 f i Legitbot.obj
 0001:000009b0       ??$move@AAV?$allocator@D@std@@@std@@YA$$QAV?$allocator@D@0@AAV10@@Z 100019b0 f i Aimbot.obj
 0001:000009b0       ??$_Unfancy@ULegitPlayerRecords@@@std@@YAPAULegitPlayerRecords@@PAU1@@Z 100019b0 f i Legitbot.obj
 0001:000009b0       ??$move@AAUPlayerRecords@@@std@@YA$$QAUPlayerRecords@@AAU1@@Z 100019b0 f i LagComp.obj
 0001:000009b0       ??$addressof@V?$_Deque_val@U?$_Deque_simple_types@ULegitPlayerRecords@@@std@@@std@@@std@@YAPAV?$_Deque_val@U?$_Deque_simple_types@ULegitPlayerRecords@@@std@@@0@AAV10@@Z 100019b0 f i Legitbot.obj
 0001:000009b0       ??$forward@ABV?$allocator@D@std@@@std@@YAABV?$allocator@D@0@ABV10@@Z 100019b0 f i c_esp.obj
 0001:000009b0       ??$forward@$$QAV?$basic_string@DU?$char_traits@D@std@@V?$allocator@D@2@@std@@@std@@YA$$QAV?$basic_string@DU?$char_traits@D@std@@V?$allocator@D@2@@0@AAV10@@Z 100019b0 f i Aimbot.obj
 0001:000009b0       ??$_Unfancy@H@std@@YAPAHPAH@Z 100019b0 f i Aimbot.obj
 0001:000009b0       ??$_Kfn@$$CBV?$basic_string@DU?$char_traits@D@std@@V?$allocator@D@2@@std@@V?$shared_ptr@UNode@NetvarTree@@@2@@?$_Umap_traits@V?$basic_string@DU?$char_traits@D@std@@V?$allocator@D@2@@std@@V?$shared_ptr@UNode@NetvarTree@@@2@V?$_Uhash_compare@V?$basic_string@DU?$char_traits@D@std@@V?$allocator@D@2@@std@@U?$hash@V?$basic_string@DU?$char_traits@D@std@@V?$allocator@D@2@@std@@@2@U?$equal_to@V?$basic_string@DU?$char_traits@D@std@@V?$allocator@D@2@@std@@@2@@2@V?$allocator@U?$pair@$$CBV?$basic_string@DU?$char_traits@D@std@@V?$allocator@D@2@@std@@V?$shared_ptr@UNode@NetvarTree@@@2@@std@@@2@$0A@@std@@SAABV?$basic_string@DU?$char_traits@D@std@@V?$allocator@D@2@@1@ABU?$pair@$$CBV?$basic_string@DU?$char_traits@D@std@@V?$allocator@D@2@@std@@V?$shared_ptr@UNode@NetvarTree@@@2@@1@@Z 100019b0 f i Aimbot.obj
 0001:000009b0       ??$addressof@$$CBV?$codecvt@DDU_Mbstatet@@@std@@@std@@YAPBV?$codecvt@DDU_Mbstatet@@@0@ABV10@@Z 100019b0 f i config_system.obj
 0001:000009b0       ??$_Get_unwrapped_n@V?$_List_unchecked_iterator@V?$_List_val@U?$_List_simple_types@U?$pair@$$CBV?$basic_string@DU?$char_traits@D@std@@V?$allocator@D@2@@std@@V?$shared_ptr@UNode@NetvarTree@@@2@@std@@@std@@@std@@@std@@H$0A@@std@@YAPAV?$_List_unchecked_iterator@V?$_List_val@U?$_List_simple_types@U?$pair@$$CBV?$basic_string@DU?$char_traits@D@std@@V?$allocator@D@2@@std@@V?$shared_ptr@UNode@NetvarTree@@@2@@std@@@std@@@std@@@0@QAV10@H@Z 100019b0 f i Aimbot.obj
 0001:000009b0       ??$move@AAV?$basic_string@DU?$char_traits@D@std@@V?$allocator@D@2@@std@@@std@@YA$$QAV?$basic_string@DU?$char_traits@D@std@@V?$allocator@D@2@@0@AAV10@@Z 100019b0 f i Aimbot.obj
 0001:000009b0       ??$forward@H@std@@YA$$QAHAAH@Z 100019b0 f i Aimbot.obj
 0001:000009b0       ??$_Get_unwrapped@PAULegitPlayerRecords@@@std@@YAPAPAULegitPlayerRecords@@QAPAU1@@Z 100019b0 f i Legitbot.obj
 0001:000009b0       ??$addressof@V?$_List_val@U?$_List_simple_types@U?$pair@$$CBV?$basic_string@DU?$char_traits@D@std@@V?$allocator@D@2@@std@@V?$shared_ptr@UNode@NetvarTree@@@2@@std@@@std@@@std@@@std@@YAPAV?$_List_val@U?$_List_simple_types@U?$pair@$$CBV?$basic_string@DU?$char_traits@D@std@@V?$allocator@D@2@@std@@V?$shared_ptr@UNode@NetvarTree@@@2@@std@@@std@@@0@AAV10@@Z 100019b0 f i Aimbot.obj
 0001:000009b0       ??$_Unfancy@D@std@@YAPADPAD@Z 100019b0 f i c_hooks.obj
 0001:000009b0       ??$forward@_N@std@@YA$$QA_NAA_N@Z 100019b0 f i Aimbot.obj
 0001:000009b0       ??$forward@AAPAI@std@@YAAAPAIAAPAI@Z 100019b0 f i c_hooks.obj
 0001:000009b0       ??$_Unfancy@V?$_List_unchecked_iterator@V?$_List_val@U?$_List_simple_types@U?$pair@$$CBV?$basic_string@DU?$char_traits@D@std@@V?$allocator@D@2@@std@@V?$shared_ptr@UNode@NetvarTree@@@2@@std@@@std@@@std@@@std@@@std@@YAPAV?$_List_unchecked_iterator@V?$_List_val@U?$_List_simple_types@U?$pair@$$CBV?$basic_string@DU?$char_traits@D@std@@V?$allocator@D@2@@std@@V?$shared_ptr@UNode@NetvarTree@@@2@@std@@@std@@@std@@@0@PAV10@@Z 100019b0 f i Aimbot.obj
 0001:000009b0       ??$forward@ABUPlayerRecords@@@std@@YAABUPlayerRecords@@ABU1@@Z 100019b0 f i LagComp.obj
 0001:000009b0       ??$forward@ABV?$shared_ptr@UNode@NetvarTree@@@std@@@std@@YAABV?$shared_ptr@UNode@NetvarTree@@@0@ABV10@@Z 100019b0 f i NetvarManager.obj
 0001:000009b0       ??$forward@AAPAVCModelRender@@@std@@YAAAPAVCModelRender@@AAPAV1@@Z 100019b0 f i c_hooks.obj
 0001:000009b0       ??$move@AAULegitPlayerRecords@@@std@@YA$$QAULegitPlayerRecords@@AAU1@@Z 100019b0 f i Legitbot.obj
 0001:000009b0       ??$_Unfancy@V?$basic_string@DU?$char_traits@D@std@@V?$allocator@D@2@@std@@@std@@YAPAV?$basic_string@DU?$char_traits@D@std@@V?$allocator@D@2@@0@PAV10@@Z 100019b0 f i config_system.obj
 0001:000009b0       ??$addressof@V?$basic_string@DU?$char_traits@D@std@@V?$allocator@D@2@@std@@@std@@YAPAV?$basic_string@DU?$char_traits@D@std@@V?$allocator@D@2@@0@AAV10@@Z 100019b0 f i imgui.obj
 0001:000009b0       ??$_Get_unwrapped@V?$_List_unchecked_iterator@V?$_List_val@U?$_List_simple_types@U?$pair@$$CBV?$basic_string@DU?$char_traits@D@std@@V?$allocator@D@2@@std@@V?$shared_ptr@UNode@NetvarTree@@@2@@std@@@std@@@std@@@std@@@std@@YAPAV?$_List_unchecked_iterator@V?$_List_val@U?$_List_simple_types@U?$pair@$$CBV?$basic_string@DU?$char_traits@D@std@@V?$allocator@D@2@@std@@V?$shared_ptr@UNode@NetvarTree@@@2@@std@@@std@@@std@@@0@QAV10@@Z 100019b0 f i Aimbot.obj
 0001:000009b0       ??$forward@PBD@std@@YA$$QAPBDAAPBD@Z 100019b0 f i NetvarManager.obj
 0001:000009b0       ??$forward@V?$tuple@$$V@std@@@std@@YA$$QAV?$tuple@$$V@0@AAV10@@Z 100019b0 f i Aimbot.obj
 0001:000009b0       ??$_Const_cast@$$CBD@std@@YAPADPBD@Z 100019b0 f i c_esp.obj
 0001:000009b0       ??$move@AAV?$tuple@$$QAV?$basic_string@DU?$char_traits@D@std@@V?$allocator@D@2@@std@@@std@@@std@@YA$$QAV?$tuple@$$QAV?$basic_string@DU?$char_traits@D@std@@V?$allocator@D@2@@std@@@0@AAV10@@Z 100019b0 f i Aimbot.obj
 0001:000009b0       ??$addressof@PAU?$_List_node@U?$pair@$$CBV?$basic_string@DU?$char_traits@D@std@@V?$allocator@D@2@@std@@V?$shared_ptr@UNode@NetvarTree@@@2@@std@@PAX@std@@@std@@YAPAPAU?$_List_node@U?$pair@$$CBV?$basic_string@DU?$char_traits@D@std@@V?$allocator@D@2@@std@@V?$shared_ptr@UNode@NetvarTree@@@2@@std@@PAX@0@AAPAU10@@Z 100019b0 f i c_hooks.obj
 0001:000009b0       ??$forward@AAPAVIVRenderView@@@std@@YAAAPAVIVRenderView@@AAPAV1@@Z 100019b0 f i c_hooks.obj
 0001:000009b0       ??$addressof@PA_W@std@@YAPAPA_WAAPA_W@Z 100019b0 f i config_system.obj
 0001:000009b0       ?select_on_container_copy_construction@?$_Default_allocator_traits@V?$allocator@D@std@@@std@@SA?AV?$allocator@D@2@ABV32@@Z 100019b0 f i c_esp.obj
 0001:000009b0       ??$addressof@PAUPlayerRecords@@@std@@YAPAPAUPlayerRecords@@AAPAU1@@Z 100019b0 f i LagComp.obj
 0001:000009b0       ??$forward@AAU?$equal_to@V?$basic_string@DU?$char_traits@D@std@@V?$allocator@D@2@@std@@@std@@@std@@YAAAU?$equal_to@V?$basic_string@DU?$char_traits@D@std@@V?$allocator@D@2@@std@@@0@AAU10@@Z 100019b0 f i NetvarManager.obj
 0001:000009b0       ??$forward@AAPAVIClientMode@@@std@@YAAAPAVIClientMode@@AAPAV1@@Z 100019b0 f i c_hooks.obj
 0001:000009b0       ??$forward@V?$_List_unchecked_iterator@V?$_List_val@U?$_List_simple_types@U?$pair@$$CBV?$basic_string@DU?$char_traits@D@std@@V?$allocator@D@2@@std@@V?$shared_ptr@UNode@NetvarTree@@@2@@std@@@std@@@std@@@std@@@std@@YA$$QAV?$_List_unchecked_iterator@V?$_List_val@U?$_List_simple_types@U?$pair@$$CBV?$basic_string@DU?$char_traits@D@std@@V?$allocator@D@2@@std@@V?$shared_ptr@UNode@NetvarTree@@@2@@std@@@std@@@std@@@0@AAV10@@Z 100019b0 f i Aimbot.obj
 0001:000009b0       ??$forward@ABUpiecewise_construct_t@std@@@std@@YAABUpiecewise_construct_t@0@ABU10@@Z 100019b0 f i Aimbot.obj
 0001:000009b0       ??$forward@AAPAVIBaseClientDLL@@@std@@YAAAPAVIBaseClientDLL@@AAPAV1@@Z 100019b0 f i c_hooks.obj
 0001:000009b0       ??$forward@AAPAVShadowVTManager@@@std@@YAAAPAVShadowVTManager@@AAPAV1@@Z 100019b0 f i c_hooks.obj
 0001:000009b0       ??$move@AAV?$_List_unchecked_iterator@V?$_List_val@U?$_List_simple_types@U?$pair@$$CBV?$basic_string@DU?$char_traits@D@std@@V?$allocator@D@2@@std@@V?$shared_ptr@UNode@NetvarTree@@@2@@std@@@std@@@std@@@std@@@std@@YA$$QAV?$_List_unchecked_iterator@V?$_List_val@U?$_List_simple_types@U?$pair@$$CBV?$basic_string@DU?$char_traits@D@std@@V?$allocator@D@2@@std@@V?$shared_ptr@UNode@NetvarTree@@@2@@std@@@std@@@std@@@0@AAV10@@Z 100019b0 f i Aimbot.obj
 0001:000009b0       ??$forward@ABULegitPlayerRecords@@@std@@YAABULegitPlayerRecords@@ABU1@@Z 100019b0 f i Legitbot.obj
 0001:000009b0       ??$addressof@$$CBV?$_List_val@U?$_List_simple_types@U?$pair@$$CBV?$basic_string@DU?$char_traits@D@std@@V?$allocator@D@2@@std@@V?$shared_ptr@UNode@NetvarTree@@@2@@std@@@std@@@std@@@std@@YAPBV?$_List_val@U?$_List_simple_types@U?$pair@$$CBV?$basic_string@DU?$char_traits@D@std@@V?$allocator@D@2@@std@@V?$shared_ptr@UNode@NetvarTree@@@2@@std@@@std@@@0@ABV10@@Z 100019b0 f i Aimbot.obj
 0001:000009b0       ??$_Get_unwrapped@H@std@@YAPAHQAH@Z 100019b0 f i Aimbot.obj
 0001:000009b0       ??$addressof@U?$pair@$$CBV?$basic_string@DU?$char_traits@D@std@@V?$allocator@D@2@@std@@V?$shared_ptr@UNode@NetvarTree@@@2@@std@@@std@@YAPAU?$pair@$$CBV?$basic_string@DU?$char_traits@D@std@@V?$allocator@D@2@@std@@V?$shared_ptr@UNode@NetvarTree@@@2@@0@AAU10@@Z 100019b0 f i c_hooks.obj
 0001:000009c0       ??$_Deallocate@$07$0A@@std@@YAXPAXI@Z 100019c0 f i c_hooks.obj
 0001:000009f0       ??$_Adl_verify_range@V?$_Deque_iterator@V?$_Deque_val@U?$_Deque_simple_types@UPlayerRecords@@@std@@@std@@@std@@V12@@std@@YAXABV?$_Deque_iterator@V?$_Deque_val@U?$_Deque_simple_types@UPlayerRecords@@@std@@@std@@@0@0@Z 100019f0 f i LagComp.obj
 0001:000009f0       ??$_Destroy_range1@V?$allocator@H@std@@@std@@YAXPAH0AAV?$allocator@H@0@U?$integral_constant@_N$00@0@@Z 100019f0 f i Aimbot.obj
 0001:000009f0       ??$_Destroy_range1@V?$allocator@PAUPlayerRecords@@@std@@@std@@YAXPAPAUPlayerRecords@@0AAV?$allocator@PAUPlayerRecords@@@0@U?$integral_constant@_N$00@0@@Z 100019f0 f i LagComp.obj
 0001:000009f0       ??$_Adl_verify_range@V?$_String_iterator@V?$_String_val@U?$_Simple_types@D@std@@@std@@@std@@V12@@std@@YAXABV?$_String_iterator@V?$_String_val@U?$_Simple_types@D@std@@@std@@@0@0@Z 100019f0 f i c_esp.obj
 0001:000009f0       ??$_Destroy_range1@V?$allocator@V?$_List_unchecked_iterator@V?$_List_val@U?$_List_simple_types@U?$pair@$$CBV?$basic_string@DU?$char_traits@D@std@@V?$allocator@D@2@@std@@V?$shared_ptr@UNode@NetvarTree@@@2@@std@@@std@@@std@@@std@@@std@@@std@@YAXPAV?$_List_unchecked_iterator@V?$_List_val@U?$_List_simple_types@U?$pair@$$CBV?$basic_string@DU?$char_traits@D@std@@V?$allocator@D@2@@std@@V?$shared_ptr@UNode@NetvarTree@@@2@@std@@@std@@@std@@@0@0AAV?$allocator@V?$_List_unchecked_iterator@V?$_List_val@U?$_List_simple_types@U?$pair@$$CBV?$basic_string@DU?$char_traits@D@std@@V?$allocator@D@2@@std@@V?$shared_ptr@UNode@NetvarTree@@@2@@std@@@std@@@std@@@std@@@0@U?$integral_constant@_N$00@0@@Z 100019f0 f i c_hooks.obj
 0001:000009f0       ??$_Adl_verify_range@V?$_String_const_iterator@V?$_String_val@U?$_Simple_types@D@std@@@std@@@std@@V12@@std@@YAXABV?$_String_const_iterator@V?$_String_val@U?$_Simple_types@D@std@@@std@@@0@0@Z 100019f0 f i c_esp.obj
 0001:000009f0       ??$destroy@PA_W@?$_Default_allocator_traits@V?$allocator@_W@std@@@std@@SAXAAV?$allocator@_W@1@QAPA_W@Z 100019f0 f i config_system.obj
 0001:000009f0       ??$_Destroy_range1@V?$allocator@PAULegitPlayerRecords@@@std@@@std@@YAXPAPAULegitPlayerRecords@@0AAV?$allocator@PAULegitPlayerRecords@@@0@U?$integral_constant@_N$00@0@@Z 100019f0 f i Legitbot.obj
 0001:000009f0       ?Log@Utils@@SAXABV?$basic_string@DU?$char_traits@D@std@@V?$allocator@D@2@@std@@ZZ 100019f0 f i c_hooks.obj
 0001:000009f0       ??$destroy@PAU?$_List_node@U?$pair@$$CBV?$basic_string@DU?$char_traits@D@std@@V?$allocator@D@2@@std@@V?$shared_ptr@UNode@NetvarTree@@@2@@std@@PAX@std@@@?$_Default_allocator_traits@V?$allocator@U?$_List_node@U?$pair@$$CBV?$basic_string@DU?$char_traits@D@std@@V?$allocator@D@2@@std@@V?$shared_ptr@UNode@NetvarTree@@@2@@std@@PAX@std@@@std@@@std@@SAXAAV?$allocator@U?$_List_node@U?$pair@$$CBV?$basic_string@DU?$char_traits@D@std@@V?$allocator@D@2@@std@@V?$shared_ptr@UNode@NetvarTree@@@2@@std@@PAX@std@@@1@QAPAU?$_List_node@U?$pair@$$CBV?$basic_string@DU?$char_traits@D@std@@V?$allocator@D@2@@std@@V?$shared_ptr@UNode@NetvarTree@@@2@@std@@PAX@1@@Z 100019f0 f i c_hooks.obj
 0001:000009f0       ??$destroy@PAUPlayerRecords@@@?$_Default_allocator_traits@V?$allocator@PAUPlayerRecords@@@std@@@std@@SAXAAV?$allocator@PAUPlayerRecords@@@1@QAPAUPlayerRecords@@@Z 100019f0 f i LagComp.obj
 0001:000009f0       ??$destroy@UPlayerRecords@@@?$_Default_allocator_traits@V?$allocator@UPlayerRecords@@@std@@@std@@SAXAAV?$allocator@UPlayerRecords@@@1@QAUPlayerRecords@@@Z 100019f0 f i LagComp.obj
 0001:000009f0       ??$destroy@PAD@?$_Default_allocator_traits@V?$allocator@D@std@@@std@@SAXAAV?$allocator@D@1@QAPAD@Z 100019f0 f i c_hooks.obj
 0001:000009f0       ??$_Enable_shared_from_this1@UNode@NetvarTree@@U12@@std@@YAXABV?$shared_ptr@UNode@NetvarTree@@@0@PAUNode@NetvarTree@@U?$integral_constant@_N$0A@@0@@Z 100019f0 f i NetvarManager.obj
 0001:000009f0       ?config_tab@@YAXXZ         100019f0 f i menu_system.obj
 0001:000009f0       ??$_Adl_verify_range@PADPAD@std@@YAXABQAD0@Z 100019f0 f i c_esp.obj
 0001:000009f0       ??$destroy@U_Container_proxy@std@@@?$_Default_allocator_traits@V?$allocator@U_Container_proxy@std@@@std@@@std@@SAXAAV?$allocator@U_Container_proxy@std@@@1@QAU_Container_proxy@1@@Z 100019f0 f i LagComp.obj
 0001:000009f0       ??3@YAXPAXUImPlacementNewDummy@@0@Z 100019f0 f i imgui.obj
 0001:000009f0       ??$_Adl_verify_range@V?$_Deque_iterator@V?$_Deque_val@U?$_Deque_simple_types@ULegitPlayerRecords@@@std@@@std@@@std@@V12@@std@@YAXABV?$_Deque_iterator@V?$_Deque_val@U?$_Deque_simple_types@ULegitPlayerRecords@@@std@@@std@@@0@0@Z 100019f0 f i Legitbot.obj
 0001:000009f0       ??$destroy@PAULegitPlayerRecords@@@?$_Default_allocator_traits@V?$allocator@PAULegitPlayerRecords@@@std@@@std@@SAXAAV?$allocator@PAULegitPlayerRecords@@@1@QAPAULegitPlayerRecords@@@Z 100019f0 f i Legitbot.obj
 0001:000009f0       ??$destroy@ULegitPlayerRecords@@@?$_Default_allocator_traits@V?$allocator@ULegitPlayerRecords@@@std@@@std@@SAXAAV?$allocator@ULegitPlayerRecords@@@1@QAULegitPlayerRecords@@@Z 100019f0 f i Legitbot.obj
 0001:00000a00       ??$_Destroy_range@V?$allocator@H@std@@@std@@YAXPAH0AAV?$allocator@H@0@@Z 10001a00 f i Aimbot.obj
 0001:00000a00       ??$_Destroy_range@V?$allocator@V?$_List_unchecked_iterator@V?$_List_val@U?$_List_simple_types@U?$pair@$$CBV?$basic_string@DU?$char_traits@D@std@@V?$allocator@D@2@@std@@V?$shared_ptr@UNode@NetvarTree@@@2@@std@@@std@@@std@@@std@@@std@@@std@@YAXPAV?$_List_unchecked_iterator@V?$_List_val@U?$_List_simple_types@U?$pair@$$CBV?$basic_string@DU?$char_traits@D@std@@V?$allocator@D@2@@std@@V?$shared_ptr@UNode@NetvarTree@@@2@@std@@@std@@@std@@@0@0AAV?$allocator@V?$_List_unchecked_iterator@V?$_List_val@U?$_List_simple_types@U?$pair@$$CBV?$basic_string@DU?$char_traits@D@std@@V?$allocator@D@2@@std@@V?$shared_ptr@UNode@NetvarTree@@@2@@std@@@std@@@std@@@std@@@0@@Z 10001a00 f i c_hooks.obj
 0001:00000a00       ??$_Destroy_range@V?$allocator@PAULegitPlayerRecords@@@std@@@std@@YAXPAPAULegitPlayerRecords@@0AAV?$allocator@PAULegitPlayerRecords@@@0@@Z 10001a00 f i Legitbot.obj
 0001:00000a00       ??$_Destroy_range@V?$allocator@PAUPlayerRecords@@@std@@@std@@YAXPAPAUPlayerRecords@@0AAV?$allocator@PAUPlayerRecords@@@0@@Z 10001a00 f i LagComp.obj
 0001:00000a30       ??$_Freenode0@V?$allocator@U?$_List_node@U?$pair@$$CBV?$basic_string@DU?$char_traits@D@std@@V?$allocator@D@2@@std@@V?$shared_ptr@UNode@NetvarTree@@@2@@std@@PAX@std@@@std@@@?$_List_node@U?$pair@$$CBV?$basic_string@DU?$char_traits@D@std@@V?$allocator@D@2@@std@@V?$shared_ptr@UNode@NetvarTree@@@2@@std@@PAX@std@@SAXAAV?$allocator@U?$_List_node@U?$pair@$$CBV?$basic_string@DU?$char_traits@D@std@@V?$allocator@D@2@@std@@V?$shared_ptr@UNode@NetvarTree@@@2@@std@@PAX@std@@@1@PAU01@@Z 10001a30 f i c_hooks.obj
 0001:00000ab0       ??$_Max_value@I@std@@YAABIABI0@Z 10001ab0 f i c_hooks.obj
 0001:00000ae0       ??$_Min_value@I@std@@YAABIABI0@Z 10001ae0 f i c_hooks.obj
 0001:00000b10       ??$_Reallocate_for@V<lambda_9366063389c5f42a00a5088cf24e69de>@@PBD@?$basic_string@DU?$char_traits@D@std@@V?$allocator@D@2@@std@@QAEAAV01@IV<lambda_9366063389c5f42a00a5088cf24e69de>@@PBD@Z 10001b10 f i c_hooks.obj
 0001:00000bf0       ??$construct@PADABQAD@?$_Default_allocator_traits@V?$allocator@D@std@@@std@@SAXAAV?$allocator@D@1@QAPADABQAD@Z 10001bf0 f i c_hooks.obj
 0001:00000bf0       ??$construct@HH@?$_Default_allocator_traits@V?$allocator@H@std@@@std@@SAXAAV?$allocator@H@1@QAH$$QAH@Z 10001bf0 f i Aimbot.obj
 0001:00000bf0       ??$construct@PAU?$_List_node@U?$pair@$$CBV?$basic_string@DU?$char_traits@D@std@@V?$allocator@D@2@@std@@V?$shared_ptr@UNode@NetvarTree@@@2@@std@@PAX@std@@AAPAU12@@?$_Default_allocator_traits@V?$allocator@U?$_List_node@U?$pair@$$CBV?$basic_string@DU?$char_traits@D@std@@V?$allocator@D@2@@std@@V?$shared_ptr@UNode@NetvarTree@@@2@@std@@PAX@std@@@std@@@std@@SAXAAV?$allocator@U?$_List_node@U?$pair@$$CBV?$basic_string@DU?$char_traits@D@std@@V?$allocator@D@2@@std@@V?$shared_ptr@UNode@NetvarTree@@@2@@std@@PAX@std@@@1@QAPAU?$_List_node@U?$pair@$$CBV?$basic_string@DU?$char_traits@D@std@@V?$allocator@D@2@@std@@V?$shared_ptr@UNode@NetvarTree@@@2@@std@@PAX@1@AAPAU31@@Z 10001bf0 f i Aimbot.obj
 0001:00000c20       ??$destroy@U?$pair@$$CBV?$basic_string@DU?$char_traits@D@std@@V?$allocator@D@2@@std@@V?$shared_ptr@UNode@NetvarTree@@@2@@std@@@?$_Default_allocator_traits@V?$allocator@U?$_List_node@U?$pair@$$CBV?$basic_string@DU?$char_traits@D@std@@V?$allocator@D@2@@std@@V?$shared_ptr@UNode@NetvarTree@@@2@@std@@PAX@std@@@std@@@std@@SAXAAV?$allocator@U?$_List_node@U?$pair@$$CBV?$basic_string@DU?$char_traits@D@std@@V?$allocator@D@2@@std@@V?$shared_ptr@UNode@NetvarTree@@@2@@std@@PAX@std@@@1@QAU?$pair@$$CBV?$basic_string@DU?$char_traits@D@std@@V?$allocator@D@2@@std@@V?$shared_ptr@UNode@NetvarTree@@@2@@1@@Z 10001c20 f i c_hooks.obj
 0001:00000c30       ??$make_unique@$$BY0A@I$0A@@std@@YA?AV?$unique_ptr@$$BY0A@IU?$default_delete@$$BY0A@I@std@@@0@I@Z 10001c30 f i c_hooks.obj
 0001:00000cb0       ??$make_unique@VNetvarTree@@$$V$0A@@std@@YA?AV?$unique_ptr@VNetvarTree@@U?$default_delete@VNetvarTree@@@std@@@0@XZ 10001cb0 f i c_hooks.obj
 0001:00000d40       ??$make_unique@VVMTHook@@AAPAVIBaseClientDLL@@$0A@@std@@YA?AV?$unique_ptr@VVMTHook@@U?$default_delete@VVMTHook@@@std@@@0@AAPAVIBaseClientDLL@@@Z 10001d40 f i c_hooks.obj
 0001:00000d40       ??$make_unique@VVMTHook@@AAPAVISurface@@$0A@@std@@YA?AV?$unique_ptr@VVMTHook@@U?$default_delete@VVMTHook@@@std@@@0@AAPAVISurface@@@Z 10001d40 f i c_hooks.obj
 0001:00000d40       ??$make_unique@VVMTHook@@AAPAVIPanel@@$0A@@std@@YA?AV?$unique_ptr@VVMTHook@@U?$default_delete@VVMTHook@@@std@@@0@AAPAVIPanel@@@Z 10001d40 f i c_hooks.obj
 0001:00000d40       ??$make_unique@VVMTHook@@AAPAVCModelRender@@$0A@@std@@YA?AV?$unique_ptr@VVMTHook@@U?$default_delete@VVMTHook@@@std@@@0@AAPAVCModelRender@@@Z 10001d40 f i c_hooks.obj
 0001:00000d40       ??$make_unique@VVMTHook@@AAPAVIVRenderView@@$0A@@std@@YA?AV?$unique_ptr@VVMTHook@@U?$default_delete@VVMTHook@@@std@@@0@AAPAVIVRenderView@@@Z 10001d40 f i c_hooks.obj
 0001:00000d40       ??$make_unique@VVMTHook@@PAPAK$0A@@std@@YA?AV?$unique_ptr@VVMTHook@@U?$default_delete@VVMTHook@@@std@@@0@$$QAPAPAK@Z 10001d40 f i c_hooks.obj
 0001:00000d40       ??$make_unique@VVMTHook@@AAPAVIClientMode@@$0A@@std@@YA?AV?$unique_ptr@VVMTHook@@U?$default_delete@VVMTHook@@@std@@@0@AAPAVIClientMode@@@Z 10001d40 f i c_hooks.obj
 0001:00000df0       ??$reset@PAIX@?$unique_ptr@$$BY0A@IU?$default_delete@$$BY0A@I@std@@@std@@QAEXPAI@Z 10001df0 f i c_hooks.obj
 0001:00000e40       ??0?$_String_alloc@U?$_String_base_types@_WV?$allocator@_W@std@@@std@@@std@@QAE@XZ 10001e40 f i config_system.obj
 0001:00000e40       ??0?$_String_alloc@U?$_String_base_types@DV?$allocator@D@std@@@std@@@std@@QAE@XZ 10001e40 f i c_hooks.obj
 0001:00000e70       ??0?$_String_val@U?$_Simple_types@_W@std@@@std@@QAE@XZ 10001e70 f i config_system.obj
 0001:00000e70       ??0?$_String_val@U?$_Simple_types@D@std@@@std@@QAE@XZ 10001e70 f i c_hooks.obj
 0001:00000ea0       ?_Get_first@?$_Compressed_pair@U?$equal_to@V?$basic_string@DU?$char_traits@D@std@@V?$allocator@D@2@@std@@@std@@M$00@std@@QBEABU?$equal_to@V?$basic_string@DU?$char_traits@D@std@@V?$allocator@D@2@@std@@@2@XZ 10001ea0 f i Aimbot.obj
 0001:00000ea0       ?_Get_second@?$_Compressed_pair@U?$default_delete@VNetvarTree@@@std@@PAVNetvarTree@@$00@std@@QBEABQAVNetvarTree@@XZ 10001ea0 f i c_hooks.obj
 0001:00000ea0       ?_Get_first@?$_Compressed_pair@V?$allocator@U?$_List_node@U?$pair@$$CBV?$basic_string@DU?$char_traits@D@std@@V?$allocator@D@2@@std@@V?$shared_ptr@UNode@NetvarTree@@@2@@std@@PAX@std@@@std@@V?$_List_val@U?$_List_simple_types@U?$pair@$$CBV?$basic_string@DU?$char_traits@D@std@@V?$allocator@D@2@@std@@V?$shared_ptr@UNode@NetvarTree@@@2@@std@@@std@@@2@$00@std@@QBEABV?$allocator@U?$_List_node@U?$pair@$$CBV?$basic_string@DU?$char_traits@D@std@@V?$allocator@D@2@@std@@V?$shared_ptr@UNode@NetvarTree@@@2@@std@@PAX@std@@@2@XZ 10001ea0 f i Aimbot.obj
 0001:00000ea0       ?_Get_first@?$_Compressed_pair@U?$default_delete@VVMTHook@@@std@@PAVVMTHook@@$00@std@@QAEAAU?$default_delete@VVMTHook@@@2@XZ 10001ea0 f i c_hooks.obj
 0001:00000ea0       ?_Get_second@?$_Compressed_pair@U?$default_delete@V_Facet_base@std@@@std@@PAV_Facet_base@2@$00@std@@QAEAAPAV_Facet_base@2@XZ 10001ea0 f i config_system.obj
 0001:00000ea0       ??0?$allocator@_W@std@@QAE@XZ 10001ea0 f i config_system.obj
 0001:00000ea0       ?_Get_first@?$_Compressed_pair@U?$default_delete@$$BY0A@I@std@@PAI$00@std@@QAEAAU?$default_delete@$$BY0A@I@2@XZ 10001ea0 f i c_hooks.obj
 0001:00000ea0       ?_Get_second@?$_Compressed_pair@V?$allocator@ULegitPlayerRecords@@@std@@V?$_Deque_val@U?$_Deque_simple_types@ULegitPlayerRecords@@@std@@@2@$00@std@@QAEAAV?$_Deque_val@U?$_Deque_simple_types@ULegitPlayerRecords@@@std@@@2@XZ 10001ea0 f i Legitbot.obj
 0001:00000ea0       ?_Get_second@?$_Compressed_pair@V?$allocator@U?$_List_node@U?$pair@$$CBV?$basic_string@DU?$char_traits@D@std@@V?$allocator@D@2@@std@@V?$shared_ptr@UNode@NetvarTree@@@2@@std@@PAX@std@@@std@@V?$_List_val@U?$_List_simple_types@U?$pair@$$CBV?$basic_string@DU?$char_traits@D@std@@V?$allocator@D@2@@std@@V?$shared_ptr@UNode@NetvarTree@@@2@@std@@@std@@@2@$00@std@@QBEABV?$_List_val@U?$_List_simple_types@U?$pair@$$CBV?$basic_string@DU?$char_traits@D@std@@V?$allocator@D@2@@std@@V?$shared_ptr@UNode@NetvarTree@@@2@@std@@@std@@@2@XZ 10001ea0 f i Aimbot.obj
 0001:00000ea0       ?_Get_first@?$_Compressed_pair@V?$allocator@V?$_List_unchecked_iterator@V?$_List_val@U?$_List_simple_types@U?$pair@$$CBV?$basic_string@DU?$char_traits@D@std@@V?$allocator@D@2@@std@@V?$shared_ptr@UNode@NetvarTree@@@2@@std@@@std@@@std@@@std@@@std@@V?$_Vector_val@U?$_Simple_types@V?$_List_unchecked_iterator@V?$_List_val@U?$_List_simple_types@U?$pair@$$CBV?$basic_string@DU?$char_traits@D@std@@V?$allocator@D@2@@std@@V?$shared_ptr@UNode@NetvarTree@@@2@@std@@@std@@@std@@@std@@@std@@@2@$00@std@@QBEABV?$allocator@V?$_List_unchecked_iterator@V?$_List_val@U?$_List_simple_types@U?$pair@$$CBV?$basic_string@DU?$char_traits@D@std@@V?$allocator@D@2@@std@@V?$shared_ptr@UNode@NetvarTree@@@2@@std@@@std@@@std@@@std@@@2@XZ 10001ea0 f i Aimbot.obj
 0001:00000ea0       ??0matrix3x4_t@@QAE@XZ     10001ea0 f i Aimbot.obj
 0001:00000ea0       ?_Get_second@?$_Compressed_pair@U?$default_delete@VVMTHook@@@std@@PAVVMTHook@@$00@std@@QAEAAPAVVMTHook@@XZ 10001ea0 f i c_hooks.obj
 0001:00000ea0       ??0Vector2D@@QAE@XZ        10001ea0 f i Legitbot.obj
 0001:00000ea0       ?_Get_second@?$_Compressed_pair@U?$default_delete@V_Facet_base@std@@@std@@PAV_Facet_base@2@$00@std@@QBEABQAV_Facet_base@2@XZ 10001ea0 f i config_system.obj
 0001:00000ea0       ?_Get_first@?$_Compressed_pair@V?$allocator@_W@std@@V?$_String_val@U?$_Simple_types@_W@std@@@2@$00@std@@QAEAAV?$allocator@_W@2@XZ 10001ea0 f i config_system.obj
 0001:00000ea0       ?_Get_second@?$_Compressed_pair@V?$allocator@V?$_List_unchecked_iterator@V?$_List_val@U?$_List_simple_types@U?$pair@$$CBV?$basic_string@DU?$char_traits@D@std@@V?$allocator@D@2@@std@@V?$shared_ptr@UNode@NetvarTree@@@2@@std@@@std@@@std@@@std@@@std@@V?$_Vector_val@U?$_Simple_types@V?$_List_unchecked_iterator@V?$_List_val@U?$_List_simple_types@U?$pair@$$CBV?$basic_string@DU?$char_traits@D@std@@V?$allocator@D@2@@std@@V?$shared_ptr@UNode@NetvarTree@@@2@@std@@@std@@@std@@@std@@@std@@@2@$00@std@@QAEAAV?$_Vector_val@U?$_Simple_types@V?$_List_unchecked_iterator@V?$_List_val@U?$_List_simple_types@U?$pair@$$CBV?$basic_string@DU?$char_traits@D@std@@V?$allocator@D@2@@std@@V?$shared_ptr@UNode@NetvarTree@@@2@@std@@@std@@@std@@@std@@@std@@@2@XZ 10001ea0 f i c_hooks.obj
 0001:00000ea0       ??0?$allocator@D@std@@QAE@XZ 10001ea0 f i c_hooks.obj
 0001:00000ea0       ??0?$allocator@ULegitPlayerRecords@@@std@@QAE@XZ 10001ea0 f i Legitbot.obj
 0001:00000ea0       ?_Get_first@?$_Compressed_pair@V?$allocator@U?$_List_node@U?$pair@$$CBV?$basic_string@DU?$char_traits@D@std@@V?$allocator@D@2@@std@@V?$shared_ptr@UNode@NetvarTree@@@2@@std@@PAX@std@@@std@@V?$_List_val@U?$_List_simple_types@U?$pair@$$CBV?$basic_string@DU?$char_traits@D@std@@V?$allocator@D@2@@std@@V?$shared_ptr@UNode@NetvarTree@@@2@@std@@@std@@@2@$00@std@@QAEAAV?$allocator@U?$_List_node@U?$pair@$$CBV?$basic_string@DU?$char_traits@D@std@@V?$allocator@D@2@@std@@V?$shared_ptr@UNode@NetvarTree@@@2@@std@@PAX@std@@@2@XZ 10001ea0 f i c_hooks.obj
 0001:00000ea0       ?_Get_second@?$_Compressed_pair@V?$allocator@H@std@@V?$_Vector_val@U?$_Simple_types@H@std@@@2@$00@std@@QBEABV?$_Vector_val@U?$_Simple_types@H@std@@@2@XZ 10001ea0 f i Aimbot.obj
 0001:00000ea0       ??0?$allocator@H@std@@QAE@XZ 10001ea0 f i Aimbot.obj
 0001:00000ea0       ??0?$allocator@UPlayerRecords@@@std@@QAE@XZ 10001ea0 f i LagComp.obj
 0001:00000ea0       ?_Get_first@?$_Compressed_pair@U?$default_delete@VNetvarTree@@@std@@PAVNetvarTree@@$00@std@@QAEAAU?$default_delete@VNetvarTree@@@2@XZ 10001ea0 f i c_hooks.obj
 0001:00000ea0       ?_Get_second@?$_Compressed_pair@V?$allocator@_W@std@@V?$_String_val@U?$_Simple_types@_W@std@@@2@$00@std@@QAEAAV?$_String_val@U?$_Simple_types@_W@std@@@2@XZ 10001ea0 f i config_system.obj
 0001:00000ea0       ?_Get_first@?$_Compressed_pair@V?$allocator@UPlayerRecords@@@std@@V?$_Deque_val@U?$_Deque_simple_types@UPlayerRecords@@@std@@@2@$00@std@@QAEAAV?$allocator@UPlayerRecords@@@2@XZ 10001ea0 f i LagComp.obj
 0001:00000ea0       ?_Get_second@?$_Compressed_pair@U?$equal_to@V?$basic_string@DU?$char_traits@D@std@@V?$allocator@D@2@@std@@@std@@M$00@std@@QAEAAMXZ 10001ea0 f i NetvarManager.obj
 0001:00000ea0       ?_Get_second@?$_Compressed_pair@V?$allocator@V?$basic_string@DU?$char_traits@D@std@@V?$allocator@D@2@@std@@@std@@V?$_Vector_val@U?$_Simple_types@V?$basic_string@DU?$char_traits@D@std@@V?$allocator@D@2@@std@@@std@@@2@$00@std@@QBEABV?$_Vector_val@U?$_Simple_types@V?$basic_string@DU?$char_traits@D@std@@V?$allocator@D@2@@std@@@std@@@2@XZ 10001ea0 f i config_system.obj
 0001:00000ea0       ?_Get_second@?$_Compressed_pair@U?$hash@V?$basic_string@DU?$char_traits@D@std@@V?$allocator@D@2@@std@@@std@@V?$_Compressed_pair@U?$equal_to@V?$basic_string@DU?$char_traits@D@std@@V?$allocator@D@2@@std@@@std@@M$00@2@$00@std@@QBEABV?$_Compressed_pair@U?$equal_to@V?$basic_string@DU?$char_traits@D@std@@V?$allocator@D@2@@std@@@std@@M$00@2@XZ 10001ea0 f i Aimbot.obj
 0001:00000ea0       ?_Get_second@?$_Compressed_pair@V?$allocator@UPlayerRecords@@@std@@V?$_Deque_val@U?$_Deque_simple_types@UPlayerRecords@@@std@@@2@$00@std@@QAEAAV?$_Deque_val@U?$_Deque_simple_types@UPlayerRecords@@@std@@@2@XZ 10001ea0 f i Aimbot.obj
 0001:00000ea0       ?_Get_first@?$_Compressed_pair@V?$allocator@V?$_List_unchecked_iterator@V?$_List_val@U?$_List_simple_types@U?$pair@$$CBV?$basic_string@DU?$char_traits@D@std@@V?$allocator@D@2@@std@@V?$shared_ptr@UNode@NetvarTree@@@2@@std@@@std@@@std@@@std@@@std@@V?$_Vector_val@U?$_Simple_types@V?$_List_unchecked_iterator@V?$_List_val@U?$_List_simple_types@U?$pair@$$CBV?$basic_string@DU?$char_traits@D@std@@V?$allocator@D@2@@std@@V?$shared_ptr@UNode@NetvarTree@@@2@@std@@@std@@@std@@@std@@@std@@@2@$00@std@@QAEAAV?$allocator@V?$_List_unchecked_iterator@V?$_List_val@U?$_List_simple_types@U?$pair@$$CBV?$basic_string@DU?$char_traits@D@std@@V?$allocator@D@2@@std@@V?$shared_ptr@UNode@NetvarTree@@@2@@std@@@std@@@std@@@std@@@2@XZ 10001ea0 f i c_hooks.obj
 0001:00000ea0       ?_Get_first@?$_Compressed_pair@U?$default_delete@V_Facet_base@std@@@std@@PAV_Facet_base@2@$00@std@@QAEAAU?$default_delete@V_Facet_base@std@@@2@XZ 10001ea0 f i config_system.obj
 0001:00000ea0       ?_Get_first@?$_Compressed_pair@V?$allocator@H@std@@V?$_Vector_val@U?$_Simple_types@H@std@@@2@$00@std@@QBEABV?$allocator@H@2@XZ 10001ea0 f i Aimbot.obj
 0001:00000ea0       ?_Get_first@?$_Compressed_pair@V?$allocator@D@std@@V?$_String_val@U?$_Simple_types@D@std@@@2@$00@std@@QBEABV?$allocator@D@2@XZ 10001ea0 f i c_hooks.obj
 0001:00000ea0       ?_Get_second@?$_Compressed_pair@U?$default_delete@VVMTHook@@@std@@PAVVMTHook@@$00@std@@QBEABQAVVMTHook@@XZ 10001ea0 f i c_hooks.obj
 0001:00000ea0       ??0_Bxty@?$_String_val@U?$_Simple_types@D@std@@@std@@QAE@XZ 10001ea0 f i c_hooks.obj
 0001:00000ea0       ?_Get_second@?$_Compressed_pair@U?$hash@V?$basic_string@DU?$char_traits@D@std@@V?$allocator@D@2@@std@@@std@@V?$_Compressed_pair@U?$equal_to@V?$basic_string@DU?$char_traits@D@std@@V?$allocator@D@2@@std@@@std@@M$00@2@$00@std@@QAEAAV?$_Compressed_pair@U?$equal_to@V?$basic_string@DU?$char_traits@D@std@@V?$allocator@D@2@@std@@@std@@M$00@2@XZ 10001ea0 f i NetvarManager.obj
 0001:00000ea0       ?_Get_second@?$_Compressed_pair@U?$default_delete@$$BY0A@I@std@@PAI$00@std@@QAEAAPAIXZ 10001ea0 f i c_hooks.obj
 0001:00000ea0       ?_Get_second@?$_Compressed_pair@V?$allocator@ULegitPlayerRecords@@@std@@V?$_Deque_val@U?$_Deque_simple_types@ULegitPlayerRecords@@@std@@@2@$00@std@@QBEABV?$_Deque_val@U?$_Deque_simple_types@ULegitPlayerRecords@@@std@@@2@XZ 10001ea0 f i Legitbot.obj
 0001:00000ea0       ?_Get_first@?$_Compressed_pair@V?$allocator@H@std@@V?$_Vector_val@U?$_Simple_types@H@std@@@2@$00@std@@QAEAAV?$allocator@H@2@XZ 10001ea0 f i Aimbot.obj
 0001:00000ea0       ?_Get_second@?$_Compressed_pair@V?$allocator@H@std@@V?$_Vector_val@U?$_Simple_types@H@std@@@2@$00@std@@QAEAAV?$_Vector_val@U?$_Simple_types@H@std@@@2@XZ 10001ea0 f i Aimbot.obj
 0001:00000ea0       ??0?$tuple@$$V@std@@QAE@XZ 10001ea0 f i Aimbot.obj
 0001:00000ea0       ?_Get_second@?$_Compressed_pair@U?$equal_to@V?$basic_string@DU?$char_traits@D@std@@V?$allocator@D@2@@std@@@std@@M$00@std@@QBEABMXZ 10001ea0 f i Aimbot.obj
 0001:00000ea0       ??0Vector@@QAE@XZ          10001ea0 f i Aimbot.obj
 0001:00000ea0       ?_Get_second@?$_Compressed_pair@V?$allocator@V?$_List_unchecked_iterator@V?$_List_val@U?$_List_simple_types@U?$pair@$$CBV?$basic_string@DU?$char_traits@D@std@@V?$allocator@D@2@@std@@V?$shared_ptr@UNode@NetvarTree@@@2@@std@@@std@@@std@@@std@@@std@@V?$_Vector_val@U?$_Simple_types@V?$_List_unchecked_iterator@V?$_List_val@U?$_List_simple_types@U?$pair@$$CBV?$basic_string@DU?$char_traits@D@std@@V?$allocator@D@2@@std@@V?$shared_ptr@UNode@NetvarTree@@@2@@std@@@std@@@std@@@std@@@std@@@2@$00@std@@QBEABV?$_Vector_val@U?$_Simple_types@V?$_List_unchecked_iterator@V?$_List_val@U?$_List_simple_types@U?$pair@$$CBV?$basic_string@DU?$char_traits@D@std@@V?$allocator@D@2@@std@@V?$shared_ptr@UNode@NetvarTree@@@2@@std@@@std@@@std@@@std@@@std@@@2@XZ 10001ea0 f i c_hooks.obj
 0001:00000ea0       ?_Get_first@?$_Compressed_pair@U?$hash@V?$basic_string@DU?$char_traits@D@std@@V?$allocator@D@2@@std@@@std@@V?$_Compressed_pair@U?$equal_to@V?$basic_string@DU?$char_traits@D@std@@V?$allocator@D@2@@std@@@std@@M$00@2@$00@std@@QBEABU?$hash@V?$basic_string@DU?$char_traits@D@std@@V?$allocator@D@2@@std@@@2@XZ 10001ea0 f i Aimbot.obj
 0001:00000ea0       ?_Get_first@?$_Compressed_pair@V?$allocator@V?$basic_string@DU?$char_traits@D@std@@V?$allocator@D@2@@std@@@std@@V?$_Vector_val@U?$_Simple_types@V?$basic_string@DU?$char_traits@D@std@@V?$allocator@D@2@@std@@@std@@@2@$00@std@@QAEAAV?$allocator@V?$basic_string@DU?$char_traits@D@std@@V?$allocator@D@2@@std@@@2@XZ 10001ea0 f i config_system.obj
 0001:00000ea0       ?_Get_second@?$_Compressed_pair@V?$allocator@D@std@@V?$_String_val@U?$_Simple_types@D@std@@@2@$00@std@@QAEAAV?$_String_val@U?$_Simple_types@D@std@@@2@XZ 10001ea0 f i c_hooks.obj
 0001:00000ea0       ?_Get_second@?$_Compressed_pair@U?$default_delete@VNetvarTree@@@std@@PAVNetvarTree@@$00@std@@QAEAAPAVNetvarTree@@XZ 10001ea0 f i c_hooks.obj
 0001:00000ea0       ?_Get_second@?$_Compressed_pair@U?$default_delete@VShadowVTManager@@@std@@PAVShadowVTManager@@$00@std@@QBEABQAVShadowVTManager@@XZ 10001ea0 f i c_hooks.obj
 0001:00000ea0       ??0?$allocator@V?$basic_string@DU?$char_traits@D@std@@V?$allocator@D@2@@std@@@std@@QAE@XZ 10001ea0 f i config_system.obj
 0001:00000ea0       ?_Get_second@?$_Compressed_pair@V?$allocator@V?$basic_string@DU?$char_traits@D@std@@V?$allocator@D@2@@std@@@std@@V?$_Vector_val@U?$_Simple_types@V?$basic_string@DU?$char_traits@D@std@@V?$allocator@D@2@@std@@@std@@@2@$00@std@@QAEAAV?$_Vector_val@U?$_Simple_types@V?$basic_string@DU?$char_traits@D@std@@V?$allocator@D@2@@std@@@std@@@2@XZ 10001ea0 f i config_system.obj
 0001:00000ea0       ?_Get_first@?$_Compressed_pair@V?$allocator@ULegitPlayerRecords@@@std@@V?$_Deque_val@U?$_Deque_simple_types@ULegitPlayerRecords@@@std@@@2@$00@std@@QBEABV?$allocator@ULegitPlayerRecords@@@2@XZ 10001ea0 f i Legitbot.obj
 0001:00000ea0       ?_Get_first@?$_Compressed_pair@V?$allocator@D@std@@V?$_String_val@U?$_Simple_types@D@std@@@2@$00@std@@QAEAAV?$allocator@D@2@XZ 10001ea0 f i c_hooks.obj
 0001:00000ea0       ??0_Bxty@?$_String_val@U?$_Simple_types@_W@std@@@std@@QAE@XZ 10001ea0 f i config_system.obj
 0001:00000ea0       ?_Get_second@?$_Compressed_pair@V?$allocator@D@std@@V?$_String_val@U?$_Simple_types@D@std@@@2@$00@std@@QBEABV?$_String_val@U?$_Simple_types@D@std@@@2@XZ 10001ea0 f i c_hooks.obj
 0001:00000ea0       ?_Get_first@?$_Compressed_pair@U?$default_delete@VShadowVTManager@@@std@@PAVShadowVTManager@@$00@std@@QAEAAU?$default_delete@VShadowVTManager@@@2@XZ 10001ea0 f i c_hooks.obj
 0001:00000ea0       ?_Get_first@?$_Compressed_pair@V?$allocator@UPlayerRecords@@@std@@V?$_Deque_val@U?$_Deque_simple_types@UPlayerRecords@@@std@@@2@$00@std@@QBEABV?$allocator@UPlayerRecords@@@2@XZ 10001ea0 f i LagComp.obj
 0001:00000ea0       ??0?$allocator@U?$pair@$$CBV?$basic_string@DU?$char_traits@D@std@@V?$allocator@D@2@@std@@V?$shared_ptr@UNode@NetvarTree@@@2@@std@@@std@@QAE@XZ 10001ea0 f i NetvarManager.obj
 0001:00000ea0       ?_Get_first@?$_Compressed_pair@V?$allocator@ULegitPlayerRecords@@@std@@V?$_Deque_val@U?$_Deque_simple_types@ULegitPlayerRecords@@@std@@@2@$00@std@@QAEAAV?$allocator@ULegitPlayerRecords@@@2@XZ 10001ea0 f i Legitbot.obj
 0001:00000ea0       ?_Get_second@?$_Compressed_pair@V?$allocator@U?$_List_node@U?$pair@$$CBV?$basic_string@DU?$char_traits@D@std@@V?$allocator@D@2@@std@@V?$shared_ptr@UNode@NetvarTree@@@2@@std@@PAX@std@@@std@@V?$_List_val@U?$_List_simple_types@U?$pair@$$CBV?$basic_string@DU?$char_traits@D@std@@V?$allocator@D@2@@std@@V?$shared_ptr@UNode@NetvarTree@@@2@@std@@@std@@@2@$00@std@@QAEAAV?$_List_val@U?$_List_simple_types@U?$pair@$$CBV?$basic_string@DU?$char_traits@D@std@@V?$allocator@D@2@@std@@V?$shared_ptr@UNode@NetvarTree@@@2@@std@@@std@@@2@XZ 10001ea0 f i c_hooks.obj
 0001:00000ea0       ?_Get_second@?$_Compressed_pair@U?$default_delete@$$BY0A@I@std@@PAI$00@std@@QBEABQAIXZ 10001ea0 f i c_hooks.obj
 0001:00000ea0       ?_Get_second@?$_Compressed_pair@V?$allocator@UPlayerRecords@@@std@@V?$_Deque_val@U?$_Deque_simple_types@UPlayerRecords@@@std@@@2@$00@std@@QBEABV?$_Deque_val@U?$_Deque_simple_types@UPlayerRecords@@@std@@@2@XZ 10001ea0 f i Aimbot.obj
 0001:00000eb0       ??0?$basic_string@DU?$char_traits@D@std@@V?$allocator@D@2@@std@@QAE@QBD@Z 10001eb0 f i c_hooks.obj
 0001:00000f20       ??0Event@@QAE@XZ           10001f20 f i c_hooks.obj
 0001:00000f50       ??0IGameEventListener@@QAE@XZ 10001f50 f i c_hooks.obj
 0001:00000f70       ??0ProtectGuard@@QAE@PAXII@Z 10001f70 f i c_hooks.obj
 0001:00000fd0       ??0VMTHook@@QAE@PAX@Z      10001fd0 f i c_hooks.obj
 0001:000010f0       ??0Vector2D@@QAE@MM@Z      100020f0 f i c_hooks.obj
 0001:000010f0       ??0ImVec2@@QAE@MM@Z        100020f0 f i imgui_impl_dx9.obj
 0001:00001120       ??0c_hooks@@QAE@XZ         10002120 f i c_hooks.obj
 0001:000011f0       ??0exception@std@@QAE@ABV01@@Z 100021f0 f i c_hooks.obj
 0001:00001230       ??0exception@std@@QAE@QBD@Z 10002230 f i c_hooks.obj
 0001:00001280       ??0runtime_error@std@@QAE@ABV01@@Z 10002280 f i c_hooks.obj
 0001:000012b0       ??0runtime_error@std@@QAE@PBD@Z 100022b0 f i c_hooks.obj
 0001:000012e0       ??1?$_Deque_iterator@V?$_Deque_val@U?$_Deque_simple_types@ULegitPlayerRecords@@@std@@@std@@@std@@QAE@XZ 100022e0 f i Legitbot.obj
 0001:000012e0       ??1?$_Compressed_pair@V?$allocator@D@std@@V?$_String_val@U?$_Simple_types@D@std@@@2@$00@std@@QAE@XZ 100022e0 f i c_hooks.obj
 0001:000012e0       ??1?$_Deque_iterator@V?$_Deque_val@U?$_Deque_simple_types@UPlayerRecords@@@std@@@std@@@std@@QAE@XZ 100022e0 f i Aimbot.obj
 0001:000012e0       ??1?$_Compressed_pair@V?$allocator@_W@std@@V?$_String_val@U?$_Simple_types@_W@std@@@2@$00@std@@QAE@XZ 100022e0 f i config_system.obj
 0001:00001300       ??1?$_Hash@V?$_Umap_traits@V?$basic_string@DU?$char_traits@D@std@@V?$allocator@D@2@@std@@V?$shared_ptr@UNode@NetvarTree@@@2@V?$_Uhash_compare@V?$basic_string@DU?$char_traits@D@std@@V?$allocator@D@2@@std@@U?$hash@V?$basic_string@DU?$char_traits@D@std@@V?$allocator@D@2@@std@@@2@U?$equal_to@V?$basic_string@DU?$char_traits@D@std@@V?$allocator@D@2@@std@@@2@@2@V?$allocator@U?$pair@$$CBV?$basic_string@DU?$char_traits@D@std@@V?$allocator@D@2@@std@@V?$shared_ptr@UNode@NetvarTree@@@2@@std@@@2@$0A@@std@@@std@@QAE@XZ 10002300 f i c_hooks.obj
 0001:00001330       ??1?$_List_alloc@U?$_List_base_types@U?$pair@$$CBV?$basic_string@DU?$char_traits@D@std@@V?$allocator@D@2@@std@@V?$shared_ptr@UNode@NetvarTree@@@2@@std@@V?$allocator@U?$pair@$$CBV?$basic_string@DU?$char_traits@D@std@@V?$allocator@D@2@@std@@V?$shared_ptr@UNode@NetvarTree@@@2@@std@@@2@@std@@@std@@QAE@XZ 10002330 f i c_hooks.obj
 0001:00001380       ??1?$_List_buy@U?$pair@$$CBV?$basic_string@DU?$char_traits@D@std@@V?$allocator@D@2@@std@@V?$shared_ptr@UNode@NetvarTree@@@2@@std@@V?$allocator@U?$pair@$$CBV?$basic_string@DU?$char_traits@D@std@@V?$allocator@D@2@@std@@V?$shared_ptr@UNode@NetvarTree@@@2@@std@@@2@@std@@QAE@XZ 10002380 f i c_hooks.obj
 0001:000013a0       ??1?$_String_alloc@U?$_String_base_types@DV?$allocator@D@std@@@std@@@std@@QAE@XZ 100023a0 f i c_hooks.obj
 0001:000013a0       ??1?$_String_alloc@U?$_String_base_types@_WV?$allocator@_W@std@@@std@@@std@@QAE@XZ 100023a0 f i config_system.obj
 0001:000013c0       ??1?$_Ref_count_obj@UNode@NetvarTree@@@std@@UAE@XZ 100023c0 f i NetvarManager.obj
 0001:000013c0       ??1?$_Deque_const_iterator@V?$_Deque_val@U?$_Deque_simple_types@UPlayerRecords@@@std@@@std@@@std@@QAE@XZ 100023c0 f i Aimbot.obj
 0001:000013c0       ??1?$_String_val@U?$_Simple_types@_W@std@@@std@@QAE@XZ 100023c0 f i config_system.obj
 0001:000013c0       ??1?$_Deque_const_iterator@V?$_Deque_val@U?$_Deque_simple_types@ULegitPlayerRecords@@@std@@@std@@@std@@QAE@XZ 100023c0 f i Legitbot.obj
 0001:000013c0       ??1?$_String_val@U?$_Simple_types@D@std@@@std@@QAE@XZ 100023c0 f i c_hooks.obj
 0001:000013e0       ??1?$basic_string@DU?$char_traits@D@std@@V?$allocator@D@2@@std@@QAE@XZ 100023e0 f i c_hooks.obj
 0001:00001430       ??1?$list@U?$pair@$$CBV?$basic_string@DU?$char_traits@D@std@@V?$allocator@D@2@@std@@V?$shared_ptr@UNode@NetvarTree@@@2@@std@@V?$allocator@U?$pair@$$CBV?$basic_string@DU?$char_traits@D@std@@V?$allocator@D@2@@std@@V?$shared_ptr@UNode@NetvarTree@@@2@@std@@@2@@std@@QAE@XZ 10002430 f i c_hooks.obj
 0001:00001480       ??1?$pair@$$CBV?$basic_string@DU?$char_traits@D@std@@V?$allocator@D@2@@std@@V?$shared_ptr@UNode@NetvarTree@@@2@@std@@QAE@XZ 10002480 f i c_hooks.obj
 0001:000014a0       ??1?$shared_ptr@UNode@NetvarTree@@@std@@QAE@XZ 100024a0 f i c_hooks.obj
 0001:000014e0       ??1?$unique_ptr@$$BY0A@IU?$default_delete@$$BY0A@I@std@@@std@@QAE@XZ 100024e0 f i c_hooks.obj
 0001:00001520       ??1?$unique_ptr@VNetvarTree@@U?$default_delete@VNetvarTree@@@std@@@std@@QAE@XZ 10002520 f i c_hooks.obj
 0001:00001560       ??1?$unique_ptr@VShadowVTManager@@U?$default_delete@VShadowVTManager@@@std@@@std@@QAE@XZ 10002560 f i c_hooks.obj
 0001:000015a0       ??1?$unique_ptr@VVMTHook@@U?$default_delete@VVMTHook@@@std@@@std@@QAE@XZ 100025a0 f i c_hooks.obj
 0001:000015e0       ??1?$unordered_map@V?$basic_string@DU?$char_traits@D@std@@V?$allocator@D@2@@std@@V?$shared_ptr@UNode@NetvarTree@@@2@U?$hash@V?$basic_string@DU?$char_traits@D@std@@V?$allocator@D@2@@std@@@2@U?$equal_to@V?$basic_string@DU?$char_traits@D@std@@V?$allocator@D@2@@std@@@2@V?$allocator@U?$pair@$$CBV?$basic_string@DU?$char_traits@D@std@@V?$allocator@D@2@@std@@V?$shared_ptr@UNode@NetvarTree@@@2@@std@@@2@@std@@QAE@XZ 100025e0 f i c_hooks.obj
 0001:00001600       ??1?$vector@HV?$allocator@H@std@@@std@@QAE@XZ 10002600 f i Aimbot.obj
 0001:00001600       ??1?$vector@V?$_List_unchecked_iterator@V?$_List_val@U?$_List_simple_types@U?$pair@$$CBV?$basic_string@DU?$char_traits@D@std@@V?$allocator@D@2@@std@@V?$shared_ptr@UNode@NetvarTree@@@2@@std@@@std@@@std@@@std@@V?$allocator@V?$_List_unchecked_iterator@V?$_List_val@U?$_List_simple_types@U?$pair@$$CBV?$basic_string@DU?$char_traits@D@std@@V?$allocator@D@2@@std@@V?$shared_ptr@UNode@NetvarTree@@@2@@std@@@std@@@std@@@std@@@2@@std@@QAE@XZ 10002600 f i c_hooks.obj
 0001:00001640       ??1Event@@UAE@XZ           10002640 f i c_hooks.obj
 0001:00001660       ??1IGameEventListener@@UAE@XZ 10002660 f i c_hooks.obj
 0001:00001680       ??1Node@NetvarTree@@QAE@XZ 10002680 f i NetvarManager.obj
 0001:00001680       ??1NetvarTree@@QAE@XZ      10002680 f i c_hooks.obj
 0001:000016a0       ??1ProtectGuard@@QAE@XZ    100026a0 f i c_hooks.obj
 0001:000016d0       ??1ShadowVTManager@@QAE@XZ 100026d0 f i c_hooks.obj
 0001:00001730       ??1VMTHook@@QAE@XZ         10002730 f i c_hooks.obj
 0001:00001760       ?_Orphan_all@_Container_base12@std@@QAEXXZ 10002760 f i LagComp.obj
 0001:00001760       ??1_Ref_count_base@std@@UAE@XZ 10002760 f i config_system.obj
 0001:00001760       ?_Orphan_all@_Container_base0@std@@QAEXXZ 10002760 f i c_hooks.obj
 0001:00001760       ??1_Bxty@?$_String_val@U?$_Simple_types@_W@std@@@std@@QAE@XZ 10002760 f i config_system.obj
 0001:00001760       ??1_Iterator_base12@std@@QAE@XZ 10002760 f i Aimbot.obj
 0001:00001760       ??1_Bxty@?$_String_val@U?$_Simple_types@D@std@@@std@@QAE@XZ 10002760 f i c_hooks.obj
 0001:00001770       ??1c_hooks@@QAE@XZ         10002770 f i c_hooks.obj
 0001:00001820       ??1exception@std@@UAE@XZ   10002820 f i c_hooks.obj
 0001:00001850       ??1runtime_error@std@@UAE@XZ 10002850 f i c_hooks.obj
 0001:00001850       ??1bad_cast@std@@UAE@XZ    10002850 f i config_system.obj
 0001:00001870       ??2@YAPAXIPAX@Z            10002870 f i c_hooks.obj
 0001:00001880       ??4?$unique_ptr@$$BY0A@IU?$default_delete@$$BY0A@I@std@@@std@@QAEAAV01@$$QAV01@@Z 10002880 f i c_hooks.obj
 0001:000018d0       ??4?$unique_ptr@VNetvarTree@@U?$default_delete@VNetvarTree@@@std@@@std@@QAEAAV01@$$QAV01@@Z 100028d0 f i c_hooks.obj
 0001:00001920       ??4?$unique_ptr@VVMTHook@@U?$default_delete@VVMTHook@@@std@@@std@@QAEAAV01@$$QAV01@@Z 10002920 f i c_hooks.obj
 0001:00001970       ??A?$unique_ptr@$$BY0A@IU?$default_delete@$$BY0A@I@std@@@std@@QBEAAII@Z 10002970 f i c_hooks.obj
 0001:00001990       ?get@?$unique_ptr@$$BY0A@IU?$default_delete@$$BY0A@I@std@@@std@@QBEPAIXZ 10002990 f i c_hooks.obj
 0001:00001990       ??C?$unique_ptr@VNetvarTree@@U?$default_delete@VNetvarTree@@@std@@@std@@QBEPAVNetvarTree@@XZ 10002990 f i Aimbot.obj
 0001:00001990       ?get@?$unique_ptr@VShadowVTManager@@U?$default_delete@VShadowVTManager@@@std@@@std@@QBEPAVShadowVTManager@@XZ 10002990 f i c_hooks.obj
 0001:00001990       ?get@?$unique_ptr@VVMTHook@@U?$default_delete@VVMTHook@@@std@@@std@@QBEPAVVMTHook@@XZ 10002990 f i c_hooks.obj
 0001:00001990       ?get@?$unique_ptr@V_Facet_base@std@@U?$default_delete@V_Facet_base@std@@@2@@std@@QBEPAV_Facet_base@2@XZ 10002990 f i config_system.obj
 0001:00001990       ?get@?$unique_ptr@VNetvarTree@@U?$default_delete@VNetvarTree@@@std@@@std@@QBEPAVNetvarTree@@XZ 10002990 f i c_hooks.obj
 0001:00001990       ??C?$unique_ptr@VVMTHook@@U?$default_delete@VVMTHook@@@std@@@std@@QBEPAVVMTHook@@XZ 10002990 f i c_hooks.obj
 0001:000019b0       ??R<lambda_9366063389c5f42a00a5088cf24e69de>@@QBEXQADIQBD@Z 100029b0 f i c_hooks.obj
 0001:000019f0       ??R?$default_delete@VNetvarTree@@@std@@QBEXPAVNetvarTree@@@Z 100029f0 f i c_hooks.obj
 0001:00001a30       ??R?$default_delete@VShadowVTManager@@@std@@QBEXPAVShadowVTManager@@@Z 10002a30 f i c_hooks.obj
 0001:00001a70       ??R?$default_delete@VVMTHook@@@std@@QBEXPAVVMTHook@@@Z 10002a70 f i c_hooks.obj
 0001:00001ab0       ??_G?$pair@$$CBV?$basic_string@DU?$char_traits@D@std@@V?$allocator@D@2@@std@@V?$shared_ptr@UNode@NetvarTree@@@2@@std@@QAEPAXI@Z 10002ab0 f i c_hooks.obj
 0001:00001ae0       ??_EEvent@@UAEPAXI@Z       10002ae0 f i c_hooks.obj
 0001:00001ae0       ??_GEvent@@UAEPAXI@Z       10002ae0 f i c_hooks.obj
 0001:00001b10       ??_EIGameEventListener@@UAEPAXI@Z 10002b10 f i c_hooks.obj
 0001:00001b10       ??_GIGameEventListener@@UAEPAXI@Z 10002b10 f i c_hooks.obj
 0001:00001b40       ??_GNetvarTree@@QAEPAXI@Z  10002b40 f i c_hooks.obj
 0001:00001b70       ??_GShadowVTManager@@QAEPAXI@Z 10002b70 f i c_hooks.obj
 0001:00001ba0       ??_GVMTHook@@QAEPAXI@Z     10002ba0 f i c_hooks.obj
 0001:00001bd0       ??_Gexception@std@@UAEPAXI@Z 10002bd0 f i c_hooks.obj
 0001:00001bd0       ??_Eexception@std@@UAEPAXI@Z 10002bd0 f i c_hooks.obj
 0001:00001c00       ??_Gbad_cast@std@@UAEPAXI@Z 10002c00 f i config_system.obj
 0001:00001c00       ??_Ebad_cast@std@@UAEPAXI@Z 10002c00 f i config_system.obj
 0001:00001c00       ??_Eruntime_error@std@@UAEPAXI@Z 10002c00 f i c_hooks.obj
 0001:00001c00       ??_Gruntime_error@std@@UAEPAXI@Z 10002c00 f i c_hooks.obj
 0001:00001c30       ??_H@YGXPAXIIP6EPAX0@Z@Z   10002c30 f i c_hooks.obj
 0001:00001c70       ?FindSignature@Utils@@SAIPBD0@Z 10002c70 f i c_hooks.obj
 0001:00001ea0       ?GetEventDebugID@IGameEventListener@@UAEHXZ 10002ea0 f i c_hooks.obj
 0001:00001eb0       ?Hook@VMTHook@@QAEJIPAX@Z  10002eb0 f i c_hooks.obj
 0001:00001ef0       ?Init@Event@@QAEXXZ        10002ef0 f i c_hooks.obj
 0001:00001f20       ?Init@c_hooks@@SAXXZ       10002f20 f   c_hooks.obj
 0001:00001ff0       ?Restore@c_hooks@@SAXXZ    10002ff0 f   c_hooks.obj
 0001:00002140       ?RestoreTable@ShadowVTManager@@QAEXXZ 10003140 f i c_hooks.obj
 0001:000021e0       ?Unhook@VMTHook@@QAEJI@Z   100031e0 f i c_hooks.obj
 0001:00002230       ?_Adjust_manually_vector_aligned@std@@YAXAAPAXAAI@Z 10003230 f i c_hooks.obj
 0001:000022a0       ?_Allocate@_Default_allocate_traits@std@@SAPAXI@Z 100032a0 f i c_hooks.obj
 0001:000022c0       ?_Calculate_growth@?$basic_string@DU?$char_traits@D@std@@V?$allocator@D@2@@std@@QBEII@Z 100032c0 f i c_hooks.obj
 0001:00002340       ?_Decref@?$_Ptr_base@UNode@NetvarTree@@@std@@IAEXXZ 10003340 f i c_hooks.obj
 0001:00002360       ?_Decref@_Ref_count_base@std@@QAEXXZ 10003360 f i c_hooks.obj
 0001:00002390       ?_Decwref@_Ref_count_base@std@@QAEXXZ 10003390 f i c_hooks.obj
 0001:000023c0       ?_Delete@?$unique_ptr@$$BY0A@IU?$default_delete@$$BY0A@I@std@@@std@@AAEXXZ 100033c0 f i c_hooks.obj
 0001:00002400       ?_Destroy@?$vector@V?$_List_unchecked_iterator@V?$_List_val@U?$_List_simple_types@U?$pair@$$CBV?$basic_string@DU?$char_traits@D@std@@V?$allocator@D@2@@std@@V?$shared_ptr@UNode@NetvarTree@@@2@@std@@@std@@@std@@@std@@V?$allocator@V?$_List_unchecked_iterator@V?$_List_val@U?$_List_simple_types@U?$pair@$$CBV?$basic_string@DU?$char_traits@D@std@@V?$allocator@D@2@@std@@V?$shared_ptr@UNode@NetvarTree@@@2@@std@@@std@@@std@@@std@@@2@@std@@AAEXPAV?$_List_unchecked_iterator@V?$_List_val@U?$_List_simple_types@U?$pair@$$CBV?$basic_string@DU?$char_traits@D@std@@V?$allocator@D@2@@std@@V?$shared_ptr@UNode@NetvarTree@@@2@@std@@@std@@@std@@@2@0@Z 10003400 f i c_hooks.obj
 0001:00002400       ?_Destroy@?$vector@HV?$allocator@H@std@@@std@@AAEXPAH0@Z 10003400 f i Aimbot.obj
 0001:00002430       ?_Freeheadnode@?$_List_alloc@U?$_List_base_types@U?$pair@$$CBV?$basic_string@DU?$char_traits@D@std@@V?$allocator@D@2@@std@@V?$shared_ptr@UNode@NetvarTree@@@2@@std@@V?$allocator@U?$pair@$$CBV?$basic_string@DU?$char_traits@D@std@@V?$allocator@D@2@@std@@V?$shared_ptr@UNode@NetvarTree@@@2@@std@@@2@@std@@@std@@QAEXPAU?$_List_node@U?$pair@$$CBV?$basic_string@DU?$char_traits@D@std@@V?$allocator@D@2@@std@@V?$shared_ptr@UNode@NetvarTree@@@2@@std@@PAX@2@@Z 10003430 f i c_hooks.obj
 0001:00002460       ?_Freenode@?$_List_buy@U?$pair@$$CBV?$basic_string@DU?$char_traits@D@std@@V?$allocator@D@2@@std@@V?$shared_ptr@UNode@NetvarTree@@@2@@std@@V?$allocator@U?$pair@$$CBV?$basic_string@DU?$char_traits@D@std@@V?$allocator@D@2@@std@@V?$shared_ptr@UNode@NetvarTree@@@2@@std@@@2@@std@@QAEXPAU?$_List_node@U?$pair@$$CBV?$basic_string@DU?$char_traits@D@std@@V?$allocator@D@2@@std@@V?$shared_ptr@UNode@NetvarTree@@@2@@std@@PAX@2@@Z 10003460 f i c_hooks.obj
 0001:000024b0       ?_Get_data@?$_Vector_alloc@U?$_Vec_base_types@V?$basic_string@DU?$char_traits@D@std@@V?$allocator@D@2@@std@@V?$allocator@V?$basic_string@DU?$char_traits@D@std@@V?$allocator@D@2@@std@@@2@@std@@@std@@QAEAAV?$_Vector_val@U?$_Simple_types@V?$basic_string@DU?$char_traits@D@std@@V?$allocator@D@2@@std@@@std@@@2@XZ 100034b0 f i config_system.obj
 0001:000024b0       ?_Get_data@?$_String_alloc@U?$_String_base_types@_WV?$allocator@_W@std@@@std@@@std@@QAEAAV?$_String_val@U?$_Simple_types@_W@std@@@2@XZ 100034b0 f i config_system.obj
 0001:000024b0       ?_Get_data@?$_Vector_alloc@U?$_Vec_base_types@HV?$allocator@H@std@@@std@@@std@@QBEABV?$_Vector_val@U?$_Simple_types@H@std@@@2@XZ 100034b0 f i Aimbot.obj
 0001:000024b0       ?get_deleter@?$_Unique_ptr_base@VVMTHook@@U?$default_delete@VVMTHook@@@std@@@std@@QAEAAU?$default_delete@VVMTHook@@@2@XZ 100034b0 f i c_hooks.obj
 0001:000024b0       ?_Get_data@?$_Deque_alloc@U?$_Deque_base_types@ULegitPlayerRecords@@V?$allocator@ULegitPlayerRecords@@@std@@@std@@@std@@QAEAAV?$_Deque_val@U?$_Deque_simple_types@ULegitPlayerRecords@@@std@@@2@XZ 100034b0 f i Legitbot.obj
 0001:000024b0       ?_Myptr@?$_Unique_ptr_base@IU?$default_delete@$$BY0A@I@std@@@std@@QAEAAPAIXZ 100034b0 f i c_hooks.obj
 0001:000024b0       ?_Get_data@?$_Deque_alloc@U?$_Deque_base_types@ULegitPlayerRecords@@V?$allocator@ULegitPlayerRecords@@@std@@@std@@@std@@QBEABV?$_Deque_val@U?$_Deque_simple_types@ULegitPlayerRecords@@@std@@@2@XZ 100034b0 f i Legitbot.obj
 0001:000024b0       ?_Myptr@?$_Unique_ptr_base@VNetvarTree@@U?$default_delete@VNetvarTree@@@std@@@std@@QBEABQAVNetvarTree@@XZ 100034b0 f i c_hooks.obj
 0001:000024b0       ?_Getal@?$_List_alloc@U?$_List_base_types@U?$pair@$$CBV?$basic_string@DU?$char_traits@D@std@@V?$allocator@D@2@@std@@V?$shared_ptr@UNode@NetvarTree@@@2@@std@@V?$allocator@U?$pair@$$CBV?$basic_string@DU?$char_traits@D@std@@V?$allocator@D@2@@std@@V?$shared_ptr@UNode@NetvarTree@@@2@@std@@@2@@std@@@std@@QBEABV?$allocator@U?$_List_node@U?$pair@$$CBV?$basic_string@DU?$char_traits@D@std@@V?$allocator@D@2@@std@@V?$shared_ptr@UNode@NetvarTree@@@2@@std@@PAX@std@@@2@XZ 100034b0 f i Aimbot.obj
 0001:000024b0       ?get_deleter@?$_Unique_ptr_base@VNetvarTree@@U?$default_delete@VNetvarTree@@@std@@@std@@QAEAAU?$default_delete@VNetvarTree@@@2@XZ 100034b0 f i c_hooks.obj
 0001:000024b0       ?_Get_data@?$_Vector_alloc@U?$_Vec_base_types@V?$basic_string@DU?$char_traits@D@std@@V?$allocator@D@2@@std@@V?$allocator@V?$basic_string@DU?$char_traits@D@std@@V?$allocator@D@2@@std@@@2@@std@@@std@@QBEABV?$_Vector_val@U?$_Simple_types@V?$basic_string@DU?$char_traits@D@std@@V?$allocator@D@2@@std@@@std@@@2@XZ 100034b0 f i config_system.obj
 0001:000024b0       ?_Getal@?$_Vector_alloc@U?$_Vec_base_types@V?$basic_string@DU?$char_traits@D@std@@V?$allocator@D@2@@std@@V?$allocator@V?$basic_string@DU?$char_traits@D@std@@V?$allocator@D@2@@std@@@2@@std@@@std@@QAEAAV?$allocator@V?$basic_string@DU?$char_traits@D@std@@V?$allocator@D@2@@std@@@2@XZ 100034b0 f i config_system.obj
 0001:000024b0       ?_Get_data@?$_List_alloc@U?$_List_base_types@U?$pair@$$CBV?$basic_string@DU?$char_traits@D@std@@V?$allocator@D@2@@std@@V?$shared_ptr@UNode@NetvarTree@@@2@@std@@V?$allocator@U?$pair@$$CBV?$basic_string@DU?$char_traits@D@std@@V?$allocator@D@2@@std@@V?$shared_ptr@UNode@NetvarTree@@@2@@std@@@2@@std@@@std@@QAEAAV?$_List_val@U?$_List_simple_types@U?$pair@$$CBV?$basic_string@DU?$char_traits@D@std@@V?$allocator@D@2@@std@@V?$shared_ptr@UNode@NetvarTree@@@2@@std@@@std@@@2@XZ 100034b0 f i c_hooks.obj
 0001:000024b0       ?_Getal@?$_Deque_alloc@U?$_Deque_base_types@UPlayerRecords@@V?$allocator@UPlayerRecords@@@std@@@std@@@std@@QBEABV?$allocator@UPlayerRecords@@@2@XZ 100034b0 f i LagComp.obj
 0001:000024b0       ?get_deleter@?$_Unique_ptr_base@V_Facet_base@std@@U?$default_delete@V_Facet_base@std@@@2@@std@@QAEAAU?$default_delete@V_Facet_base@std@@@2@XZ 100034b0 f i config_system.obj
 0001:000024b0       ?_Myptr@?$_Unique_ptr_base@VShadowVTManager@@U?$default_delete@VShadowVTManager@@@std@@@std@@QBEABQAVShadowVTManager@@XZ 100034b0 f i c_hooks.obj
 0001:000024b0       ?get_deleter@?$_Unique_ptr_base@IU?$default_delete@$$BY0A@I@std@@@std@@QAEAAU?$default_delete@$$BY0A@I@2@XZ 100034b0 f i c_hooks.obj
 0001:000024b0       ?_Getal@?$_Vector_alloc@U?$_Vec_base_types@HV?$allocator@H@std@@@std@@@std@@QBEABV?$allocator@H@2@XZ 100034b0 f i Aimbot.obj
 0001:000024b0       ?_Myptr@?$_Unique_ptr_base@VVMTHook@@U?$default_delete@VVMTHook@@@std@@@std@@QBEABQAVVMTHook@@XZ 100034b0 f i c_hooks.obj
 0001:000024b0       ?_Myptr@?$_Unique_ptr_base@V_Facet_base@std@@U?$default_delete@V_Facet_base@std@@@2@@std@@QBEABQAV_Facet_base@2@XZ 100034b0 f i config_system.obj
 0001:000024b0       ?_Get_data@?$_Vector_alloc@U?$_Vec_base_types@HV?$allocator@H@std@@@std@@@std@@QAEAAV?$_Vector_val@U?$_Simple_types@H@std@@@2@XZ 100034b0 f i Aimbot.obj
 0001:000024b0       ?_Getal@?$_Deque_alloc@U?$_Deque_base_types@ULegitPlayerRecords@@V?$allocator@ULegitPlayerRecords@@@std@@@std@@@std@@QBEABV?$allocator@ULegitPlayerRecords@@@2@XZ 100034b0 f i Legitbot.obj
 0001:000024b0       ?_Myptr@?$_Unique_ptr_base@IU?$default_delete@$$BY0A@I@std@@@std@@QBEABQAIXZ 100034b0 f i c_hooks.obj
 0001:000024b0       ?_Getal@?$_String_alloc@U?$_String_base_types@DV?$allocator@D@std@@@std@@@std@@QBEABV?$allocator@D@2@XZ 100034b0 f i c_hooks.obj
 0001:000024b0       ?_Get_data@?$_String_alloc@U?$_String_base_types@DV?$allocator@D@std@@@std@@@std@@QBEABV?$_String_val@U?$_Simple_types@D@std@@@2@XZ 100034b0 f i c_hooks.obj
 0001:000024b0       ?_Getal@?$_String_alloc@U?$_String_base_types@DV?$allocator@D@std@@@std@@@std@@QAEAAV?$allocator@D@2@XZ 100034b0 f i c_hooks.obj
 0001:000024b0       ?_Myptr@?$_Unique_ptr_base@VNetvarTree@@U?$default_delete@VNetvarTree@@@std@@@std@@QAEAAPAVNetvarTree@@XZ 100034b0 f i c_hooks.obj
 0001:000024b0       ?get_deleter@?$_Unique_ptr_base@VShadowVTManager@@U?$default_delete@VShadowVTManager@@@std@@@std@@QAEAAU?$default_delete@VShadowVTManager@@@2@XZ 100034b0 f i c_hooks.obj
 0001:000024b0       ?_Myptr@?$_Unique_ptr_base@VVMTHook@@U?$default_delete@VVMTHook@@@std@@@std@@QAEAAPAVVMTHook@@XZ 100034b0 f i c_hooks.obj
 0001:000024b0       ?_Get_data@?$_Deque_alloc@U?$_Deque_base_types@UPlayerRecords@@V?$allocator@UPlayerRecords@@@std@@@std@@@std@@QAEAAV?$_Deque_val@U?$_Deque_simple_types@UPlayerRecords@@@std@@@2@XZ 100034b0 f i Aimbot.obj
 0001:000024b0       ?_Gethash@?$_Uhash_compare@V?$basic_string@DU?$char_traits@D@std@@V?$allocator@D@2@@std@@U?$hash@V?$basic_string@DU?$char_traits@D@std@@V?$allocator@D@2@@std@@@2@U?$equal_to@V?$basic_string@DU?$char_traits@D@std@@V?$allocator@D@2@@std@@@2@@std@@QBEABU?$hash@V?$basic_string@DU?$char_traits@D@std@@V?$allocator@D@2@@std@@@2@XZ 100034b0 f i Aimbot.obj
 0001:000024b0       ?_Getal@?$_Vector_alloc@U?$_Vec_base_types@V?$_List_unchecked_iterator@V?$_List_val@U?$_List_simple_types@U?$pair@$$CBV?$basic_string@DU?$char_traits@D@std@@V?$allocator@D@2@@std@@V?$shared_ptr@UNode@NetvarTree@@@2@@std@@@std@@@std@@@std@@V?$allocator@V?$_List_unchecked_iterator@V?$_List_val@U?$_List_simple_types@U?$pair@$$CBV?$basic_string@DU?$char_traits@D@std@@V?$allocator@D@2@@std@@V?$shared_ptr@UNode@NetvarTree@@@2@@std@@@std@@@std@@@std@@@2@@std@@@std@@QBEABV?$allocator@V?$_List_unchecked_iterator@V?$_List_val@U?$_List_simple_types@U?$pair@$$CBV?$basic_string@DU?$char_traits@D@std@@V?$allocator@D@2@@std@@V?$shared_ptr@UNode@NetvarTree@@@2@@std@@@std@@@std@@@std@@@2@XZ 100034b0 f i Aimbot.obj
 0001:000024b0       ?_Get_data@?$_String_alloc@U?$_String_base_types@DV?$allocator@D@std@@@std@@@std@@QAEAAV?$_String_val@U?$_Simple_types@D@std@@@2@XZ 100034b0 f i c_hooks.obj
 0001:000024b0       ?_Get_data@?$_Vector_alloc@U?$_Vec_base_types@V?$_List_unchecked_iterator@V?$_List_val@U?$_List_simple_types@U?$pair@$$CBV?$basic_string@DU?$char_traits@D@std@@V?$allocator@D@2@@std@@V?$shared_ptr@UNode@NetvarTree@@@2@@std@@@std@@@std@@@std@@V?$allocator@V?$_List_unchecked_iterator@V?$_List_val@U?$_List_simple_types@U?$pair@$$CBV?$basic_string@DU?$char_traits@D@std@@V?$allocator@D@2@@std@@V?$shared_ptr@UNode@NetvarTree@@@2@@std@@@std@@@std@@@std@@@2@@std@@@std@@QBEABV?$_Vector_val@U?$_Simple_types@V?$_List_unchecked_iterator@V?$_List_val@U?$_List_simple_types@U?$pair@$$CBV?$basic_string@DU?$char_traits@D@std@@V?$allocator@D@2@@std@@V?$shared_ptr@UNode@NetvarTree@@@2@@std@@@std@@@std@@@std@@@std@@@2@XZ 100034b0 f i c_hooks.obj
 0001:000024b0       ?_Get_data@?$_Vector_alloc@U?$_Vec_base_types@V?$_List_unchecked_iterator@V?$_List_val@U?$_List_simple_types@U?$pair@$$CBV?$basic_string@DU?$char_traits@D@std@@V?$allocator@D@2@@std@@V?$shared_ptr@UNode@NetvarTree@@@2@@std@@@std@@@std@@@std@@V?$allocator@V?$_List_unchecked_iterator@V?$_List_val@U?$_List_simple_types@U?$pair@$$CBV?$basic_string@DU?$char_traits@D@std@@V?$allocator@D@2@@std@@V?$shared_ptr@UNode@NetvarTree@@@2@@std@@@std@@@std@@@std@@@2@@std@@@std@@QAEAAV?$_Vector_val@U?$_Simple_types@V?$_List_unchecked_iterator@V?$_List_val@U?$_List_simple_types@U?$pair@$$CBV?$basic_string@DU?$char_traits@D@std@@V?$allocator@D@2@@std@@V?$shared_ptr@UNode@NetvarTree@@@2@@std@@@std@@@std@@@std@@@std@@@2@XZ 100034b0 f i c_hooks.obj
 0001:000024b0       ?_Get_data@?$_List_alloc@U?$_List_base_types@U?$pair@$$CBV?$basic_string@DU?$char_traits@D@std@@V?$allocator@D@2@@std@@V?$shared_ptr@UNode@NetvarTree@@@2@@std@@V?$allocator@U?$pair@$$CBV?$basic_string@DU?$char_traits@D@std@@V?$allocator@D@2@@std@@V?$shared_ptr@UNode@NetvarTree@@@2@@std@@@2@@std@@@std@@QBEABV?$_List_val@U?$_List_simple_types@U?$pair@$$CBV?$basic_string@DU?$char_traits@D@std@@V?$allocator@D@2@@std@@V?$shared_ptr@UNode@NetvarTree@@@2@@std@@@std@@@2@XZ 100034b0 f i Aimbot.obj
 0001:000024b0       ?_Getal@?$_Vector_alloc@U?$_Vec_base_types@HV?$allocator@H@std@@@std@@@std@@QAEAAV?$allocator@H@2@XZ 100034b0 f i Aimbot.obj
 0001:000024b0       ?_Get_data@?$_Deque_alloc@U?$_Deque_base_types@UPlayerRecords@@V?$allocator@UPlayerRecords@@@std@@@std@@@std@@QBEABV?$_Deque_val@U?$_Deque_simple_types@UPlayerRecords@@@std@@@2@XZ 100034b0 f i Aimbot.obj
 0001:000024b0       ?_Getal@?$_List_alloc@U?$_List_base_types@U?$pair@$$CBV?$basic_string@DU?$char_traits@D@std@@V?$allocator@D@2@@std@@V?$shared_ptr@UNode@NetvarTree@@@2@@std@@V?$allocator@U?$pair@$$CBV?$basic_string@DU?$char_traits@D@std@@V?$allocator@D@2@@std@@V?$shared_ptr@UNode@NetvarTree@@@2@@std@@@2@@std@@@std@@QAEAAV?$allocator@U?$_List_node@U?$pair@$$CBV?$basic_string@DU?$char_traits@D@std@@V?$allocator@D@2@@std@@V?$shared_ptr@UNode@NetvarTree@@@2@@std@@PAX@std@@@2@XZ 100034b0 f i c_hooks.obj
 0001:000024b0       ?_Getal@?$_Deque_alloc@U?$_Deque_base_types@ULegitPlayerRecords@@V?$allocator@ULegitPlayerRecords@@@std@@@std@@@std@@QAEAAV?$allocator@ULegitPlayerRecords@@@2@XZ 100034b0 f i Legitbot.obj
 0001:000024b0       ?_Getal@?$_Vector_alloc@U?$_Vec_base_types@V?$_List_unchecked_iterator@V?$_List_val@U?$_List_simple_types@U?$pair@$$CBV?$basic_string@DU?$char_traits@D@std@@V?$allocator@D@2@@std@@V?$shared_ptr@UNode@NetvarTree@@@2@@std@@@std@@@std@@@std@@V?$allocator@V?$_List_unchecked_iterator@V?$_List_val@U?$_List_simple_types@U?$pair@$$CBV?$basic_string@DU?$char_traits@D@std@@V?$allocator@D@2@@std@@V?$shared_ptr@UNode@NetvarTree@@@2@@std@@@std@@@std@@@std@@@2@@std@@@std@@QAEAAV?$allocator@V?$_List_unchecked_iterator@V?$_List_val@U?$_List_simple_types@U?$pair@$$CBV?$basic_string@DU?$char_traits@D@std@@V?$allocator@D@2@@std@@V?$shared_ptr@UNode@NetvarTree@@@2@@std@@@std@@@std@@@std@@@2@XZ 100034b0 f i c_hooks.obj
 0001:000024b0       ?_Getal@?$_String_alloc@U?$_String_base_types@_WV?$allocator@_W@std@@@std@@@std@@QAEAAV?$allocator@_W@2@XZ 100034b0 f i config_system.obj
 0001:000024b0       ?_Myptr@?$_Unique_ptr_base@V_Facet_base@std@@U?$default_delete@V_Facet_base@std@@@2@@std@@QAEAAPAV_Facet_base@2@XZ 100034b0 f i config_system.obj
 0001:000024b0       ?_Getal@?$_Deque_alloc@U?$_Deque_base_types@UPlayerRecords@@V?$allocator@UPlayerRecords@@@std@@@std@@@std@@QAEAAV?$allocator@UPlayerRecords@@@2@XZ 100034b0 f i LagComp.obj
 0001:000024d0       ?_Large_string_engaged@?$_String_val@U?$_Simple_types@D@std@@@std@@QBE_NXZ 100034d0 f i c_hooks.obj
 0001:00002500       ?_Myend@?$_Vector_alloc@U?$_Vec_base_types@V?$_List_unchecked_iterator@V?$_List_val@U?$_List_simple_types@U?$pair@$$CBV?$basic_string@DU?$char_traits@D@std@@V?$allocator@D@2@@std@@V?$shared_ptr@UNode@NetvarTree@@@2@@std@@@std@@@std@@@std@@V?$allocator@V?$_List_unchecked_iterator@V?$_List_val@U?$_List_simple_types@U?$pair@$$CBV?$basic_string@DU?$char_traits@D@std@@V?$allocator@D@2@@std@@V?$shared_ptr@UNode@NetvarTree@@@2@@std@@@std@@@std@@@std@@@2@@std@@@std@@QAEAAPAV?$_List_unchecked_iterator@V?$_List_val@U?$_List_simple_types@U?$pair@$$CBV?$basic_string@DU?$char_traits@D@std@@V?$allocator@D@2@@std@@V?$shared_ptr@UNode@NetvarTree@@@2@@std@@@std@@@std@@@2@XZ 10003500 f i c_hooks.obj
 0001:00002500       ?_Myend@?$_Vector_alloc@U?$_Vec_base_types@HV?$allocator@H@std@@@std@@@std@@QBEABQAHXZ 10003500 f i Aimbot.obj
 0001:00002500       ?_Mapsize@?$_Deque_alloc@U?$_Deque_base_types@UPlayerRecords@@V?$allocator@UPlayerRecords@@@std@@@std@@@std@@QAEAAIXZ 10003500 f i LagComp.obj
 0001:00002500       ?_Mapsize@?$_Deque_alloc@U?$_Deque_base_types@ULegitPlayerRecords@@V?$allocator@ULegitPlayerRecords@@@std@@@std@@@std@@QAEAAIXZ 10003500 f i Legitbot.obj
 0001:00002500       ?_Myend@?$_Vector_alloc@U?$_Vec_base_types@V?$_List_unchecked_iterator@V?$_List_val@U?$_List_simple_types@U?$pair@$$CBV?$basic_string@DU?$char_traits@D@std@@V?$allocator@D@2@@std@@V?$shared_ptr@UNode@NetvarTree@@@2@@std@@@std@@@std@@@std@@V?$allocator@V?$_List_unchecked_iterator@V?$_List_val@U?$_List_simple_types@U?$pair@$$CBV?$basic_string@DU?$char_traits@D@std@@V?$allocator@D@2@@std@@V?$shared_ptr@UNode@NetvarTree@@@2@@std@@@std@@@std@@@std@@@2@@std@@@std@@QBEABQAV?$_List_unchecked_iterator@V?$_List_val@U?$_List_simple_types@U?$pair@$$CBV?$basic_string@DU?$char_traits@D@std@@V?$allocator@D@2@@std@@V?$shared_ptr@UNode@NetvarTree@@@2@@std@@@std@@@std@@@2@XZ 10003500 f i c_hooks.obj
 0001:00002500       ?_Myend@?$_Vector_alloc@U?$_Vec_base_types@HV?$allocator@H@std@@@std@@@std@@QAEAAPAHXZ 10003500 f i Aimbot.obj
 0001:00002500       ?_Myend@?$_Vector_alloc@U?$_Vec_base_types@V?$basic_string@DU?$char_traits@D@std@@V?$allocator@D@2@@std@@V?$allocator@V?$basic_string@DU?$char_traits@D@std@@V?$allocator@D@2@@std@@@2@@std@@@std@@QBEABQAV?$basic_string@DU?$char_traits@D@std@@V?$allocator@D@2@@2@XZ 10003500 f i config_system.obj
 0001:00002500       ?_Myend@?$_Vector_alloc@U?$_Vec_base_types@V?$basic_string@DU?$char_traits@D@std@@V?$allocator@D@2@@std@@V?$allocator@V?$basic_string@DU?$char_traits@D@std@@V?$allocator@D@2@@std@@@2@@std@@@std@@QAEAAPAV?$basic_string@DU?$char_traits@D@std@@V?$allocator@D@2@@2@XZ 10003500 f i config_system.obj
 0001:00002520       ?_Myfirst@?$_Vector_alloc@U?$_Vec_base_types@V?$basic_string@DU?$char_traits@D@std@@V?$allocator@D@2@@std@@V?$allocator@V?$basic_string@DU?$char_traits@D@std@@V?$allocator@D@2@@std@@@2@@std@@@std@@QAEAAPAV?$basic_string@DU?$char_traits@D@std@@V?$allocator@D@2@@2@XZ 10003520 f i config_system.obj
 0001:00002520       ?_Myproxy@?$_Deque_alloc@U?$_Deque_base_types@ULegitPlayerRecords@@V?$allocator@ULegitPlayerRecords@@@std@@@std@@@std@@QAEAAPAU_Container_proxy@2@XZ 10003520 f i Legitbot.obj
 0001:00002520       ?_Myfirst@?$_Vector_alloc@U?$_Vec_base_types@HV?$allocator@H@std@@@std@@@std@@QAEAAPAHXZ 10003520 f i Aimbot.obj
 0001:00002520       ?_Myfirst@?$_Vector_alloc@U?$_Vec_base_types@HV?$allocator@H@std@@@std@@@std@@QBEABQAHXZ 10003520 f i Aimbot.obj
 0001:00002520       ?_Myhead@?$_List_alloc@U?$_List_base_types@U?$pair@$$CBV?$basic_string@DU?$char_traits@D@std@@V?$allocator@D@2@@std@@V?$shared_ptr@UNode@NetvarTree@@@2@@std@@V?$allocator@U?$pair@$$CBV?$basic_string@DU?$char_traits@D@std@@V?$allocator@D@2@@std@@V?$shared_ptr@UNode@NetvarTree@@@2@@std@@@2@@std@@@std@@QAEAAPAU?$_List_node@U?$pair@$$CBV?$basic_string@DU?$char_traits@D@std@@V?$allocator@D@2@@std@@V?$shared_ptr@UNode@NetvarTree@@@2@@std@@PAX@2@XZ 10003520 f i c_hooks.obj
 0001:00002520       ?_Myfirst@?$_Vector_alloc@U?$_Vec_base_types@V?$_List_unchecked_iterator@V?$_List_val@U?$_List_simple_types@U?$pair@$$CBV?$basic_string@DU?$char_traits@D@std@@V?$allocator@D@2@@std@@V?$shared_ptr@UNode@NetvarTree@@@2@@std@@@std@@@std@@@std@@V?$allocator@V?$_List_unchecked_iterator@V?$_List_val@U?$_List_simple_types@U?$pair@$$CBV?$basic_string@DU?$char_traits@D@std@@V?$allocator@D@2@@std@@V?$shared_ptr@UNode@NetvarTree@@@2@@std@@@std@@@std@@@std@@@2@@std@@@std@@QBEABQAV?$_List_unchecked_iterator@V?$_List_val@U?$_List_simple_types@U?$pair@$$CBV?$basic_string@DU?$char_traits@D@std@@V?$allocator@D@2@@std@@V?$shared_ptr@UNode@NetvarTree@@@2@@std@@@std@@@std@@@2@XZ 10003520 f i c_hooks.obj
 0001:00002520       ?_Myfirst@?$_Vector_alloc@U?$_Vec_base_types@V?$_List_unchecked_iterator@V?$_List_val@U?$_List_simple_types@U?$pair@$$CBV?$basic_string@DU?$char_traits@D@std@@V?$allocator@D@2@@std@@V?$shared_ptr@UNode@NetvarTree@@@2@@std@@@std@@@std@@@std@@V?$allocator@V?$_List_unchecked_iterator@V?$_List_val@U?$_List_simple_types@U?$pair@$$CBV?$basic_string@DU?$char_traits@D@std@@V?$allocator@D@2@@std@@V?$shared_ptr@UNode@NetvarTree@@@2@@std@@@std@@@std@@@std@@@2@@std@@@std@@QAEAAPAV?$_List_unchecked_iterator@V?$_List_val@U?$_List_simple_types@U?$pair@$$CBV?$basic_string@DU?$char_traits@D@std@@V?$allocator@D@2@@std@@V?$shared_ptr@UNode@NetvarTree@@@2@@std@@@std@@@std@@@2@XZ 10003520 f i c_hooks.obj
 0001:00002520       ?_Myproxy@?$_Deque_alloc@U?$_Deque_base_types@UPlayerRecords@@V?$allocator@UPlayerRecords@@@std@@@std@@@std@@QAEAAPAU_Container_proxy@2@XZ 10003520 f i LagComp.obj
 0001:00002520       ?_Myfirst@?$_Vector_alloc@U?$_Vec_base_types@V?$basic_string@DU?$char_traits@D@std@@V?$allocator@D@2@@std@@V?$allocator@V?$basic_string@DU?$char_traits@D@std@@V?$allocator@D@2@@std@@@2@@std@@@std@@QBEABQAV?$basic_string@DU?$char_traits@D@std@@V?$allocator@D@2@@2@XZ 10003520 f i config_system.obj
 0001:00002540       ?_Mylast@?$_Vector_alloc@U?$_Vec_base_types@V?$_List_unchecked_iterator@V?$_List_val@U?$_List_simple_types@U?$pair@$$CBV?$basic_string@DU?$char_traits@D@std@@V?$allocator@D@2@@std@@V?$shared_ptr@UNode@NetvarTree@@@2@@std@@@std@@@std@@@std@@V?$allocator@V?$_List_unchecked_iterator@V?$_List_val@U?$_List_simple_types@U?$pair@$$CBV?$basic_string@DU?$char_traits@D@std@@V?$allocator@D@2@@std@@V?$shared_ptr@UNode@NetvarTree@@@2@@std@@@std@@@std@@@std@@@2@@std@@@std@@QBEABQAV?$_List_unchecked_iterator@V?$_List_val@U?$_List_simple_types@U?$pair@$$CBV?$basic_string@DU?$char_traits@D@std@@V?$allocator@D@2@@std@@V?$shared_ptr@UNode@NetvarTree@@@2@@std@@@std@@@std@@@2@XZ 10003540 f i Aimbot.obj
 0001:00002540       ?_Map@?$_Deque_alloc@U?$_Deque_base_types@UPlayerRecords@@V?$allocator@UPlayerRecords@@@std@@@std@@@std@@QAEAAPAPAUPlayerRecords@@XZ 10003540 f i LagComp.obj
 0001:00002540       ?_Mylast@?$_Vector_alloc@U?$_Vec_base_types@HV?$allocator@H@std@@@std@@@std@@QBEABQAHXZ 10003540 f i Aimbot.obj
 0001:00002540       ?_Mylast@?$_Vector_alloc@U?$_Vec_base_types@V?$_List_unchecked_iterator@V?$_List_val@U?$_List_simple_types@U?$pair@$$CBV?$basic_string@DU?$char_traits@D@std@@V?$allocator@D@2@@std@@V?$shared_ptr@UNode@NetvarTree@@@2@@std@@@std@@@std@@@std@@V?$allocator@V?$_List_unchecked_iterator@V?$_List_val@U?$_List_simple_types@U?$pair@$$CBV?$basic_string@DU?$char_traits@D@std@@V?$allocator@D@2@@std@@V?$shared_ptr@UNode@NetvarTree@@@2@@std@@@std@@@std@@@std@@@2@@std@@@std@@QAEAAPAV?$_List_unchecked_iterator@V?$_List_val@U?$_List_simple_types@U?$pair@$$CBV?$basic_string@DU?$char_traits@D@std@@V?$allocator@D@2@@std@@V?$shared_ptr@UNode@NetvarTree@@@2@@std@@@std@@@std@@@2@XZ 10003540 f i c_hooks.obj
 0001:00002540       ?_Mylast@?$_Vector_alloc@U?$_Vec_base_types@V?$basic_string@DU?$char_traits@D@std@@V?$allocator@D@2@@std@@V?$allocator@V?$basic_string@DU?$char_traits@D@std@@V?$allocator@D@2@@std@@@2@@std@@@std@@QAEAAPAV?$basic_string@DU?$char_traits@D@std@@V?$allocator@D@2@@2@XZ 10003540 f i config_system.obj
 0001:00002540       ?_Mysize@?$_List_alloc@U?$_List_base_types@U?$pair@$$CBV?$basic_string@DU?$char_traits@D@std@@V?$allocator@D@2@@std@@V?$shared_ptr@UNode@NetvarTree@@@2@@std@@V?$allocator@U?$pair@$$CBV?$basic_string@DU?$char_traits@D@std@@V?$allocator@D@2@@std@@V?$shared_ptr@UNode@NetvarTree@@@2@@std@@@2@@std@@@std@@QBEABIXZ 10003540 f i Aimbot.obj
 0001:00002540       ?_Mylast@?$_Vector_alloc@U?$_Vec_base_types@HV?$allocator@H@std@@@std@@@std@@QAEAAPAHXZ 10003540 f i Aimbot.obj
 0001:00002540       ?_Mysize@?$_List_alloc@U?$_List_base_types@U?$pair@$$CBV?$basic_string@DU?$char_traits@D@std@@V?$allocator@D@2@@std@@V?$shared_ptr@UNode@NetvarTree@@@2@@std@@V?$allocator@U?$pair@$$CBV?$basic_string@DU?$char_traits@D@std@@V?$allocator@D@2@@std@@V?$shared_ptr@UNode@NetvarTree@@@2@@std@@@2@@std@@@std@@QAEAAIXZ 10003540 f i c_hooks.obj
 0001:00002540       ?_Map@?$_Deque_alloc@U?$_Deque_base_types@ULegitPlayerRecords@@V?$allocator@ULegitPlayerRecords@@@std@@@std@@@std@@QAEAAPAPAULegitPlayerRecords@@XZ 10003540 f i Legitbot.obj
 0001:00002560       ?_Myptr@?$_String_val@U?$_Simple_types@D@std@@@std@@QBEPBDXZ 10003560 f i Aimbot.obj
 0001:00002560       ?_Myptr@?$_String_val@U?$_Simple_types@D@std@@@std@@QAEPADXZ 10003560 f i c_hooks.obj
 0001:000025a0       ?_Orphan_all@?$_Vector_alloc@U?$_Vec_base_types@V?$_List_unchecked_iterator@V?$_List_val@U?$_List_simple_types@U?$pair@$$CBV?$basic_string@DU?$char_traits@D@std@@V?$allocator@D@2@@std@@V?$shared_ptr@UNode@NetvarTree@@@2@@std@@@std@@@std@@@std@@V?$allocator@V?$_List_unchecked_iterator@V?$_List_val@U?$_List_simple_types@U?$pair@$$CBV?$basic_string@DU?$char_traits@D@std@@V?$allocator@D@2@@std@@V?$shared_ptr@UNode@NetvarTree@@@2@@std@@@std@@@std@@@std@@@2@@std@@@std@@QAEXXZ 100035a0 f i c_hooks.obj
 0001:000025a0       ?_Orphan_all@?$_String_alloc@U?$_String_base_types@_WV?$allocator@_W@std@@@std@@@std@@QAEXXZ 100035a0 f i config_system.obj
 0001:000025a0       ?_Orphan_all@?$_Vector_alloc@U?$_Vec_base_types@HV?$allocator@H@std@@@std@@@std@@QAEXXZ 100035a0 f i Aimbot.obj
 0001:000025a0       ?_Orphan_all@?$_String_alloc@U?$_String_base_types@DV?$allocator@D@std@@@std@@@std@@QAEXXZ 100035a0 f i c_hooks.obj
 0001:000025a0       ?_Orphan_all@?$_Deque_alloc@U?$_Deque_base_types@ULegitPlayerRecords@@V?$allocator@ULegitPlayerRecords@@@std@@@std@@@std@@QAEXXZ 100035a0 f i Legitbot.obj
 0001:000025a0       ?_Orphan_all@?$_Deque_alloc@U?$_Deque_base_types@UPlayerRecords@@V?$allocator@UPlayerRecords@@@std@@@std@@@std@@QAEXXZ 100035a0 f i LagComp.obj
 0001:000025a0       ?_Orphan_all@?$_Vector_alloc@U?$_Vec_base_types@V?$basic_string@DU?$char_traits@D@std@@V?$allocator@D@2@@std@@V?$allocator@V?$basic_string@DU?$char_traits@D@std@@V?$allocator@D@2@@std@@@2@@std@@@std@@QAEXXZ 100035a0 f i config_system.obj
 0001:000025c0       ?_Tidy@?$list@U?$pair@$$CBV?$basic_string@DU?$char_traits@D@std@@V?$allocator@D@2@@std@@V?$shared_ptr@UNode@NetvarTree@@@2@@std@@V?$allocator@U?$pair@$$CBV?$basic_string@DU?$char_traits@D@std@@V?$allocator@D@2@@std@@V?$shared_ptr@UNode@NetvarTree@@@2@@std@@@2@@std@@QAEXXZ 100035c0 f i c_hooks.obj
 0001:000025e0       ?_Tidy@?$vector@HV?$allocator@H@std@@@std@@AAEXXZ 100035e0 f i Aimbot.obj
 0001:000025e0       ?_Tidy@?$vector@V?$_List_unchecked_iterator@V?$_List_val@U?$_List_simple_types@U?$pair@$$CBV?$basic_string@DU?$char_traits@D@std@@V?$allocator@D@2@@std@@V?$shared_ptr@UNode@NetvarTree@@@2@@std@@@std@@@std@@@std@@V?$allocator@V?$_List_unchecked_iterator@V?$_List_val@U?$_List_simple_types@U?$pair@$$CBV?$basic_string@DU?$char_traits@D@std@@V?$allocator@D@2@@std@@V?$shared_ptr@UNode@NetvarTree@@@2@@std@@@std@@@std@@@std@@@2@@std@@AAEXXZ 100035e0 f i c_hooks.obj
 0001:00002690       ?_Tidy_deallocate@?$basic_string@DU?$char_traits@D@std@@V?$allocator@D@2@@std@@QAEXXZ 10003690 f i c_hooks.obj
 0001:00002740       ?_Tidy_init@?$basic_string@DU?$char_traits@D@std@@V?$allocator@D@2@@std@@QAEXXZ 10003740 f i c_hooks.obj
 0001:00002790       ?_Xlen@?$basic_string@DU?$char_traits@D@std@@V?$allocator@D@2@@std@@SAXXZ 10003790 f i c_hooks.obj
 0001:000027a0       ?allocate@?$allocator@D@std@@QAEPADI@Z 100037a0 f i c_hooks.obj
 0001:000027d0       ?assign@?$basic_string@DU?$char_traits@D@std@@V?$allocator@D@2@@std@@QAEAAV12@QBD@Z 100037d0 f i c_hooks.obj
 0001:00002800       ?assign@?$basic_string@DU?$char_traits@D@std@@V?$allocator@D@2@@std@@QAEAAV12@QBDI@Z 10003800 f i c_hooks.obj
 0001:00002890       ?assign@?$char_traits@D@std@@SAXAADABD@Z 10003890 f i c_hooks.obj
 0001:000028a0       ?capacity@?$vector@V?$_List_unchecked_iterator@V?$_List_val@U?$_List_simple_types@U?$pair@$$CBV?$basic_string@DU?$char_traits@D@std@@V?$allocator@D@2@@std@@V?$shared_ptr@UNode@NetvarTree@@@2@@std@@@std@@@std@@@std@@V?$allocator@V?$_List_unchecked_iterator@V?$_List_val@U?$_List_simple_types@U?$pair@$$CBV?$basic_string@DU?$char_traits@D@std@@V?$allocator@D@2@@std@@V?$shared_ptr@UNode@NetvarTree@@@2@@std@@@std@@@std@@@std@@@2@@std@@QBEIXZ 100038a0 f i c_hooks.obj
 0001:000028a0       ?capacity@?$vector@HV?$allocator@H@std@@@std@@QBEIXZ 100038a0 f i Aimbot.obj
 0001:000028d0       ?clear@?$list@U?$pair@$$CBV?$basic_string@DU?$char_traits@D@std@@V?$allocator@D@2@@std@@V?$shared_ptr@UNode@NetvarTree@@@2@@std@@V?$allocator@U?$pair@$$CBV?$basic_string@DU?$char_traits@D@std@@V?$allocator@D@2@@std@@V?$shared_ptr@UNode@NetvarTree@@@2@@std@@@2@@std@@QAEXXZ 100038d0 f i c_hooks.obj
 0001:00002990       ?copy@?$char_traits@D@std@@SAPADQADQBDI@Z 10003990 f i c_hooks.obj
 0001:000029b0       ?deallocate@?$_Default_allocator_traits@V?$allocator@U?$_List_node@U?$pair@$$CBV?$basic_string@DU?$char_traits@D@std@@V?$allocator@D@2@@std@@V?$shared_ptr@UNode@NetvarTree@@@2@@std@@PAX@std@@@std@@@std@@SAXAAV?$allocator@U?$_List_node@U?$pair@$$CBV?$basic_string@DU?$char_traits@D@std@@V?$allocator@D@2@@std@@V?$shared_ptr@UNode@NetvarTree@@@2@@std@@PAX@std@@@2@QAU?$_List_node@U?$pair@$$CBV?$basic_string@DU?$char_traits@D@std@@V?$allocator@D@2@@std@@V?$shared_ptr@UNode@NetvarTree@@@2@@std@@PAX@2@I@Z 100039b0 f i c_hooks.obj
 0001:000029d0       ?deallocate@?$allocator@D@std@@QAEXQADI@Z 100039d0 f i c_hooks.obj
 0001:000029f0       ?deallocate@?$allocator@H@std@@QAEXQAHI@Z 100039f0 f i Aimbot.obj
 0001:000029f0       ?deallocate@?$allocator@PAULegitPlayerRecords@@@std@@QAEXQAPAULegitPlayerRecords@@I@Z 100039f0 f i Legitbot.obj
 0001:000029f0       ?deallocate@?$allocator@PAUPlayerRecords@@@std@@QAEXQAPAUPlayerRecords@@I@Z 100039f0 f i LagComp.obj
 0001:000029f0       ?deallocate@?$allocator@V?$_List_unchecked_iterator@V?$_List_val@U?$_List_simple_types@U?$pair@$$CBV?$basic_string@DU?$char_traits@D@std@@V?$allocator@D@2@@std@@V?$shared_ptr@UNode@NetvarTree@@@2@@std@@@std@@@std@@@std@@@std@@QAEXQAV?$_List_unchecked_iterator@V?$_List_val@U?$_List_simple_types@U?$pair@$$CBV?$basic_string@DU?$char_traits@D@std@@V?$allocator@D@2@@std@@V?$shared_ptr@UNode@NetvarTree@@@2@@std@@@std@@@std@@@2@I@Z 100039f0 f i c_hooks.obj
 0001:00002a10       ?length@?$char_traits@D@std@@SAIQBD@Z 10003a10 f i c_hooks.obj
 0001:00002a50       ?max@?$numeric_limits@H@std@@SAHXZ 10003a50 f i c_hooks.obj
 0001:00002a60       ?eof@?$char_traits@D@std@@SAHXZ 10003a60 f i config_system.obj
 0001:00002a60       ?max_size@?$_Default_allocator_traits@V?$allocator@D@std@@@std@@SAIABV?$allocator@D@2@@Z 10003a60 f i c_hooks.obj
 0001:00002a70       ?max_size@?$basic_string@DU?$char_traits@D@std@@V?$allocator@D@2@@std@@QBEIXZ 10003a70 f i c_hooks.obj
 0001:00002ad0       ?move@?$char_traits@D@std@@SAPADQADQBDI@Z 10003ad0 f i c_hooks.obj
 0001:00002af0       ?release@?$unique_ptr@$$BY0A@IU?$default_delete@$$BY0A@I@std@@@std@@QAEPAIXZ 10003af0 f i c_hooks.obj
 0001:00002af0       ?release@?$unique_ptr@VNetvarTree@@U?$default_delete@VNetvarTree@@@std@@@std@@QAEPAVNetvarTree@@XZ 10003af0 f i c_hooks.obj
 0001:00002af0       ?release@?$unique_ptr@VVMTHook@@U?$default_delete@VVMTHook@@@std@@@std@@QAEPAVVMTHook@@XZ 10003af0 f i c_hooks.obj
 0001:00002af0       ?release@?$unique_ptr@V_Facet_base@std@@U?$default_delete@V_Facet_base@std@@@2@@std@@QAEPAV_Facet_base@2@XZ 10003af0 f i config_system.obj
 0001:00002b20       ?reset@?$unique_ptr@VNetvarTree@@U?$default_delete@VNetvarTree@@@std@@@std@@QAEXPAVNetvarTree@@@Z 10003b20 f i c_hooks.obj
 0001:00002b70       ?reset@?$unique_ptr@VVMTHook@@U?$default_delete@VVMTHook@@@std@@@std@@QAEXPAVVMTHook@@@Z 10003b70 f i c_hooks.obj
 0001:00002bc0       ?table_functions@c_hooks@@SAXXZ 10003bc0 f   c_hooks.obj
 0001:00002cd0       ?vmt_hooks@c_hooks@@SAXXZ  10003cd0 f   c_hooks.obj
 0001:00002e20       ?what@exception@std@@UBEPBDXZ 10003e20 f i c_hooks.obj
 0001:00002e50       ?wnd_hook@c_hooks@@SAXXZ   10003e50 f   c_hooks.obj
 0001:00002e80       ??$?0HX@?$duration@_JU?$ratio@$00$0DOI@@std@@@chrono@std@@QAE@ABH@Z 10003e80 f i dll_main.obj
 0001:00002ea0       ??$?0_JU?$ratio@$00$00@std@@X@?$duration@_JU?$ratio@$00$0DLJKMKAA@@std@@@chrono@std@@QAE@ABV?$duration@_JU?$ratio@$00$00@std@@@12@@Z 10003ea0 f i dll_main.obj
 0001:00002ee0       ??$?0_JU?$ratio@$00$0JIJGIA@@std@@X@?$duration@_JU?$ratio@$00$0DLJKMKAA@@std@@@chrono@std@@QAE@ABV?$duration@_JU?$ratio@$00$0JIJGIA@@std@@@12@@Z 10003ee0 f i dll_main.obj
 0001:00002f20       ??$?0_JX@?$duration@_JU?$ratio@$00$0DLJKMKAA@@std@@@chrono@std@@QAE@AB_J@Z 10003f20 f i dll_main.obj
 0001:00002f20       ??$?0_KX@?$duration@_JU?$ratio@$00$0DOI@@std@@@chrono@std@@QAE@AB_K@Z 10003f20 f i hooking_init.obj
 0001:00002f20       ??$?0_JX@?$duration@_JU?$ratio@$00$00@std@@@chrono@std@@QAE@AB_J@Z 10003f20 f i dll_main.obj
 0001:00002f20       ??$?0_JX@?$duration@_JU?$ratio@$00$0DOI@@std@@@chrono@std@@QAE@AB_J@Z 10003f20 f i dll_main.obj
 0001:00002f20       ??$?0_JX@?$duration@_JU?$ratio@$00$0JIJGIA@@std@@@chrono@std@@QAE@AB_J@Z 10003f20 f i dll_main.obj
 0001:00002f40       ??$?M_JU?$ratio@$00$0DOI@@std@@_JU01@@chrono@std@@YA_NABV?$duration@_JU?$ratio@$00$0DOI@@std@@@01@0@Z 10003f40 f i dll_main.obj
 0001:00002fb0       ??$?N_JU?$ratio@$00$0DOI@@std@@_JU01@@chrono@std@@YA_NABV?$duration@_JU?$ratio@$00$0DOI@@std@@@01@0@Z 10003fb0 f i dll_main.obj
 0001:00002ff0       ??$_To_xtime@_JU?$ratio@$00$0DOI@@std@@@std@@YA?AUxtime@@ABV?$duration@_JU?$ratio@$00$0DOI@@std@@@chrono@0@@Z 10003ff0 f i dll_main.obj
 0001:000030f0       ??$duration_cast@V?$duration@_JU?$ratio@$00$00@std@@@chrono@std@@_JU?$ratio@$00$0DLJKMKAA@@3@X@chrono@std@@YA?AV?$duration@_JU?$ratio@$00$00@std@@@01@ABV?$duration@_JU?$ratio@$00$0DLJKMKAA@@std@@@01@@Z 100040f0 f i dll_main.obj
 0001:00003200       ??$duration_cast@V?$duration@_JU?$ratio@$00$0DLJKMKAA@@std@@@chrono@std@@_JU?$ratio@$00$00@3@X@chrono@std@@YA?AV?$duration@_JU?$ratio@$00$0DLJKMKAA@@std@@@01@ABV?$duration@_JU?$ratio@$00$00@std@@@01@@Z 10004200 f i dll_main.obj
 0001:00003310       ??$duration_cast@V?$duration@_JU?$ratio@$00$0DLJKMKAA@@std@@@chrono@std@@_JU?$ratio@$00$0DOI@@3@X@chrono@std@@YA?AV?$duration@_JU?$ratio@$00$0DLJKMKAA@@std@@@01@ABV?$duration@_JU?$ratio@$00$0DOI@@std@@@01@@Z 10004310 f i dll_main.obj
 0001:00003420       ??$duration_cast@V?$duration@_JU?$ratio@$00$0DLJKMKAA@@std@@@chrono@std@@_JU?$ratio@$00$0JIJGIA@@3@X@chrono@std@@YA?AV?$duration@_JU?$ratio@$00$0DLJKMKAA@@std@@@01@ABV?$duration@_JU?$ratio@$00$0JIJGIA@@std@@@01@@Z 10004420 f i dll_main.obj
 0001:00003520       ??$sleep_for@_JU?$ratio@$00$0DOI@@std@@@this_thread@std@@YAXABV?$duration@_JU?$ratio@$00$0DOI@@std@@@chrono@1@@Z 10004520 f i dll_main.obj
 0001:00003590       ??0?$time_point@Usystem_clock@chrono@std@@V?$duration@_JU?$ratio@$00$0JIJGIA@@std@@@23@@chrono@std@@QAE@ABV?$duration@_JU?$ratio@$00$0JIJGIA@@std@@@12@@Z 10004590 f i dll_main.obj
 0001:000035b0       ??Y?$duration@_JU?$ratio@$00$0DLJKMKAA@@std@@@chrono@std@@QAEAAV012@ABV012@@Z 100045b0 f i dll_main.obj
 0001:000035e0       ??Z?$duration@_JU?$ratio@$00$0DLJKMKAA@@std@@@chrono@std@@QAEAAV012@ABV012@@Z 100045e0 f i dll_main.obj
 0001:00003610       ?attach@@YGKPAX@Z          10004610 f   dll_main.obj
 0001:00003700       ?count@?$duration@_JU?$ratio@$00$0DOI@@std@@@chrono@std@@QBE_JXZ 10004700 f i dll_main.obj
 0001:00003700       ?count@?$duration@_JU?$ratio@$00$0DLJKMKAA@@std@@@chrono@std@@QBE_JXZ 10004700 f i dll_main.obj
 0001:00003700       ?count@?$duration@_JU?$ratio@$00$00@std@@@chrono@std@@QBE_JXZ 10004700 f i dll_main.obj
 0001:00003700       ?count@?$duration@_JU?$ratio@$00$0JIJGIA@@std@@@chrono@std@@QBE_JXZ 10004700 f i dll_main.obj
 0001:00003720       ?detach@@YGHXZ             10004720 f   dll_main.obj
 0001:00003730       ?now@system_clock@chrono@std@@SA?AV?$time_point@Usystem_clock@chrono@std@@V?$duration@_JU?$ratio@$00$0JIJGIA@@std@@@23@@23@XZ 10004730 f i dll_main.obj
 0001:00003790       ?sleep_until@this_thread@std@@YAXPBUxtime@@@Z 10004790 f i dll_main.obj
 0001:000037b0       ?GetTL@ImRect@@QBE?AUImVec2@@XZ 100047b0 f i imgui.obj
 0001:000037b0       ?time_since_epoch@?$time_point@Usystem_clock@chrono@std@@V?$duration@_JU?$ratio@$00$0JIJGIA@@std@@@23@@chrono@std@@QBE?AV?$duration@_JU?$ratio@$00$0JIJGIA@@std@@@23@XZ 100047b0 f i dll_main.obj
 0001:000037d0       ?zero@?$duration@_JU?$ratio@$00$0DOI@@std@@@chrono@std@@SA?AV123@XZ 100047d0 f i dll_main.obj
 0001:00003820       ?zero@?$duration_values@_J@chrono@std@@SA_JXZ 10004820 f i dll_main.obj
 0001:00003830       _DllMain@12                10004830 f   dll_main.obj
 0001:00003880       ??$?0$$QAV?$basic_string@DU?$char_traits@D@std@@V?$allocator@D@2@@std@@$$Z$$V@?$pair@$$CBV?$basic_string@DU?$char_traits@D@std@@V?$allocator@D@2@@std@@V?$shared_ptr@UNode@NetvarTree@@@2@@std@@QAE@Upiecewise_construct_t@1@V?$tuple@$$QAV?$basic_string@DU?$char_traits@D@std@@V?$allocator@D@2@@std@@@1@V?$tuple@$$V@1@@Z 10004880 f i Aimbot.obj
 0001:000038b0       ??$?0$$V@?$_Compressed_pair@V?$allocator@H@std@@V?$_Vector_val@U?$_Simple_types@H@std@@@2@$00@std@@QAE@U_Zero_then_variadic_args_t@1@@Z 100048b0 f i Aimbot.obj
 0001:000038b0       ??$?0$$V@?$_Compressed_pair@V?$allocator@V?$basic_string@DU?$char_traits@D@std@@V?$allocator@D@2@@std@@@std@@V?$_Vector_val@U?$_Simple_types@V?$basic_string@DU?$char_traits@D@std@@V?$allocator@D@2@@std@@@std@@@2@$00@std@@QAE@U_Zero_then_variadic_args_t@1@@Z 100048b0 f i config_system.obj
 0001:000038d0       ??$?0V?$_List_iterator@V?$_List_val@U?$_List_simple_types@U?$pair@$$CBV?$basic_string@DU?$char_traits@D@std@@V?$allocator@D@2@@std@@V?$shared_ptr@UNode@NetvarTree@@@2@@std@@@std@@@std@@@std@@_N$0A@@?$pair@V?$_List_iterator@V?$_List_val@U?$_List_simple_types@U?$pair@$$CBV?$basic_string@DU?$char_traits@D@std@@V?$allocator@D@2@@std@@V?$shared_ptr@UNode@NetvarTree@@@2@@std@@@std@@@std@@@std@@_N@std@@QAE@$$QAV?$_List_iterator@V?$_List_val@U?$_List_simple_types@U?$pair@$$CBV?$basic_string@DU?$char_traits@D@std@@V?$allocator@D@2@@std@@V?$shared_ptr@UNode@NetvarTree@@@2@@std@@@std@@@std@@@1@$$QA_N@Z 100048d0 f i Aimbot.obj
 0001:000038d0       ??$?0AAV?$_List_iterator@V?$_List_val@U?$_List_simple_types@U?$pair@$$CBV?$basic_string@DU?$char_traits@D@std@@V?$allocator@D@2@@std@@V?$shared_ptr@UNode@NetvarTree@@@2@@std@@@std@@@std@@@std@@_N$0A@@?$pair@V?$_List_iterator@V?$_List_val@U?$_List_simple_types@U?$pair@$$CBV?$basic_string@DU?$char_traits@D@std@@V?$allocator@D@2@@std@@V?$shared_ptr@UNode@NetvarTree@@@2@@std@@@std@@@std@@@std@@_N@std@@QAE@AAV?$_List_iterator@V?$_List_val@U?$_List_simple_types@U?$pair@$$CBV?$basic_string@DU?$char_traits@D@std@@V?$allocator@D@2@@std@@V?$shared_ptr@UNode@NetvarTree@@@2@@std@@@std@@@std@@@1@$$QA_N@Z 100048d0 f i Aimbot.obj
 0001:00003910       ??$?0ULegitPlayerRecords@@@?$allocator@U_Container_proxy@std@@@std@@QAE@ABV?$allocator@ULegitPlayerRecords@@@1@@Z 10004910 f i Legitbot.obj
 0001:00003910       ??0?$tuple@$$V@std@@QAE@ABV01@@Z 10004910 f i Aimbot.obj
 0001:00003910       ??$?0U?$pair@$$CBV?$basic_string@DU?$char_traits@D@std@@V?$allocator@D@2@@std@@V?$shared_ptr@UNode@NetvarTree@@@2@@std@@@?$allocator@V?$_List_unchecked_iterator@V?$_List_val@U?$_List_simple_types@U?$pair@$$CBV?$basic_string@DU?$char_traits@D@std@@V?$allocator@D@2@@std@@V?$shared_ptr@UNode@NetvarTree@@@2@@std@@@std@@@std@@@std@@@std@@QAE@ABV?$allocator@U?$pair@$$CBV?$basic_string@DU?$char_traits@D@std@@V?$allocator@D@2@@std@@V?$shared_ptr@UNode@NetvarTree@@@2@@std@@@1@@Z 10004910 f i NetvarManager.obj
 0001:00003910       ??$?0UPlayerRecords@@@?$allocator@U_Container_proxy@std@@@std@@QAE@ABV?$allocator@UPlayerRecords@@@1@@Z 10004910 f i LagComp.obj
 0001:00003910       ??$?0U_Exact_args_t@std@@$0A@@?$tuple@$$V@std@@QAE@U_Exact_args_t@1@@Z 10004910 f i Aimbot.obj
 0001:00003910       ??$?0U?$pair@$$CBV?$basic_string@DU?$char_traits@D@std@@V?$allocator@D@2@@std@@V?$shared_ptr@UNode@NetvarTree@@@2@@std@@@?$allocator@U?$_List_node@U?$pair@$$CBV?$basic_string@DU?$char_traits@D@std@@V?$allocator@D@2@@std@@V?$shared_ptr@UNode@NetvarTree@@@2@@std@@PAX@std@@@std@@QAE@ABV?$allocator@U?$pair@$$CBV?$basic_string@DU?$char_traits@D@std@@V?$allocator@D@2@@std@@V?$shared_ptr@UNode@NetvarTree@@@2@@std@@@1@@Z 10004910 f i NetvarManager.obj
 0001:00003910       ??$?0UPlayerRecords@@@?$allocator@PAUPlayerRecords@@@std@@QAE@ABV?$allocator@UPlayerRecords@@@1@@Z 10004910 f i LagComp.obj
 0001:00003910       ??$?0ULegitPlayerRecords@@@?$allocator@PAULegitPlayerRecords@@@std@@QAE@ABV?$allocator@ULegitPlayerRecords@@@1@@Z 10004910 f i Legitbot.obj
 0001:00003910       ??$?0U?$integral_constant@_N$00@std@@@_Unused_parameter@std@@QAE@$$QAU?$integral_constant@_N$00@1@@Z 10004910 f i Aimbot.obj
 0001:00003920       ??$?0U_Exact_args_t@std@@V?$basic_string@DU?$char_traits@D@std@@V?$allocator@D@2@@1@$$V$0A@@?$tuple@$$QAV?$basic_string@DU?$char_traits@D@std@@V?$allocator@D@2@@std@@@std@@QAE@U_Exact_args_t@1@$$QAV?$basic_string@DU?$char_traits@D@std@@V?$allocator@D@2@@1@@Z 10004920 f i Aimbot.obj
 0001:00003960       ??$?0V?$allocator@D@std@@$$V@?$_Compressed_pair@V?$allocator@D@std@@V?$_String_val@U?$_Simple_types@D@std@@@2@$00@std@@QAE@U_One_then_variadic_args_t@1@$$QAV?$allocator@D@1@@Z 10004960 f i Aimbot.obj
 0001:00003960       ??$?0ABV?$allocator@D@std@@$$V@?$_Compressed_pair@V?$allocator@D@std@@V?$_String_val@U?$_Simple_types@D@std@@@2@$00@std@@QAE@U_One_then_variadic_args_t@1@ABV?$allocator@D@1@@Z 10004960 f i c_esp.obj
 0001:00003990       ??$?0ABV?$allocator@D@std@@X@?$_String_alloc@U?$_String_base_types@DV?$allocator@D@std@@@std@@@std@@QAE@ABV?$allocator@D@1@@Z 10004990 f i c_esp.obj
 0001:00003990       ??$?0V?$allocator@D@std@@X@?$_String_alloc@U?$_String_base_types@DV?$allocator@D@std@@@std@@@std@@QAE@$$QAV?$allocator@D@1@@Z 10004990 f i Aimbot.obj
 0001:000039d0       ??$?0V?$basic_string@DU?$char_traits@D@std@@V?$allocator@D@2@@std@@$$V$0A@@?$tuple@$$QAV?$basic_string@DU?$char_traits@D@std@@V?$allocator@D@2@@std@@@std@@QAE@$$QAV?$basic_string@DU?$char_traits@D@std@@V?$allocator@D@2@@1@@Z 100049d0 f i Aimbot.obj
 0001:00003a40       ??$?0V?$basic_string@DU?$char_traits@D@std@@V?$allocator@D@2@@std@@@?$_Tuple_val@$$QAV?$basic_string@DU?$char_traits@D@std@@V?$allocator@D@2@@std@@@std@@QAE@$$QAV?$basic_string@DU?$char_traits@D@std@@V?$allocator@D@2@@1@@Z 10004a40 f i Aimbot.obj
 0001:00003a70       ??$?0V?$tuple@$$QAV?$basic_string@DU?$char_traits@D@std@@V?$allocator@D@2@@std@@@std@@V?$tuple@$$V@1@$0A@$$Z$S@?$pair@$$CBV?$basic_string@DU?$char_traits@D@std@@V?$allocator@D@2@@std@@V?$shared_ptr@UNode@NetvarTree@@@2@@std@@QAE@AAV?$tuple@$$QAV?$basic_string@DU?$char_traits@D@std@@V?$allocator@D@2@@std@@@1@AAV?$tuple@$$V@1@U?$integer_sequence@I$0A@@1@U?$integer_sequence@I$S@1@@Z 10004a70 f i Aimbot.obj
 0001:00003ac0       ??$?8DU?$char_traits@D@std@@V?$allocator@D@1@@std@@YA_NABV?$basic_string@DU?$char_traits@D@std@@V?$allocator@D@2@@0@0@Z 10004ac0 f i Aimbot.obj
 0001:00003ae0       ??$?CUNode@NetvarTree@@$0A@@?$shared_ptr@UNode@NetvarTree@@@std@@QBEPAUNode@NetvarTree@@XZ 10004ae0 f i Aimbot.obj
 0001:00003ae0       ??D?$_String_iterator@V?$_String_val@U?$_Simple_types@D@std@@@std@@@std@@QBEAADXZ 10004ae0 f i config_system.obj
 0001:00003b00       ??$CallVFunc@$0BMM@PAVweapon_info_t@@$$V@Utils@@SAPAVweapon_info_t@@PAX@Z 10004b00 f i c_esp.obj
 0001:00003b00       ??$CallVFunc@$0BMM@PAVWeaponInfo_t@@$$V@Utils@@SAPAVWeaponInfo_t@@PAX@Z 10004b00 f i Aimbot.obj
 0001:00003b30       ??$GetOffset@PBD@NetvarTree@@QAEHPBD0@Z 10004b30 f i Aimbot.obj
 0001:00003be0       ??$GetOffset@PBDPBD@NetvarTree@@QAEHPBD00@Z 10004be0 f i Aimbot.obj
 0001:00003c90       ??$GetOffsetRecursive@PBD@NetvarTree@@AAEHAAV?$unordered_map@V?$basic_string@DU?$char_traits@D@std@@V?$allocator@D@2@@std@@V?$shared_ptr@UNode@NetvarTree@@@2@U?$hash@V?$basic_string@DU?$char_traits@D@std@@V?$allocator@D@2@@std@@@2@U?$equal_to@V?$basic_string@DU?$char_traits@D@std@@V?$allocator@D@2@@std@@@2@V?$allocator@U?$pair@$$CBV?$basic_string@DU?$char_traits@D@std@@V?$allocator@D@2@@std@@V?$shared_ptr@UNode@NetvarTree@@@2@@std@@@2@@std@@HPBD1@Z 10004c90 f i Aimbot.obj
 0001:00003d40       ??$GetVFunc@P6EAAVVector@@PAX@Z@Utils@@SAP6EAAVVector@@PAX@Z0I@Z 10004d40 f i CEntity.obj
 0001:00003d40       ??$GetVFunc@P6EPBDPAVIPanel@@I@Z@Utils@@SAP6EPBDPAVIPanel@@I@ZPAXI@Z 10004d40 f i painttraverse_hook.obj
 0001:00003d40       ??$GetVFunc@P6EXPAXHH@Z@Utils@@SAP6EXPAXHH@Z0I@Z 10004d40 f i c_esp.obj
 0001:00003d40       ??$GetVFunc@P6EMPAX@Z@Utils@@SAP6EMPAX@Z0I@Z 10004d40 f i Aimbot.obj
 0001:00003d40       ??$GetVFunc@P6EXPAX@Z@Utils@@SAP6EXPAX@Z0I@Z 10004d40 f i EnginePrediction.obj
 0001:00003d40       ??$GetVFunc@P6EXPAXAAVVector@@@Z@Utils@@SAP6EXPAXAAVVector@@@Z0I@Z 10004d40 f i Aimbot.obj
 0001:00003d40       ??$GetVFunc@P6EIPAX@Z@Utils@@SAP6EIPAX@Z0I@Z 10004d40 f i hooking_init.obj
 0001:00003d40       ??$GetVFunc@P6EXPAXHHHH@Z@Utils@@SAP6EXPAXHHHH@Z0I@Z 10004d40 f i c_esp.obj
 0001:00003d40       ??$GetVFunc@P6EXPAXPB_WHH@Z@Utils@@SAP6EXPAXPB_WHH@Z0I@Z 10004d40 f i c_esp.obj
 0001:00003d40       ??$GetVFunc@P6EXPAXH@Z@Utils@@SAP6EXPAXH@Z0I@Z 10004d40 f i fsn_hook.obj
 0001:00003d40       ??$DUMBNIGGERSLOL@P6EPAVNetChannel@@PAX@Z@IVEngineClient@@SAP6EPAVNetChannel@@PAX@Z0I@Z 10004d40 f i Resolver.obj
 0001:00003d40       ??$GetVFunc@P6EXPAXKPBDHHHHHHH@Z@Utils@@SAP6EXPAXKPBDHHHHHHH@Z0I@Z 10004d40 f i hooking_init.obj
 0001:00003d40       ??$GetVFunc@P6EXPAXKPB_WAAH2@Z@Utils@@SAP6EXPAXKPB_WAAH2@Z0I@Z 10004d40 f i c_esp.obj
 0001:00003d40       ??$GetVFunc@P6EXPAXK@Z@Utils@@SAP6EXPAXK@Z0I@Z 10004d40 f i c_esp.obj
 0001:00003d50       ??$GetValue@W4EntityFlags@@@C_BaseEntity@@AAE?AW4EntityFlags@@H@Z 10004d50 f i Aimbot.obj
 0001:00003d50       ??$GetValue@H@C_BaseCombatWeapon@@AAEHH@Z 10004d50 f i c_esp.obj
 0001:00003d50       ??$GetValue@H@C_BaseEntity@@AAEHH@Z 10004d50 f i Aimbot.obj
 0001:00003d70       ??$GetValue@M@C_BaseCombatWeapon@@AAEMH@Z 10004d70 f i Aimbot.obj
 0001:00003d70       ??$GetValue@M@C_BaseEntity@@AAEMH@Z 10004d70 f i Aimbot.obj
 0001:00003d90       ??$GetValue@VCBaseHandle@@@C_BaseEntity@@AAE?AVCBaseHandle@@H@Z 10004d90 f i Aimbot.obj
 0001:00003db0       ??$GetValue@VVector@@@C_BaseEntity@@AAE?AVVector@@H@Z 10004db0 f i Aimbot.obj
 0001:00003de0       ??$GetValue@_N@C_BaseEntity@@AAE_NH@Z 10004de0 f i Aimbot.obj
 0001:00003e00       ??$_Buy_if_not_node@AAU?$pair@$$CBV?$basic_string@DU?$char_traits@D@std@@V?$allocator@D@2@@std@@V?$shared_ptr@UNode@NetvarTree@@@2@@std@@@?$_Hash@V?$_Umap_traits@V?$basic_string@DU?$char_traits@D@std@@V?$allocator@D@2@@std@@V?$shared_ptr@UNode@NetvarTree@@@2@V?$_Uhash_compare@V?$basic_string@DU?$char_traits@D@std@@V?$allocator@D@2@@std@@U?$hash@V?$basic_string@DU?$char_traits@D@std@@V?$allocator@D@2@@std@@@2@U?$equal_to@V?$basic_string@DU?$char_traits@D@std@@V?$allocator@D@2@@std@@@2@@2@V?$allocator@U?$pair@$$CBV?$basic_string@DU?$char_traits@D@std@@V?$allocator@D@2@@std@@V?$shared_ptr@UNode@NetvarTree@@@2@@std@@@2@$0A@@std@@@std@@IAE?AV?$_List_unchecked_iterator@V?$_List_val@U?$_List_simple_types@U?$pair@$$CBV?$basic_string@DU?$char_traits@D@std@@V?$allocator@D@2@@std@@V?$shared_ptr@UNode@NetvarTree@@@2@@std@@@std@@@std@@@1@AAU?$pair@$$CBV?$basic_string@DU?$char_traits@D@std@@V?$allocator@D@2@@std@@V?$shared_ptr@UNode@NetvarTree@@@2@@1@V21@@Z 10004e00 f i Aimbot.obj
 0001:00003e20       ??$_Buynode@ABUpiecewise_construct_t@std@@V?$tuple@$$QAV?$basic_string@DU?$char_traits@D@std@@V?$allocator@D@2@@std@@@2@V?$tuple@$$V@2@@?$_List_buy@U?$pair@$$CBV?$basic_string@DU?$char_traits@D@std@@V?$allocator@D@2@@std@@V?$shared_ptr@UNode@NetvarTree@@@2@@std@@V?$allocator@U?$pair@$$CBV?$basic_string@DU?$char_traits@D@std@@V?$allocator@D@2@@std@@V?$shared_ptr@UNode@NetvarTree@@@2@@std@@@2@@std@@QAEPAU?$_List_node@U?$pair@$$CBV?$basic_string@DU?$char_traits@D@std@@V?$allocator@D@2@@std@@V?$shared_ptr@UNode@NetvarTree@@@2@@std@@PAX@1@PAU21@0ABUpiecewise_construct_t@1@$$QAV?$tuple@$$QAV?$basic_string@DU?$char_traits@D@std@@V?$allocator@D@2@@std@@@1@$$QAV?$tuple@$$V@1@@Z 10004e20 f i Aimbot.obj
 0001:00003f20       ??$_Copy_memmove@PAPAULegitPlayerRecords@@PAPAU1@@std@@YAPAPAULegitPlayerRecords@@PAPAU1@00@Z 10004f20 f i Legitbot.obj
 0001:00003f20       ??$_Copy_memmove@PAPAUPlayerRecords@@PAPAU1@@std@@YAPAPAUPlayerRecords@@PAPAU1@00@Z 10004f20 f i LagComp.obj
 0001:00003f20       ??$_Copy_memmove@PAHPAH@std@@YAPAHPAH00@Z 10004f20 f i Aimbot.obj
 0001:00003f60       ??$_Emplace_back@V?$_List_unchecked_iterator@V?$_List_val@U?$_List_simple_types@U?$pair@$$CBV?$basic_string@DU?$char_traits@D@std@@V?$allocator@D@2@@std@@V?$shared_ptr@UNode@NetvarTree@@@2@@std@@@std@@@std@@@std@@@?$_Uninitialized_backout_al@PAV?$_List_unchecked_iterator@V?$_List_val@U?$_List_simple_types@U?$pair@$$CBV?$basic_string@DU?$char_traits@D@std@@V?$allocator@D@2@@std@@V?$shared_ptr@UNode@NetvarTree@@@2@@std@@@std@@@std@@@std@@V?$allocator@V?$_List_unchecked_iterator@V?$_List_val@U?$_List_simple_types@U?$pair@$$CBV?$basic_string@DU?$char_traits@D@std@@V?$allocator@D@2@@std@@V?$shared_ptr@UNode@NetvarTree@@@2@@std@@@std@@@std@@@std@@@2@@std@@QAEX$$QAV?$_List_unchecked_iterator@V?$_List_val@U?$_List_simple_types@U?$pair@$$CBV?$basic_string@DU?$char_traits@D@std@@V?$allocator@D@2@@std@@V?$shared_ptr@UNode@NetvarTree@@@2@@std@@@std@@@std@@@1@@Z 10004f60 f i Aimbot.obj
 0001:00003f60       ??$_Emplace_back@ABV?$_List_unchecked_iterator@V?$_List_val@U?$_List_simple_types@U?$pair@$$CBV?$basic_string@DU?$char_traits@D@std@@V?$allocator@D@2@@std@@V?$shared_ptr@UNode@NetvarTree@@@2@@std@@@std@@@std@@@std@@@?$_Uninitialized_backout_al@PAV?$_List_unchecked_iterator@V?$_List_val@U?$_List_simple_types@U?$pair@$$CBV?$basic_string@DU?$char_traits@D@std@@V?$allocator@D@2@@std@@V?$shared_ptr@UNode@NetvarTree@@@2@@std@@@std@@@std@@@std@@V?$allocator@V?$_List_unchecked_iterator@V?$_List_val@U?$_List_simple_types@U?$pair@$$CBV?$basic_string@DU?$char_traits@D@std@@V?$allocator@D@2@@std@@V?$shared_ptr@UNode@NetvarTree@@@2@@std@@@std@@@std@@@std@@@2@@std@@QAEXABV?$_List_unchecked_iterator@V?$_List_val@U?$_List_simple_types@U?$pair@$$CBV?$basic_string@DU?$char_traits@D@std@@V?$allocator@D@2@@std@@V?$shared_ptr@UNode@NetvarTree@@@2@@std@@@std@@@std@@@1@@Z 10004f60 f i Aimbot.obj
 0001:00003fc0       ??$_Emplace_back_with_unused_capacity@H@?$vector@HV?$allocator@H@std@@@std@@AAEAAH$$QAH@Z 10004fc0 f i Aimbot.obj
 0001:00004070       ??$_Emplace_reallocate@H@?$vector@HV?$allocator@H@std@@@std@@QAEPAHQAH$$QAH@Z 10005070 f i Aimbot.obj
 0001:00004260       ??$_Ptr_move_cat@V?$_Deque_unchecked_iterator@V?$_Deque_val@U?$_Deque_simple_types@ULegitPlayerRecords@@@std@@@std@@@std@@V12@@std@@YA?AU_General_ptr_iterator_tag@0@ABV?$_Deque_unchecked_iterator@V?$_Deque_val@U?$_Deque_simple_types@ULegitPlayerRecords@@@std@@@std@@@0@0@Z 10005260 f i Legitbot.obj
 0001:00004260       ??$_Ptr_move_cat@V?$_Deque_unchecked_iterator@V?$_Deque_val@U?$_Deque_simple_types@UPlayerRecords@@@std@@@std@@@std@@V12@@std@@YA?AU_General_ptr_iterator_tag@0@ABV?$_Deque_unchecked_iterator@V?$_Deque_val@U?$_Deque_simple_types@UPlayerRecords@@@std@@@std@@@0@0@Z 10005260 f i LagComp.obj
 0001:00004260       ??$_Fill_memset_is_safe@PAV?$_List_unchecked_iterator@V?$_List_val@U?$_List_simple_types@U?$pair@$$CBV?$basic_string@DU?$char_traits@D@std@@V?$allocator@D@2@@std@@V?$shared_ptr@UNode@NetvarTree@@@2@@std@@@std@@@std@@@std@@V12@@std@@YA?AU?$integral_constant@_N$0A@@0@ABQAV?$_List_unchecked_iterator@V?$_List_val@U?$_List_simple_types@U?$pair@$$CBV?$basic_string@DU?$char_traits@D@std@@V?$allocator@D@2@@std@@V?$shared_ptr@UNode@NetvarTree@@@2@@std@@@std@@@std@@@0@ABV20@@Z 10005260 f i Aimbot.obj
 0001:00004270       ??$_Fill_unchecked1@PAV?$_List_unchecked_iterator@V?$_List_val@U?$_List_simple_types@U?$pair@$$CBV?$basic_string@DU?$char_traits@D@std@@V?$allocator@D@2@@std@@V?$shared_ptr@UNode@NetvarTree@@@2@@std@@@std@@@std@@@std@@V12@@std@@YAXPAV?$_List_unchecked_iterator@V?$_List_val@U?$_List_simple_types@U?$pair@$$CBV?$basic_string@DU?$char_traits@D@std@@V?$allocator@D@2@@std@@V?$shared_ptr@UNode@NetvarTree@@@2@@std@@@std@@@std@@@0@0ABV10@U?$integral_constant@_N$0A@@0@@Z 10005270 f i Aimbot.obj
 0001:000042a0       ??$_Fill_unchecked@PAV?$_List_unchecked_iterator@V?$_List_val@U?$_List_simple_types@U?$pair@$$CBV?$basic_string@DU?$char_traits@D@std@@V?$allocator@D@2@@std@@V?$shared_ptr@UNode@NetvarTree@@@2@@std@@@std@@@std@@@std@@V12@@std@@YAXPAV?$_List_unchecked_iterator@V?$_List_val@U?$_List_simple_types@U?$pair@$$CBV?$basic_string@DU?$char_traits@D@std@@V?$allocator@D@2@@std@@V?$shared_ptr@UNode@NetvarTree@@@2@@std@@@std@@@std@@@0@0ABV10@@Z 100052a0 f i Aimbot.obj
 0001:000042e0       ??$_Get_size_of_n@$03@std@@YAII@Z 100052e0 f i Aimbot.obj
 0001:00004310       ??$_Get_size_of_n@$0CI@@std@@YAII@Z 10005310 f i Aimbot.obj
 0001:00004340       ??$_Hash_array_representation@D@std@@YAIQBDI@Z 10005340 f i Aimbot.obj
 0001:00004360       ??$_Idl_distance@PAHPAH@std@@YAHABQAH0@Z 10005360 f i Aimbot.obj
 0001:00004360       ??$_Idl_distance@PAPAUPlayerRecords@@PAPAU1@@std@@YAHABQAPAUPlayerRecords@@0@Z 10005360 f i LagComp.obj
 0001:00004360       ??$_Idl_distance@PAPAULegitPlayerRecords@@PAPAU1@@std@@YAHABQAPAULegitPlayerRecords@@0@Z 10005360 f i Legitbot.obj
 0001:00004360       ??$_Idl_distance@PAV?$_List_unchecked_iterator@V?$_List_val@U?$_List_simple_types@U?$pair@$$CBV?$basic_string@DU?$char_traits@D@std@@V?$allocator@D@2@@std@@V?$shared_ptr@UNode@NetvarTree@@@2@@std@@@std@@@std@@@std@@PAV12@@std@@YAHABQAV?$_List_unchecked_iterator@V?$_List_val@U?$_List_simple_types@U?$pair@$$CBV?$basic_string@DU?$char_traits@D@std@@V?$allocator@D@2@@std@@V?$shared_ptr@UNode@NetvarTree@@@2@@std@@@std@@@std@@@0@0@Z 10005360 f i Aimbot.obj
 0001:00004380       ??$_Insert@AAU?$pair@$$CBV?$basic_string@DU?$char_traits@D@std@@V?$allocator@D@2@@std@@V?$shared_ptr@UNode@NetvarTree@@@2@@std@@V?$_List_unchecked_iterator@V?$_List_val@U?$_List_simple_types@U?$pair@$$CBV?$basic_string@DU?$char_traits@D@std@@V?$allocator@D@2@@std@@V?$shared_ptr@UNode@NetvarTree@@@2@@std@@@std@@@std@@@2@@?$_Hash@V?$_Umap_traits@V?$basic_string@DU?$char_traits@D@std@@V?$allocator@D@2@@std@@V?$shared_ptr@UNode@NetvarTree@@@2@V?$_Uhash_compare@V?$basic_string@DU?$char_traits@D@std@@V?$allocator@D@2@@std@@U?$hash@V?$basic_string@DU?$char_traits@D@std@@V?$allocator@D@2@@std@@@2@U?$equal_to@V?$basic_string@DU?$char_traits@D@std@@V?$allocator@D@2@@std@@@2@@2@V?$allocator@U?$pair@$$CBV?$basic_string@DU?$char_traits@D@std@@V?$allocator@D@2@@std@@V?$shared_ptr@UNode@NetvarTree@@@2@@std@@@2@$0A@@std@@@std@@IAE?AU?$pair@V?$_List_iterator@V?$_List_val@U?$_List_simple_types@U?$pair@$$CBV?$basic_string@DU?$char_traits@D@std@@V?$allocator@D@2@@std@@V?$shared_ptr@UNode@NetvarTree@@@2@@std@@@std@@@std@@@std@@_N@1@AAU?$pair@$$CBV?$basic_string@DU?$char_traits@D@std@@V?$allocator@D@2@@std@@V?$shared_ptr@UNode@NetvarTree@@@2@@1@V?$_List_unchecked_iterator@V?$_List_val@U?$_List_simple_types@U?$pair@$$CBV?$basic_string@DU?$char_traits@D@std@@V?$allocator@D@2@@std@@V?$shared_ptr@UNode@NetvarTree@@@2@@std@@@std@@@std@@@1@@Z 10005380 f i Aimbot.obj
 0001:00004630       ??$_Insert@ABUpiecewise_construct_t@std@@V?$tuple@$$QAV?$basic_string@DU?$char_traits@D@std@@V?$allocator@D@2@@std@@@2@V?$tuple@$$V@2@@?$list@U?$pair@$$CBV?$basic_string@DU?$char_traits@D@std@@V?$allocator@D@2@@std@@V?$shared_ptr@UNode@NetvarTree@@@2@@std@@V?$allocator@U?$pair@$$CBV?$basic_string@DU?$char_traits@D@std@@V?$allocator@D@2@@std@@V?$shared_ptr@UNode@NetvarTree@@@2@@std@@@2@@std@@QAEXV?$_List_unchecked_const_iterator@V?$_List_val@U?$_List_simple_types@U?$pair@$$CBV?$basic_string@DU?$char_traits@D@std@@V?$allocator@D@2@@std@@V?$shared_ptr@UNode@NetvarTree@@@2@@std@@@std@@@std@@U_Iterator_base0@2@@1@ABUpiecewise_construct_t@1@$$QAV?$tuple@$$QAV?$basic_string@DU?$char_traits@D@std@@V?$allocator@D@2@@std@@@1@$$QAV?$tuple@$$V@1@@Z 10005630 f i Aimbot.obj
 0001:000046c0       ??$_Ptr_move_cat@V?$_List_unchecked_iterator@V?$_List_val@U?$_List_simple_types@U?$pair@$$CBV?$basic_string@DU?$char_traits@D@std@@V?$allocator@D@2@@std@@V?$shared_ptr@UNode@NetvarTree@@@2@@std@@@std@@@std@@@std@@V12@@std@@YA?AU_Trivially_copyable_ptr_iterator_tag@0@ABQAV?$_List_unchecked_iterator@V?$_List_val@U?$_List_simple_types@U?$pair@$$CBV?$basic_string@DU?$char_traits@D@std@@V?$allocator@D@2@@std@@V?$shared_ptr@UNode@NetvarTree@@@2@@std@@@std@@@std@@@0@0@Z 100056c0 f i Aimbot.obj
 0001:000046c0       ??$_Ptr_copy_cat@PAUPlayerRecords@@PAU1@@std@@YA?AU_Really_trivial_ptr_iterator_tag@0@ABQAPAUPlayerRecords@@0@Z 100056c0 f i LagComp.obj
 0001:000046c0       ??$_Ptr_move_cat@HH@std@@YA?AU_Really_trivial_ptr_iterator_tag@0@ABQAH0@Z 100056c0 f i Aimbot.obj
 0001:000046c0       ??$_Ptr_copy_cat@PAULegitPlayerRecords@@PAU1@@std@@YA?AU_Really_trivial_ptr_iterator_tag@0@ABQAPAULegitPlayerRecords@@0@Z 100056c0 f i Legitbot.obj
 0001:000046d0       ??$_Seek_wrapped@H@std@@YAXAAPAHQAH@Z 100056d0 f i Aimbot.obj
 0001:000046d0       ??$_Seek_wrapped@V?$_List_unchecked_iterator@V?$_List_val@U?$_List_simple_types@U?$pair@$$CBV?$basic_string@DU?$char_traits@D@std@@V?$allocator@D@2@@std@@V?$shared_ptr@UNode@NetvarTree@@@2@@std@@@std@@@std@@@std@@@std@@YAXAAPAV?$_List_unchecked_iterator@V?$_List_val@U?$_List_simple_types@U?$pair@$$CBV?$basic_string@DU?$char_traits@D@std@@V?$allocator@D@2@@std@@V?$shared_ptr@UNode@NetvarTree@@@2@@std@@@std@@@std@@@0@QAV10@@Z 100056d0 f i Aimbot.obj
 0001:000046d0       ??$_Seek_wrapped@PAUPlayerRecords@@@std@@YAXAAPAPAUPlayerRecords@@QAPAU1@@Z 100056d0 f i LagComp.obj
 0001:000046d0       ??$_Seek_wrapped@PAULegitPlayerRecords@@@std@@YAXAAPAPAULegitPlayerRecords@@QAPAU1@@Z 100056d0 f i Legitbot.obj
 0001:000046e0       ??$_Traits_equal@U?$char_traits@D@std@@@std@@YA_NQBDI0I@Z 100056e0 f i Aimbot.obj
 0001:00004720       ??$_Try_emplace@V?$basic_string@DU?$char_traits@D@std@@V?$allocator@D@2@@std@@$$V@?$unordered_map@V?$basic_string@DU?$char_traits@D@std@@V?$allocator@D@2@@std@@V?$shared_ptr@UNode@NetvarTree@@@2@U?$hash@V?$basic_string@DU?$char_traits@D@std@@V?$allocator@D@2@@std@@@2@U?$equal_to@V?$basic_string@DU?$char_traits@D@std@@V?$allocator@D@2@@std@@@2@V?$allocator@U?$pair@$$CBV?$basic_string@DU?$char_traits@D@std@@V?$allocator@D@2@@std@@V?$shared_ptr@UNode@NetvarTree@@@2@@std@@@2@@std@@QAE?AU?$pair@V?$_List_iterator@V?$_List_val@U?$_List_simple_types@U?$pair@$$CBV?$basic_string@DU?$char_traits@D@std@@V?$allocator@D@2@@std@@V?$shared_ptr@UNode@NetvarTree@@@2@@std@@@std@@@std@@@std@@_N@1@$$QAV?$basic_string@DU?$char_traits@D@std@@V?$allocator@D@2@@1@@Z 10005720 f i Aimbot.obj
 0001:000047c0       ??$_Uninit_alloc_fill_n1@PAV?$_List_unchecked_iterator@V?$_List_val@U?$_List_simple_types@U?$pair@$$CBV?$basic_string@DU?$char_traits@D@std@@V?$allocator@D@2@@std@@V?$shared_ptr@UNode@NetvarTree@@@2@@std@@@std@@@std@@@std@@IV?$allocator@V?$_List_unchecked_iterator@V?$_List_val@U?$_List_simple_types@U?$pair@$$CBV?$basic_string@DU?$char_traits@D@std@@V?$allocator@D@2@@std@@V?$shared_ptr@UNode@NetvarTree@@@2@@std@@@std@@@std@@@std@@@2@@std@@YAPAV?$_List_unchecked_iterator@V?$_List_val@U?$_List_simple_types@U?$pair@$$CBV?$basic_string@DU?$char_traits@D@std@@V?$allocator@D@2@@std@@V?$shared_ptr@UNode@NetvarTree@@@2@@std@@@std@@@std@@@0@QAV10@IABV10@AAV?$allocator@V?$_List_unchecked_iterator@V?$_List_val@U?$_List_simple_types@U?$pair@$$CBV?$basic_string@DU?$char_traits@D@std@@V?$allocator@D@2@@std@@V?$shared_ptr@UNode@NetvarTree@@@2@@std@@@std@@@std@@@std@@@0@U?$integral_constant@_N$0A@@0@@Z 100057c0 f i Aimbot.obj
 0001:00004850       ??$_Uninitialized_fill_n@PAV?$_List_unchecked_iterator@V?$_List_val@U?$_List_simple_types@U?$pair@$$CBV?$basic_string@DU?$char_traits@D@std@@V?$allocator@D@2@@std@@V?$shared_ptr@UNode@NetvarTree@@@2@@std@@@std@@@std@@@std@@IV?$allocator@V?$_List_unchecked_iterator@V?$_List_val@U?$_List_simple_types@U?$pair@$$CBV?$basic_string@DU?$char_traits@D@std@@V?$allocator@D@2@@std@@V?$shared_ptr@UNode@NetvarTree@@@2@@std@@@std@@@std@@@std@@@2@@std@@YAPAV?$_List_unchecked_iterator@V?$_List_val@U?$_List_simple_types@U?$pair@$$CBV?$basic_string@DU?$char_traits@D@std@@V?$allocator@D@2@@std@@V?$shared_ptr@UNode@NetvarTree@@@2@@std@@@std@@@std@@@0@QAV10@IABV10@AAV?$allocator@V?$_List_unchecked_iterator@V?$_List_val@U?$_List_simple_types@U?$pair@$$CBV?$basic_string@DU?$char_traits@D@std@@V?$allocator@D@2@@std@@V?$shared_ptr@UNode@NetvarTree@@@2@@std@@@std@@@std@@@std@@@0@@Z 10005850 f i Aimbot.obj
 0001:00004880       ??$_Uninitialized_move@PAHPAHV?$allocator@H@std@@@std@@YAPAHQAH0PAHAAV?$allocator@H@0@@Z 10005880 f i Aimbot.obj
 0001:00004880       ??$_Uninitialized_copy@PAPAULegitPlayerRecords@@PAPAU1@V?$allocator@PAULegitPlayerRecords@@@std@@@std@@YAPAPAULegitPlayerRecords@@QAPAU1@0PAPAU1@AAV?$allocator@PAULegitPlayerRecords@@@0@@Z 10005880 f i Legitbot.obj
 0001:00004880       ??$_Uninitialized_copy@PAPAUPlayerRecords@@PAPAU1@V?$allocator@PAUPlayerRecords@@@std@@@std@@YAPAPAUPlayerRecords@@QAPAU1@0PAPAU1@AAV?$allocator@PAUPlayerRecords@@@0@@Z 10005880 f i LagComp.obj
 0001:00004950       ??$_Uninitialized_move@PAV?$_List_unchecked_iterator@V?$_List_val@U?$_List_simple_types@U?$pair@$$CBV?$basic_string@DU?$char_traits@D@std@@V?$allocator@D@2@@std@@V?$shared_ptr@UNode@NetvarTree@@@2@@std@@@std@@@std@@@std@@PAV12@V?$allocator@V?$_List_unchecked_iterator@V?$_List_val@U?$_List_simple_types@U?$pair@$$CBV?$basic_string@DU?$char_traits@D@std@@V?$allocator@D@2@@std@@V?$shared_ptr@UNode@NetvarTree@@@2@@std@@@std@@@std@@@std@@@2@@std@@YAPAV?$_List_unchecked_iterator@V?$_List_val@U?$_List_simple_types@U?$pair@$$CBV?$basic_string@DU?$char_traits@D@std@@V?$allocator@D@2@@std@@V?$shared_ptr@UNode@NetvarTree@@@2@@std@@@std@@@std@@@0@QAV10@0PAV10@AAV?$allocator@V?$_List_unchecked_iterator@V?$_List_val@U?$_List_simple_types@U?$pair@$$CBV?$basic_string@DU?$char_traits@D@std@@V?$allocator@D@2@@std@@V?$shared_ptr@UNode@NetvarTree@@@2@@std@@@std@@@std@@@std@@@0@@Z 10005950 f i Aimbot.obj
 0001:00004a10       ??$_Uninitialized_copy_al_unchecked@PAUPlayerRecords@@PAU1@V?$allocator@PAUPlayerRecords@@@std@@@std@@YAPAPAUPlayerRecords@@QAPAU1@00AAV?$allocator@PAUPlayerRecords@@@0@U_Really_trivial_ptr_iterator_tag@0@U?$integral_constant@_N$00@0@@Z 10005a10 f i LagComp.obj
 0001:00004a10       ??$_Uninitialized_copy_al_unchecked@PAULegitPlayerRecords@@PAU1@V?$allocator@PAULegitPlayerRecords@@@std@@@std@@YAPAPAULegitPlayerRecords@@QAPAU1@00AAV?$allocator@PAULegitPlayerRecords@@@0@U_Really_trivial_ptr_iterator_tag@0@U?$integral_constant@_N$00@0@@Z 10005a10 f i Legitbot.obj
 0001:00004a10       ??$_Uninitialized_move_al_unchecked@HHV?$allocator@H@std@@@std@@YAPAHQAH00AAV?$allocator@H@0@U_Really_trivial_ptr_iterator_tag@0@U?$integral_constant@_N$00@0@@Z 10005a10 f i Aimbot.obj
 0001:00004a30       ??$_Uninitialized_move_al_unchecked@PAV?$_List_unchecked_iterator@V?$_List_val@U?$_List_simple_types@U?$pair@$$CBV?$basic_string@DU?$char_traits@D@std@@V?$allocator@D@2@@std@@V?$shared_ptr@UNode@NetvarTree@@@2@@std@@@std@@@std@@@std@@PAV12@V?$allocator@V?$_List_unchecked_iterator@V?$_List_val@U?$_List_simple_types@U?$pair@$$CBV?$basic_string@DU?$char_traits@D@std@@V?$allocator@D@2@@std@@V?$shared_ptr@UNode@NetvarTree@@@2@@std@@@std@@@std@@@std@@@2@@std@@YAPAV?$_List_unchecked_iterator@V?$_List_val@U?$_List_simple_types@U?$pair@$$CBV?$basic_string@DU?$char_traits@D@std@@V?$allocator@D@2@@std@@V?$shared_ptr@UNode@NetvarTree@@@2@@std@@@std@@@std@@@0@PAV10@QAV10@1AAV?$allocator@V?$_List_unchecked_iterator@V?$_List_val@U?$_List_simple_types@U?$pair@$$CBV?$basic_string@DU?$char_traits@D@std@@V?$allocator@D@2@@std@@V?$shared_ptr@UNode@NetvarTree@@@2@@std@@@std@@@std@@@std@@@0@U_General_ptr_iterator_tag@0@U_Unused_parameter@0@@Z 10005a30 f i Aimbot.obj
 0001:00004ad0       ??$construct@U?$pair@$$CBV?$basic_string@DU?$char_traits@D@std@@V?$allocator@D@2@@std@@V?$shared_ptr@UNode@NetvarTree@@@2@@std@@ABUpiecewise_construct_t@2@V?$tuple@$$QAV?$basic_string@DU?$char_traits@D@std@@V?$allocator@D@2@@std@@@2@V?$tuple@$$V@2@@?$_Default_allocator_traits@V?$allocator@U?$_List_node@U?$pair@$$CBV?$basic_string@DU?$char_traits@D@std@@V?$allocator@D@2@@std@@V?$shared_ptr@UNode@NetvarTree@@@2@@std@@PAX@std@@@std@@@std@@SAXAAV?$allocator@U?$_List_node@U?$pair@$$CBV?$basic_string@DU?$char_traits@D@std@@V?$allocator@D@2@@std@@V?$shared_ptr@UNode@NetvarTree@@@2@@std@@PAX@std@@@1@QAU?$pair@$$CBV?$basic_string@DU?$char_traits@D@std@@V?$allocator@D@2@@std@@V?$shared_ptr@UNode@NetvarTree@@@2@@1@ABUpiecewise_construct_t@1@$$QAV?$tuple@$$QAV?$basic_string@DU?$char_traits@D@std@@V?$allocator@D@2@@std@@@1@$$QAV?$tuple@$$V@1@@Z 10005ad0 f i Aimbot.obj
 0001:00004b50       ??$construct@V?$_List_unchecked_iterator@V?$_List_val@U?$_List_simple_types@U?$pair@$$CBV?$basic_string@DU?$char_traits@D@std@@V?$allocator@D@2@@std@@V?$shared_ptr@UNode@NetvarTree@@@2@@std@@@std@@@std@@@std@@V12@@?$_Default_allocator_traits@V?$allocator@V?$_List_unchecked_iterator@V?$_List_val@U?$_List_simple_types@U?$pair@$$CBV?$basic_string@DU?$char_traits@D@std@@V?$allocator@D@2@@std@@V?$shared_ptr@UNode@NetvarTree@@@2@@std@@@std@@@std@@@std@@@std@@@std@@SAXAAV?$allocator@V?$_List_unchecked_iterator@V?$_List_val@U?$_List_simple_types@U?$pair@$$CBV?$basic_string@DU?$char_traits@D@std@@V?$allocator@D@2@@std@@V?$shared_ptr@UNode@NetvarTree@@@2@@std@@@std@@@std@@@std@@@1@QAV?$_List_unchecked_iterator@V?$_List_val@U?$_List_simple_types@U?$pair@$$CBV?$basic_string@DU?$char_traits@D@std@@V?$allocator@D@2@@std@@V?$shared_ptr@UNode@NetvarTree@@@2@@std@@@std@@@std@@@1@$$QAV31@@Z 10005b50 f i Aimbot.obj
 0001:00004b50       ??$construct@V?$_List_unchecked_iterator@V?$_List_val@U?$_List_simple_types@U?$pair@$$CBV?$basic_string@DU?$char_traits@D@std@@V?$allocator@D@2@@std@@V?$shared_ptr@UNode@NetvarTree@@@2@@std@@@std@@@std@@@std@@ABV12@@?$_Default_allocator_traits@V?$allocator@V?$_List_unchecked_iterator@V?$_List_val@U?$_List_simple_types@U?$pair@$$CBV?$basic_string@DU?$char_traits@D@std@@V?$allocator@D@2@@std@@V?$shared_ptr@UNode@NetvarTree@@@2@@std@@@std@@@std@@@std@@@std@@@std@@SAXAAV?$allocator@V?$_List_unchecked_iterator@V?$_List_val@U?$_List_simple_types@U?$pair@$$CBV?$basic_string@DU?$char_traits@D@std@@V?$allocator@D@2@@std@@V?$shared_ptr@UNode@NetvarTree@@@2@@std@@@std@@@std@@@std@@@1@QAV?$_List_unchecked_iterator@V?$_List_val@U?$_List_simple_types@U?$pair@$$CBV?$basic_string@DU?$char_traits@D@std@@V?$allocator@D@2@@std@@V?$shared_ptr@UNode@NetvarTree@@@2@@std@@@std@@@std@@@1@ABV31@@Z 10005b50 f i Aimbot.obj
 0001:00004b80       ??$emplace@ABUpiecewise_construct_t@std@@V?$tuple@$$QAV?$basic_string@DU?$char_traits@D@std@@V?$allocator@D@2@@std@@@2@V?$tuple@$$V@2@@?$_Hash@V?$_Umap_traits@V?$basic_string@DU?$char_traits@D@std@@V?$allocator@D@2@@std@@V?$shared_ptr@UNode@NetvarTree@@@2@V?$_Uhash_compare@V?$basic_string@DU?$char_traits@D@std@@V?$allocator@D@2@@std@@U?$hash@V?$basic_string@DU?$char_traits@D@std@@V?$allocator@D@2@@std@@@2@U?$equal_to@V?$basic_string@DU?$char_traits@D@std@@V?$allocator@D@2@@std@@@2@@2@V?$allocator@U?$pair@$$CBV?$basic_string@DU?$char_traits@D@std@@V?$allocator@D@2@@std@@V?$shared_ptr@UNode@NetvarTree@@@2@@std@@@2@$0A@@std@@@std@@QAE?AU?$pair@V?$_List_iterator@V?$_List_val@U?$_List_simple_types@U?$pair@$$CBV?$basic_string@DU?$char_traits@D@std@@V?$allocator@D@2@@std@@V?$shared_ptr@UNode@NetvarTree@@@2@@std@@@std@@@std@@@std@@_N@1@ABUpiecewise_construct_t@1@$$QAV?$tuple@$$QAV?$basic_string@DU?$char_traits@D@std@@V?$allocator@D@2@@std@@@1@$$QAV?$tuple@$$V@1@@Z 10005b80 f i Aimbot.obj
 0001:00004c10       ??$emplace_back@H@?$vector@HV?$allocator@H@std@@@std@@QAEAAH$$QAH@Z 10005c10 f i Aimbot.obj
 0001:00004c80       ??$emplace_front@ABUpiecewise_construct_t@std@@V?$tuple@$$QAV?$basic_string@DU?$char_traits@D@std@@V?$allocator@D@2@@std@@@2@V?$tuple@$$V@2@@?$list@U?$pair@$$CBV?$basic_string@DU?$char_traits@D@std@@V?$allocator@D@2@@std@@V?$shared_ptr@UNode@NetvarTree@@@2@@std@@V?$allocator@U?$pair@$$CBV?$basic_string@DU?$char_traits@D@std@@V?$allocator@D@2@@std@@V?$shared_ptr@UNode@NetvarTree@@@2@@std@@@2@@std@@QAEAAU?$pair@$$CBV?$basic_string@DU?$char_traits@D@std@@V?$allocator@D@2@@std@@V?$shared_ptr@UNode@NetvarTree@@@2@@1@ABUpiecewise_construct_t@1@$$QAV?$tuple@$$QAV?$basic_string@DU?$char_traits@D@std@@V?$allocator@D@2@@std@@@1@$$QAV?$tuple@$$V@1@@Z 10005c80 f i Aimbot.obj
 0001:00004d00       ??$erase@V?$_List_iterator@V?$_List_val@U?$_List_simple_types@U?$pair@$$CBV?$basic_string@DU?$char_traits@D@std@@V?$allocator@D@2@@std@@V?$shared_ptr@UNode@NetvarTree@@@2@@std@@@std@@@std@@@std@@X@?$_Hash@V?$_Umap_traits@V?$basic_string@DU?$char_traits@D@std@@V?$allocator@D@2@@std@@V?$shared_ptr@UNode@NetvarTree@@@2@V?$_Uhash_compare@V?$basic_string@DU?$char_traits@D@std@@V?$allocator@D@2@@std@@U?$hash@V?$basic_string@DU?$char_traits@D@std@@V?$allocator@D@2@@std@@@2@U?$equal_to@V?$basic_string@DU?$char_traits@D@std@@V?$allocator@D@2@@std@@@2@@2@V?$allocator@U?$pair@$$CBV?$basic_string@DU?$char_traits@D@std@@V?$allocator@D@2@@std@@V?$shared_ptr@UNode@NetvarTree@@@2@@std@@@2@$0A@@std@@@std@@QAE?AV?$_List_iterator@V?$_List_val@U?$_List_simple_types@U?$pair@$$CBV?$basic_string@DU?$char_traits@D@std@@V?$allocator@D@2@@std@@V?$shared_ptr@UNode@NetvarTree@@@2@@std@@@std@@@std@@@1@V21@@Z 10005d00 f i Aimbot.obj
 0001:00004d30       ??$forward_as_tuple@$$V@std@@YA?AV?$tuple@$$V@0@XZ 10005d30 f i Aimbot.obj
 0001:00004d40       ??$forward_as_tuple@V?$basic_string@DU?$char_traits@D@std@@V?$allocator@D@2@@std@@@std@@YA?AV?$tuple@$$QAV?$basic_string@DU?$char_traits@D@std@@V?$allocator@D@2@@std@@@0@$$QAV?$basic_string@DU?$char_traits@D@std@@V?$allocator@D@2@@0@@Z 10005d40 f i Aimbot.obj
 0001:00004d60       ??$get@$0A@$$QAV?$basic_string@DU?$char_traits@D@std@@V?$allocator@D@2@@std@@@std@@YA$$QAV?$basic_string@DU?$char_traits@D@std@@V?$allocator@D@2@@0@$$QAV?$tuple@$$QAV?$basic_string@DU?$char_traits@D@std@@V?$allocator@D@2@@std@@@0@@Z 10005d60 f i Aimbot.obj
 0001:00004d80       ??$try_emplace@$$V@?$unordered_map@V?$basic_string@DU?$char_traits@D@std@@V?$allocator@D@2@@std@@V?$shared_ptr@UNode@NetvarTree@@@2@U?$hash@V?$basic_string@DU?$char_traits@D@std@@V?$allocator@D@2@@std@@@2@U?$equal_to@V?$basic_string@DU?$char_traits@D@std@@V?$allocator@D@2@@std@@@2@V?$allocator@U?$pair@$$CBV?$basic_string@DU?$char_traits@D@std@@V?$allocator@D@2@@std@@V?$shared_ptr@UNode@NetvarTree@@@2@@std@@@2@@std@@QAE?AU?$pair@V?$_List_iterator@V?$_List_val@U?$_List_simple_types@U?$pair@$$CBV?$basic_string@DU?$char_traits@D@std@@V?$allocator@D@2@@std@@V?$shared_ptr@UNode@NetvarTree@@@2@@std@@@std@@@std@@@std@@_N@1@$$QAV?$basic_string@DU?$char_traits@D@std@@V?$allocator@D@2@@1@@Z 10005d80 f i Aimbot.obj
 0001:00004db0       ??0?$_Deque_const_iterator@V?$_Deque_val@U?$_Deque_simple_types@ULegitPlayerRecords@@@std@@@std@@@std@@QAE@ABV01@@Z 10005db0 f i Legitbot.obj
 0001:00004db0       ??0?$_Deque_const_iterator@V?$_Deque_val@U?$_Deque_simple_types@UPlayerRecords@@@std@@@std@@@std@@QAE@$$QAV01@@Z 10005db0 f i LagComp.obj
 0001:00004db0       ??0?$_Deque_const_iterator@V?$_Deque_val@U?$_Deque_simple_types@UPlayerRecords@@@std@@@std@@@std@@QAE@ABV01@@Z 10005db0 f i Aimbot.obj
 0001:00004db0       ??0?$_Deque_const_iterator@V?$_Deque_val@U?$_Deque_simple_types@ULegitPlayerRecords@@@std@@@std@@@std@@QAE@$$QAV01@@Z 10005db0 f i Legitbot.obj
 0001:00004de0       ??0?$_Deque_const_iterator@V?$_Deque_val@U?$_Deque_simple_types@ULegitPlayerRecords@@@std@@@std@@@std@@QAE@IPBU_Container_base12@1@@Z 10005de0 f i Legitbot.obj
 0001:00004de0       ??0?$_Deque_const_iterator@V?$_Deque_val@U?$_Deque_simple_types@UPlayerRecords@@@std@@@std@@@std@@QAE@IPBU_Container_base12@1@@Z 10005de0 f i Aimbot.obj
 0001:00004e50       ??0?$_Deque_iterator@V?$_Deque_val@U?$_Deque_simple_types@UPlayerRecords@@@std@@@std@@@std@@QAE@ABV01@@Z 10005e50 f i Aimbot.obj
 0001:00004e50       ??0?$_Deque_iterator@V?$_Deque_val@U?$_Deque_simple_types@UPlayerRecords@@@std@@@std@@@std@@QAE@$$QAV01@@Z 10005e50 f i LagComp.obj
 0001:00004e50       ??0?$_Deque_iterator@V?$_Deque_val@U?$_Deque_simple_types@ULegitPlayerRecords@@@std@@@std@@@std@@QAE@$$QAV01@@Z 10005e50 f i Legitbot.obj
 0001:00004e50       ??0?$_Deque_iterator@V?$_Deque_val@U?$_Deque_simple_types@ULegitPlayerRecords@@@std@@@std@@@std@@QAE@ABV01@@Z 10005e50 f i Legitbot.obj
 0001:00004e70       ??0?$_Deque_iterator@V?$_Deque_val@U?$_Deque_simple_types@ULegitPlayerRecords@@@std@@@std@@@std@@QAE@IPBU_Container_base12@1@@Z 10005e70 f i Legitbot.obj
 0001:00004e70       ??0?$_Deque_iterator@V?$_Deque_val@U?$_Deque_simple_types@UPlayerRecords@@@std@@@std@@@std@@QAE@IPBU_Container_base12@1@@Z 10005e70 f i Aimbot.obj
 0001:00004e90       ??0?$_List_unchecked_iterator@V?$_List_val@U?$_List_simple_types@U?$pair@$$CBV?$basic_string@DU?$char_traits@D@std@@V?$allocator@D@2@@std@@V?$shared_ptr@UNode@NetvarTree@@@2@@std@@@std@@@std@@@std@@QAE@PAU?$_List_node@U?$pair@$$CBV?$basic_string@DU?$char_traits@D@std@@V?$allocator@D@2@@std@@V?$shared_ptr@UNode@NetvarTree@@@2@@std@@PAX@1@PBV?$_List_val@U?$_List_simple_types@U?$pair@$$CBV?$basic_string@DU?$char_traits@D@std@@V?$allocator@D@2@@std@@V?$shared_ptr@UNode@NetvarTree@@@2@@std@@@std@@@1@@Z 10005e90 f i Aimbot.obj
 0001:00004e90       ??0?$_List_const_iterator@V?$_List_val@U?$_List_simple_types@U?$pair@$$CBV?$basic_string@DU?$char_traits@D@std@@V?$allocator@D@2@@std@@V?$shared_ptr@UNode@NetvarTree@@@2@@std@@@std@@@std@@@std@@QAE@PAU?$_List_node@U?$pair@$$CBV?$basic_string@DU?$char_traits@D@std@@V?$allocator@D@2@@std@@V?$shared_ptr@UNode@NetvarTree@@@2@@std@@PAX@1@PBV?$_List_val@U?$_List_simple_types@U?$pair@$$CBV?$basic_string@DU?$char_traits@D@std@@V?$allocator@D@2@@std@@V?$shared_ptr@UNode@NetvarTree@@@2@@std@@@std@@@1@@Z 10005e90 f i Aimbot.obj
 0001:00004e90       ??0?$_String_iterator@V?$_String_val@U?$_Simple_types@D@std@@@std@@@std@@QAE@PADPBU_Container_base0@1@@Z 10005e90 f i c_esp.obj
 0001:00004eb0       ??0?$_List_iterator@V?$_List_val@U?$_List_simple_types@U?$pair@$$CBV?$basic_string@DU?$char_traits@D@std@@V?$allocator@D@2@@std@@V?$shared_ptr@UNode@NetvarTree@@@2@@std@@@std@@@std@@@std@@QAE@PAU?$_List_node@U?$pair@$$CBV?$basic_string@DU?$char_traits@D@std@@V?$allocator@D@2@@std@@V?$shared_ptr@UNode@NetvarTree@@@2@@std@@PAX@1@PBV?$_List_val@U?$_List_simple_types@U?$pair@$$CBV?$basic_string@DU?$char_traits@D@std@@V?$allocator@D@2@@std@@V?$shared_ptr@UNode@NetvarTree@@@2@@std@@@std@@@1@@Z 10005eb0 f i Aimbot.obj
 0001:00004ed0       ??0?$_String_const_iterator@V?$_String_val@U?$_Simple_types@D@std@@@std@@@std@@QAE@PBDPBU_Container_base0@1@@Z 10005ed0 f i c_esp.obj
 0001:00004ed0       ??0?$_List_unchecked_const_iterator@V?$_List_val@U?$_List_simple_types@U?$pair@$$CBV?$basic_string@DU?$char_traits@D@std@@V?$allocator@D@2@@std@@V?$shared_ptr@UNode@NetvarTree@@@2@@std@@@std@@@std@@U_Iterator_base0@2@@std@@QAE@PAU?$_List_node@U?$pair@$$CBV?$basic_string@DU?$char_traits@D@std@@V?$allocator@D@2@@std@@V?$shared_ptr@UNode@NetvarTree@@@2@@std@@PAX@1@PBV?$_List_val@U?$_List_simple_types@U?$pair@$$CBV?$basic_string@DU?$char_traits@D@std@@V?$allocator@D@2@@std@@V?$shared_ptr@UNode@NetvarTree@@@2@@std@@@std@@@1@@Z 10005ed0 f i Aimbot.obj
 0001:00004f00       ??0_Container_base12@std@@QAE@XZ 10005f00 f i LagComp.obj
 0001:00004f00       ??0?$_List_unchecked_const_iterator@V?$_List_val@U?$_List_simple_types@U?$pair@$$CBV?$basic_string@DU?$char_traits@D@std@@V?$allocator@D@2@@std@@V?$shared_ptr@UNode@NetvarTree@@@2@@std@@@std@@@std@@U_Iterator_base0@2@@std@@QAE@XZ 10005f00 f i Aimbot.obj
 0001:00004f20       ??0?$_List_unchecked_iterator@V?$_List_val@U?$_List_simple_types@U?$pair@$$CBV?$basic_string@DU?$char_traits@D@std@@V?$allocator@D@2@@std@@V?$shared_ptr@UNode@NetvarTree@@@2@@std@@@std@@@std@@@std@@QAE@XZ 10005f20 f i Aimbot.obj
 0001:00004f40       ??0?$_Ptr_base@UNode@NetvarTree@@@std@@IAE@XZ 10005f40 f i Aimbot.obj
 0001:00004f40       ??0_Container_proxy@std@@QAE@XZ 10005f40 f i LagComp.obj
 0001:00004f40       ??0_Iterator_base12@std@@QAE@XZ 10005f40 f i Aimbot.obj
 0001:00004f40       ??0?$_List_val@U?$_List_simple_types@U?$pair@$$CBV?$basic_string@DU?$char_traits@D@std@@V?$allocator@D@2@@std@@V?$shared_ptr@UNode@NetvarTree@@@2@@std@@@std@@@std@@QAE@XZ 10005f40 f i NetvarManager.obj
 0001:00004f70       ??0?$_Uninitialized_backout_al@PAV?$_List_unchecked_iterator@V?$_List_val@U?$_List_simple_types@U?$pair@$$CBV?$basic_string@DU?$char_traits@D@std@@V?$allocator@D@2@@std@@V?$shared_ptr@UNode@NetvarTree@@@2@@std@@@std@@@std@@@std@@V?$allocator@V?$_List_unchecked_iterator@V?$_List_val@U?$_List_simple_types@U?$pair@$$CBV?$basic_string@DU?$char_traits@D@std@@V?$allocator@D@2@@std@@V?$shared_ptr@UNode@NetvarTree@@@2@@std@@@std@@@std@@@std@@@2@@std@@QAE@PAV?$_List_unchecked_iterator@V?$_List_val@U?$_List_simple_types@U?$pair@$$CBV?$basic_string@DU?$char_traits@D@std@@V?$allocator@D@2@@std@@V?$shared_ptr@UNode@NetvarTree@@@2@@std@@@std@@@std@@@1@AAV?$allocator@V?$_List_unchecked_iterator@V?$_List_val@U?$_List_simple_types@U?$pair@$$CBV?$basic_string@DU?$char_traits@D@std@@V?$allocator@D@2@@std@@V?$shared_ptr@UNode@NetvarTree@@@2@@std@@@std@@@std@@@std@@@1@@Z 10005f70 f i Aimbot.obj
 0001:00004fa0       ??0?$_Vector_alloc@U?$_Vec_base_types@V?$basic_string@DU?$char_traits@D@std@@V?$allocator@D@2@@std@@V?$allocator@V?$basic_string@DU?$char_traits@D@std@@V?$allocator@D@2@@std@@@2@@std@@@std@@QAE@XZ 10005fa0 f i config_system.obj
 0001:00004fa0       ??0?$_Vector_alloc@U?$_Vec_base_types@HV?$allocator@H@std@@@std@@@std@@QAE@XZ 10005fa0 f i Aimbot.obj
 0001:00004fd0       ??0?$_Vector_val@U?$_Simple_types@V?$_List_unchecked_iterator@V?$_List_val@U?$_List_simple_types@U?$pair@$$CBV?$basic_string@DU?$char_traits@D@std@@V?$allocator@D@2@@std@@V?$shared_ptr@UNode@NetvarTree@@@2@@std@@@std@@@std@@@std@@@std@@@std@@QAE@XZ 10005fd0 f i NetvarManager.obj
 0001:00004fd0       ??0?$_Vector_val@U?$_Simple_types@V?$basic_string@DU?$char_traits@D@std@@V?$allocator@D@2@@std@@@std@@@std@@QAE@XZ 10005fd0 f i config_system.obj
 0001:00004fd0       ??0?$_Vector_val@U?$_Simple_types@H@std@@@std@@QAE@XZ 10005fd0 f i Aimbot.obj
 0001:00005000       ??0?$basic_string@DU?$char_traits@D@std@@V?$allocator@D@2@@std@@QAE@$$QAV01@@Z 10006000 f i Aimbot.obj
 0001:00005090       ??0?$shared_ptr@UNode@NetvarTree@@@std@@QAE@XZ 10006090 f i Aimbot.obj
 0001:000050b0       ??0?$tuple@$$QAV?$basic_string@DU?$char_traits@D@std@@V?$allocator@D@2@@std@@@std@@QAE@$$QAV01@@Z 100060b0 f i Aimbot.obj
 0001:000050e0       ??0?$vector@HV?$allocator@H@std@@@std@@QAE@XZ 100060e0 f i Aimbot.obj
 0001:000050e0       ??0?$vector@V?$basic_string@DU?$char_traits@D@std@@V?$allocator@D@2@@std@@V?$allocator@V?$basic_string@DU?$char_traits@D@std@@V?$allocator@D@2@@std@@@2@@std@@QAE@XZ 100060e0 f i config_system.obj
 0001:00005120       ??0Aimbot@@QAE@XZ          10006120 f i Aimbot.obj
 0001:00005150       ??0CBaseHandle@@QAE@ABV0@@Z 10006150 f i Aimbot.obj
 0001:00005170       ??0C_Ray@@QAE@VVector@@0@Z 10006170 f i Aimbot.obj
 0001:000051c0       ??0C_Trace@@QAE@XZ         100061c0 f i Aimbot.obj
 0001:000051f0       ??0Vector@@QAE@MMM@Z       100061f0 f i Aimbot.obj
 0001:00005230       ??0VectorAligned@@QAE@XZ   10006230 f i Aimbot.obj
 0001:00005230       ??0cplane_t@@QAE@XZ        10006230 f i Aimbot.obj
 0001:00005250       ??0_Iterator_base12@std@@QAE@ABU01@@Z 10006250 f i Aimbot.obj
 0001:00005280       ??1?$_Uninitialized_backout_al@PAV?$_List_unchecked_iterator@V?$_List_val@U?$_List_simple_types@U?$pair@$$CBV?$basic_string@DU?$char_traits@D@std@@V?$allocator@D@2@@std@@V?$shared_ptr@UNode@NetvarTree@@@2@@std@@@std@@@std@@@std@@V?$allocator@V?$_List_unchecked_iterator@V?$_List_val@U?$_List_simple_types@U?$pair@$$CBV?$basic_string@DU?$char_traits@D@std@@V?$allocator@D@2@@std@@V?$shared_ptr@UNode@NetvarTree@@@2@@std@@@std@@@std@@@std@@@2@@std@@QAE@XZ 10006280 f i Aimbot.obj
 0001:000052e0       ??4Vector@@QAEAAV0@ABV0@@Z 100062e0 f i Aimbot.obj
 0001:00005320       ??4VectorAligned@@QAEAAV0@ABVVector@@@Z 10006320 f i Aimbot.obj
 0001:00005370       ??4_Iterator_base12@std@@QAEAAU01@ABU01@@Z 10006370 f i Aimbot.obj
 0001:000053b0       ??8?$_List_const_iterator@V?$_List_val@U?$_List_simple_types@U?$pair@$$CBV?$basic_string@DU?$char_traits@D@std@@V?$allocator@D@2@@std@@V?$shared_ptr@UNode@NetvarTree@@@2@@std@@@std@@@std@@@std@@QBE_NABV01@@Z 100063b0 f i Aimbot.obj
 0001:000053b0       ??8?$_List_unchecked_const_iterator@V?$_List_val@U?$_List_simple_types@U?$pair@$$CBV?$basic_string@DU?$char_traits@D@std@@V?$allocator@D@2@@std@@V?$shared_ptr@UNode@NetvarTree@@@2@@std@@@std@@@std@@U_Iterator_base0@2@@std@@QBE_NABV01@@Z 100063b0 f i Aimbot.obj
 0001:000053e0       ??9?$_List_unchecked_const_iterator@V?$_List_val@U?$_List_simple_types@U?$pair@$$CBV?$basic_string@DU?$char_traits@D@std@@V?$allocator@D@2@@std@@V?$shared_ptr@UNode@NetvarTree@@@2@@std@@@std@@@std@@U_Iterator_base0@2@@std@@QBE_NABV01@@Z 100063e0 f i Aimbot.obj
 0001:00005420       ??9Vector@@QBE_NABV0@@Z    10006420 f i Aimbot.obj
 0001:00005480       ??A?$unordered_map@V?$basic_string@DU?$char_traits@D@std@@V?$allocator@D@2@@std@@V?$shared_ptr@UNode@NetvarTree@@@2@U?$hash@V?$basic_string@DU?$char_traits@D@std@@V?$allocator@D@2@@std@@@2@U?$equal_to@V?$basic_string@DU?$char_traits@D@std@@V?$allocator@D@2@@std@@@2@V?$allocator@U?$pair@$$CBV?$basic_string@DU?$char_traits@D@std@@V?$allocator@D@2@@std@@V?$shared_ptr@UNode@NetvarTree@@@2@@std@@@2@@std@@QAEAAV?$shared_ptr@UNode@NetvarTree@@@1@$$QAV?$basic_string@DU?$char_traits@D@std@@V?$allocator@D@2@@1@@Z 10006480 f i Aimbot.obj
 0001:000054c0       ??A?$vector@V?$_List_unchecked_iterator@V?$_List_val@U?$_List_simple_types@U?$pair@$$CBV?$basic_string@DU?$char_traits@D@std@@V?$allocator@D@2@@std@@V?$shared_ptr@UNode@NetvarTree@@@2@@std@@@std@@@std@@@std@@V?$allocator@V?$_List_unchecked_iterator@V?$_List_val@U?$_List_simple_types@U?$pair@$$CBV?$basic_string@DU?$char_traits@D@std@@V?$allocator@D@2@@std@@V?$shared_ptr@UNode@NetvarTree@@@2@@std@@@std@@@std@@@std@@@2@@std@@QAEAAV?$_List_unchecked_iterator@V?$_List_val@U?$_List_simple_types@U?$pair@$$CBV?$basic_string@DU?$char_traits@D@std@@V?$allocator@D@2@@std@@V?$shared_ptr@UNode@NetvarTree@@@2@@std@@@std@@@std@@@1@I@Z 100064c0 f i Aimbot.obj
 0001:000054e0       ??C?$_List_iterator@V?$_List_val@U?$_List_simple_types@U?$pair@$$CBV?$basic_string@DU?$char_traits@D@std@@V?$allocator@D@2@@std@@V?$shared_ptr@UNode@NetvarTree@@@2@@std@@@std@@@std@@@std@@QBEPAU?$pair@$$CBV?$basic_string@DU?$char_traits@D@std@@V?$allocator@D@2@@std@@V?$shared_ptr@UNode@NetvarTree@@@2@@1@XZ 100064e0 f i Aimbot.obj
 0001:00005500       ??D?$_Deque_const_iterator@V?$_Deque_val@U?$_Deque_simple_types@UPlayerRecords@@@std@@@std@@@std@@QBEABUPlayerRecords@@XZ 10006500 f i Aimbot.obj
 0001:00005560       ??D?$_Deque_iterator@V?$_Deque_val@U?$_Deque_simple_types@UPlayerRecords@@@std@@@std@@@std@@QBEAAUPlayerRecords@@XZ 10006560 f i Aimbot.obj
 0001:00005580       ??D?$_List_unchecked_const_iterator@V?$_List_val@U?$_List_simple_types@U?$pair@$$CBV?$basic_string@DU?$char_traits@D@std@@V?$allocator@D@2@@std@@V?$shared_ptr@UNode@NetvarTree@@@2@@std@@@std@@@std@@U_Iterator_base0@2@@std@@QBEABU?$pair@$$CBV?$basic_string@DU?$char_traits@D@std@@V?$allocator@D@2@@std@@V?$shared_ptr@UNode@NetvarTree@@@2@@1@XZ 10006580 f i Aimbot.obj
 0001:00005580       ??D?$_List_const_iterator@V?$_List_val@U?$_List_simple_types@U?$pair@$$CBV?$basic_string@DU?$char_traits@D@std@@V?$allocator@D@2@@std@@V?$shared_ptr@UNode@NetvarTree@@@2@@std@@@std@@@std@@@std@@QBEABU?$pair@$$CBV?$basic_string@DU?$char_traits@D@std@@V?$allocator@D@2@@std@@V?$shared_ptr@UNode@NetvarTree@@@2@@1@XZ 10006580 f i Aimbot.obj
 0001:000055a0       ??D?$_List_iterator@V?$_List_val@U?$_List_simple_types@U?$pair@$$CBV?$basic_string@DU?$char_traits@D@std@@V?$allocator@D@2@@std@@V?$shared_ptr@UNode@NetvarTree@@@2@@std@@@std@@@std@@@std@@QBEAAU?$pair@$$CBV?$basic_string@DU?$char_traits@D@std@@V?$allocator@D@2@@std@@V?$shared_ptr@UNode@NetvarTree@@@2@@1@XZ 100065a0 f i Aimbot.obj
 0001:000055a0       ??D?$_List_unchecked_iterator@V?$_List_val@U?$_List_simple_types@U?$pair@$$CBV?$basic_string@DU?$char_traits@D@std@@V?$allocator@D@2@@std@@V?$shared_ptr@UNode@NetvarTree@@@2@@std@@@std@@@std@@@std@@QBEAAU?$pair@$$CBV?$basic_string@DU?$char_traits@D@std@@V?$allocator@D@2@@std@@V?$shared_ptr@UNode@NetvarTree@@@2@@1@XZ 100065a0 f i Aimbot.obj
 0001:000055c0       ??DVector@@QBE?AV0@M@Z     100065c0 f i Aimbot.obj
 0001:00005630       ??E?$_List_const_iterator@V?$_List_val@U?$_List_simple_types@U?$pair@$$CBV?$basic_string@DU?$char_traits@D@std@@V?$allocator@D@2@@std@@V?$shared_ptr@UNode@NetvarTree@@@2@@std@@@std@@@std@@@std@@QAE?AV01@H@Z 10006630 f i Aimbot.obj
 0001:00005660       ??E?$_List_unchecked_const_iterator@V?$_List_val@U?$_List_simple_types@U?$pair@$$CBV?$basic_string@DU?$char_traits@D@std@@V?$allocator@D@2@@std@@V?$shared_ptr@UNode@NetvarTree@@@2@@std@@@std@@@std@@U_Iterator_base0@2@@std@@QAEAAV01@XZ 10006660 f i Aimbot.obj
 0001:00005660       ??E?$_List_const_iterator@V?$_List_val@U?$_List_simple_types@U?$pair@$$CBV?$basic_string@DU?$char_traits@D@std@@V?$allocator@D@2@@std@@V?$shared_ptr@UNode@NetvarTree@@@2@@std@@@std@@@std@@@std@@QAEAAV01@XZ 10006660 f i Aimbot.obj
 0001:00005680       ??E?$_List_unchecked_iterator@V?$_List_val@U?$_List_simple_types@U?$pair@$$CBV?$basic_string@DU?$char_traits@D@std@@V?$allocator@D@2@@std@@V?$shared_ptr@UNode@NetvarTree@@@2@@std@@@std@@@std@@@std@@QAEAAV01@XZ 10006680 f i Aimbot.obj
 0001:000056a0       ??F?$_List_unchecked_const_iterator@V?$_List_val@U?$_List_simple_types@U?$pair@$$CBV?$basic_string@DU?$char_traits@D@std@@V?$allocator@D@2@@std@@V?$shared_ptr@UNode@NetvarTree@@@2@@std@@@std@@@std@@U_Iterator_base0@2@@std@@QAEAAV01@XZ 100066a0 f i Aimbot.obj
 0001:000056c0       ??F?$_List_unchecked_iterator@V?$_List_val@U?$_List_simple_types@U?$pair@$$CBV?$basic_string@DU?$char_traits@D@std@@V?$allocator@D@2@@std@@V?$shared_ptr@UNode@NetvarTree@@@2@@std@@@std@@@std@@@std@@QAEAAV01@XZ 100066c0 f i Aimbot.obj
 0001:000056e0       ??GVector@@QBE?AV0@ABV0@@Z 100066e0 f i Aimbot.obj
 0001:00005750       ??H?$_Deque_iterator@V?$_Deque_val@U?$_Deque_simple_types@ULegitPlayerRecords@@@std@@@std@@@std@@QBE?AV01@H@Z 10006750 f i Legitbot.obj
 0001:00005750       ??H?$_Deque_iterator@V?$_Deque_val@U?$_Deque_simple_types@UPlayerRecords@@@std@@@std@@@std@@QBE?AV01@H@Z 10006750 f i Aimbot.obj
 0001:000057e0       ??HVector@@QBE?AV0@ABV0@@Z 100067e0 f i Aimbot.obj
 0001:00005850       ??R?$_Uhash_compare@V?$basic_string@DU?$char_traits@D@std@@V?$allocator@D@2@@std@@U?$hash@V?$basic_string@DU?$char_traits@D@std@@V?$allocator@D@2@@std@@@2@U?$equal_to@V?$basic_string@DU?$char_traits@D@std@@V?$allocator@D@2@@std@@@2@@std@@QBEIABV?$basic_string@DU?$char_traits@D@std@@V?$allocator@D@2@@1@@Z 10006850 f i Aimbot.obj
 0001:00005880       ??R?$_Uhash_compare@V?$basic_string@DU?$char_traits@D@std@@V?$allocator@D@2@@std@@U?$hash@V?$basic_string@DU?$char_traits@D@std@@V?$allocator@D@2@@std@@@2@U?$equal_to@V?$basic_string@DU?$char_traits@D@std@@V?$allocator@D@2@@std@@@2@@std@@QBE_NABV?$basic_string@DU?$char_traits@D@std@@V?$allocator@D@2@@1@0@Z 10006880 f i Aimbot.obj
 0001:000058d0       ??R?$equal_to@V?$basic_string@DU?$char_traits@D@std@@V?$allocator@D@2@@std@@@std@@QBE_NABV?$basic_string@DU?$char_traits@D@std@@V?$allocator@D@2@@1@0@Z 100068d0 f i Aimbot.obj
 0001:000058f0       ??R?$hash@V?$basic_string@DU?$char_traits@D@std@@V?$allocator@D@2@@std@@@std@@QBEIABV?$basic_string@DU?$char_traits@D@std@@V?$allocator@D@2@@1@@Z 100068f0 f i Aimbot.obj
 0001:00005930       ??Y?$_Deque_const_iterator@V?$_Deque_val@U?$_Deque_simple_types@UPlayerRecords@@@std@@@std@@@std@@QAEAAV01@H@Z 10006930 f i LagComp.obj
 0001:00005930       ??Y?$_Deque_iterator@V?$_Deque_val@U?$_Deque_simple_types@ULegitPlayerRecords@@@std@@@std@@@std@@QAEAAV01@H@Z 10006930 f i Legitbot.obj
 0001:00005930       ??Y?$_Deque_iterator@V?$_Deque_val@U?$_Deque_simple_types@UPlayerRecords@@@std@@@std@@@std@@QAEAAV01@H@Z 10006930 f i Aimbot.obj
 0001:00005930       ??Y?$_Deque_const_iterator@V?$_Deque_val@U?$_Deque_simple_types@ULegitPlayerRecords@@@std@@@std@@@std@@QAEAAV01@H@Z 10006930 f i Legitbot.obj
 0001:00005950       ??YVector@@QAEAAV0@ABV0@@Z 10006950 f i Aimbot.obj
 0001:000059b0       ??ZVector@@QAEAAV0@ABV0@@Z 100069b0 f i Aimbot.obj
 0001:00005a10       ?Autostop@Aimbot@@AAEXXZ   10006a10 f   Aimbot.obj
 0001:00005af0       ?GetAccuracyPenalty@C_BaseCombatWeapon@@QAEMXZ 10006af0 f i Aimbot.obj
 0001:00005bb0       ?GetActiveWeapon@C_BaseEntity@@QAEPAVC_BaseCombatWeapon@@XZ 10006bb0 f i Aimbot.obj
 0001:00005c90       ?GetAimPunchAngle@C_BaseEntity@@QAE?AVVector@@XZ 10006c90 f i Aimbot.obj
 0001:00005cc0       ?GetCSWpnData@C_BaseCombatWeapon@@QAEPAVWeaponInfo_t@@XZ 10006cc0 f i Aimbot.obj
 0001:00005ce0       ?GetEyeAngles@C_BaseEntity@@QAE?AVVector@@XZ 10006ce0 f i Aimbot.obj
 0001:00005da0       ?GetEyePosition@C_BaseEntity@@QAE?AVVector@@XZ 10006da0 f i Aimbot.obj
 0001:00005df0       ?GetFlags@C_BaseEntity@@QAE?AW4EntityFlags@@XZ 10006df0 f i Aimbot.obj
 0001:00005eb0       ?GetFloat@ConVar@@QAEMXZ   10006eb0 f i Aimbot.obj
 0001:00005ee0       ?GetHealth@C_BaseEntity@@QAEHXZ 10006ee0 f i Aimbot.obj
 0001:00005fa0       ?GetInaccuracy@C_BaseCombatWeapon@@QAEMXZ 10006fa0 f i Aimbot.obj
 0001:00005fd0       ?GetLastShotTime@C_BaseCombatWeapon@@QAEMXZ 10006fd0 f i Aimbot.obj
 0001:00006090       ?GetLifeState@C_BaseEntity@@QAE_NXZ 10007090 f i Aimbot.obj
 0001:00006150       ?GetNextPrimaryAttack@C_BaseCombatWeapon@@QAEMXZ 10007150 f i Aimbot.obj
 0001:00006210       ?GetOffsetRecursive@NetvarTree@@CAHAAV?$unordered_map@V?$basic_string@DU?$char_traits@D@std@@V?$allocator@D@2@@std@@V?$shared_ptr@UNode@NetvarTree@@@2@U?$hash@V?$basic_string@DU?$char_traits@D@std@@V?$allocator@D@2@@std@@@2@U?$equal_to@V?$basic_string@DU?$char_traits@D@std@@V?$allocator@D@2@@std@@@2@V?$allocator@U?$pair@$$CBV?$basic_string@DU?$char_traits@D@std@@V?$allocator@D@2@@std@@V?$shared_ptr@UNode@NetvarTree@@@2@@std@@@2@@std@@HPBD@Z 10007210 f i Aimbot.obj
 0001:000062a0       ?GetOrigin@C_BaseEntity@@QAE?AVVector@@XZ 100072a0 f i Aimbot.obj
 0001:00006360       ?GetSimulationTime@C_BaseEntity@@QAEMXZ 10007360 f i Aimbot.obj
 0001:00006420       ?GetSpread@C_BaseCombatWeapon@@QAEMXZ 10007420 f i Aimbot.obj
 0001:00006450       ?GetTeam@C_BaseEntity@@QAEHXZ 10007450 f i Aimbot.obj
 0001:00006510       ?GetTickBase@C_BaseEntity@@QAEHXZ 10007510 f i Aimbot.obj
 0001:000065d0       ?GetVelocity@C_BaseEntity@@QAE?AVVector@@XZ 100075d0 f i Aimbot.obj
 0001:000066a0       ?HitChance@Aimbot@@AAE_NPAVC_BaseEntity@@PAVC_BaseCombatWeapon@@VVector@@2H@Z 100076a0 f   Aimbot.obj
 0001:00006f00       ?Hitscan@Aimbot@@AAE?AVVector@@PAVC_BaseEntity@@@Z 10007f00 f   Aimbot.obj
 0001:00008100       ?Init@C_Ray@@QAEXABVVector@@0@Z 10009100 f i Aimbot.obj
 0001:000081c0       ?Init@Vector@@QAEXMMM@Z    100091c0 f i Aimbot.obj
 0001:00008200       ?IsAlive@C_BaseEntity@@QAE_NXZ 10009200 f i Aimbot.obj
 0001:00008240       ?Length2D@Vector@@QBEMXZ   10009240 f i Aimbot.obj
 0001:000082a0       ?Length@Vector@@QBEMXZ     100092a0 f i Aimbot.obj
 0001:00008310       ?LengthSqr@Vector@@QBEMXZ  10009310 f i Aimbot.obj
 0001:00008360       ?Normalize@Vector@@QAE?AV1@XZ 10009360 f i Aimbot.obj
 0001:00008410       ?NormalizeInPlace@Vector@@QAEMXZ 10009410 f i Aimbot.obj
 0001:000084d0       ?OnCreateMove@Aimbot@@QAEXXZ 100094d0 f   Aimbot.obj
 0001:00008b60       ?ShouldBaim@@YA_NPAVC_BaseEntity@@@Z 10009b60 f   Aimbot.obj
 0001:00008e80       ?_Adopt@_Iterator_base0@std@@QAEXPBX@Z 10009e80 f i Aimbot.obj
 0001:00008e80       ?_Compat@?$_Deque_const_iterator@V?$_Deque_val@U?$_Deque_simple_types@ULegitPlayerRecords@@@std@@@std@@@std@@QBEXABV12@@Z 10009e80 f i Legitbot.obj
 0001:00008e80       ?_Compat@?$_Deque_const_iterator@V?$_Deque_val@U?$_Deque_simple_types@UPlayerRecords@@@std@@@std@@@std@@QBEXABV12@@Z 10009e80 f i LagComp.obj
 0001:00008e80       ?_Verify_offset@?$_Deque_const_iterator@V?$_Deque_val@U?$_Deque_simple_types@ULegitPlayerRecords@@@std@@@std@@@std@@QBEXH@Z 10009e80 f i Legitbot.obj
 0001:00008e80       ?_Verify_offset@?$_String_const_iterator@V?$_String_val@U?$_Simple_types@D@std@@@std@@@std@@QBEXH@Z 10009e80 f i c_esp.obj
 0001:00008e80       ?_Verify_offset@?$_Deque_const_iterator@V?$_Deque_val@U?$_Deque_simple_types@UPlayerRecords@@@std@@@std@@@std@@QBEXH@Z 10009e80 f i LagComp.obj
 0001:00008e80       ?_Compat@?$_String_const_iterator@V?$_String_val@U?$_Simple_types@D@std@@@std@@@std@@QBEXABV12@@Z 10009e80 f i c_esp.obj
 0001:00008e90       ?_Adopt@_Iterator_base12@std@@QAEXPBU_Container_base12@2@@Z 10009e90 f i Aimbot.obj
 0001:00008ec0       ?_Assign_rv_contents_with_alloc_always_equal@?$basic_string@DU?$char_traits@D@std@@V?$allocator@D@2@@std@@QAEX$$QAV12@U?$integral_constant@_N$00@2@@Z 10009ec0 f i Aimbot.obj
 0001:00008f60       ?_Begin@?$_Hash@V?$_Umap_traits@V?$basic_string@DU?$char_traits@D@std@@V?$allocator@D@2@@std@@V?$shared_ptr@UNode@NetvarTree@@@2@V?$_Uhash_compare@V?$basic_string@DU?$char_traits@D@std@@V?$allocator@D@2@@std@@U?$hash@V?$basic_string@DU?$char_traits@D@std@@V?$allocator@D@2@@std@@@2@U?$equal_to@V?$basic_string@DU?$char_traits@D@std@@V?$allocator@D@2@@std@@@2@@2@V?$allocator@U?$pair@$$CBV?$basic_string@DU?$char_traits@D@std@@V?$allocator@D@2@@std@@V?$shared_ptr@UNode@NetvarTree@@@2@@std@@@2@$0A@@std@@@std@@IAE?AV?$_List_unchecked_iterator@V?$_List_val@U?$_List_simple_types@U?$pair@$$CBV?$basic_string@DU?$char_traits@D@std@@V?$allocator@D@2@@std@@V?$shared_ptr@UNode@NetvarTree@@@2@@std@@@std@@@std@@@2@I@Z 10009f60 f i Aimbot.obj
 0001:00008f90       ?_Buy@?$vector@V?$_List_unchecked_iterator@V?$_List_val@U?$_List_simple_types@U?$pair@$$CBV?$basic_string@DU?$char_traits@D@std@@V?$allocator@D@2@@std@@V?$shared_ptr@UNode@NetvarTree@@@2@@std@@@std@@@std@@@std@@V?$allocator@V?$_List_unchecked_iterator@V?$_List_val@U?$_List_simple_types@U?$pair@$$CBV?$basic_string@DU?$char_traits@D@std@@V?$allocator@D@2@@std@@V?$shared_ptr@UNode@NetvarTree@@@2@@std@@@std@@@std@@@std@@@2@@std@@AAE_NI@Z 10009f90 f i Aimbot.obj
 0001:00009050       ?_Buynode0@?$_List_alloc@U?$_List_base_types@U?$pair@$$CBV?$basic_string@DU?$char_traits@D@std@@V?$allocator@D@2@@std@@V?$shared_ptr@UNode@NetvarTree@@@2@@std@@V?$allocator@U?$pair@$$CBV?$basic_string@DU?$char_traits@D@std@@V?$allocator@D@2@@std@@V?$shared_ptr@UNode@NetvarTree@@@2@@std@@@2@@std@@@std@@QAEPAU?$_List_node@U?$pair@$$CBV?$basic_string@DU?$char_traits@D@std@@V?$allocator@D@2@@std@@V?$shared_ptr@UNode@NetvarTree@@@2@@std@@PAX@2@PAU32@0@Z 1000a050 f i Aimbot.obj
 0001:00009140       ?_Calculate_growth@?$vector@HV?$allocator@H@std@@@std@@ABEII@Z 1000a140 f i Aimbot.obj
 0001:00009140       ?_Calculate_growth@?$vector@V?$_List_unchecked_iterator@V?$_List_val@U?$_List_simple_types@U?$pair@$$CBV?$basic_string@DU?$char_traits@D@std@@V?$allocator@D@2@@std@@V?$shared_ptr@UNode@NetvarTree@@@2@@std@@@std@@@std@@@std@@V?$allocator@V?$_List_unchecked_iterator@V?$_List_val@U?$_List_simple_types@U?$pair@$$CBV?$basic_string@DU?$char_traits@D@std@@V?$allocator@D@2@@std@@V?$shared_ptr@UNode@NetvarTree@@@2@@std@@@std@@@std@@@std@@@2@@std@@ABEII@Z 1000a140 f i Aimbot.obj
 0001:00009190       ?_Change_array@?$vector@V?$_List_unchecked_iterator@V?$_List_val@U?$_List_simple_types@U?$pair@$$CBV?$basic_string@DU?$char_traits@D@std@@V?$allocator@D@2@@std@@V?$shared_ptr@UNode@NetvarTree@@@2@@std@@@std@@@std@@@std@@V?$allocator@V?$_List_unchecked_iterator@V?$_List_val@U?$_List_simple_types@U?$pair@$$CBV?$basic_string@DU?$char_traits@D@std@@V?$allocator@D@2@@std@@V?$shared_ptr@UNode@NetvarTree@@@2@@std@@@std@@@std@@@std@@@2@@std@@AAEXQAV?$_List_unchecked_iterator@V?$_List_val@U?$_List_simple_types@U?$pair@$$CBV?$basic_string@DU?$char_traits@D@std@@V?$allocator@D@2@@std@@V?$shared_ptr@UNode@NetvarTree@@@2@@std@@@std@@@std@@@2@II@Z 1000a190 f i Aimbot.obj
 0001:00009190       ?_Change_array@?$vector@HV?$allocator@H@std@@@std@@AAEXQAHII@Z 1000a190 f i Aimbot.obj
 0001:00009250       ?_Check_size@?$_Hash@V?$_Umap_traits@V?$basic_string@DU?$char_traits@D@std@@V?$allocator@D@2@@std@@V?$shared_ptr@UNode@NetvarTree@@@2@V?$_Uhash_compare@V?$basic_string@DU?$char_traits@D@std@@V?$allocator@D@2@@std@@U?$hash@V?$basic_string@DU?$char_traits@D@std@@V?$allocator@D@2@@std@@@2@U?$equal_to@V?$basic_string@DU?$char_traits@D@std@@V?$allocator@D@2@@std@@@2@@2@V?$allocator@U?$pair@$$CBV?$basic_string@DU?$char_traits@D@std@@V?$allocator@D@2@@std@@V?$shared_ptr@UNode@NetvarTree@@@2@@std@@@2@$0A@@std@@@std@@IAEXXZ 1000a250 f i Aimbot.obj
 0001:000092e0       ?_Destroy_if_node@?$_Hash@V?$_Umap_traits@V?$basic_string@DU?$char_traits@D@std@@V?$allocator@D@2@@std@@V?$shared_ptr@UNode@NetvarTree@@@2@V?$_Uhash_compare@V?$basic_string@DU?$char_traits@D@std@@V?$allocator@D@2@@std@@U?$hash@V?$basic_string@DU?$char_traits@D@std@@V?$allocator@D@2@@std@@@2@U?$equal_to@V?$basic_string@DU?$char_traits@D@std@@V?$allocator@D@2@@std@@@2@@2@V?$allocator@U?$pair@$$CBV?$basic_string@DU?$char_traits@D@std@@V?$allocator@D@2@@std@@V?$shared_ptr@UNode@NetvarTree@@@2@@std@@@2@$0A@@std@@@std@@IAEXV?$_List_unchecked_iterator@V?$_List_val@U?$_List_simple_types@U?$pair@$$CBV?$basic_string@DU?$char_traits@D@std@@V?$allocator@D@2@@std@@V?$shared_ptr@UNode@NetvarTree@@@2@@std@@@std@@@std@@@2@@Z 1000a2e0 f i Aimbot.obj
 0001:00009330       ?_End@?$_Hash@V?$_Umap_traits@V?$basic_string@DU?$char_traits@D@std@@V?$allocator@D@2@@std@@V?$shared_ptr@UNode@NetvarTree@@@2@V?$_Uhash_compare@V?$basic_string@DU?$char_traits@D@std@@V?$allocator@D@2@@std@@U?$hash@V?$basic_string@DU?$char_traits@D@std@@V?$allocator@D@2@@std@@@2@U?$equal_to@V?$basic_string@DU?$char_traits@D@std@@V?$allocator@D@2@@std@@@2@@2@V?$allocator@U?$pair@$$CBV?$basic_string@DU?$char_traits@D@std@@V?$allocator@D@2@@std@@V?$shared_ptr@UNode@NetvarTree@@@2@@std@@@2@$0A@@std@@@std@@IAE?AV?$_List_unchecked_iterator@V?$_List_val@U?$_List_simple_types@U?$pair@$$CBV?$basic_string@DU?$char_traits@D@std@@V?$allocator@D@2@@std@@V?$shared_ptr@UNode@NetvarTree@@@2@@std@@@std@@@std@@@2@I@Z 1000a330 f i Aimbot.obj
 0001:000093b0       ?_Equal@?$basic_string@DU?$char_traits@D@std@@V?$allocator@D@2@@std@@QBE_NABV12@@Z 1000a3b0 f i Aimbot.obj
 0001:00009440       ?_Erase_bucket@?$_Hash@V?$_Umap_traits@V?$basic_string@DU?$char_traits@D@std@@V?$allocator@D@2@@std@@V?$shared_ptr@UNode@NetvarTree@@@2@V?$_Uhash_compare@V?$basic_string@DU?$char_traits@D@std@@V?$allocator@D@2@@std@@U?$hash@V?$basic_string@DU?$char_traits@D@std@@V?$allocator@D@2@@std@@@2@U?$equal_to@V?$basic_string@DU?$char_traits@D@std@@V?$allocator@D@2@@std@@@2@@2@V?$allocator@U?$pair@$$CBV?$basic_string@DU?$char_traits@D@std@@V?$allocator@D@2@@std@@V?$shared_ptr@UNode@NetvarTree@@@2@@std@@@2@$0A@@std@@@std@@IAEXV?$_List_iterator@V?$_List_val@U?$_List_simple_types@U?$pair@$$CBV?$basic_string@DU?$char_traits@D@std@@V?$allocator@D@2@@std@@V?$shared_ptr@UNode@NetvarTree@@@2@@std@@@std@@@std@@@2@I@Z 1000a440 f i Aimbot.obj
 0001:00009550       ?_Fnv1a_append_bytes@std@@YAIIQBEI@Z 1000a550 f i Aimbot.obj
 0001:00009590       ?_Getkeyeq@?$_Uhash_compare@V?$basic_string@DU?$char_traits@D@std@@V?$allocator@D@2@@std@@U?$hash@V?$basic_string@DU?$char_traits@D@std@@V?$allocator@D@2@@std@@@2@U?$equal_to@V?$basic_string@DU?$char_traits@D@std@@V?$allocator@D@2@@std@@@2@@std@@QBEABU?$equal_to@V?$basic_string@DU?$char_traits@D@std@@V?$allocator@D@2@@std@@@2@XZ 1000a590 f i Aimbot.obj
 0001:00009590       ?_Get_max_bucket_size@?$_Uhash_compare@V?$basic_string@DU?$char_traits@D@std@@V?$allocator@D@2@@std@@U?$hash@V?$basic_string@DU?$char_traits@D@std@@V?$allocator@D@2@@std@@@2@U?$equal_to@V?$basic_string@DU?$char_traits@D@std@@V?$allocator@D@2@@std@@@2@@std@@QBEABMXZ 1000a590 f i Aimbot.obj
 0001:00009590       ?_Get_max_bucket_size@?$_Uhash_compare@V?$basic_string@DU?$char_traits@D@std@@V?$allocator@D@2@@std@@U?$hash@V?$basic_string@DU?$char_traits@D@std@@V?$allocator@D@2@@std@@@2@U?$equal_to@V?$basic_string@DU?$char_traits@D@std@@V?$allocator@D@2@@std@@@2@@std@@QAEAAMXZ 1000a590 f i NetvarManager.obj
 0001:000095b0       ?_Getblock@?$_Deque_val@U?$_Deque_simple_types@ULegitPlayerRecords@@@std@@@std@@QBEII@Z 1000a5b0 f i Legitbot.obj
 0001:000095b0       ?_Getblock@?$_Deque_val@U?$_Deque_simple_types@UPlayerRecords@@@std@@@std@@QBEII@Z 1000a5b0 f i Aimbot.obj
 0001:000095d0       ?_Getcont@_Iterator_base0@std@@QBEPBU_Container_base0@2@XZ 1000a5d0 f i Aimbot.obj
 0001:000095d0       ?GetTraceType@C_TraceFilter@@UBE?AW4TraceType_t@@XZ 1000a5d0 f i Autowall.obj
 0001:000095e0       ?_Getcont@_Iterator_base12@std@@QBEPBU_Container_base12@2@XZ 1000a5e0 f i Aimbot.obj
 0001:00009610       ?_Has_unused_capacity@?$vector@HV?$allocator@H@std@@@std@@ABE_NXZ 1000a610 f i Aimbot.obj
 0001:00009650       ?_Hashval@?$_Hash@V?$_Umap_traits@V?$basic_string@DU?$char_traits@D@std@@V?$allocator@D@2@@std@@V?$shared_ptr@UNode@NetvarTree@@@2@V?$_Uhash_compare@V?$basic_string@DU?$char_traits@D@std@@V?$allocator@D@2@@std@@U?$hash@V?$basic_string@DU?$char_traits@D@std@@V?$allocator@D@2@@std@@@2@U?$equal_to@V?$basic_string@DU?$char_traits@D@std@@V?$allocator@D@2@@std@@@2@@2@V?$allocator@U?$pair@$$CBV?$basic_string@DU?$char_traits@D@std@@V?$allocator@D@2@@std@@V?$shared_ptr@UNode@NetvarTree@@@2@@std@@@2@$0A@@std@@@std@@IBEIABV?$basic_string@DU?$char_traits@D@std@@V?$allocator@D@2@@2@@Z 1000a650 f i Aimbot.obj
 0001:00009680       ?_Incsize@?$list@U?$pair@$$CBV?$basic_string@DU?$char_traits@D@std@@V?$allocator@D@2@@std@@V?$shared_ptr@UNode@NetvarTree@@@2@@std@@V?$allocator@U?$pair@$$CBV?$basic_string@DU?$char_traits@D@std@@V?$allocator@D@2@@std@@V?$shared_ptr@UNode@NetvarTree@@@2@@std@@@2@@std@@QAEXI@Z 1000a680 f i Aimbot.obj
 0001:000096d0       ?_Init@?$_Hash@V?$_Umap_traits@V?$basic_string@DU?$char_traits@D@std@@V?$allocator@D@2@@std@@V?$shared_ptr@UNode@NetvarTree@@@2@V?$_Uhash_compare@V?$basic_string@DU?$char_traits@D@std@@V?$allocator@D@2@@std@@U?$hash@V?$basic_string@DU?$char_traits@D@std@@V?$allocator@D@2@@std@@@2@U?$equal_to@V?$basic_string@DU?$char_traits@D@std@@V?$allocator@D@2@@std@@@2@@2@V?$allocator@U?$pair@$$CBV?$basic_string@DU?$char_traits@D@std@@V?$allocator@D@2@@std@@V?$shared_ptr@UNode@NetvarTree@@@2@@std@@@2@$0A@@std@@@std@@IAEXI@Z 1000a6d0 f i Aimbot.obj
 0001:00009730       ?_Insert_bucket@?$_Hash@V?$_Umap_traits@V?$basic_string@DU?$char_traits@D@std@@V?$allocator@D@2@@std@@V?$shared_ptr@UNode@NetvarTree@@@2@V?$_Uhash_compare@V?$basic_string@DU?$char_traits@D@std@@V?$allocator@D@2@@std@@U?$hash@V?$basic_string@DU?$char_traits@D@std@@V?$allocator@D@2@@std@@@2@U?$equal_to@V?$basic_string@DU?$char_traits@D@std@@V?$allocator@D@2@@std@@@2@@2@V?$allocator@U?$pair@$$CBV?$basic_string@DU?$char_traits@D@std@@V?$allocator@D@2@@std@@V?$shared_ptr@UNode@NetvarTree@@@2@@std@@@2@$0A@@std@@@std@@IAEXV?$_List_unchecked_iterator@V?$_List_val@U?$_List_simple_types@U?$pair@$$CBV?$basic_string@DU?$char_traits@D@std@@V?$allocator@D@2@@std@@V?$shared_ptr@UNode@NetvarTree@@@2@@std@@@std@@@std@@@2@0I@Z 1000a730 f i Aimbot.obj
 0001:00009820       ?_Make_iter@?$_Hash@V?$_Umap_traits@V?$basic_string@DU?$char_traits@D@std@@V?$allocator@D@2@@std@@V?$shared_ptr@UNode@NetvarTree@@@2@V?$_Uhash_compare@V?$basic_string@DU?$char_traits@D@std@@V?$allocator@D@2@@std@@U?$hash@V?$basic_string@DU?$char_traits@D@std@@V?$allocator@D@2@@std@@@2@U?$equal_to@V?$basic_string@DU?$char_traits@D@std@@V?$allocator@D@2@@std@@@2@@2@V?$allocator@U?$pair@$$CBV?$basic_string@DU?$char_traits@D@std@@V?$allocator@D@2@@std@@V?$shared_ptr@UNode@NetvarTree@@@2@@std@@@2@$0A@@std@@@std@@QBE?AV?$_List_iterator@V?$_List_val@U?$_List_simple_types@U?$pair@$$CBV?$basic_string@DU?$char_traits@D@std@@V?$allocator@D@2@@std@@V?$shared_ptr@UNode@NetvarTree@@@2@@std@@@std@@@std@@@2@V?$_List_const_iterator@V?$_List_val@U?$_List_simple_types@U?$pair@$$CBV?$basic_string@DU?$char_traits@D@std@@V?$allocator@D@2@@std@@V?$shared_ptr@UNode@NetvarTree@@@2@@std@@@std@@@std@@@2@@Z 1000a820 f i Aimbot.obj
 0001:00009850       ?_Make_iter@?$_Hash@V?$_Umap_traits@V?$basic_string@DU?$char_traits@D@std@@V?$allocator@D@2@@std@@V?$shared_ptr@UNode@NetvarTree@@@2@V?$_Uhash_compare@V?$basic_string@DU?$char_traits@D@std@@V?$allocator@D@2@@std@@U?$hash@V?$basic_string@DU?$char_traits@D@std@@V?$allocator@D@2@@std@@@2@U?$equal_to@V?$basic_string@DU?$char_traits@D@std@@V?$allocator@D@2@@std@@@2@@2@V?$allocator@U?$pair@$$CBV?$basic_string@DU?$char_traits@D@std@@V?$allocator@D@2@@std@@V?$shared_ptr@UNode@NetvarTree@@@2@@std@@@2@$0A@@std@@@std@@QBE?AV?$_List_iterator@V?$_List_val@U?$_List_simple_types@U?$pair@$$CBV?$basic_string@DU?$char_traits@D@std@@V?$allocator@D@2@@std@@V?$shared_ptr@UNode@NetvarTree@@@2@@std@@@std@@@std@@@2@V?$_List_unchecked_const_iterator@V?$_List_val@U?$_List_simple_types@U?$pair@$$CBV?$basic_string@DU?$char_traits@D@std@@V?$allocator@D@2@@std@@V?$shared_ptr@UNode@NetvarTree@@@2@@std@@@std@@@std@@U_Iterator_base0@2@@2@@Z 1000a850 f i Aimbot.obj
 0001:00009880       ?_Make_iter@?$list@U?$pair@$$CBV?$basic_string@DU?$char_traits@D@std@@V?$allocator@D@2@@std@@V?$shared_ptr@UNode@NetvarTree@@@2@@std@@V?$allocator@U?$pair@$$CBV?$basic_string@DU?$char_traits@D@std@@V?$allocator@D@2@@std@@V?$shared_ptr@UNode@NetvarTree@@@2@@std@@@2@@std@@QBE?AV?$_List_iterator@V?$_List_val@U?$_List_simple_types@U?$pair@$$CBV?$basic_string@DU?$char_traits@D@std@@V?$allocator@D@2@@std@@V?$shared_ptr@UNode@NetvarTree@@@2@@std@@@std@@@std@@@2@V?$_List_const_iterator@V?$_List_val@U?$_List_simple_types@U?$pair@$$CBV?$basic_string@DU?$char_traits@D@std@@V?$allocator@D@2@@std@@V?$shared_ptr@UNode@NetvarTree@@@2@@std@@@std@@@std@@@2@@Z 1000a880 f i Aimbot.obj
 0001:000098f0       ?_Make_iter@?$list@U?$pair@$$CBV?$basic_string@DU?$char_traits@D@std@@V?$allocator@D@2@@std@@V?$shared_ptr@UNode@NetvarTree@@@2@@std@@V?$allocator@U?$pair@$$CBV?$basic_string@DU?$char_traits@D@std@@V?$allocator@D@2@@std@@V?$shared_ptr@UNode@NetvarTree@@@2@@std@@@2@@std@@QBE?AV?$_List_iterator@V?$_List_val@U?$_List_simple_types@U?$pair@$$CBV?$basic_string@DU?$char_traits@D@std@@V?$allocator@D@2@@std@@V?$shared_ptr@UNode@NetvarTree@@@2@@std@@@std@@@std@@@2@V?$_List_unchecked_const_iterator@V?$_List_val@U?$_List_simple_types@U?$pair@$$CBV?$basic_string@DU?$char_traits@D@std@@V?$allocator@D@2@@std@@V?$shared_ptr@UNode@NetvarTree@@@2@@std@@@std@@@std@@U_Iterator_base0@2@@2@@Z 1000a8f0 f i Aimbot.obj
 0001:00009920       ?_Max_bucket_size@?$_Hash@V?$_Umap_traits@V?$basic_string@DU?$char_traits@D@std@@V?$allocator@D@2@@std@@V?$shared_ptr@UNode@NetvarTree@@@2@V?$_Uhash_compare@V?$basic_string@DU?$char_traits@D@std@@V?$allocator@D@2@@std@@U?$hash@V?$basic_string@DU?$char_traits@D@std@@V?$allocator@D@2@@std@@@2@U?$equal_to@V?$basic_string@DU?$char_traits@D@std@@V?$allocator@D@2@@std@@@2@@2@V?$allocator@U?$pair@$$CBV?$basic_string@DU?$char_traits@D@std@@V?$allocator@D@2@@std@@V?$shared_ptr@UNode@NetvarTree@@@2@@std@@@2@$0A@@std@@@std@@IBEABMXZ 1000a920 f i Aimbot.obj
 0001:00009920       ?_Max_bucket_size@?$_Hash@V?$_Umap_traits@V?$basic_string@DU?$char_traits@D@std@@V?$allocator@D@2@@std@@V?$shared_ptr@UNode@NetvarTree@@@2@V?$_Uhash_compare@V?$basic_string@DU?$char_traits@D@std@@V?$allocator@D@2@@std@@U?$hash@V?$basic_string@DU?$char_traits@D@std@@V?$allocator@D@2@@std@@@2@U?$equal_to@V?$basic_string@DU?$char_traits@D@std@@V?$allocator@D@2@@std@@@2@@2@V?$allocator@U?$pair@$$CBV?$basic_string@DU?$char_traits@D@std@@V?$allocator@D@2@@std@@V?$shared_ptr@UNode@NetvarTree@@@2@@std@@@2@$0A@@std@@@std@@IAEAAMXZ 1000a920 f i NetvarManager.obj
 0001:00009940       ?_Myoff@?$_Deque_alloc@U?$_Deque_base_types@UPlayerRecords@@V?$allocator@UPlayerRecords@@@std@@@std@@@std@@QAEAAIXZ 1000a940 f i Aimbot.obj
 0001:00009940       ?_Myoff@?$_Deque_alloc@U?$_Deque_base_types@ULegitPlayerRecords@@V?$allocator@ULegitPlayerRecords@@@std@@@std@@@std@@QAEAAIXZ 1000a940 f i Legitbot.obj
 0001:00009960       ?_Mysize@?$_Deque_alloc@U?$_Deque_base_types@UPlayerRecords@@V?$allocator@UPlayerRecords@@@std@@@std@@@std@@QAEAAIXZ 1000a960 f i Aimbot.obj
 0001:00009960       ?_Mysize@?$_Deque_alloc@U?$_Deque_base_types@UPlayerRecords@@V?$allocator@UPlayerRecords@@@std@@@std@@@std@@QBEABIXZ 1000a960 f i Aimbot.obj
 0001:00009960       ?_Mysize@?$_Deque_alloc@U?$_Deque_base_types@ULegitPlayerRecords@@V?$allocator@ULegitPlayerRecords@@@std@@@std@@@std@@QAEAAIXZ 1000a960 f i Legitbot.obj
 0001:00009960       ?_Mysize@?$_Deque_alloc@U?$_Deque_base_types@ULegitPlayerRecords@@V?$allocator@ULegitPlayerRecords@@@std@@@std@@@std@@QBEABIXZ 1000a960 f i Legitbot.obj
 0001:00009980       ?_Orphan_range@?$vector@HV?$allocator@H@std@@@std@@ABEXPAH0@Z 1000a980 f i Aimbot.obj
 0001:00009990       ?_Reallocate_exactly@?$vector@V?$_List_unchecked_iterator@V?$_List_val@U?$_List_simple_types@U?$pair@$$CBV?$basic_string@DU?$char_traits@D@std@@V?$allocator@D@2@@std@@V?$shared_ptr@UNode@NetvarTree@@@2@@std@@@std@@@std@@@std@@V?$allocator@V?$_List_unchecked_iterator@V?$_List_val@U?$_List_simple_types@U?$pair@$$CBV?$basic_string@DU?$char_traits@D@std@@V?$allocator@D@2@@std@@V?$shared_ptr@UNode@NetvarTree@@@2@@std@@@std@@@std@@@std@@@2@@std@@AAEXI@Z 1000a990 f i Aimbot.obj
 0001:00009a80       ?_Reinsert@?$_Hash@V?$_Umap_traits@V?$basic_string@DU?$char_traits@D@std@@V?$allocator@D@2@@std@@V?$shared_ptr@UNode@NetvarTree@@@2@V?$_Uhash_compare@V?$basic_string@DU?$char_traits@D@std@@V?$allocator@D@2@@std@@U?$hash@V?$basic_string@DU?$char_traits@D@std@@V?$allocator@D@2@@std@@@2@U?$equal_to@V?$basic_string@DU?$char_traits@D@std@@V?$allocator@D@2@@std@@@2@@2@V?$allocator@U?$pair@$$CBV?$basic_string@DU?$char_traits@D@std@@V?$allocator@D@2@@std@@V?$shared_ptr@UNode@NetvarTree@@@2@@std@@@2@$0A@@std@@@std@@IAEXXZ 1000aa80 f i Aimbot.obj
 0001:00009b10       ?_Release@?$_Uninitialized_backout_al@PAV?$_List_unchecked_iterator@V?$_List_val@U?$_List_simple_types@U?$pair@$$CBV?$basic_string@DU?$char_traits@D@std@@V?$allocator@D@2@@std@@V?$shared_ptr@UNode@NetvarTree@@@2@@std@@@std@@@std@@@std@@V?$allocator@V?$_List_unchecked_iterator@V?$_List_val@U?$_List_simple_types@U?$pair@$$CBV?$basic_string@DU?$char_traits@D@std@@V?$allocator@D@2@@std@@V?$shared_ptr@UNode@NetvarTree@@@2@@std@@@std@@@std@@@std@@@2@@std@@QAEPAV?$_List_unchecked_iterator@V?$_List_val@U?$_List_simple_types@U?$pair@$$CBV?$basic_string@DU?$char_traits@D@std@@V?$allocator@D@2@@std@@V?$shared_ptr@UNode@NetvarTree@@@2@@std@@@std@@@std@@@2@XZ 1000ab10 f i Aimbot.obj
 0001:00009b30       ?_Setcont@?$_Deque_const_iterator@V?$_Deque_val@U?$_Deque_simple_types@UPlayerRecords@@@std@@@std@@@std@@QAEXPBV?$_Deque_val@U?$_Deque_simple_types@UPlayerRecords@@@std@@@2@@Z 1000ab30 f i Aimbot.obj
 0001:00009b30       ?_Setcont@?$_Deque_const_iterator@V?$_Deque_val@U?$_Deque_simple_types@ULegitPlayerRecords@@@std@@@std@@@std@@QAEXPBV?$_Deque_val@U?$_Deque_simple_types@ULegitPlayerRecords@@@std@@@2@@Z 1000ab30 f i Legitbot.obj
 0001:00009b50       ?_Ufill@?$vector@V?$_List_unchecked_iterator@V?$_List_val@U?$_List_simple_types@U?$pair@$$CBV?$basic_string@DU?$char_traits@D@std@@V?$allocator@D@2@@std@@V?$shared_ptr@UNode@NetvarTree@@@2@@std@@@std@@@std@@@std@@V?$allocator@V?$_List_unchecked_iterator@V?$_List_val@U?$_List_simple_types@U?$pair@$$CBV?$basic_string@DU?$char_traits@D@std@@V?$allocator@D@2@@std@@V?$shared_ptr@UNode@NetvarTree@@@2@@std@@@std@@@std@@@std@@@2@@std@@AAEPAV?$_List_unchecked_iterator@V?$_List_val@U?$_List_simple_types@U?$pair@$$CBV?$basic_string@DU?$char_traits@D@std@@V?$allocator@D@2@@std@@V?$shared_ptr@UNode@NetvarTree@@@2@@std@@@std@@@std@@@2@PAV32@IABV32@@Z 1000ab50 f i Aimbot.obj
 0001:00009b80       ?_Umove@?$vector@HV?$allocator@H@std@@@std@@AAEPAHPAH00@Z 1000ab80 f i Aimbot.obj
 0001:00009bb0       ?_Umove_if_noexcept1@?$vector@HV?$allocator@H@std@@@std@@AAEXPAH00U?$integral_constant@_N$00@2@@Z 1000abb0 f i Aimbot.obj
 0001:00009be0       ?_Umove_if_noexcept1@?$vector@V?$_List_unchecked_iterator@V?$_List_val@U?$_List_simple_types@U?$pair@$$CBV?$basic_string@DU?$char_traits@D@std@@V?$allocator@D@2@@std@@V?$shared_ptr@UNode@NetvarTree@@@2@@std@@@std@@@std@@@std@@V?$allocator@V?$_List_unchecked_iterator@V?$_List_val@U?$_List_simple_types@U?$pair@$$CBV?$basic_string@DU?$char_traits@D@std@@V?$allocator@D@2@@std@@V?$shared_ptr@UNode@NetvarTree@@@2@@std@@@std@@@std@@@std@@@2@@std@@AAEXPAV?$_List_unchecked_iterator@V?$_List_val@U?$_List_simple_types@U?$pair@$$CBV?$basic_string@DU?$char_traits@D@std@@V?$allocator@D@2@@std@@V?$shared_ptr@UNode@NetvarTree@@@2@@std@@@std@@@std@@@2@00U?$integral_constant@_N$00@2@@Z 1000abe0 f i Aimbot.obj
 0001:00009c10       ?_Umove_if_noexcept@?$vector@HV?$allocator@H@std@@@std@@AAEXPAH00@Z 1000ac10 f i Aimbot.obj
 0001:00009c40       ?_Umove_if_noexcept@?$vector@V?$_List_unchecked_iterator@V?$_List_val@U?$_List_simple_types@U?$pair@$$CBV?$basic_string@DU?$char_traits@D@std@@V?$allocator@D@2@@std@@V?$shared_ptr@UNode@NetvarTree@@@2@@std@@@std@@@std@@@std@@V?$allocator@V?$_List_unchecked_iterator@V?$_List_val@U?$_List_simple_types@U?$pair@$$CBV?$basic_string@DU?$char_traits@D@std@@V?$allocator@D@2@@std@@V?$shared_ptr@UNode@NetvarTree@@@2@@std@@@std@@@std@@@std@@@2@@std@@AAEXPAV?$_List_unchecked_iterator@V?$_List_val@U?$_List_simple_types@U?$pair@$$CBV?$basic_string@DU?$char_traits@D@std@@V?$allocator@D@2@@std@@V?$shared_ptr@UNode@NetvarTree@@@2@@std@@@std@@@std@@@2@00@Z 1000ac40 f i Aimbot.obj
 0001:00009c70       ?_Unchecked_begin@?$_Hash@V?$_Umap_traits@V?$basic_string@DU?$char_traits@D@std@@V?$allocator@D@2@@std@@V?$shared_ptr@UNode@NetvarTree@@@2@V?$_Uhash_compare@V?$basic_string@DU?$char_traits@D@std@@V?$allocator@D@2@@std@@U?$hash@V?$basic_string@DU?$char_traits@D@std@@V?$allocator@D@2@@std@@@2@U?$equal_to@V?$basic_string@DU?$char_traits@D@std@@V?$allocator@D@2@@std@@@2@@2@V?$allocator@U?$pair@$$CBV?$basic_string@DU?$char_traits@D@std@@V?$allocator@D@2@@std@@V?$shared_ptr@UNode@NetvarTree@@@2@@std@@@2@$0A@@std@@@std@@QAE?AV?$_List_unchecked_iterator@V?$_List_val@U?$_List_simple_types@U?$pair@$$CBV?$basic_string@DU?$char_traits@D@std@@V?$allocator@D@2@@std@@V?$shared_ptr@UNode@NetvarTree@@@2@@std@@@std@@@std@@@2@XZ 1000ac70 f i Aimbot.obj
 0001:00009ca0       ?_Unchecked_begin@?$list@U?$pair@$$CBV?$basic_string@DU?$char_traits@D@std@@V?$allocator@D@2@@std@@V?$shared_ptr@UNode@NetvarTree@@@2@@std@@V?$allocator@U?$pair@$$CBV?$basic_string@DU?$char_traits@D@std@@V?$allocator@D@2@@std@@V?$shared_ptr@UNode@NetvarTree@@@2@@std@@@2@@std@@QAE?AV?$_List_unchecked_iterator@V?$_List_val@U?$_List_simple_types@U?$pair@$$CBV?$basic_string@DU?$char_traits@D@std@@V?$allocator@D@2@@std@@V?$shared_ptr@UNode@NetvarTree@@@2@@std@@@std@@@std@@@2@XZ 1000aca0 f i Aimbot.obj
 0001:00009cd0       ?_Unchecked_begin@?$vector@HV?$allocator@H@std@@@std@@QAEPAHXZ 1000acd0 f i Aimbot.obj
 0001:00009cf0       ?_Unchecked_end@?$_Hash@V?$_Umap_traits@V?$basic_string@DU?$char_traits@D@std@@V?$allocator@D@2@@std@@V?$shared_ptr@UNode@NetvarTree@@@2@V?$_Uhash_compare@V?$basic_string@DU?$char_traits@D@std@@V?$allocator@D@2@@std@@U?$hash@V?$basic_string@DU?$char_traits@D@std@@V?$allocator@D@2@@std@@@2@U?$equal_to@V?$basic_string@DU?$char_traits@D@std@@V?$allocator@D@2@@std@@@2@@2@V?$allocator@U?$pair@$$CBV?$basic_string@DU?$char_traits@D@std@@V?$allocator@D@2@@std@@V?$shared_ptr@UNode@NetvarTree@@@2@@std@@@2@$0A@@std@@@std@@QAE?AV?$_List_unchecked_iterator@V?$_List_val@U?$_List_simple_types@U?$pair@$$CBV?$basic_string@DU?$char_traits@D@std@@V?$allocator@D@2@@std@@V?$shared_ptr@UNode@NetvarTree@@@2@@std@@@std@@@std@@@2@XZ 1000acf0 f i Aimbot.obj
 0001:00009d20       ?_Unchecked_end@?$list@U?$pair@$$CBV?$basic_string@DU?$char_traits@D@std@@V?$allocator@D@2@@std@@V?$shared_ptr@UNode@NetvarTree@@@2@@std@@V?$allocator@U?$pair@$$CBV?$basic_string@DU?$char_traits@D@std@@V?$allocator@D@2@@std@@V?$shared_ptr@UNode@NetvarTree@@@2@@std@@@2@@std@@QAE?AV?$_List_unchecked_iterator@V?$_List_val@U?$_List_simple_types@U?$pair@$$CBV?$basic_string@DU?$char_traits@D@std@@V?$allocator@D@2@@std@@V?$shared_ptr@UNode@NetvarTree@@@2@@std@@@std@@@std@@@2@XZ 1000ad20 f i Aimbot.obj
 0001:00009d50       ?_Unchecked_end@?$vector@HV?$allocator@H@std@@@std@@QAEPAHXZ 1000ad50 f i Aimbot.obj
 0001:00009d50       ?size@?$list@U?$pair@$$CBV?$basic_string@DU?$char_traits@D@std@@V?$allocator@D@2@@std@@V?$shared_ptr@UNode@NetvarTree@@@2@@std@@V?$allocator@U?$pair@$$CBV?$basic_string@DU?$char_traits@D@std@@V?$allocator@D@2@@std@@V?$shared_ptr@UNode@NetvarTree@@@2@@std@@@2@@std@@QBEIXZ 1000ad50 f i Aimbot.obj
 0001:00009d70       ?_Unchecked_splice@?$list@U?$pair@$$CBV?$basic_string@DU?$char_traits@D@std@@V?$allocator@D@2@@std@@V?$shared_ptr@UNode@NetvarTree@@@2@@std@@V?$allocator@U?$pair@$$CBV?$basic_string@DU?$char_traits@D@std@@V?$allocator@D@2@@std@@V?$shared_ptr@UNode@NetvarTree@@@2@@std@@@2@@std@@QAEXV?$_List_unchecked_const_iterator@V?$_List_val@U?$_List_simple_types@U?$pair@$$CBV?$basic_string@DU?$char_traits@D@std@@V?$allocator@D@2@@std@@V?$shared_ptr@UNode@NetvarTree@@@2@@std@@@std@@@std@@U_Iterator_base0@2@@2@00@Z 1000ad70 f i Aimbot.obj
 0001:00009dd0       ?_Unlinknode@?$list@U?$pair@$$CBV?$basic_string@DU?$char_traits@D@std@@V?$allocator@D@2@@std@@V?$shared_ptr@UNode@NetvarTree@@@2@@std@@V?$allocator@U?$pair@$$CBV?$basic_string@DU?$char_traits@D@std@@V?$allocator@D@2@@std@@V?$shared_ptr@UNode@NetvarTree@@@2@@std@@@2@@std@@QAEPAU?$_List_node@U?$pair@$$CBV?$basic_string@DU?$char_traits@D@std@@V?$allocator@D@2@@std@@V?$shared_ptr@UNode@NetvarTree@@@2@@std@@PAX@2@V?$_List_const_iterator@V?$_List_val@U?$_List_simple_types@U?$pair@$$CBV?$basic_string@DU?$char_traits@D@std@@V?$allocator@D@2@@std@@V?$shared_ptr@UNode@NetvarTree@@@2@@std@@@std@@@std@@@2@@Z 1000add0 f i Aimbot.obj
 0001:00009e20       ?_Unwrapped@?$_List_iterator@V?$_List_val@U?$_List_simple_types@U?$pair@$$CBV?$basic_string@DU?$char_traits@D@std@@V?$allocator@D@2@@std@@V?$shared_ptr@UNode@NetvarTree@@@2@@std@@@std@@@std@@@std@@QBE?AV?$_List_unchecked_iterator@V?$_List_val@U?$_List_simple_types@U?$pair@$$CBV?$basic_string@DU?$char_traits@D@std@@V?$allocator@D@2@@std@@V?$shared_ptr@UNode@NetvarTree@@@2@@std@@@std@@@std@@@2@XZ 1000ae20 f i Aimbot.obj
 0001:00009e60       ?_Vec_hi@?$_Hash@V?$_Umap_traits@V?$basic_string@DU?$char_traits@D@std@@V?$allocator@D@2@@std@@V?$shared_ptr@UNode@NetvarTree@@@2@V?$_Uhash_compare@V?$basic_string@DU?$char_traits@D@std@@V?$allocator@D@2@@std@@U?$hash@V?$basic_string@DU?$char_traits@D@std@@V?$allocator@D@2@@std@@@2@U?$equal_to@V?$basic_string@DU?$char_traits@D@std@@V?$allocator@D@2@@std@@@2@@2@V?$allocator@U?$pair@$$CBV?$basic_string@DU?$char_traits@D@std@@V?$allocator@D@2@@std@@V?$shared_ptr@UNode@NetvarTree@@@2@@std@@@2@$0A@@std@@@std@@IAEAAV?$_List_unchecked_iterator@V?$_List_val@U?$_List_simple_types@U?$pair@$$CBV?$basic_string@DU?$char_traits@D@std@@V?$allocator@D@2@@std@@V?$shared_ptr@UNode@NetvarTree@@@2@@std@@@std@@@std@@@2@I@Z 1000ae60 f i Aimbot.obj
 0001:00009e90       ?_Vec_lo@?$_Hash@V?$_Umap_traits@V?$basic_string@DU?$char_traits@D@std@@V?$allocator@D@2@@std@@V?$shared_ptr@UNode@NetvarTree@@@2@V?$_Uhash_compare@V?$basic_string@DU?$char_traits@D@std@@V?$allocator@D@2@@std@@U?$hash@V?$basic_string@DU?$char_traits@D@std@@V?$allocator@D@2@@std@@@2@U?$equal_to@V?$basic_string@DU?$char_traits@D@std@@V?$allocator@D@2@@std@@@2@@2@V?$allocator@U?$pair@$$CBV?$basic_string@DU?$char_traits@D@std@@V?$allocator@D@2@@std@@V?$shared_ptr@UNode@NetvarTree@@@2@@std@@@2@$0A@@std@@@std@@IAEAAV?$_List_unchecked_iterator@V?$_List_val@U?$_List_simple_types@U?$pair@$$CBV?$basic_string@DU?$char_traits@D@std@@V?$allocator@D@2@@std@@V?$shared_ptr@UNode@NetvarTree@@@2@@std@@@std@@@std@@@2@I@Z 1000ae90 f i Aimbot.obj
 0001:00009ec0       ?_Xlength@?$vector@V?$_List_unchecked_iterator@V?$_List_val@U?$_List_simple_types@U?$pair@$$CBV?$basic_string@DU?$char_traits@D@std@@V?$allocator@D@2@@std@@V?$shared_ptr@UNode@NetvarTree@@@2@@std@@@std@@@std@@@std@@V?$allocator@V?$_List_unchecked_iterator@V?$_List_val@U?$_List_simple_types@U?$pair@$$CBV?$basic_string@DU?$char_traits@D@std@@V?$allocator@D@2@@std@@V?$shared_ptr@UNode@NetvarTree@@@2@@std@@@std@@@std@@@std@@@2@@std@@CAXXZ 1000aec0 f i Aimbot.obj
 0001:00009ec0       ?_Xlength@?$vector@HV?$allocator@H@std@@@std@@CAXXZ 1000aec0 f i Aimbot.obj
 0001:00009ed0       ?_Xran@?$deque@UPlayerRecords@@V?$allocator@UPlayerRecords@@@std@@@std@@IBEXXZ 1000aed0 f i Aimbot.obj
 0001:00009ed0       ?_Xran@?$deque@ULegitPlayerRecords@@V?$allocator@ULegitPlayerRecords@@@std@@@std@@IBEXXZ 1000aed0 f i Legitbot.obj
 0001:00009ef0       ?abs@@YAMM@Z               1000aef0 f i Aimbot.obj
 0001:00009ef0       ?fabs@@YAMM@Z              1000aef0 f i Aimbot.obj
 0001:00009f10       ?allocate@?$allocator@H@std@@QAEPAHI@Z 1000af10 f i Aimbot.obj
 0001:00009f10       ?allocate@?$allocator@PAUPlayerRecords@@@std@@QAEPAPAUPlayerRecords@@I@Z 1000af10 f i LagComp.obj
 0001:00009f10       ?allocate@?$allocator@PAULegitPlayerRecords@@@std@@QAEPAPAULegitPlayerRecords@@I@Z 1000af10 f i Legitbot.obj
 0001:00009f10       ?allocate@?$allocator@V?$_List_unchecked_iterator@V?$_List_val@U?$_List_simple_types@U?$pair@$$CBV?$basic_string@DU?$char_traits@D@std@@V?$allocator@D@2@@std@@V?$shared_ptr@UNode@NetvarTree@@@2@@std@@@std@@@std@@@std@@@std@@QAEPAV?$_List_unchecked_iterator@V?$_List_val@U?$_List_simple_types@U?$pair@$$CBV?$basic_string@DU?$char_traits@D@std@@V?$allocator@D@2@@std@@V?$shared_ptr@UNode@NetvarTree@@@2@@std@@@std@@@std@@@2@I@Z 1000af10 f i Aimbot.obj
 0001:00009f40       ?allocate@?$allocator@U?$_List_node@U?$pair@$$CBV?$basic_string@DU?$char_traits@D@std@@V?$allocator@D@2@@std@@V?$shared_ptr@UNode@NetvarTree@@@2@@std@@PAX@std@@@std@@QAEPAU?$_List_node@U?$pair@$$CBV?$basic_string@DU?$char_traits@D@std@@V?$allocator@D@2@@std@@V?$shared_ptr@UNode@NetvarTree@@@2@@std@@PAX@2@I@Z 1000af40 f i Aimbot.obj
 0001:00009f70       ?assign@?$vector@V?$_List_unchecked_iterator@V?$_List_val@U?$_List_simple_types@U?$pair@$$CBV?$basic_string@DU?$char_traits@D@std@@V?$allocator@D@2@@std@@V?$shared_ptr@UNode@NetvarTree@@@2@@std@@@std@@@std@@@std@@V?$allocator@V?$_List_unchecked_iterator@V?$_List_val@U?$_List_simple_types@U?$pair@$$CBV?$basic_string@DU?$char_traits@D@std@@V?$allocator@D@2@@std@@V?$shared_ptr@UNode@NetvarTree@@@2@@std@@@std@@@std@@@std@@@2@@std@@QAEXIABV?$_List_unchecked_iterator@V?$_List_val@U?$_List_simple_types@U?$pair@$$CBV?$basic_string@DU?$char_traits@D@std@@V?$allocator@D@2@@std@@V?$shared_ptr@UNode@NetvarTree@@@2@@std@@@std@@@std@@@2@@Z 1000af70 f i Aimbot.obj
 0001:0000a120       ?at@?$deque@UPlayerRecords@@V?$allocator@UPlayerRecords@@@std@@@std@@QAEAAUPlayerRecords@@I@Z 1000b120 f i Aimbot.obj
 0001:0000a1e0       ?begin@?$deque@ULegitPlayerRecords@@V?$allocator@ULegitPlayerRecords@@@std@@@std@@QAE?AV?$_Deque_iterator@V?$_Deque_val@U?$_Deque_simple_types@ULegitPlayerRecords@@@std@@@std@@@2@XZ 1000b1e0 f i Legitbot.obj
 0001:0000a1e0       ?begin@?$deque@UPlayerRecords@@V?$allocator@UPlayerRecords@@@std@@@std@@QAE?AV?$_Deque_iterator@V?$_Deque_val@U?$_Deque_simple_types@UPlayerRecords@@@std@@@std@@@2@XZ 1000b1e0 f i Aimbot.obj
 0001:0000a250       ?begin@?$list@U?$pair@$$CBV?$basic_string@DU?$char_traits@D@std@@V?$allocator@D@2@@std@@V?$shared_ptr@UNode@NetvarTree@@@2@@std@@V?$allocator@U?$pair@$$CBV?$basic_string@DU?$char_traits@D@std@@V?$allocator@D@2@@std@@V?$shared_ptr@UNode@NetvarTree@@@2@@std@@@2@@std@@QAE?AV?$_List_iterator@V?$_List_val@U?$_List_simple_types@U?$pair@$$CBV?$basic_string@DU?$char_traits@D@std@@V?$allocator@D@2@@std@@V?$shared_ptr@UNode@NetvarTree@@@2@@std@@@std@@@std@@@2@XZ 1000b250 f i Aimbot.obj
 0001:0000a2c0       ?bucket_count@?$_Hash@V?$_Umap_traits@V?$basic_string@DU?$char_traits@D@std@@V?$allocator@D@2@@std@@V?$shared_ptr@UNode@NetvarTree@@@2@V?$_Uhash_compare@V?$basic_string@DU?$char_traits@D@std@@V?$allocator@D@2@@std@@U?$hash@V?$basic_string@DU?$char_traits@D@std@@V?$allocator@D@2@@std@@@2@U?$equal_to@V?$basic_string@DU?$char_traits@D@std@@V?$allocator@D@2@@std@@@2@@2@V?$allocator@U?$pair@$$CBV?$basic_string@DU?$char_traits@D@std@@V?$allocator@D@2@@std@@V?$shared_ptr@UNode@NetvarTree@@@2@@std@@@2@$0A@@std@@@std@@QBEIXZ 1000b2c0 f i Aimbot.obj
 0001:0000a2e0       ?data@?$basic_string@DU?$char_traits@D@std@@V?$allocator@D@2@@std@@QAEPADXZ 1000b2e0 f i config_system.obj
 0001:0000a2e0       ?c_str@?$basic_string@DU?$char_traits@D@std@@V?$allocator@D@2@@std@@QBEPBDXZ 1000b2e0 f i Aimbot.obj
 0001:0000a330       ?compare@?$char_traits@D@std@@SAHQBD0I@Z 1000b330 f i Aimbot.obj
 0001:0000a360       ?cos@@YAMM@Z               1000b360 f i Aimbot.obj
 0001:0000a380       ?deallocate@?$allocator@U?$_List_node@U?$pair@$$CBV?$basic_string@DU?$char_traits@D@std@@V?$allocator@D@2@@std@@V?$shared_ptr@UNode@NetvarTree@@@2@@std@@PAX@std@@@std@@QAEXQAU?$_List_node@U?$pair@$$CBV?$basic_string@DU?$char_traits@D@std@@V?$allocator@D@2@@std@@V?$shared_ptr@UNode@NetvarTree@@@2@@std@@PAX@2@I@Z 1000b380 f i Aimbot.obj
 0001:0000a3a0       ?end@?$_Hash@V?$_Umap_traits@V?$basic_string@DU?$char_traits@D@std@@V?$allocator@D@2@@std@@V?$shared_ptr@UNode@NetvarTree@@@2@V?$_Uhash_compare@V?$basic_string@DU?$char_traits@D@std@@V?$allocator@D@2@@std@@U?$hash@V?$basic_string@DU?$char_traits@D@std@@V?$allocator@D@2@@std@@@2@U?$equal_to@V?$basic_string@DU?$char_traits@D@std@@V?$allocator@D@2@@std@@@2@@2@V?$allocator@U?$pair@$$CBV?$basic_string@DU?$char_traits@D@std@@V?$allocator@D@2@@std@@V?$shared_ptr@UNode@NetvarTree@@@2@@std@@@2@$0A@@std@@@std@@QAE?AV?$_List_iterator@V?$_List_val@U?$_List_simple_types@U?$pair@$$CBV?$basic_string@DU?$char_traits@D@std@@V?$allocator@D@2@@std@@V?$shared_ptr@UNode@NetvarTree@@@2@@std@@@std@@@std@@@2@XZ 1000b3a0 f i Aimbot.obj
 0001:0000a3d0       ?end@?$list@U?$pair@$$CBV?$basic_string@DU?$char_traits@D@std@@V?$allocator@D@2@@std@@V?$shared_ptr@UNode@NetvarTree@@@2@@std@@V?$allocator@U?$pair@$$CBV?$basic_string@DU?$char_traits@D@std@@V?$allocator@D@2@@std@@V?$shared_ptr@UNode@NetvarTree@@@2@@std@@@2@@std@@QAE?AV?$_List_iterator@V?$_List_val@U?$_List_simple_types@U?$pair@$$CBV?$basic_string@DU?$char_traits@D@std@@V?$allocator@D@2@@std@@V?$shared_ptr@UNode@NetvarTree@@@2@@std@@@std@@@std@@@2@XZ 1000b3d0 f i Aimbot.obj
 0001:0000a440       ?erase@?$_Hash@V?$_Umap_traits@V?$basic_string@DU?$char_traits@D@std@@V?$allocator@D@2@@std@@V?$shared_ptr@UNode@NetvarTree@@@2@V?$_Uhash_compare@V?$basic_string@DU?$char_traits@D@std@@V?$allocator@D@2@@std@@U?$hash@V?$basic_string@DU?$char_traits@D@std@@V?$allocator@D@2@@std@@@2@U?$equal_to@V?$basic_string@DU?$char_traits@D@std@@V?$allocator@D@2@@std@@@2@@2@V?$allocator@U?$pair@$$CBV?$basic_string@DU?$char_traits@D@std@@V?$allocator@D@2@@std@@V?$shared_ptr@UNode@NetvarTree@@@2@@std@@@2@$0A@@std@@@std@@QAE?AV?$_List_iterator@V?$_List_val@U?$_List_simple_types@U?$pair@$$CBV?$basic_string@DU?$char_traits@D@std@@V?$allocator@D@2@@std@@V?$shared_ptr@UNode@NetvarTree@@@2@@std@@@std@@@std@@@2@V?$_List_const_iterator@V?$_List_val@U?$_List_simple_types@U?$pair@$$CBV?$basic_string@DU?$char_traits@D@std@@V?$allocator@D@2@@std@@V?$shared_ptr@UNode@NetvarTree@@@2@@std@@@std@@@std@@@2@@Z 1000b440 f i Aimbot.obj
 0001:0000a4b0       ?erase@?$list@U?$pair@$$CBV?$basic_string@DU?$char_traits@D@std@@V?$allocator@D@2@@std@@V?$shared_ptr@UNode@NetvarTree@@@2@@std@@V?$allocator@U?$pair@$$CBV?$basic_string@DU?$char_traits@D@std@@V?$allocator@D@2@@std@@V?$shared_ptr@UNode@NetvarTree@@@2@@std@@@2@@std@@QAE?AV?$_List_iterator@V?$_List_val@U?$_List_simple_types@U?$pair@$$CBV?$basic_string@DU?$char_traits@D@std@@V?$allocator@D@2@@std@@V?$shared_ptr@UNode@NetvarTree@@@2@@std@@@std@@@std@@@2@V?$_List_const_iterator@V?$_List_val@U?$_List_simple_types@U?$pair@$$CBV?$basic_string@DU?$char_traits@D@std@@V?$allocator@D@2@@std@@V?$shared_ptr@UNode@NetvarTree@@@2@@std@@@std@@@std@@@2@@Z 1000b4b0 f i Aimbot.obj
 0001:0000a500       ?find@?$_Hash@V?$_Umap_traits@V?$basic_string@DU?$char_traits@D@std@@V?$allocator@D@2@@std@@V?$shared_ptr@UNode@NetvarTree@@@2@V?$_Uhash_compare@V?$basic_string@DU?$char_traits@D@std@@V?$allocator@D@2@@std@@U?$hash@V?$basic_string@DU?$char_traits@D@std@@V?$allocator@D@2@@std@@@2@U?$equal_to@V?$basic_string@DU?$char_traits@D@std@@V?$allocator@D@2@@std@@@2@@2@V?$allocator@U?$pair@$$CBV?$basic_string@DU?$char_traits@D@std@@V?$allocator@D@2@@std@@V?$shared_ptr@UNode@NetvarTree@@@2@@std@@@2@$0A@@std@@@std@@QAE?AV?$_List_iterator@V?$_List_val@U?$_List_simple_types@U?$pair@$$CBV?$basic_string@DU?$char_traits@D@std@@V?$allocator@D@2@@std@@V?$shared_ptr@UNode@NetvarTree@@@2@@std@@@std@@@std@@@2@ABV?$basic_string@DU?$char_traits@D@std@@V?$allocator@D@2@@2@@Z 1000b500 f i Aimbot.obj
 0001:0000a520       ?fmax@@YAMMM@Z             1000b520 f i Aimbot.obj
 0001:0000a550       ?front@?$list@U?$pair@$$CBV?$basic_string@DU?$char_traits@D@std@@V?$allocator@D@2@@std@@V?$shared_ptr@UNode@NetvarTree@@@2@@std@@V?$allocator@U?$pair@$$CBV?$basic_string@DU?$char_traits@D@std@@V?$allocator@D@2@@std@@V?$shared_ptr@UNode@NetvarTree@@@2@@std@@@2@@std@@QAEAAU?$pair@$$CBV?$basic_string@DU?$char_traits@D@std@@V?$allocator@D@2@@std@@V?$shared_ptr@UNode@NetvarTree@@@2@@2@XZ 1000b550 f i Aimbot.obj
 0001:0000a570       ??D?$_String_const_iterator@V?$_String_val@U?$_Simple_types@D@std@@@std@@@std@@QBEABDXZ 1000b570 f i config_system.obj
 0001:0000a570       ?GetName@RecvProp@@QBEPBDXZ 1000b570 f i NetvarManager.obj
 0001:0000a570       ?get@?$_Ptr_base@UNode@NetvarTree@@@std@@IBEPAUNode@NetvarTree@@XZ 1000b570 f i Aimbot.obj
 0001:0000a580       ?load_factor@?$_Hash@V?$_Umap_traits@V?$basic_string@DU?$char_traits@D@std@@V?$allocator@D@2@@std@@V?$shared_ptr@UNode@NetvarTree@@@2@V?$_Uhash_compare@V?$basic_string@DU?$char_traits@D@std@@V?$allocator@D@2@@std@@U?$hash@V?$basic_string@DU?$char_traits@D@std@@V?$allocator@D@2@@std@@@2@U?$equal_to@V?$basic_string@DU?$char_traits@D@std@@V?$allocator@D@2@@std@@@2@@2@V?$allocator@U?$pair@$$CBV?$basic_string@DU?$char_traits@D@std@@V?$allocator@D@2@@std@@V?$shared_ptr@UNode@NetvarTree@@@2@@std@@@2@$0A@@std@@@std@@QBEMXZ 1000b580 f i Aimbot.obj
 0001:0000a600       ?lower_bound@?$_Hash@V?$_Umap_traits@V?$basic_string@DU?$char_traits@D@std@@V?$allocator@D@2@@std@@V?$shared_ptr@UNode@NetvarTree@@@2@V?$_Uhash_compare@V?$basic_string@DU?$char_traits@D@std@@V?$allocator@D@2@@std@@U?$hash@V?$basic_string@DU?$char_traits@D@std@@V?$allocator@D@2@@std@@@2@U?$equal_to@V?$basic_string@DU?$char_traits@D@std@@V?$allocator@D@2@@std@@@2@@2@V?$allocator@U?$pair@$$CBV?$basic_string@DU?$char_traits@D@std@@V?$allocator@D@2@@std@@V?$shared_ptr@UNode@NetvarTree@@@2@@std@@@2@$0A@@std@@@std@@QAE?AV?$_List_iterator@V?$_List_val@U?$_List_simple_types@U?$pair@$$CBV?$basic_string@DU?$char_traits@D@std@@V?$allocator@D@2@@std@@V?$shared_ptr@UNode@NetvarTree@@@2@@std@@@std@@@std@@@2@ABV?$basic_string@DU?$char_traits@D@std@@V?$allocator@D@2@@2@@Z 1000b600 f i Aimbot.obj
 0001:0000a710       ?max_load_factor@?$_Hash@V?$_Umap_traits@V?$basic_string@DU?$char_traits@D@std@@V?$allocator@D@2@@std@@V?$shared_ptr@UNode@NetvarTree@@@2@V?$_Uhash_compare@V?$basic_string@DU?$char_traits@D@std@@V?$allocator@D@2@@std@@U?$hash@V?$basic_string@DU?$char_traits@D@std@@V?$allocator@D@2@@std@@@2@U?$equal_to@V?$basic_string@DU?$char_traits@D@std@@V?$allocator@D@2@@std@@@2@@2@V?$allocator@U?$pair@$$CBV?$basic_string@DU?$char_traits@D@std@@V?$allocator@D@2@@std@@V?$shared_ptr@UNode@NetvarTree@@@2@@std@@@2@$0A@@std@@@std@@QBEMXZ 1000b710 f i Aimbot.obj
 0001:0000a740       ?max_size@?$_Default_allocator_traits@V?$allocator@V?$_List_unchecked_iterator@V?$_List_val@U?$_List_simple_types@U?$pair@$$CBV?$basic_string@DU?$char_traits@D@std@@V?$allocator@D@2@@std@@V?$shared_ptr@UNode@NetvarTree@@@2@@std@@@std@@@std@@@std@@@std@@@std@@SAIABV?$allocator@V?$_List_unchecked_iterator@V?$_List_val@U?$_List_simple_types@U?$pair@$$CBV?$basic_string@DU?$char_traits@D@std@@V?$allocator@D@2@@std@@V?$shared_ptr@UNode@NetvarTree@@@2@@std@@@std@@@std@@@std@@@2@@Z 1000b740 f i Aimbot.obj
 0001:0000a740       ?max_size@?$_Default_allocator_traits@V?$allocator@H@std@@@std@@SAIABV?$allocator@H@2@@Z 1000b740 f i Aimbot.obj
 0001:0000a750       ?max_size@?$_Default_allocator_traits@V?$allocator@U?$_List_node@U?$pair@$$CBV?$basic_string@DU?$char_traits@D@std@@V?$allocator@D@2@@std@@V?$shared_ptr@UNode@NetvarTree@@@2@@std@@PAX@std@@@std@@@std@@SAIABV?$allocator@U?$_List_node@U?$pair@$$CBV?$basic_string@DU?$char_traits@D@std@@V?$allocator@D@2@@std@@V?$shared_ptr@UNode@NetvarTree@@@2@@std@@PAX@std@@@2@@Z 1000b750 f i Aimbot.obj
 0001:0000a760       ?max_size@?$list@U?$pair@$$CBV?$basic_string@DU?$char_traits@D@std@@V?$allocator@D@2@@std@@V?$shared_ptr@UNode@NetvarTree@@@2@@std@@V?$allocator@U?$pair@$$CBV?$basic_string@DU?$char_traits@D@std@@V?$allocator@D@2@@std@@V?$shared_ptr@UNode@NetvarTree@@@2@@std@@@2@@std@@QBEIXZ 1000b760 f i Aimbot.obj
 0001:0000a780       ?max_size@?$vector@HV?$allocator@H@std@@@std@@QBEIXZ 1000b780 f i Aimbot.obj
 0001:0000a780       ?max_size@?$vector@V?$_List_unchecked_iterator@V?$_List_val@U?$_List_simple_types@U?$pair@$$CBV?$basic_string@DU?$char_traits@D@std@@V?$allocator@D@2@@std@@V?$shared_ptr@UNode@NetvarTree@@@2@@std@@@std@@@std@@@std@@V?$allocator@V?$_List_unchecked_iterator@V?$_List_val@U?$_List_simple_types@U?$pair@$$CBV?$basic_string@DU?$char_traits@D@std@@V?$allocator@D@2@@std@@V?$shared_ptr@UNode@NetvarTree@@@2@@std@@@std@@@std@@@std@@@2@@std@@QBEIXZ 1000b780 f i Aimbot.obj
 0001:0000a7c0       ?pointer_to@?$pointer_traits@PAU?$pair@$$CBV?$basic_string@DU?$char_traits@D@std@@V?$allocator@D@2@@std@@V?$shared_ptr@UNode@NetvarTree@@@2@@std@@@std@@SAPAU?$pair@$$CBV?$basic_string@DU?$char_traits@D@std@@V?$allocator@D@2@@std@@V?$shared_ptr@UNode@NetvarTree@@@2@@2@AAU32@@Z 1000b7c0 f i Aimbot.obj
 0001:0000a7e0       ?push_back@?$vector@HV?$allocator@H@std@@@std@@QAEX$$QAH@Z 1000b7e0 f i Aimbot.obj
 0001:0000a810       ?reserve@?$vector@V?$_List_unchecked_iterator@V?$_List_val@U?$_List_simple_types@U?$pair@$$CBV?$basic_string@DU?$char_traits@D@std@@V?$allocator@D@2@@std@@V?$shared_ptr@UNode@NetvarTree@@@2@@std@@@std@@@std@@@std@@V?$allocator@V?$_List_unchecked_iterator@V?$_List_val@U?$_List_simple_types@U?$pair@$$CBV?$basic_string@DU?$char_traits@D@std@@V?$allocator@D@2@@std@@V?$shared_ptr@UNode@NetvarTree@@@2@@std@@@std@@@std@@@std@@@2@@std@@QAEXI@Z 1000b810 f i Aimbot.obj
 0001:0000a850       ?sin@@YAMM@Z               1000b850 f i Aimbot.obj
 0001:0000a870       ?size@?$_Hash@V?$_Umap_traits@V?$basic_string@DU?$char_traits@D@std@@V?$allocator@D@2@@std@@V?$shared_ptr@UNode@NetvarTree@@@2@V?$_Uhash_compare@V?$basic_string@DU?$char_traits@D@std@@V?$allocator@D@2@@std@@U?$hash@V?$basic_string@DU?$char_traits@D@std@@V?$allocator@D@2@@std@@@2@U?$equal_to@V?$basic_string@DU?$char_traits@D@std@@V?$allocator@D@2@@std@@@2@@2@V?$allocator@U?$pair@$$CBV?$basic_string@DU?$char_traits@D@std@@V?$allocator@D@2@@std@@V?$shared_ptr@UNode@NetvarTree@@@2@@std@@@2@$0A@@std@@@std@@QBEIXZ 1000b870 f i Aimbot.obj
 0001:0000a890       ?size@?$basic_string@DU?$char_traits@D@std@@V?$allocator@D@2@@std@@QBEIXZ 1000b890 f i Aimbot.obj
 0001:0000a8b0       ?size@?$deque@UPlayerRecords@@V?$allocator@UPlayerRecords@@@std@@@std@@QBEIXZ 1000b8b0 f i Aimbot.obj
 0001:0000a8b0       ?size@?$deque@ULegitPlayerRecords@@V?$allocator@ULegitPlayerRecords@@@std@@@std@@QBEIXZ 1000b8b0 f i Legitbot.obj
 0001:0000a8d0       ?size@?$vector@HV?$allocator@H@std@@@std@@QBEIXZ 1000b8d0 f i Aimbot.obj
 0001:0000a8d0       ?size@?$vector@V?$_List_unchecked_iterator@V?$_List_val@U?$_List_simple_types@U?$pair@$$CBV?$basic_string@DU?$char_traits@D@std@@V?$allocator@D@2@@std@@V?$shared_ptr@UNode@NetvarTree@@@2@@std@@@std@@@std@@@std@@V?$allocator@V?$_List_unchecked_iterator@V?$_List_val@U?$_List_simple_types@U?$pair@$$CBV?$basic_string@DU?$char_traits@D@std@@V?$allocator@D@2@@std@@V?$shared_ptr@UNode@NetvarTree@@@2@@std@@@std@@@std@@@std@@@2@@std@@QBEIXZ 1000b8d0 f i Aimbot.obj
 0001:0000a900       ?sqrt@@YAMM@Z              1000b900 f i Aimbot.obj
 0001:0000a920       _cosf                      1000b920 f i Aimbot.obj
 0001:0000a940       _fabsf                     1000b940 f i Aimbot.obj
 0001:0000a960       _sinf                      1000b960 f i Aimbot.obj
 0001:0000a980       _sqrtf                     1000b980 f i Aimbot.obj
 0001:0000a9a0       ??$pow@MNX@@YANMN@Z        1000b9a0 f i Autowall.obj
 0001:0000a9d0       ??0C_TraceFilter@@QAE@PAVC_BaseEntity@@W4TraceType_t@@@Z 1000b9d0 f i Autowall.obj
 0001:0000aa00       ??0FireBulletData@@QAE@ABVVector@@PAVC_BaseEntity@@@Z 1000ba00 f i Autowall.obj
 0001:0000aa60       ??0ITraceFilter@@QAE@XZ    1000ba60 f i Autowall.obj
 0001:0000aa80       ??R<lambda_8306b9bf967b1dc2e3a7715b585f0ae0>@@QBE_NPBE0PBD@Z 1000ba80 f i Autowall.obj
 0001:0000ab00       ??_0Vector@@QAEAAV0@M@Z    1000bb00 f i Autowall.obj
 0001:0000ab70       ?ArmorValue@C_BaseEntity@@QAEHXZ 1000bb70 f i Autowall.obj
 0001:0000ac30       ?CanHitFloatingPoint@Autowall@@QAE_NABVVector@@0@Z 1000bc30 f   Autowall.obj
 0001:0000ae10       ?Damage@Autowall@@QAEMABVVector@@@Z 1000be10 f   Autowall.obj
 0001:0000af20       ?FindPattern@Utils@@SAKPBDPBE0@Z 1000bf20 f i Autowall.obj
 0001:0000afa0       ?GetHitgroupDamageMult@@YAMH@Z 1000bfa0 f   Autowall.obj
 0001:0000b000       ?HandleBulletPenetration@@YA_NPAVWeaponInfo_t@@AAUFireBulletData@@_NVVector@@@Z 1000c000 f   Autowall.obj
 0001:0000b450       ?HasHelmet@C_BaseEntity@@QAE_NXZ 1000c450 f i Autowall.obj
 0001:0000b510       ?ScaleDamage@@YAXHPAVC_BaseEntity@@MAAM@Z 1000c510 f   Autowall.obj
 0001:0000b600       ?ShouldHitEntity@C_TraceFilter@@UAE_NPAXH@Z 1000c600 f i Autowall.obj
 0001:0000b630       ?SimulateFireBullet@@YA_NPAVC_BaseEntity@@PAVC_BaseCombatWeapon@@AAUFireBulletData@@@Z 1000c630 f   Autowall.obj
 0001:0000b8a0       ?TraceLine@@YAXAAVVector@@0IPAVC_BaseEntity@@PAUC_Trace@@@Z 1000c8a0 f   Autowall.obj
 0001:0000b930       ?TraceToExitalt@@YA_NAAVVector@@AAUC_Trace@@V1@2PAU2@@Z 1000c930 f   Autowall.obj
 0001:0000ba30       ?UTIL_ClipTraceToPlayers@@YAXABVVector@@0IPAVITraceFilter@@PAUC_Trace@@@Z 1000ca30 f   Autowall.obj
 0001:0000baf0       ?VectorLength@@YAMABVVector@@@Z 1000caf0 f i Autowall.obj
 0001:0000bb40       ?VectorNormalize@@YAMAAVVector@@@Z 1000cb40 f i Autowall.obj
 0001:0000bbb0       ?VectortoVectorVisible@@YA_NVVector@@0@Z 1000cbb0 f   Autowall.obj
 0001:0000bc50       ??$CallVFunc@$00XPAVC_BaseEntity@@@Utils@@SAXPAXPAVC_BaseEntity@@@Z 1000cc50 f i EnginePrediction.obj
 0001:0000bc80       ?AccuracyPenalty@C_BaseCombatWeapon@@QAEXXZ 1000cc80 f i EnginePrediction.obj
 0001:0000bcb0       ?EndEnginePred@engine_prediction@@YAXXZ 1000ccb0 f   EnginePrediction.obj
 0001:0000bd80       ?RunEnginePred@engine_prediction@@YAXXZ 1000cd80 f   EnginePrediction.obj
 0001:0000bff0       ?SetCurrentCommand@C_BaseEntity@@QAEXPAVCUserCmd@@@Z 1000cff0 f i EnginePrediction.obj
 0001:0000c0b0       ?SetHost@IMoveHelper@@QAEXPAVC_BaseEntity@@@Z 1000d0b0 f i EnginePrediction.obj
 0001:0000c0d0       ??$?0$$V@?$_Compressed_pair@V?$allocator@ULegitPlayerRecords@@@std@@V?$_Deque_val@U?$_Deque_simple_types@ULegitPlayerRecords@@@std@@@2@$00@std@@QAE@U_Zero_then_variadic_args_t@1@@Z 1000d0d0 f i Legitbot.obj
 0001:0000c0d0       ??$?0$$V@?$_Compressed_pair@V?$allocator@UPlayerRecords@@@std@@V?$_Deque_val@U?$_Deque_simple_types@UPlayerRecords@@@std@@@2@$00@std@@QAE@U_Zero_then_variadic_args_t@1@@Z 1000d0d0 f i LagComp.obj
 0001:0000c0f0       ??$_Deallocate_plain@V?$allocator@U_Container_proxy@std@@@std@@$0A@@std@@YAXAAV?$allocator@U_Container_proxy@std@@@0@QAU_Container_proxy@0@@Z 1000d0f0 f i LagComp.obj
 0001:0000c110       ??$_Get_size_of_n@$07@std@@YAII@Z 1000d110 f i LagComp.obj
 0001:0000c140       ??$_Get_size_of_n@$0BIAM@@std@@YAII@Z 1000d140 f i LagComp.obj
 0001:0000c170       ??$_Get_unwrapped@V?$_Deque_iterator@V?$_Deque_val@U?$_Deque_simple_types@ULegitPlayerRecords@@@std@@@std@@@std@@$0A@@std@@YA?AV?$_Deque_unchecked_iterator@V?$_Deque_val@U?$_Deque_simple_types@ULegitPlayerRecords@@@std@@@std@@@0@ABV?$_Deque_iterator@V?$_Deque_val@U?$_Deque_simple_types@ULegitPlayerRecords@@@std@@@std@@@0@@Z 1000d170 f i Legitbot.obj
 0001:0000c170       ??$_Get_unwrapped@V?$_Deque_iterator@V?$_Deque_val@U?$_Deque_simple_types@UPlayerRecords@@@std@@@std@@@std@@$0A@@std@@YA?AV?$_Deque_unchecked_iterator@V?$_Deque_val@U?$_Deque_simple_types@UPlayerRecords@@@std@@@std@@@0@ABV?$_Deque_iterator@V?$_Deque_val@U?$_Deque_simple_types@UPlayerRecords@@@std@@@std@@@0@@Z 1000d170 f i LagComp.obj
 0001:0000c190       ??$_Get_unwrapped_n@V?$_Deque_iterator@V?$_Deque_val@U?$_Deque_simple_types@UPlayerRecords@@@std@@@std@@@std@@H$0A@@std@@YA?AV?$_Deque_unchecked_iterator@V?$_Deque_val@U?$_Deque_simple_types@UPlayerRecords@@@std@@@std@@@0@ABV?$_Deque_iterator@V?$_Deque_val@U?$_Deque_simple_types@UPlayerRecords@@@std@@@std@@@0@H@Z 1000d190 f i LagComp.obj
 0001:0000c190       ??$_Get_unwrapped_n@V?$_Deque_iterator@V?$_Deque_val@U?$_Deque_simple_types@ULegitPlayerRecords@@@std@@@std@@@std@@H$0A@@std@@YA?AV?$_Deque_unchecked_iterator@V?$_Deque_val@U?$_Deque_simple_types@ULegitPlayerRecords@@@std@@@std@@@0@ABV?$_Deque_iterator@V?$_Deque_val@U?$_Deque_simple_types@ULegitPlayerRecords@@@std@@@std@@@0@H@Z 1000d190 f i Legitbot.obj
 0001:0000c1c0       ??$_Idl_distance@V?$_Deque_iterator@V?$_Deque_val@U?$_Deque_simple_types@UPlayerRecords@@@std@@@std@@@std@@V?$_Deque_unchecked_iterator@V?$_Deque_val@U?$_Deque_simple_types@UPlayerRecords@@@std@@@std@@@2@@std@@YAHABV?$_Deque_unchecked_iterator@V?$_Deque_val@U?$_Deque_simple_types@UPlayerRecords@@@std@@@std@@@0@0@Z 1000d1c0 f i LagComp.obj
 0001:0000c1c0       ??$_Idl_distance@V?$_Deque_iterator@V?$_Deque_val@U?$_Deque_simple_types@ULegitPlayerRecords@@@std@@@std@@@std@@V?$_Deque_unchecked_iterator@V?$_Deque_val@U?$_Deque_simple_types@ULegitPlayerRecords@@@std@@@std@@@2@@std@@YAHABV?$_Deque_unchecked_iterator@V?$_Deque_val@U?$_Deque_simple_types@ULegitPlayerRecords@@@std@@@std@@@0@0@Z 1000d1c0 f i Legitbot.obj
 0001:0000c1e0       ??$_Move_backward_unchecked1@V?$_Deque_unchecked_iterator@V?$_Deque_val@U?$_Deque_simple_types@UPlayerRecords@@@std@@@std@@@std@@V12@@std@@YA?AV?$_Deque_unchecked_iterator@V?$_Deque_val@U?$_Deque_simple_types@UPlayerRecords@@@std@@@std@@@0@V10@00U_General_ptr_iterator_tag@0@@Z 1000d1e0 f i LagComp.obj
 0001:0000c250       ??$_Move_backward_unchecked@V?$_Deque_unchecked_iterator@V?$_Deque_val@U?$_Deque_simple_types@UPlayerRecords@@@std@@@std@@@std@@V12@@std@@YA?AV?$_Deque_unchecked_iterator@V?$_Deque_val@U?$_Deque_simple_types@UPlayerRecords@@@std@@@std@@@0@V10@00@Z 1000d250 f i LagComp.obj
 0001:0000c2a0       ??$_Move_unchecked1@V?$_Deque_unchecked_iterator@V?$_Deque_val@U?$_Deque_simple_types@UPlayerRecords@@@std@@@std@@@std@@V12@@std@@YA?AV?$_Deque_unchecked_iterator@V?$_Deque_val@U?$_Deque_simple_types@UPlayerRecords@@@std@@@std@@@0@V10@00U_General_ptr_iterator_tag@0@@Z 1000d2a0 f i LagComp.obj
 0001:0000c310       ??$_Move_unchecked@V?$_Deque_unchecked_iterator@V?$_Deque_val@U?$_Deque_simple_types@UPlayerRecords@@@std@@@std@@@std@@V12@@std@@YA?AV?$_Deque_unchecked_iterator@V?$_Deque_val@U?$_Deque_simple_types@UPlayerRecords@@@std@@@std@@@0@V10@00@Z 1000d310 f i LagComp.obj
 0001:0000c360       ??$_Seek_wrapped@V?$_Deque_iterator@V?$_Deque_val@U?$_Deque_simple_types@ULegitPlayerRecords@@@std@@@std@@@std@@V?$_Deque_unchecked_iterator@V?$_Deque_val@U?$_Deque_simple_types@ULegitPlayerRecords@@@std@@@std@@@2@@std@@YAXAAV?$_Deque_iterator@V?$_Deque_val@U?$_Deque_simple_types@ULegitPlayerRecords@@@std@@@std@@@0@ABV?$_Deque_unchecked_iterator@V?$_Deque_val@U?$_Deque_simple_types@ULegitPlayerRecords@@@std@@@std@@@0@@Z 1000d360 f i Legitbot.obj
 0001:0000c360       ??$_Seek_wrapped@V?$_Deque_iterator@V?$_Deque_val@U?$_Deque_simple_types@UPlayerRecords@@@std@@@std@@@std@@V?$_Deque_unchecked_iterator@V?$_Deque_val@U?$_Deque_simple_types@UPlayerRecords@@@std@@@std@@@2@@std@@YAXAAV?$_Deque_iterator@V?$_Deque_val@U?$_Deque_simple_types@UPlayerRecords@@@std@@@std@@@0@ABV?$_Deque_unchecked_iterator@V?$_Deque_val@U?$_Deque_simple_types@UPlayerRecords@@@std@@@std@@@0@@Z 1000d360 f i LagComp.obj
 0001:0000c380       ??$_Uninitialized_value_construct_n1@PAPAUPlayerRecords@@IV?$allocator@PAUPlayerRecords@@@std@@@std@@YAPAPAUPlayerRecords@@PAPAU1@IAAV?$allocator@PAUPlayerRecords@@@0@U?$integral_constant@_N$00@0@@Z 1000d380 f i LagComp.obj
 0001:0000c380       ??$_Uninitialized_value_construct_n1@PAPAULegitPlayerRecords@@IV?$allocator@PAULegitPlayerRecords@@@std@@@std@@YAPAPAULegitPlayerRecords@@PAPAU1@IAAV?$allocator@PAULegitPlayerRecords@@@0@U?$integral_constant@_N$00@0@@Z 1000d380 f i Legitbot.obj
 0001:0000c3a0       ??$_Uninitialized_value_construct_n@PAPAULegitPlayerRecords@@IV?$allocator@PAULegitPlayerRecords@@@std@@@std@@YAPAPAULegitPlayerRecords@@PAPAU1@IAAV?$allocator@PAULegitPlayerRecords@@@0@@Z 1000d3a0 f i Legitbot.obj
 0001:0000c3a0       ??$_Uninitialized_value_construct_n@PAPAUPlayerRecords@@IV?$allocator@PAUPlayerRecords@@@std@@@std@@YAPAPAUPlayerRecords@@PAPAU1@IAAV?$allocator@PAUPlayerRecords@@@0@@Z 1000d3a0 f i LagComp.obj
 0001:0000c3d0       ??$_Zero_range@PAPAULegitPlayerRecords@@@std@@YAPAPAULegitPlayerRecords@@QAPAU1@0@Z 1000d3d0 f i Legitbot.obj
 0001:0000c3d0       ??$_Zero_range@PAPAUPlayerRecords@@@std@@YAPAPAUPlayerRecords@@QAPAU1@0@Z 1000d3d0 f i LagComp.obj
 0001:0000c400       ??$clamp@MM@LagComp@@QAEMMMM@Z 1000d400 f i LagComp.obj
 0001:0000c430       ??$construct@UPlayerRecords@@ABU1@@?$_Default_allocator_traits@V?$allocator@UPlayerRecords@@@std@@@std@@SAXAAV?$allocator@UPlayerRecords@@@1@QAUPlayerRecords@@ABU3@@Z 1000d430 f i LagComp.obj
 0001:0000c470       ??$construct@U_Container_proxy@std@@U12@@?$_Default_allocator_traits@V?$allocator@U_Container_proxy@std@@@std@@@std@@SAXAAV?$allocator@U_Container_proxy@std@@@1@QAU_Container_proxy@1@$$QAU31@@Z 1000d470 f i LagComp.obj
 0001:0000c4b0       ??$move@V?$_Deque_iterator@V?$_Deque_val@U?$_Deque_simple_types@UPlayerRecords@@@std@@@std@@@std@@V12@@std@@YA?AV?$_Deque_iterator@V?$_Deque_val@U?$_Deque_simple_types@UPlayerRecords@@@std@@@std@@@0@V10@00@Z 1000d4b0 f i LagComp.obj
 0001:0000c5c0       ??$move_backward@V?$_Deque_iterator@V?$_Deque_val@U?$_Deque_simple_types@UPlayerRecords@@@std@@@std@@@std@@V12@@std@@YA?AV?$_Deque_iterator@V?$_Deque_val@U?$_Deque_simple_types@UPlayerRecords@@@std@@@std@@@0@V10@00@Z 1000d5c0 f i LagComp.obj
 0001:0000c6d0       ??0?$_Deque_alloc@U?$_Deque_base_types@ULegitPlayerRecords@@V?$allocator@ULegitPlayerRecords@@@std@@@std@@@std@@QAE@XZ 1000d6d0 f i Legitbot.obj
 0001:0000c6d0       ??0?$_Deque_alloc@U?$_Deque_base_types@UPlayerRecords@@V?$allocator@UPlayerRecords@@@std@@@std@@@std@@QAE@XZ 1000d6d0 f i LagComp.obj
 0001:0000c700       ??0?$_Deque_unchecked_const_iterator@V?$_Deque_val@U?$_Deque_simple_types@ULegitPlayerRecords@@@std@@@std@@@std@@QAE@IPBU_Container_base12@1@@Z 1000d700 f i Legitbot.obj
 0001:0000c700       ??0?$_Deque_unchecked_const_iterator@V?$_Deque_val@U?$_Deque_simple_types@UPlayerRecords@@@std@@@std@@@std@@QAE@IPBU_Container_base12@1@@Z 1000d700 f i LagComp.obj
 0001:0000c730       ??0?$_Deque_unchecked_iterator@V?$_Deque_val@U?$_Deque_simple_types@UPlayerRecords@@@std@@@std@@@std@@QAE@IPBU_Container_base12@1@@Z 1000d730 f i LagComp.obj
 0001:0000c730       ??0?$_Deque_unchecked_iterator@V?$_Deque_val@U?$_Deque_simple_types@ULegitPlayerRecords@@@std@@@std@@@std@@QAE@IPBU_Container_base12@1@@Z 1000d730 f i Legitbot.obj
 0001:0000c750       ??0?$_Deque_val@U?$_Deque_simple_types@UPlayerRecords@@@std@@@std@@QAE@XZ 1000d750 f i LagComp.obj
 0001:0000c750       ??0?$_Deque_val@U?$_Deque_simple_types@ULegitPlayerRecords@@@std@@@std@@QAE@XZ 1000d750 f i Legitbot.obj
 0001:0000c790       ??0?$deque@ULegitPlayerRecords@@V?$allocator@ULegitPlayerRecords@@@std@@@std@@QAE@XZ 1000d790 f i Legitbot.obj
 0001:0000c790       ??0?$deque@UPlayerRecords@@V?$allocator@UPlayerRecords@@@std@@@std@@QAE@XZ 1000d790 f i LagComp.obj
 0001:0000c7b0       ??0LagComp@@QAE@XZ         1000d7b0 f i LagComp.obj
 0001:0000c7e0       ??0PlayerRecords@@QAE@XZ   1000d7e0 f i LagComp.obj
 0001:0000c810       ??1?$_Deque_alloc@U?$_Deque_base_types@ULegitPlayerRecords@@V?$allocator@ULegitPlayerRecords@@@std@@@std@@@std@@QAE@XZ 1000d810 f i Legitbot.obj
 0001:0000c810       ??1?$_Deque_alloc@U?$_Deque_base_types@UPlayerRecords@@V?$allocator@UPlayerRecords@@@std@@@std@@@std@@QAE@XZ 1000d810 f i LagComp.obj
 0001:0000c850       ??1?$deque@UPlayerRecords@@V?$allocator@UPlayerRecords@@@std@@@std@@QAE@XZ 1000d850 f i LagComp.obj
 0001:0000c8a0       ??1LagComp@@QAE@XZ         1000d8a0 f i LagComp.obj
 0001:0000c8f0       ??8?$_Deque_unchecked_const_iterator@V?$_Deque_val@U?$_Deque_simple_types@UPlayerRecords@@@std@@@std@@@std@@QBE_NABV01@@Z 1000d8f0 f i LagComp.obj
 0001:0000c8f0       ??8?$_Deque_unchecked_const_iterator@V?$_Deque_val@U?$_Deque_simple_types@ULegitPlayerRecords@@@std@@@std@@@std@@QBE_NABV01@@Z 1000d8f0 f i Legitbot.obj
 0001:0000c920       ??9?$_Deque_unchecked_const_iterator@V?$_Deque_val@U?$_Deque_simple_types@ULegitPlayerRecords@@@std@@@std@@@std@@QBE_NABV01@@Z 1000d920 f i Legitbot.obj
 0001:0000c920       ??9?$_Deque_unchecked_const_iterator@V?$_Deque_val@U?$_Deque_simple_types@UPlayerRecords@@@std@@@std@@@std@@QBE_NABV01@@Z 1000d920 f i LagComp.obj
 0001:0000c960       ??D?$_Deque_unchecked_const_iterator@V?$_Deque_val@U?$_Deque_simple_types@UPlayerRecords@@@std@@@std@@@std@@QBEABUPlayerRecords@@XZ 1000d960 f i LagComp.obj
 0001:0000c9b0       ??D?$_Deque_unchecked_iterator@V?$_Deque_val@U?$_Deque_simple_types@UPlayerRecords@@@std@@@std@@@std@@QBEAAUPlayerRecords@@XZ 1000d9b0 f i LagComp.obj
 0001:0000c9d0       ??E?$_Deque_unchecked_const_iterator@V?$_Deque_val@U?$_Deque_simple_types@ULegitPlayerRecords@@@std@@@std@@@std@@QAEAAV01@XZ 1000d9d0 f i Legitbot.obj
 0001:0000c9d0       ??E?$_Deque_unchecked_const_iterator@V?$_Deque_val@U?$_Deque_simple_types@UPlayerRecords@@@std@@@std@@@std@@QAEAAV01@XZ 1000d9d0 f i LagComp.obj
 0001:0000c9f0       ??E?$_Deque_unchecked_iterator@V?$_Deque_val@U?$_Deque_simple_types@ULegitPlayerRecords@@@std@@@std@@@std@@QAEAAV01@XZ 1000d9f0 f i Legitbot.obj
 0001:0000c9f0       ??E?$_Deque_unchecked_iterator@V?$_Deque_val@U?$_Deque_simple_types@UPlayerRecords@@@std@@@std@@@std@@QAEAAV01@XZ 1000d9f0 f i LagComp.obj
 0001:0000ca10       ??F?$_Deque_unchecked_const_iterator@V?$_Deque_val@U?$_Deque_simple_types@ULegitPlayerRecords@@@std@@@std@@@std@@QAEAAV01@XZ 1000da10 f i Legitbot.obj
 0001:0000ca10       ??F?$_Deque_unchecked_const_iterator@V?$_Deque_val@U?$_Deque_simple_types@UPlayerRecords@@@std@@@std@@@std@@QAEAAV01@XZ 1000da10 f i LagComp.obj
 0001:0000ca30       ??F?$_Deque_unchecked_iterator@V?$_Deque_val@U?$_Deque_simple_types@UPlayerRecords@@@std@@@std@@@std@@QAEAAV01@XZ 1000da30 f i LagComp.obj
 0001:0000ca30       ??F?$_Deque_unchecked_iterator@V?$_Deque_val@U?$_Deque_simple_types@ULegitPlayerRecords@@@std@@@std@@@std@@QAEAAV01@XZ 1000da30 f i Legitbot.obj
 0001:0000ca50       ??G?$_Deque_const_iterator@V?$_Deque_val@U?$_Deque_simple_types@ULegitPlayerRecords@@@std@@@std@@@std@@QBEHABV01@@Z 1000da50 f i Legitbot.obj
 0001:0000ca50       ??G?$_Deque_const_iterator@V?$_Deque_val@U?$_Deque_simple_types@UPlayerRecords@@@std@@@std@@@std@@QBEHABV01@@Z 1000da50 f i LagComp.obj
 0001:0000ca80       ??G?$_Deque_iterator@V?$_Deque_val@U?$_Deque_simple_types@UPlayerRecords@@@std@@@std@@@std@@QBEHABV?$_Deque_const_iterator@V?$_Deque_val@U?$_Deque_simple_types@UPlayerRecords@@@std@@@std@@@1@@Z 1000da80 f i LagComp.obj
 0001:0000ca80       ??G?$_Deque_iterator@V?$_Deque_val@U?$_Deque_simple_types@ULegitPlayerRecords@@@std@@@std@@@std@@QBEHABV?$_Deque_const_iterator@V?$_Deque_val@U?$_Deque_simple_types@ULegitPlayerRecords@@@std@@@std@@@1@@Z 1000da80 f i Legitbot.obj
 0001:0000caa0       ??G?$_Deque_unchecked_const_iterator@V?$_Deque_val@U?$_Deque_simple_types@ULegitPlayerRecords@@@std@@@std@@@std@@QBEHABV01@@Z 1000daa0 f i Legitbot.obj
 0001:0000caa0       ??G?$_Deque_unchecked_const_iterator@V?$_Deque_val@U?$_Deque_simple_types@UPlayerRecords@@@std@@@std@@@std@@QBEHABV01@@Z 1000daa0 f i LagComp.obj
 0001:0000cac0       ??G?$_Deque_unchecked_iterator@V?$_Deque_val@U?$_Deque_simple_types@ULegitPlayerRecords@@@std@@@std@@@std@@QBEHABV?$_Deque_unchecked_const_iterator@V?$_Deque_val@U?$_Deque_simple_types@ULegitPlayerRecords@@@std@@@std@@@1@@Z 1000dac0 f i Legitbot.obj
 0001:0000cac0       ??G?$_Deque_unchecked_iterator@V?$_Deque_val@U?$_Deque_simple_types@UPlayerRecords@@@std@@@std@@@std@@QBEHABV?$_Deque_unchecked_const_iterator@V?$_Deque_val@U?$_Deque_simple_types@UPlayerRecords@@@std@@@std@@@1@@Z 1000dac0 f i LagComp.obj
 0001:0000cae0       ??H?$_Deque_const_iterator@V?$_Deque_val@U?$_Deque_simple_types@ULegitPlayerRecords@@@std@@@std@@@std@@QBE?AV01@H@Z 1000dae0 f i Legitbot.obj
 0001:0000cae0       ??H?$_Deque_const_iterator@V?$_Deque_val@U?$_Deque_simple_types@UPlayerRecords@@@std@@@std@@@std@@QBE?AV01@H@Z 1000dae0 f i LagComp.obj
 0001:0000cb70       ?ClearRecords@LagComp@@QAEXH@Z 1000db70 f   LagComp.obj
 0001:0000cca0       ?GetInt@ConVar@@QBEHXZ     1000dca0 f i LagComp.obj
 0001:0000ccc0       ?LerpTime@LagComp@@QAEMXZ  1000dcc0 f   LagComp.obj
 0001:0000ce90       ?StoreRecord@LagComp@@QAEXPAVC_BaseEntity@@@Z 1000de90 f   LagComp.obj
 0001:0000d470       ?ValidTick@LagComp@@QAE_NH@Z 1000e470 f   LagComp.obj
 0001:0000d630       ?_Alloc_proxy@?$_Deque_alloc@U?$_Deque_base_types@UPlayerRecords@@V?$allocator@UPlayerRecords@@@std@@@std@@@std@@QAEXXZ 1000e630 f i LagComp.obj
 0001:0000d630       ?_Alloc_proxy@?$_Deque_alloc@U?$_Deque_base_types@ULegitPlayerRecords@@V?$allocator@ULegitPlayerRecords@@@std@@@std@@@std@@QAEXXZ 1000e630 f i Legitbot.obj
 0001:0000d6c0       ?_Free_proxy@?$_Deque_alloc@U?$_Deque_base_types@ULegitPlayerRecords@@V?$allocator@ULegitPlayerRecords@@@std@@@std@@@std@@QAEXXZ 1000e6c0 f i Legitbot.obj
 0001:0000d6c0       ?_Free_proxy@?$_Deque_alloc@U?$_Deque_base_types@UPlayerRecords@@V?$allocator@UPlayerRecords@@@std@@@std@@@std@@QAEXXZ 1000e6c0 f i LagComp.obj
 0001:0000d730       ?_Getblock@?$_Deque_alloc@U?$_Deque_base_types@ULegitPlayerRecords@@V?$allocator@ULegitPlayerRecords@@@std@@@std@@@std@@QBEII@Z 1000e730 f i Legitbot.obj
 0001:0000d730       ?_Getblock@?$_Deque_alloc@U?$_Deque_base_types@UPlayerRecords@@V?$allocator@UPlayerRecords@@@std@@@std@@@std@@QBEII@Z 1000e730 f i LagComp.obj
 0001:0000d760       ?_Growmap@?$deque@UPlayerRecords@@V?$allocator@UPlayerRecords@@@std@@@std@@IAEXI@Z 1000e760 f i LagComp.obj
 0001:0000da10       ?_Make_iter@?$deque@ULegitPlayerRecords@@V?$allocator@ULegitPlayerRecords@@@std@@@std@@QBE?AV?$_Deque_iterator@V?$_Deque_val@U?$_Deque_simple_types@ULegitPlayerRecords@@@std@@@std@@@2@V?$_Deque_const_iterator@V?$_Deque_val@U?$_Deque_simple_types@ULegitPlayerRecords@@@std@@@std@@@2@@Z 1000ea10 f i Legitbot.obj
 0001:0000da10       ?_Make_iter@?$deque@UPlayerRecords@@V?$allocator@UPlayerRecords@@@std@@@std@@QBE?AV?$_Deque_iterator@V?$_Deque_val@U?$_Deque_simple_types@UPlayerRecords@@@std@@@std@@@2@V?$_Deque_const_iterator@V?$_Deque_val@U?$_Deque_simple_types@UPlayerRecords@@@std@@@std@@@2@@Z 1000ea10 f i LagComp.obj
 0001:0000da90       ?_Seek_to@?$_Deque_const_iterator@V?$_Deque_val@U?$_Deque_simple_types@ULegitPlayerRecords@@@std@@@std@@@std@@QAEXABV?$_Deque_unchecked_const_iterator@V?$_Deque_val@U?$_Deque_simple_types@ULegitPlayerRecords@@@std@@@std@@@2@@Z 1000ea90 f i Legitbot.obj
 0001:0000da90       ?_Seek_to@?$_Deque_const_iterator@V?$_Deque_val@U?$_Deque_simple_types@UPlayerRecords@@@std@@@std@@@std@@QAEXABV?$_Deque_unchecked_const_iterator@V?$_Deque_val@U?$_Deque_simple_types@UPlayerRecords@@@std@@@std@@@2@@Z 1000ea90 f i LagComp.obj
 0001:0000dab0       ?_Tidy@?$deque@UPlayerRecords@@V?$allocator@UPlayerRecords@@@std@@@std@@IAEXXZ 1000eab0 f i LagComp.obj
 0001:0000dbc0       ?_Unwrapped@?$_Deque_iterator@V?$_Deque_val@U?$_Deque_simple_types@ULegitPlayerRecords@@@std@@@std@@@std@@QBE?AV?$_Deque_unchecked_iterator@V?$_Deque_val@U?$_Deque_simple_types@ULegitPlayerRecords@@@std@@@std@@@2@XZ 1000ebc0 f i Legitbot.obj
 0001:0000dbc0       ?_Unwrapped@?$_Deque_iterator@V?$_Deque_val@U?$_Deque_simple_types@UPlayerRecords@@@std@@@std@@@std@@QBE?AV?$_Deque_unchecked_iterator@V?$_Deque_val@U?$_Deque_simple_types@UPlayerRecords@@@std@@@std@@@2@XZ 1000ebc0 f i LagComp.obj
 0001:0000dc00       ?_Xlen@?$deque@ULegitPlayerRecords@@V?$allocator@ULegitPlayerRecords@@@std@@@std@@IBEXXZ 1000ec00 f i Legitbot.obj
 0001:0000dc00       ?_Xlen@?$deque@UPlayerRecords@@V?$allocator@UPlayerRecords@@@std@@@std@@IBEXXZ 1000ec00 f i LagComp.obj
 0001:0000dc20       ?allocate@?$allocator@UPlayerRecords@@@std@@QAEPAUPlayerRecords@@I@Z 1000ec20 f i LagComp.obj
 0001:0000dc50       ?allocate@?$allocator@U_Container_proxy@std@@@std@@QAEPAU_Container_proxy@2@I@Z 1000ec50 f i LagComp.obj
 0001:0000dc80       ?deallocate@?$_Default_allocator_traits@V?$allocator@U_Container_proxy@std@@@std@@@std@@SAXAAV?$allocator@U_Container_proxy@std@@@2@QAU_Container_proxy@2@I@Z 1000ec80 f i LagComp.obj
 0001:0000dca0       ?deallocate@?$allocator@UPlayerRecords@@@std@@QAEXQAUPlayerRecords@@I@Z 1000eca0 f i LagComp.obj
 0001:0000dcd0       ?empty@?$deque@ULegitPlayerRecords@@V?$allocator@ULegitPlayerRecords@@@std@@@std@@QBE_NXZ 1000ecd0 f i Legitbot.obj
 0001:0000dcd0       ?empty@?$deque@UPlayerRecords@@V?$allocator@UPlayerRecords@@@std@@@std@@QBE_NXZ 1000ecd0 f i LagComp.obj
 0001:0000dd00       ?end@?$deque@ULegitPlayerRecords@@V?$allocator@ULegitPlayerRecords@@@std@@@std@@QAE?AV?$_Deque_iterator@V?$_Deque_val@U?$_Deque_simple_types@ULegitPlayerRecords@@@std@@@std@@@2@XZ 1000ed00 f i Legitbot.obj
 0001:0000dd00       ?end@?$deque@UPlayerRecords@@V?$allocator@UPlayerRecords@@@std@@@std@@QAE?AV?$_Deque_iterator@V?$_Deque_val@U?$_Deque_simple_types@UPlayerRecords@@@std@@@std@@@2@XZ 1000ed00 f i LagComp.obj
 0001:0000dd80       ?erase@?$deque@UPlayerRecords@@V?$allocator@UPlayerRecords@@@std@@@std@@QAE?AV?$_Deque_iterator@V?$_Deque_val@U?$_Deque_simple_types@UPlayerRecords@@@std@@@std@@@2@V?$_Deque_const_iterator@V?$_Deque_val@U?$_Deque_simple_types@UPlayerRecords@@@std@@@std@@@2@0@Z 1000ed80 f i LagComp.obj
 0001:0000e020       ?erase@?$deque@UPlayerRecords@@V?$allocator@UPlayerRecords@@@std@@@std@@QAE?AV?$_Deque_iterator@V?$_Deque_val@U?$_Deque_simple_types@UPlayerRecords@@@std@@@std@@@2@V?$_Deque_const_iterator@V?$_Deque_val@U?$_Deque_simple_types@UPlayerRecords@@@std@@@std@@@2@@Z 1000f020 f i LagComp.obj
 0001:0000e0c0       ?max_size@?$_Default_allocator_traits@V?$allocator@UPlayerRecords@@@std@@@std@@SAIABV?$allocator@UPlayerRecords@@@2@@Z 1000f0c0 f i LagComp.obj
 0001:0000e0d0       ?max_size@?$deque@UPlayerRecords@@V?$allocator@UPlayerRecords@@@std@@@std@@QBEIXZ 1000f0d0 f i LagComp.obj
 0001:0000e0f0       ?pop_back@?$deque@UPlayerRecords@@V?$allocator@UPlayerRecords@@@std@@@std@@QAEXXZ 1000f0f0 f i LagComp.obj
 0001:0000e1b0       ?pop_front@?$deque@UPlayerRecords@@V?$allocator@UPlayerRecords@@@std@@@std@@QAEXXZ 1000f1b0 f i LagComp.obj
 0001:0000e270       ?push_back@?$deque@UPlayerRecords@@V?$allocator@UPlayerRecords@@@std@@@std@@QAEXABUPlayerRecords@@@Z 1000f270 f i LagComp.obj
 0001:0000e3d0       ?AnimState@C_BaseEntity@@QAEPAVC_AnimState@@XZ 1000f3d0 f i AntiAim.obj
 0001:0000e3f0       ?FreeStanding@@YAXXZ       1000f3f0 f   AntiAim.obj
 0001:0000ebf0       ?OnCreateMove@AntiAim@@QAEXXZ 1000fbf0 f   AntiAim.obj
 0001:0000ed20       ?Real@@YAXXZ               1000fd20 f   AntiAim.obj
 0001:0000ee00       ??$_Get_size_of_n@$0OI@@std@@YAII@Z 1000fe00 f i Legitbot.obj
 0001:0000ee30       ??$_Move_backward_unchecked1@V?$_Deque_unchecked_iterator@V?$_Deque_val@U?$_Deque_simple_types@ULegitPlayerRecords@@@std@@@std@@@std@@V12@@std@@YA?AV?$_Deque_unchecked_iterator@V?$_Deque_val@U?$_Deque_simple_types@ULegitPlayerRecords@@@std@@@std@@@0@V10@00U_General_ptr_iterator_tag@0@@Z 1000fe30 f i Legitbot.obj
 0001:0000eea0       ??$_Move_backward_unchecked@V?$_Deque_unchecked_iterator@V?$_Deque_val@U?$_Deque_simple_types@ULegitPlayerRecords@@@std@@@std@@@std@@V12@@std@@YA?AV?$_Deque_unchecked_iterator@V?$_Deque_val@U?$_Deque_simple_types@ULegitPlayerRecords@@@std@@@std@@@0@V10@00@Z 1000fea0 f i Legitbot.obj
 0001:0000eef0       ??$_Move_unchecked1@V?$_Deque_unchecked_iterator@V?$_Deque_val@U?$_Deque_simple_types@ULegitPlayerRecords@@@std@@@std@@@std@@V12@@std@@YA?AV?$_Deque_unchecked_iterator@V?$_Deque_val@U?$_Deque_simple_types@ULegitPlayerRecords@@@std@@@std@@@0@V10@00U_General_ptr_iterator_tag@0@@Z 1000fef0 f i Legitbot.obj
 0001:0000ef60       ??$_Move_unchecked@V?$_Deque_unchecked_iterator@V?$_Deque_val@U?$_Deque_simple_types@ULegitPlayerRecords@@@std@@@std@@@std@@V12@@std@@YA?AV?$_Deque_unchecked_iterator@V?$_Deque_val@U?$_Deque_simple_types@ULegitPlayerRecords@@@std@@@std@@@0@V10@00@Z 1000ff60 f i Legitbot.obj
 0001:0000efb0       ??$construct@ULegitPlayerRecords@@ABU1@@?$_Default_allocator_traits@V?$allocator@ULegitPlayerRecords@@@std@@@std@@SAXAAV?$allocator@ULegitPlayerRecords@@@1@QAULegitPlayerRecords@@ABU3@@Z 1000ffb0 f i Legitbot.obj
 0001:0000eff0       ??$move@V?$_Deque_iterator@V?$_Deque_val@U?$_Deque_simple_types@ULegitPlayerRecords@@@std@@@std@@@std@@V12@@std@@YA?AV?$_Deque_iterator@V?$_Deque_val@U?$_Deque_simple_types@ULegitPlayerRecords@@@std@@@std@@@0@V10@00@Z 1000fff0 f i Legitbot.obj
 0001:0000f100       ??$move_backward@V?$_Deque_iterator@V?$_Deque_val@U?$_Deque_simple_types@ULegitPlayerRecords@@@std@@@std@@@std@@V12@@std@@YA?AV?$_Deque_iterator@V?$_Deque_val@U?$_Deque_simple_types@ULegitPlayerRecords@@@std@@@std@@@0@V10@00@Z 10010100 f i Legitbot.obj
 0001:0000f210       ??0<lambda_498009bf6358dc471fbe163595f67980>@@QAE@ABVVector@@AAVVector2D@@@Z 10010210 f i Legitbot.obj
 0001:0000f240       ??0LegitPlayerRecords@@QAE@XZ 10010240 f i Legitbot.obj
 0001:0000f260       ??0Legitbot@@QAE@XZ        10010260 f i Legitbot.obj
 0001:0000f290       ??0Vector2D@@QAE@ABV0@@Z   10010290 f i Legitbot.obj
 0001:0000f2c0       ??1?$deque@ULegitPlayerRecords@@V?$allocator@ULegitPlayerRecords@@@std@@@std@@QAE@XZ 100102c0 f i Legitbot.obj
 0001:0000f310       ??1Legitbot@@QAE@XZ        10010310 f i Legitbot.obj
 0001:0000f360       ??4LegitPlayerRecords@@QAEAAU0@$$QAU0@@Z 10010360 f i Legitbot.obj
 0001:0000f3c0       ??D?$_Deque_const_iterator@V?$_Deque_val@U?$_Deque_simple_types@ULegitPlayerRecords@@@std@@@std@@@std@@QBEABULegitPlayerRecords@@XZ 100103c0 f i Legitbot.obj
 0001:0000f420       ??D?$_Deque_iterator@V?$_Deque_val@U?$_Deque_simple_types@ULegitPlayerRecords@@@std@@@std@@@std@@QBEAAULegitPlayerRecords@@XZ 10010420 f i Legitbot.obj
 0001:0000f440       ??D?$_Deque_unchecked_const_iterator@V?$_Deque_val@U?$_Deque_simple_types@ULegitPlayerRecords@@@std@@@std@@@std@@QBEABULegitPlayerRecords@@XZ 10010440 f i Legitbot.obj
 0001:0000f490       ??D?$_Deque_unchecked_iterator@V?$_Deque_val@U?$_Deque_simple_types@ULegitPlayerRecords@@@std@@@std@@@std@@QBEAAULegitPlayerRecords@@XZ 10010490 f i Legitbot.obj
 0001:0000f4b0       ??R<lambda_498009bf6358dc471fbe163595f67980>@@QBE_NXZ 100104b0 f i Legitbot.obj
 0001:0000f750       ?OnCreateMove@Legitbot@@QAEXXZ 10010750 f   Legitbot.obj
 0001:0000ffa0       ?WorldToScreen@Utils@@SA_NABVVector@@AAVVector2D@@@Z 10010fa0 f i Legitbot.obj
 0001:00010050       ?_Growmap@?$deque@ULegitPlayerRecords@@V?$allocator@ULegitPlayerRecords@@@std@@@std@@IAEXI@Z 10011050 f i Legitbot.obj
 0001:00010300       ?_Tidy@?$deque@ULegitPlayerRecords@@V?$allocator@ULegitPlayerRecords@@@std@@@std@@IAEXXZ 10011300 f i Legitbot.obj
 0001:00010410       ?allocate@?$allocator@ULegitPlayerRecords@@@std@@QAEPAULegitPlayerRecords@@I@Z 10011410 f i Legitbot.obj
 0001:00010440       ?at@?$deque@ULegitPlayerRecords@@V?$allocator@ULegitPlayerRecords@@@std@@@std@@QAEAAULegitPlayerRecords@@I@Z 10011440 f i Legitbot.obj
 0001:00010500       ?deallocate@?$allocator@ULegitPlayerRecords@@@std@@QAEXQAULegitPlayerRecords@@I@Z 10011500 f i Legitbot.obj
 0001:00010530       ?erase@?$deque@ULegitPlayerRecords@@V?$allocator@ULegitPlayerRecords@@@std@@@std@@QAE?AV?$_Deque_iterator@V?$_Deque_val@U?$_Deque_simple_types@ULegitPlayerRecords@@@std@@@std@@@2@V?$_Deque_const_iterator@V?$_Deque_val@U?$_Deque_simple_types@ULegitPlayerRecords@@@std@@@std@@@2@0@Z 10011530 f i Legitbot.obj
 0001:000107d0       ?erase@?$deque@ULegitPlayerRecords@@V?$allocator@ULegitPlayerRecords@@@std@@@std@@QAE?AV?$_Deque_iterator@V?$_Deque_val@U?$_Deque_simple_types@ULegitPlayerRecords@@@std@@@std@@@2@V?$_Deque_const_iterator@V?$_Deque_val@U?$_Deque_simple_types@ULegitPlayerRecords@@@std@@@std@@@2@@Z 100117d0 f i Legitbot.obj
 0001:00010870       ?max_size@?$_Default_allocator_traits@V?$allocator@ULegitPlayerRecords@@@std@@@std@@SAIABV?$allocator@ULegitPlayerRecords@@@2@@Z 10011870 f i Legitbot.obj
 0001:00010880       ?max_size@?$deque@ULegitPlayerRecords@@V?$allocator@ULegitPlayerRecords@@@std@@@std@@QBEIXZ 10011880 f i Legitbot.obj
 0001:000108a0       ?pop_back@?$deque@ULegitPlayerRecords@@V?$allocator@ULegitPlayerRecords@@@std@@@std@@QAEXXZ 100118a0 f i Legitbot.obj
 0001:00010960       ?pop_front@?$deque@ULegitPlayerRecords@@V?$allocator@ULegitPlayerRecords@@@std@@@std@@QAEXXZ 10011960 f i Legitbot.obj
 0001:00010a20       ?push_back@?$deque@ULegitPlayerRecords@@V?$allocator@ULegitPlayerRecords@@@std@@@std@@QAEXABULegitPlayerRecords@@@Z 10011a20 f i Legitbot.obj
 0001:00010b80       ??0Resolver@@QAE@XZ        10011b80 f i Resolver.obj
 0001:00010c20       ?AnimOverlays@C_BaseEntity@@QAEPAVAnimationLayer@@XZ 10011c20 f i Resolver.obj
 0001:00010c40       ?AnimationFix@Resolver@@AAEXPAVC_BaseEntity@@@Z 10011c40 f   Resolver.obj
 0001:00011a70       ?ClientAnimations@C_BaseEntity@@QAEX_N@Z 10012a70 f i Resolver.obj
 0001:00011b30       ?FrameStage@Resolver@@QAEXW4ClientFrameStage_t@@@Z 10012b30 f   Resolver.obj
 0001:00011c80       ?GetLowerBodyYaw@C_BaseEntity@@QAEMXZ 10012c80 f i Resolver.obj
 0001:00011d40       ?GetNetChannel@IVEngineClient@@QAEPAVNetChannel@@XZ 10012d40 f i Resolver.obj
 0001:00011d70       ?HandleHits@@YAXPAVC_BaseEntity@@@Z 10012d70 f   Resolver.obj
 0001:00012050       ?NumOverlays@C_BaseEntity@@QAEHXZ 10013050 f i Resolver.obj
 0001:00012060       ?OnCreateMove@Resolver@@QAEXXZ 10013060 f   Resolver.obj
 0001:00012830       ?SetLowerBodyYaw@C_BaseEntity@@QAEXM@Z 10013830 f i Resolver.obj
 0001:000128f0       ?UpdateClientAnimation@C_BaseEntity@@QAEXXZ 100138f0 f i Resolver.obj
 0001:00012920       ??$?0PADX@?$basic_string@DU?$char_traits@D@std@@V?$allocator@D@2@@std@@QAE@PAD0ABV?$allocator@D@1@@Z 10013920 f i c_esp.obj
 0001:000129d0       ??$?HDU?$char_traits@D@std@@V?$allocator@D@1@@std@@YA?AV?$basic_string@DU?$char_traits@D@std@@V?$allocator@D@2@@0@$$QAV10@QBD@Z 100139d0 f i c_esp.obj
 0001:00012a10       ??$?HDU?$char_traits@D@std@@V?$allocator@D@1@@std@@YA?AV?$basic_string@DU?$char_traits@D@std@@V?$allocator@D@2@@0@QBD$$QAV10@@Z 10013a10 f i c_esp.obj
 0001:00012a50       ??$?RABHABH@?$less@X@std@@QBE_NABH0@Z 10013a50 f i c_esp.obj
 0001:00012a80       ??$_Get_unwrapped@V?$_String_iterator@V?$_String_val@U?$_Simple_types@D@std@@@std@@@std@@$0A@@std@@YAPADABV?$_String_iterator@V?$_String_val@U?$_Simple_types@D@std@@@std@@@0@@Z 10013a80 f i c_esp.obj
 0001:00012a90       ??$_Get_unwrapped_n@V?$_String_iterator@V?$_String_val@U?$_Simple_types@D@std@@@std@@@std@@H$0A@@std@@YAPADABV?$_String_iterator@V?$_String_val@U?$_Simple_types@D@std@@@std@@@0@H@Z 10013a90 f i c_esp.obj
 0001:00012ac0       ??$_Idl_distance@V?$_String_iterator@V?$_String_val@U?$_Simple_types@D@std@@@std@@@std@@PAD@std@@YAHABQAD0@Z 10013ac0 f i c_esp.obj
 0001:00012ad0       ??$_Integral_to_string@DH@std@@YA?AV?$basic_string@DU?$char_traits@D@std@@V?$allocator@D@2@@0@H@Z 10013ad0 f i c_esp.obj
 0001:00012b80       ??$_Reallocate_grow_by@V<lambda_4d79bb85f269e6e8002a4599002d832c>@@IPBDI@?$basic_string@DU?$char_traits@D@std@@V?$allocator@D@2@@std@@QAEAAV01@IV<lambda_4d79bb85f269e6e8002a4599002d832c>@@IPBDI@Z 10013b80 f i c_esp.obj
 0001:00012cc0       ??$_Reallocate_grow_by@V<lambda_ab246b20b9526e2ef7792587e4298a77>@@PBDI@?$basic_string@DU?$char_traits@D@std@@V?$allocator@D@2@@std@@QAEAAV01@IV<lambda_ab246b20b9526e2ef7792587e4298a77>@@PBDI@Z 10013cc0 f i c_esp.obj
 0001:00012df0       ??$_Seek_wrapped@V?$_String_iterator@V?$_String_val@U?$_Simple_types@D@std@@@std@@@std@@PAD@std@@YAXAAV?$_String_iterator@V?$_String_val@U?$_Simple_types@D@std@@@std@@@0@ABQAD@Z 10013df0 f i c_esp.obj
 0001:00012e10       ??$_Traits_find@U?$char_traits@D@std@@@std@@YAIQBDII0I@Z 10013e10 f i c_esp.obj
 0001:00012eb0       ??$_UIntegral_to_buff@DI@std@@YAPADPADI@Z 10013eb0 f i c_esp.obj
 0001:00012f70       ??$clamp@H@std@@YAABHABH00@Z 10013f70 f i c_esp.obj
 0001:00012fa0       ??$clamp@HU?$less@X@std@@@std@@YAABHABH00U?$less@X@0@@Z 10013fa0 f i c_esp.obj
 0001:00013010       ??$end@D$0BF@@std@@YAPADAAY0BF@D@Z 10014010 f i c_esp.obj
 0001:00013020       ??$sprintf_s@$0CAH@@@YAHAAY0CAH@DPBDZZ 10014020 f i c_esp.obj
 0001:00013050       ??$transform@V?$_String_iterator@V?$_String_val@U?$_Simple_types@D@std@@@std@@@std@@V12@P6AHH@Z@std@@YA?AV?$_String_iterator@V?$_String_val@U?$_Simple_types@D@std@@@std@@@0@V10@0V10@P6AHH@Z@Z 10014050 f i c_esp.obj
 0001:00013100       ??$vsprintf_s@$0IAA@@@YAHAAY0IAA@DPBDPAD@Z 10014100 f i c_esp.obj
 0001:00013120       ??0?$basic_string@DU?$char_traits@D@std@@V?$allocator@D@2@@std@@QAE@ABV01@@Z 10014120 f i c_esp.obj
 0001:000131a0       ??0Color@@QAE@HHHH@Z       100141a0 f i c_esp.obj
 0001:000131e0       ??0Color@@QAE@XZ           100141e0 f i c_esp.obj
 0001:00013220       ??0c_esp@@QAE@XZ           10014220 f i c_esp.obj
 0001:00013250       ??A?$basic_string@DU?$char_traits@D@std@@V?$allocator@D@2@@std@@QAEAADI@Z 10014250 f i c_esp.obj
 0001:00013280       ??G?$_String_const_iterator@V?$_String_val@U?$_Simple_types@D@std@@@std@@@std@@QBEHABV01@@Z 10014280 f i c_esp.obj
 0001:000132b0       ??H?$_String_iterator@V?$_String_val@U?$_Simple_types@D@std@@@std@@@std@@QBE?AV01@H@Z 100142b0 f i c_esp.obj
 0001:000132e0       ??R<lambda_4d79bb85f269e6e8002a4599002d832c>@@QBEXQADQBDII1I@Z 100142e0 f i c_esp.obj
 0001:00013340       ??R<lambda_ab246b20b9526e2ef7792587e4298a77>@@QBEXQADQBDI1I@Z 10014340 f i c_esp.obj
 0001:000133a0       ??Y?$_String_const_iterator@V?$_String_val@U?$_Simple_types@D@std@@@std@@@std@@QAEAAV01@H@Z 100143a0 f i c_esp.obj
 0001:000133c0       ??Y?$_String_iterator@V?$_String_val@U?$_Simple_types@D@std@@@std@@@std@@QAEAAV01@H@Z 100143c0 f i c_esp.obj
 0001:000133e0       ?BoundBox@c_esp@@AAEXPAVC_BaseEntity@@@Z 100143e0 f   c_esp.obj
 0001:00013550       ?DrawFilledRect@ISurface@@QAEXHHHH@Z 10014550 f i c_esp.obj
 0001:00013590       ?DrawLine@ISurface@@QAEXHHHH@Z 10014590 f i c_esp.obj
 0001:000135d0       ?DrawOutlinedRect@ISurface@@QAEXHHHH@Z 100145d0 f i c_esp.obj
 0001:00013610       ?DrawPrintText@ISurface@@QAEXPB_WH@Z 10014610 f i c_esp.obj
 0001:00013640       ?DrawSetColor@ISurface@@QAEXHHHH@Z 10014640 f i c_esp.obj
 0001:00013680       ?DrawSetTextColor@ISurface@@QAEXHHHH@Z 10014680 f i c_esp.obj
 0001:000136c0       ?DrawSetTextFont@ISurface@@QAEXK@Z 100146c0 f i c_esp.obj
 0001:000136f0       ?DrawSetTextPos@ISurface@@QAEXHH@Z 100146f0 f i c_esp.obj
 0001:00013720       ?DrawT@ISurface@@QAAXHHUColor@@H_NPBDZZ 10014720 f i c_esp.obj
 0001:00013930       ?FilledRect@ISurface@@QAEXHHHHUColor@@@Z 10014930 f i c_esp.obj
 0001:00013980       ?GetAmmo@C_BaseCombatWeapon@@QAEHXZ 10014980 f i c_esp.obj
 0001:00013a40       ?GetCSWpnData_2@C_BaseCombatWeapon@@QAEPAVweapon_info_t@@XZ 10014a40 f i c_esp.obj
 0001:00013a70       ?GetName@C_BaseCombatWeapon@@QAE?AV?$basic_string@DU?$char_traits@D@std@@V?$allocator@D@2@@std@@XZ 10014a70 f i c_esp.obj
 0001:00013ab0       ?GetTextSize@ISurface@@QAEXKPB_WAAH1@Z 10014ab0 f i c_esp.obj
 0001:00013af0       ?Line@ISurface@@QAEXHHHHUColor@@@Z 10014af0 f i c_esp.obj
 0001:00013b30       ?OutlinedRect@ISurface@@QAEXHHHHUColor@@@Z 10014b30 f i c_esp.obj
 0001:00013b80       ?Render@c_esp@@QAEXXZ      10014b80 f   c_esp.obj
 0001:00013d90       ?RenderAmmo@c_esp@@AAEXPAVC_BaseEntity@@@Z 10014d90 f   c_esp.obj
 0001:00014130       ?RenderBox@c_esp@@AAEXXZ   10015130 f   c_esp.obj
 0001:00014530       ?RenderHealth@c_esp@@AAEXPAVC_BaseEntity@@@Z 10015530 f   c_esp.obj
 0001:000148f0       ?RenderHitboxPoints@c_esp@@AAEXPAVC_BaseEntity@@@Z 100158f0 f   c_esp.obj
 0001:000149b0       ?RenderName@c_esp@@AAEXPAVC_BaseEntity@@H@Z 100159b0 f   c_esp.obj
 0001:00014b90       ?RenderSkeleton@c_esp@@AAEXPAVC_BaseEntity@@@Z 10015b90 f   c_esp.obj
 0001:00015620       ?RenderWeaponName@c_esp@@AAEXPAVC_BaseEntity@@@Z 10016620 f   c_esp.obj
 0001:00015a60       ?_Check_offset@?$_String_val@U?$_Simple_types@D@std@@@std@@QBEXI@Z 10016a60 f i c_esp.obj
 0001:00015a80       ?_Clamp_suffix_size@?$_String_val@U?$_Simple_types@D@std@@@std@@QBEIII@Z 10016a80 f i c_esp.obj
 0001:00015ab0       ?_Construct@?$basic_string@DU?$char_traits@D@std@@V?$allocator@D@2@@std@@QAEXQAD0Urandom_access_iterator_tag@2@@Z 10016ab0 f i c_esp.obj
 0001:00015af0       ?_Construct_lv_contents@?$basic_string@DU?$char_traits@D@std@@V?$allocator@D@2@@std@@QAEXABV12@@Z 10016af0 f i c_esp.obj
 0001:00015bf0       ?_Seek_to@?$_String_const_iterator@V?$_String_val@U?$_Simple_types@D@std@@@std@@@std@@QAEXPBD@Z 10016bf0 f i c_esp.obj
 0001:00015c10       ?_Unwrapped@?$_String_iterator@V?$_String_val@U?$_Simple_types@D@std@@@std@@@std@@QBEPADXZ 10016c10 f i c_esp.obj
 0001:00015c30       ?_Xran@?$_String_val@U?$_Simple_types@D@std@@@std@@SAXXZ 10016c30 f i c_esp.obj
 0001:00015c40       ?append@?$basic_string@DU?$char_traits@D@std@@V?$allocator@D@2@@std@@QAEAAV12@QBD@Z 10016c40 f i c_esp.obj
 0001:00015c70       ?append@?$basic_string@DU?$char_traits@D@std@@V?$allocator@D@2@@std@@QAEAAV12@QBDI@Z 10016c70 f i c_esp.obj
 0001:00015d10       ?begin@?$basic_string@DU?$char_traits@D@std@@V?$allocator@D@2@@std@@QAE?AV?$_String_iterator@V?$_String_val@U?$_Simple_types@D@std@@@std@@@2@XZ 10016d10 f i c_esp.obj
 0001:00015d80       ?clean_name@@YA?AV?$basic_string@DU?$char_traits@D@std@@V?$allocator@D@2@@std@@V12@@Z 10016d80 f   c_esp.obj
 0001:00015ee0       ?end@?$basic_string@DU?$char_traits@D@std@@V?$allocator@D@2@@std@@QAE?AV?$_String_iterator@V?$_String_val@U?$_Simple_types@D@std@@@std@@@2@XZ 10016ee0 f i c_esp.obj
 0001:00015f60       ?erase@?$basic_string@DU?$char_traits@D@std@@V?$allocator@D@2@@std@@QAE?AV?$_String_iterator@V?$_String_val@U?$_Simple_types@D@std@@@std@@@2@V?$_String_const_iterator@V?$_String_val@U?$_Simple_types@D@std@@@std@@@2@0@Z 10016f60 f i c_esp.obj
 0001:00015fe0       ?erase@?$basic_string@DU?$char_traits@D@std@@V?$allocator@D@2@@std@@QAE?AV?$_String_iterator@V?$_String_val@U?$_Simple_types@D@std@@@std@@@2@V?$_String_const_iterator@V?$_String_val@U?$_Simple_types@D@std@@@std@@@2@@Z 10016fe0 f i c_esp.obj
 0001:00016040       ?erase@?$basic_string@DU?$char_traits@D@std@@V?$allocator@D@2@@std@@QAEAAV12@II@Z 10017040 f i c_esp.obj
 0001:000160d0       ?find@?$basic_string@DU?$char_traits@D@std@@V?$allocator@D@2@@std@@QBEIQBDI@Z 100170d0 f i c_esp.obj
 0001:00016160       ?find@?$char_traits@D@std@@SAPBDQBDIABD@Z 10017160 f i c_esp.obj
 0001:00016190       ?insert@?$basic_string@DU?$char_traits@D@std@@V?$allocator@D@2@@std@@QAEAAV12@IQBD@Z 10017190 f i c_esp.obj
 0001:000161d0       ?insert@?$basic_string@DU?$char_traits@D@std@@V?$allocator@D@2@@std@@QAEAAV12@IQBDI@Z 100171d0 f i c_esp.obj
 0001:000162f0       ?m_iPrimaryReserveAmmoCount@C_BaseCombatWeapon@@QAEHXZ 100172f0 f i c_esp.obj
 0001:000163b0       ?to_string@std@@YA?AV?$basic_string@DU?$char_traits@D@std@@V?$allocator@D@2@@1@H@Z 100173b0 f i c_esp.obj
 0001:000163e0       ___local_stdio_printf_options 100173e0 f i c_esp.obj
 0001:000163f0       __vsprintf_s_l             100173f0 f i c_esp.obj
 0001:00016440       _vsprintf_s                10017440 f i c_esp.obj
 0001:00016460       ??A?$ImVector@UImDrawCmd@@@@QBEABUImDrawCmd@@H@Z 10017460 f i imgui_impl_dx9.obj
 0001:00016460       ??A?$ImVector@UImDrawCmd@@@@QAEAAUImDrawCmd@@H@Z 10017460 f i imgui_draw.obj
 0001:00016480       ?ImGui_ImplDX9_CreateDeviceObjects@@YA_NXZ 10017480 f   imgui_impl_dx9.obj
 0001:000165d0       ?ImGui_ImplDX9_Init@@YA_NPAXPAUIDirect3DDevice9@@@Z 100175d0 f   imgui_impl_dx9.obj
 0001:000167b0       ?ImGui_ImplDX9_InvalidateDeviceObjects@@YAXXZ 100177b0 f   imgui_impl_dx9.obj
 0001:00016850       ?ImGui_ImplDX9_NewFrame@@YAXXZ 10017850 f   imgui_impl_dx9.obj
 0001:000169e0       ?ImGui_ImplDX9_RenderDrawLists@@YAXPAUImDrawData@@@Z 100179e0 f   imgui_impl_dx9.obj
 0001:00017610       ?ImGui_ImplDX9_WndProcHandler@@YAJPAUHWND__@@IIJ@Z 10018610 f   imgui_impl_dx9.obj
 0001:00017850       ??$_Pocma@V?$allocator@D@std@@@std@@YAXAAV?$allocator@D@0@0@Z 10018850 f i imgui.obj
 0001:00017870       ??$_Pocma@V?$allocator@D@std@@@std@@YAXAAV?$allocator@D@0@0U?$integral_constant@_N$00@0@@Z 10018870 f i imgui.obj
 0001:00017890       ??$nigga@H@@YAHHHH@Z       10018890 f i imgui.obj
 0001:000178c0       ??0?$ImVector@I@@QAE@XZ    100188c0 f i imgui.obj
 0001:000178c0       ??0?$ImVector@M@@QAE@XZ    100188c0 f i imgui.obj
 0001:000178c0       ??0?$ImVector@G@@QAE@XZ    100188c0 f i imgui.obj
 0001:000178c0       ??0?$ImVector@UImGuiColumnData@@@@QAE@XZ 100188c0 f i imgui.obj
 0001:000178c0       ??0?$ImVector@UImFontConfig@@@@QAE@XZ 100188c0 f i imgui_draw.obj
 0001:000178c0       ??0?$ImVector@_N@@QAE@XZ   100188c0 f i imgui.obj
 0001:000178c0       ??0?$ImVector@UImVec4@@@@QAE@XZ 100188c0 f i imgui.obj
 0001:000178c0       ??0?$ImVector@UImDrawVert@@@@QAE@XZ 100188c0 f i imgui.obj
 0001:000178c0       ??0?$ImVector@PAX@@QAE@XZ  100188c0 f i imgui.obj
 0001:000178c0       ??0?$ImVector@UImGuiIniData@@@@QAE@XZ 100188c0 f i imgui.obj
 0001:000178c0       ??0?$ImVector@Ustbrp_rect@@@@QAE@XZ 100188c0 f i imgui_draw.obj
 0001:000178c0       ??0?$ImVector@UGlyph@ImFont@@@@QAE@XZ 100188c0 f i imgui_draw.obj
 0001:000178c0       ??0?$ImVector@UImDrawChannel@@@@QAE@XZ 100188c0 f i imgui.obj
 0001:000178c0       ??0?$ImVector@PAUImDrawList@@@@QAE@XZ 100188c0 f i imgui.obj
 0001:000178c0       ??0?$ImVector@UImVec2@@@@QAE@XZ 100188c0 f i imgui.obj
 0001:000178c0       ??0?$ImVector@PAUImGuiWindow@@@@QAE@XZ 100188c0 f i imgui.obj
 0001:000178c0       ??0?$ImVector@PAUImFont@@@@QAE@XZ 100188c0 f i imgui.obj
 0001:000178c0       ??0?$ImVector@UPair@ImGuiStorage@@@@QAE@XZ 100188c0 f i imgui.obj
 0001:000178c0       ??0?$ImVector@UImGuiColMod@@@@QAE@XZ 100188c0 f i imgui.obj
 0001:000178c0       ??0?$ImVector@D@@QAE@XZ    100188c0 f i imgui.obj
 0001:000178c0       ??0?$ImVector@UImDrawCmd@@@@QAE@XZ 100188c0 f i imgui.obj
 0001:000178c0       ??0?$ImVector@UCustomRect@ImFontAtlas@@@@QAE@XZ 100188c0 f i imgui_draw.obj
 0001:000178c0       ??0?$ImVector@UImGuiGroupData@@@@QAE@XZ 100188c0 f i imgui.obj
 0001:000178c0       ??0?$ImVector@UImGuiStyleMod@@@@QAE@XZ 100188c0 f i imgui.obj
 0001:000178c0       ??0?$ImVector@UImGuiPopupRef@@@@QAE@XZ 100188c0 f i imgui.obj
 0001:000178f0       ??0ImColor@@QAE@HHHH@Z     100188f0 f i imgui.obj
 0001:00017960       ??0ImColor@@QAE@MMMM@Z     10018960 f i imgui.obj
 0001:000179b0       ??0ImDrawData@@QAE@XZ      100189b0 f i imgui.obj
 0001:000179f0       ??0ImDrawList@@QAE@XZ      100189f0 f i imgui.obj
 0001:00017ab0       ??0ImGuiColMod@@QAE@XZ     10018ab0 f i imgui.obj
 0001:00017ad0       ??0ImGuiContext@@QAE@XZ    10018ad0 f i imgui.obj
 0001:00018190       ??0ImGuiDrawContext@@QAE@XZ 10019190 f i imgui.obj
 0001:000184a0       ??0ImGuiIO@@QAE@XZ         100194a0 f   imgui.obj
 0001:000187f0       ??0ImGuiMouseCursorData@@QAE@XZ 100197f0 f i imgui.obj
 0001:00018840       ??0ImGuiSimpleColumns@@QAE@XZ 10019840 f   imgui.obj
 0001:000188c0       ??0ImGuiSizeConstraintCallbackData@@QAE@XZ 100198c0 f i imgui.obj
 0001:000188f0       ??0ImGuiStorage@@QAE@XZ    100198f0 f i imgui.obj
 0001:00018910       ??0ImGuiStyle@@QAE@XZ      10019910 f   imgui.obj
 0001:00019de0       ??0ImGuiStyleMod@@QAE@HUImVec2@@@Z 1001ade0 f i imgui.obj
 0001:00019e30       ??0ImGuiTextBuffer@@QAE@XZ 1001ae30 f i imgui.obj
 0001:00019ea0       ??0ImGuiTextEditState@@QAE@XZ 1001aea0 f i imgui.obj
 0001:00019f20       ??0ImGuiWindow@@QAE@PBD@Z  1001af20 f   imgui.obj
 0001:0001a450       ??0ImRect@@QAE@ABUImVec2@@0@Z 1001b450 f i imgui.obj
 0001:0001a490       ??0ImRect@@QAE@ABUImVec4@@@Z 1001b490 f i imgui.obj
 0001:0001a500       ??0ImRect@@QAE@MMMM@Z      1001b500 f i imgui.obj
 0001:0001a560       ??0ImRect@@QAE@XZ          1001b560 f i imgui.obj
 0001:0001a5d0       ??0ImVec2@@QAE@XZ          1001b5d0 f i imgui.obj
 0001:0001a600       ??0ImVec4@@QAE@MMMM@Z      1001b600 f i imgui.obj
 0001:0001a650       ??0ImVec4@@QAE@XZ          1001b650 f i imgui.obj
 0001:0001a690       ??0Pair@ImGuiStorage@@QAE@IM@Z 1001b690 f i imgui.obj
 0001:0001a6c0       ??1?$ImVector@_N@@QAE@XZ   1001b6c0 f i imgui.obj
 0001:0001a6c0       ??1?$ImVector@PAUImFont@@@@QAE@XZ 1001b6c0 f i imgui.obj
 0001:0001a6c0       ??1?$ImVector@M@@QAE@XZ    1001b6c0 f i imgui.obj
 0001:0001a6c0       ??1?$ImVector@UImGuiStyleMod@@@@QAE@XZ 1001b6c0 f i imgui.obj
 0001:0001a6c0       ??1?$ImVector@UImDrawCmd@@@@QAE@XZ 1001b6c0 f i imgui.obj
 0001:0001a6c0       ??1?$ImVector@UImVec4@@@@QAE@XZ 1001b6c0 f i imgui.obj
 0001:0001a6c0       ??1?$ImVector@UImDrawChannel@@@@QAE@XZ 1001b6c0 f i imgui.obj
 0001:0001a6c0       ??1?$ImVector@UImGuiGroupData@@@@QAE@XZ 1001b6c0 f i imgui.obj
 0001:0001a6c0       ??1?$ImVector@UImGuiPopupRef@@@@QAE@XZ 1001b6c0 f i imgui.obj
 0001:0001a6c0       ??1?$ImVector@PAUImGuiWindow@@@@QAE@XZ 1001b6c0 f i imgui.obj
 0001:0001a6c0       ??1?$ImVector@PAUImDrawList@@@@QAE@XZ 1001b6c0 f i imgui.obj
 0001:0001a6c0       ??1?$ImVector@UImFontConfig@@@@QAE@XZ 1001b6c0 f i imgui_draw.obj
 0001:0001a6c0       ??1?$ImVector@D@@QAE@XZ    1001b6c0 f i imgui.obj
 0001:0001a6c0       ??1?$ImVector@UCustomRect@ImFontAtlas@@@@QAE@XZ 1001b6c0 f i imgui_draw.obj
 0001:0001a6c0       ??1?$ImVector@I@@QAE@XZ    1001b6c0 f i imgui.obj
 0001:0001a6c0       ??1?$ImVector@UImGuiColumnData@@@@QAE@XZ 1001b6c0 f i imgui.obj
 0001:0001a6c0       ??1?$ImVector@UImGuiColMod@@@@QAE@XZ 1001b6c0 f i imgui.obj
 0001:0001a6c0       ??1?$ImVector@UImGuiIniData@@@@QAE@XZ 1001b6c0 f i imgui.obj
 0001:0001a6c0       ??1?$ImVector@Ustbrp_rect@@@@QAE@XZ 1001b6c0 f i imgui_draw.obj
 0001:0001a6c0       ??1?$ImVector@UPair@ImGuiStorage@@@@QAE@XZ 1001b6c0 f i imgui.obj
 0001:0001a6c0       ??1?$ImVector@PAX@@QAE@XZ  1001b6c0 f i imgui.obj
 0001:0001a6c0       ??1?$ImVector@G@@QAE@XZ    1001b6c0 f i imgui.obj
 0001:0001a6c0       ??1?$ImVector@UGlyph@ImFont@@@@QAE@XZ 1001b6c0 f i imgui_draw.obj
 0001:0001a6c0       ??1?$ImVector@UImDrawVert@@@@QAE@XZ 1001b6c0 f i imgui.obj
 0001:0001a6c0       ??1?$ImVector@UImVec2@@@@QAE@XZ 1001b6c0 f i imgui.obj
 0001:0001a710       ??1ImDrawList@@QAE@XZ      1001b710 f i imgui.obj
 0001:0001a7a0       ??1ImGuiContext@@QAE@XZ    1001b7a0 f i imgui.obj
 0001:0001a8b0       ??1ImGuiDrawContext@@QAE@XZ 1001b8b0 f i imgui.obj
 0001:0001a920       ??1ImGuiStorage@@QAE@XZ    1001b920 f i imgui.obj
 0001:0001a940       ??1ImGuiTextEditState@@QAE@XZ 1001b940 f i imgui.obj
 0001:0001a970       ??2@YAPAXIUImPlacementNewDummy@@PAX@Z 1001b970 f i imgui.obj
 0001:0001a980       ??4?$basic_string@DU?$char_traits@D@std@@V?$allocator@D@2@@std@@QAEAAV01@$$QAV01@@Z 1001b980 f i imgui.obj
 0001:0001aa20       ??A?$ImVector@D@@QAEAADH@Z 1001ba20 f i imgui.obj
 0001:0001aa40       ??A?$ImVector@G@@QAEAAGH@Z 1001ba40 f i imgui.obj
 0001:0001aa40       ??A?$ImVector@G@@QBEABGH@Z 1001ba40 f i imgui.obj
 0001:0001aa60       ??A?$ImVector@M@@QBEABMH@Z 1001ba60 f i imgui.obj
 0001:0001aa60       ??A?$ImVector@M@@QAEAAMH@Z 1001ba60 f i imgui_draw.obj
 0001:0001aa60       ??A?$ImVector@PAUImGuiWindow@@@@QAEAAPAUImGuiWindow@@H@Z 1001ba60 f i imgui.obj
 0001:0001aa60       ??A?$ImVector@PAUImFont@@@@QAEAAPAUImFont@@H@Z 1001ba60 f i imgui.obj
 0001:0001aa60       ??A?$ImVector@PAUImDrawList@@@@QAEAAPAUImDrawList@@H@Z 1001ba60 f i imgui.obj
 0001:0001aa80       ??A?$ImVector@UImGuiColumnData@@@@QAEAAUImGuiColumnData@@H@Z 1001ba80 f i imgui.obj
 0001:0001aaa0       ??A?$ImVector@UImGuiIniData@@@@QAEAAUImGuiIniData@@H@Z 1001baa0 f i imgui.obj
 0001:0001aac0       ??A?$ImVector@UImDrawChannel@@@@QAEAAUImDrawChannel@@H@Z 1001bac0 f i imgui_draw.obj
 0001:0001aac0       ??A?$ImVector@UImGuiPopupRef@@@@QAEAAUImGuiPopupRef@@H@Z 1001bac0 f i imgui.obj
 0001:0001aae0       ??BImColor@@QBEIXZ         1001bae0 f i imgui.obj
 0001:0001b0e0       ?AddInputCharacter@ImGuiIO@@QAEXG@Z 1001c0e0 f   imgui.obj
 0001:0001b520       ?Begin@ImGui@@YA_NPBDPA_NABUImVec2@@MH@Z 1001c520 f   imgui.obj
 0001:0001eca0       ?Begin@ImGui@@YA_NPBDPA_NH@Z 1001fca0 f   imgui.obj
 0001:0001ecf0       ?BeginChild@ImGui@@YA_NPBDABUImVec2@@_NH@Z 1001fcf0 f   imgui.obj
 0001:0001eff0       ?BeginColumns@ImGui@@YAXPBDHH@Z 1001fff0 f   imgui.obj
 0001:0001f480       ?ButtonBehavior@ImGui@@YA_NABUImRect@@IPA_N1H@Z 10020480 f   imgui.obj
 0001:0001f790       ?ButtonExT@ImGui@@YA_NPBDABUImVec2@@HHH_NUImColor@@@Z 10020790 f   imgui.obj
 0001:0001fc60       ?ButtonT@ImGui@@YA_NPBDABUImVec2@@HHUImColor@@_N@Z 10020c60 f   imgui.obj
 0001:0001fca0       ?CalcFontSize@ImGuiWindow@@QBEMXZ 10020ca0 f i imgui.obj
 0001:0001fcd0       ?CalcItemSize@ImGui@@YA?AUImVec2@@U2@MM@Z 10020cd0 f   imgui.obj
 0001:0001fe40       ?CalcTextSize@ImGui@@YA?AUImVec2@@PBD0_NM@Z 10020e40 f   imgui.obj
 0001:0001ff70       ?CalcWrapWidthForPos@ImGui@@YAMABUImVec2@@M@Z 10020f70 f   imgui.obj
 0001:00020130       ?Checkbox@ImGui@@YA_NPBDPA_N@Z 10021130 f   imgui.obj
 0001:00020aa0       ?ClearActiveID@ImGui@@YAXXZ 10021aa0 f   imgui.obj
 0001:00020ac0       ?ClipWith@ImRect@@QAEXABU1@@Z 10021ac0 f i imgui.obj
 0001:00020b40       ?CloseButton@ImGui@@YA_NIABUImVec2@@M@Z 10021b40 f   imgui.obj
 0001:00020fc0       ?ColorConvertFloat4ToU32@ImGui@@YAIABUImVec4@@@Z 10021fc0 f   imgui.obj
 0001:000210c0       ?Columns@ImGui@@YAXHPBD_N@Z 100220c0 f   imgui.obj
 0001:00021130       ?Contains@ImRect@@QBE_NABUImVec2@@@Z 10022130 f i imgui.obj
 0001:000211a0       ?CreateContext@ImGui@@YAPAUImGuiContext@@P6APAXI@ZP6AXPAX@Z@Z 100221a0 f   imgui.obj
 0001:00021610       ?Dummy@ImGui@@YAXABUImVec2@@@Z 10022610 f   imgui.obj
 0001:00021690       ?End@ImGui@@YAXXZ          10022690 f   imgui.obj
 0001:00021750       ?EndChild@ImGui@@YAX_N@Z   10022750 f   imgui.obj
 0001:00022490       ?EndColumns@ImGui@@YAXXZ   10023490 f   imgui.obj
 0001:00022890       ?EndFrame@ImGui@@YAXXZ     10023890 f   imgui.obj
 0001:00022b80       ?Expand@ImRect@@QAEXABUImVec2@@@Z 10023b80 f i imgui.obj
 0001:000230d0       ?FindRenderedTextEnd@ImGui@@YAPBDPBD0@Z 100240d0 f   imgui.obj
 0001:00023140       ?FindWindowByName@ImGui@@YAPAUImGuiWindow@@PBD@Z 10024140 f   imgui.obj
 0001:00023250       ?FocusWindow@ImGui@@YAXPAUImGuiWindow@@@Z 10024250 f   imgui.obj
 0001:00023380       ?GetBL@ImRect@@QBE?AUImVec2@@XZ 10024380 f i imgui.obj
 0001:000233c0       ?GetBR@ImRect@@QBE?AUImVec2@@XZ 100243c0 f i imgui.obj
 0001:000233f0       ?GetCenter@ImRect@@QBE?AUImVec2@@XZ 100243f0 f i imgui.obj
 0001:00023580       ?GetColorU32@ImGui@@YAIABUImVec4@@@Z 10024580 f   imgui.obj
 0001:000235d0       ?GetColorU32@ImGui@@YAIHM@Z 100245d0 f   imgui.obj
 0001:00023630       ?GetColumnOffset@ImGui@@YAMH@Z 10024630 f   imgui.obj
 0001:000236b0       ?GetColumnWidth@ImGui@@YAMH@Z 100246b0 f   imgui.obj
 0001:00023730       ?GetContentRegionAvail@ImGui@@YA?AUImVec2@@XZ 10024730 f   imgui.obj
 0001:00023790       ?GetContentRegionMax@ImGui@@YA?AUImVec2@@XZ 10024790 f   imgui.obj
 0001:00023800       ?GetCurrentWindow@ImGui@@YAPAUImGuiWindow@@XZ 10024800 f i imgui.obj
 0001:00023830       ?GetCurrentWindowRead@ImGui@@YAPAUImGuiWindow@@XZ 10024830 f i imgui.obj
 0001:00023850       ?GetCursorPosX@ImGui@@YAMXZ 10024850 f   imgui.obj
 0001:00023890       ?GetCursorPosY@ImGui@@YAMXZ 10024890 f   imgui.obj
 0001:000238d0       ?GetCursorScreenPos@ImGui@@YA?AUImVec2@@XZ 100248d0 f   imgui.obj
 0001:00023a20       ?GetFloat@ImGuiStorage@@QBEMIM@Z 10024a20 f   imgui.obj
 0001:00023a70       ?GetFrameCount@ImGui@@YAHXZ 10024a70 f   imgui.obj
 0001:00023af0       ?GetHeight@ImRect@@QBEMXZ  10024af0 f i imgui.obj
 0001:00023b20       ?GetID@ImGuiWindow@@QAEIPBD0@Z 10024b20 f   imgui.obj
 0001:00023b90       ?GetID@ImGuiWindow@@QAEIPBX@Z 10024b90 f   imgui.obj
 0001:00023be0       ?GetIO@ImGui@@YAAAUImGuiIO@@XZ 10024be0 f   imgui.obj
 0001:00023bf0       ?GetScrollMaxX@ImGui@@YAMXZ 10024bf0 f   imgui.obj
 0001:00023c40       ?GetScrollMaxY@ImGui@@YAMXZ 10024c40 f   imgui.obj
 0001:00023c90       ?GetSize@ImRect@@QBE?AUImVec2@@XZ 10024c90 f i imgui.obj
 0001:00023ce0       ?GetStyle@ImGui@@YAAAUImGuiStyle@@XZ 10024ce0 f   imgui.obj
 0001:00023d00       ?GetTR@ImRect@@QBE?AUImVec2@@XZ 10024d00 f i imgui.obj
 0001:00023d40       ?GetTextLineHeight@ImGui@@YAMXZ 10024d40 f   imgui.obj
 0001:00023d60       ?GetVarPtr@ImGuiStyleVarInfo@@QBEPAXXZ 10024d60 f i imgui.obj
 0001:00023e20       ?GetWidth@ImRect@@QBEMXZ   10024e20 f i imgui.obj
 0001:00023e50       ?GetWindowDrawList@ImGui@@YAPAUImDrawList@@XZ 10024e50 f   imgui.obj
 0001:00023e70       ?GetWindowPos@ImGui@@YA?AUImVec2@@XZ 10024e70 f   imgui.obj
 0001:00023eb0       ?GetWindowSize@ImGui@@YA?AUImVec2@@XZ 10024eb0 f   imgui.obj
 0001:00023ee0       ?GetWindowWidth@ImGui@@YAMXZ 10024ee0 f   imgui.obj
 0001:00023fe0       ?ImFileLoadToMemory@@YAPAXPBD0PAHH@Z 10024fe0 f   imgui.obj
 0001:00024110       ?ImFileOpen@@YAPAU_iobuf@@PBD0@Z 10025110 f   imgui.obj
 0001:00024270       ?ImFormatString@@YAHPADHPBDZZ 10025270 f   imgui.obj
 0001:000242d0       ?ImFormatStringV@@YAHPADHPBD0@Z 100252d0 f   imgui.obj
 0001:00024320       ?ImHash@@YAIPBXHI@Z        10025320 f   imgui.obj
 0001:000246c0       ?ImStrdup@@YAPADPBD@Z      100256c0 f   imgui.obj
 0001:00024720       ?ImStrlenW@@YAHPBG@Z       10025720 f   imgui.obj
 0001:00024760       ?ImTextCharFromUtf8@@YAHPAIPBD1@Z 10025760 f   imgui.obj
 0001:00024d30       ?ImTextCountCharsFromUtf8@@YAHPBD0@Z 10025d30 f   imgui.obj
 0001:00024e00       ?ImTextCountUtf8BytesFromStr@@YAHPBG0@Z 10025e00 f   imgui.obj
 0001:00024e70       ?ImTextStrFromUtf8@@YAHPAGHPBD1PAPBD@Z 10025e70 f   imgui.obj
 0001:00024f10       ?ImTextStrToUtf8@@YAHPADHPBG1@Z 10025f10 f   imgui.obj
 0001:00025020       ?IsClippedEx@ImGui@@YA_NABUImRect@@PBI_N@Z 10026020 f   imgui.obj
 0001:00025090       ?IsHovered@ImGui@@YA_NABUImRect@@I_N@Z 10026090 f   imgui.obj
 0001:00025170       ?IsKeyPressed@ImGui@@YA_NH_N@Z 10026170 f   imgui.obj
 0001:000252e0       ?IsMouseClicked@ImGui@@YA_NH_N@Z 100262e0 f   imgui.obj
 0001:00025410       ?IsMouseHoveringRect@ImGui@@YA_NABUImVec2@@0_N@Z 10026410 f   imgui.obj
 0001:00025520       ?ItemAdd@ImGui@@YA_NABUImRect@@PBI@Z 10026520 f   imgui.obj
 0001:00025650       ?ItemSize@ImGui@@YAXABUImRect@@M@Z 10026650 f   imgui.obj
 0001:00025680       ?ItemSize@ImGui@@YAXABUImVec2@@M@Z 10026680 f   imgui.obj
 0001:00025860       ?KeepAliveID@ImGui@@YAXI@Z 10026860 f   imgui.obj
 0001:00025ad0       ?LogFinish@ImGui@@YAXXZ    10026ad0 f   imgui.obj
 0001:00025d40       ?LogText@ImGui@@YAXPBDZZ   10026d40 f   imgui.obj
 0001:00025e80       ?MemAlloc@ImGui@@YAPAXI@Z  10026e80 f   imgui.obj
 0001:00025ec0       ?MemFree@ImGui@@YAXPAX@Z   10026ec0 f   imgui.obj
 0001:00025f00       ?MenuBarHeight@ImGuiWindow@@QBEMXZ 10026f00 f i imgui.obj
 0001:00025f60       ?MenuBarRect@ImGuiWindow@@QBE?AUImRect@@XZ 10026f60 f i imgui.obj
 0001:00026000       ?NewFrame@ImGui@@YAXXZ     10027000 f   imgui.obj
 0001:000271d0       ?NextColumn@ImGui@@YAXXZ   100281d0 f   imgui.obj
 0001:000273d0       ?Overlaps@ImRect@@QBE_NABU1@@Z 100283d0 f i imgui.obj
 0001:00027440       ?PathClear@ImDrawList@@QAEXXZ 10028440 f i imgui.obj
 0001:00027460       ?PathFillConvex@ImDrawList@@QAEXI@Z 10028460 f i imgui.obj
 0001:000274a0       ?PathLineTo@ImDrawList@@QAEXABUImVec2@@@Z 100284a0 f i imgui.obj
 0001:000274d0       ?PathStroke@ImDrawList@@QAEXI_NM@Z 100284d0 f i imgui.obj
 0001:00027560       ?PopClipRect@ImGui@@YAXXZ  10028560 f   imgui.obj
 0001:000275c0       ?PopFont@ImGui@@YAXXZ      100285c0 f   imgui.obj
 0001:00027640       ?PopID@ImGui@@YAXXZ        10028640 f   imgui.obj
 0001:00027660       ?PopItemWidth@ImGui@@YAXXZ 10028660 f   imgui.obj
 0001:000276d0       ?PopStyleColor@ImGui@@YAXH@Z 100286d0 f   imgui.obj
 0001:00027740       ?PopStyleVar@ImGui@@YAXH@Z 10028740 f   imgui.obj
 0001:00027870       ?PushClipRect@ImGui@@YAXABUImVec2@@0_N@Z 10028870 f   imgui.obj
 0001:000278f0       ?PushColumnClipRect@ImGui@@YAXH@Z 100288f0 f   imgui.obj
 0001:00027970       ?PushFont@ImGui@@YAXPAUImFont@@@Z 10028970 f   imgui.obj
 0001:000279e0       ?PushID@ImGui@@YAXH@Z      100289e0 f   imgui.obj
 0001:00027a20       ?PushItemWidth@ImGui@@YAXM@Z 10028a20 f   imgui.obj
 0001:00027a90       ?PushStyleColor@ImGui@@YAXHABUImVec4@@@Z 10028a90 f   imgui.obj
 0001:00027b20       ?PushStyleVar@ImGui@@YAXHABUImVec2@@@Z 10028b20 f   imgui.obj
 0001:00027b90       ?Rect@ImGuiWindow@@QBE?AUImRect@@XZ 10028b90 f i imgui.obj
 0001:00027bf0       ?Render@ImGui@@YAXXZ       10028bf0 f   imgui.obj
 0001:000282b0       ?RenderCollapseTriangle@ImGui@@YAXUImVec2@@_NM@Z 100292b0 f   imgui.obj
 0001:00028600       ?RenderFrame@ImGui@@YAXUImVec2@@0I_NM@Z 10029600 f   imgui.obj
 0001:00028780       ?RenderText@ImGui@@YAXUImVec2@@PBD1_N@Z 10029780 f   imgui.obj
 0001:00028970       ?RenderTextClipped@ImGui@@YAXABUImVec2@@0PBD1PBU2@0PBUImRect@@@Z 10029970 f   imgui.obj
 0001:00028e80       ?RenderTextWrapped@ImGui@@YAXUImVec2@@PBD1M@Z 10029e80 f   imgui.obj
 0001:00028f80       ?SameLine@ImGui@@YAXMM@Z   10029f80 f   imgui.obj
 0001:00029dd0       ?SetActiveID@ImGui@@YAXIPAUImGuiWindow@@@Z 1002add0 f   imgui.obj
 0001:00029e20       ?SetClipboardText@ImGui@@YAXPBD@Z 1002ae20 f   imgui.obj
 0001:00029ef0       ?SetColumnOffset@ImGui@@YAXHM@Z 1002aef0 f   imgui.obj
 0001:0002a180       ?SetCursorPosX@ImGui@@YAXM@Z 1002b180 f   imgui.obj
 0001:0002a1f0       ?SetCursorPosY@ImGui@@YAXM@Z 1002b1f0 f   imgui.obj
 0001:0002a260       ?SetFloat@ImGuiStorage@@QAEXIM@Z 1002b260 f   imgui.obj
 0001:0002a2e0       ?SetHoveredID@ImGui@@YAXI@Z 1002b2e0 f   imgui.obj
 0001:0002a310       ?SetNextWindowSize@ImGui@@YAXABUImVec2@@H@Z 1002b310 f   imgui.obj
 0001:0002a3a0       ?SetWindowFocus@ImGui@@YAXXZ 1002b3a0 f   imgui.obj
 0001:0002a5c0       ?Spacing@ImGui@@YAXXZ      1002b5c0 f   imgui.obj
 0001:0002a610       ?TextColored@ImGui@@YAXABUImVec4@@PBDZZ 1002b610 f   imgui.obj
 0001:0002a640       ?TextColoredV@ImGui@@YAXABUImVec4@@PBDPAD@Z 1002b640 f   imgui.obj
 0001:0002a670       ?TextUnformatted@ImGui@@YAXPBD0@Z 1002b670 f   imgui.obj
 0001:0002ab80       ?TextV@ImGui@@YAXPBDPAD@Z  1002bb80 f   imgui.obj
 0001:0002abf0       ?TitleBarHeight@ImGuiWindow@@QBEMXZ 1002bbf0 f i imgui.obj
 0001:0002ac50       ?TitleBarRect@ImGuiWindow@@QBE?AUImRect@@XZ 1002bc50 f i imgui.obj
 0001:0002acd0       ?Update@ImGuiSimpleColumns@@QAEXHM_N@Z 1002bcd0 f   imgui.obj
 0001:0002add0       ?_Assign_rv_contents@?$basic_string@DU?$char_traits@D@std@@V?$allocator@D@2@@std@@QAEX$$QAV12@U?$integral_constant@_N$00@2@@Z 1002bdd0 f i imgui.obj
 0001:0002ae10       ?_Move_alloc@?$_String_alloc@U?$_String_base_types@DV?$allocator@D@std@@@std@@@std@@QAEXAAV?$allocator@D@2@@Z 1002be10 f i imgui.obj
 0001:0002ae40       ?_grow_capacity@?$ImVector@PAUImGuiWindow@@@@QBEHH@Z 1002be40 f i imgui.obj
 0001:0002ae40       ?_grow_capacity@?$ImVector@UImGuiPopupRef@@@@QBEHH@Z 1002be40 f i imgui.obj
 0001:0002ae40       ?_grow_capacity@?$ImVector@D@@QBEHH@Z 1002be40 f i imgui.obj
 0001:0002ae40       ?_grow_capacity@?$ImVector@PAX@@QBEHH@Z 1002be40 f i imgui_draw.obj
 0001:0002ae40       ?_grow_capacity@?$ImVector@I@@QBEHH@Z 1002be40 f i imgui.obj
 0001:0002ae40       ?_grow_capacity@?$ImVector@G@@QBEHH@Z 1002be40 f i imgui.obj
 0001:0002ae40       ?_grow_capacity@?$ImVector@UImGuiGroupData@@@@QBEHH@Z 1002be40 f i imgui.obj
 0001:0002ae40       ?_grow_capacity@?$ImVector@UGlyph@ImFont@@@@QBEHH@Z 1002be40 f i imgui_draw.obj
 0001:0002ae40       ?_grow_capacity@?$ImVector@UImGuiColMod@@@@QBEHH@Z 1002be40 f i imgui.obj
 0001:0002ae40       ?_grow_capacity@?$ImVector@UImGuiIniData@@@@QBEHH@Z 1002be40 f i imgui.obj
 0001:0002ae40       ?_grow_capacity@?$ImVector@UImDrawChannel@@@@QBEHH@Z 1002be40 f i imgui_draw.obj
 0001:0002ae40       ?_grow_capacity@?$ImVector@UImVec2@@@@QBEHH@Z 1002be40 f i imgui.obj
 0001:0002ae40       ?_grow_capacity@?$ImVector@UImGuiStyleMod@@@@QBEHH@Z 1002be40 f i imgui.obj
 0001:0002ae40       ?_grow_capacity@?$ImVector@PAUImFont@@@@QBEHH@Z 1002be40 f i imgui.obj
 0001:0002ae40       ?_grow_capacity@?$ImVector@UImFontConfig@@@@QBEHH@Z 1002be40 f i imgui_draw.obj
 0001:0002ae40       ?_grow_capacity@?$ImVector@UImDrawCmd@@@@QBEHH@Z 1002be40 f i imgui_draw.obj
 0001:0002ae40       ?_grow_capacity@?$ImVector@M@@QBEHH@Z 1002be40 f i imgui.obj
 0001:0002ae40       ?_grow_capacity@?$ImVector@UCustomRect@ImFontAtlas@@@@QBEHH@Z 1002be40 f i imgui_draw.obj
 0001:0002ae40       ?_grow_capacity@?$ImVector@UImGuiColumnData@@@@QBEHH@Z 1002be40 f i imgui.obj
 0001:0002ae40       ?_grow_capacity@?$ImVector@UImVec4@@@@QBEHH@Z 1002be40 f i imgui_draw.obj
 0001:0002ae40       ?_grow_capacity@?$ImVector@Ustbrp_rect@@@@QBEHH@Z 1002be40 f i imgui_draw.obj
 0001:0002ae40       ?_grow_capacity@?$ImVector@_N@@QBEHH@Z 1002be40 f i imgui.obj
 0001:0002ae40       ?_grow_capacity@?$ImVector@PAUImDrawList@@@@QBEHH@Z 1002be40 f i imgui.obj
 0001:0002ae40       ?_grow_capacity@?$ImVector@UImDrawVert@@@@QBEHH@Z 1002be40 f i imgui_draw.obj
 0001:0002aea0       ?appendv@ImGuiTextBuffer@@QAEXPBDPAD@Z 1002bea0 f   imgui.obj
 0001:0002af70       ?back@?$ImVector@PAUImFont@@@@QAEAAPAUImFont@@XZ 1002bf70 f i imgui.obj
 0001:0002af70       ?back@?$ImVector@PAUImGuiWindow@@@@QAEAAPAUImGuiWindow@@XZ 1002bf70 f i imgui.obj
 0001:0002af70       ?back@?$ImVector@M@@QAEAAMXZ 1002bf70 f i imgui.obj
 0001:0002af70       ?back@?$ImVector@I@@QAEAAIXZ 1002bf70 f i imgui.obj
 0001:0002af70       ?back@?$ImVector@PAX@@QAEAAPAXXZ 1002bf70 f i imgui_draw.obj
 0001:0002af90       ?back@?$ImVector@UImDrawCmd@@@@QAEAAUImDrawCmd@@XZ 1002bf90 f i imgui.obj
 0001:0002afb0       ?back@?$ImVector@UImGuiColMod@@@@QAEAAUImGuiColMod@@XZ 1002bfb0 f i imgui.obj
 0001:0002afd0       ?back@?$ImVector@UImGuiIniData@@@@QAEAAUImGuiIniData@@XZ 1002bfd0 f i imgui.obj
 0001:0002aff0       ?back@?$ImVector@UImGuiStyleMod@@@@QAEAAUImGuiStyleMod@@XZ 1002bff0 f i imgui.obj
 0001:0002b010       ?back@?$ImVector@UImVec4@@@@QAEAAUImVec4@@XZ 1002c010 f i imgui.obj
 0001:0002b030       ?begin@?$ImVector@PAUImGuiWindow@@@@QAEPAPAUImGuiWindow@@XZ 1002c030 f i imgui.obj
 0001:0002b030       ?begin@?$ImVector@UPair@ImGuiStorage@@@@QAEPAUPair@ImGuiStorage@@XZ 1002c030 f i imgui.obj
 0001:0002b050       ?begin@ImGuiTextBuffer@@QBEPBDXZ 1002c050 f i imgui.obj
 0001:0002b070       ?clear@?$ImVector@UImDrawCmd@@@@QAEXXZ 1002c070 f i imgui_draw.obj
 0001:0002b070       ?clear@?$ImVector@UImVec2@@@@QAEXXZ 1002c070 f i imgui_draw.obj
 0001:0002b070       ?clear@?$ImVector@UCustomRect@ImFontAtlas@@@@QAEXXZ 1002c070 f i imgui_draw.obj
 0001:0002b070       ?clear@?$ImVector@UImVec4@@@@QAEXXZ 1002c070 f i imgui_draw.obj
 0001:0002b070       ?clear@?$ImVector@PAUImFont@@@@QAEXXZ 1002c070 f i imgui.obj
 0001:0002b070       ?clear@?$ImVector@PAX@@QAEXXZ 1002c070 f i imgui_draw.obj
 0001:0002b070       ?clear@?$ImVector@UImDrawChannel@@@@QAEXXZ 1002c070 f i imgui_draw.obj
 0001:0002b070       ?clear@?$ImVector@UGlyph@ImFont@@@@QAEXXZ 1002c070 f i imgui_draw.obj
 0001:0002b070       ?clear@?$ImVector@M@@QAEXXZ 1002c070 f i imgui_draw.obj
 0001:0002b070       ?clear@?$ImVector@UImDrawVert@@@@QAEXXZ 1002c070 f i imgui_draw.obj
 0001:0002b070       ?clear@?$ImVector@D@@QAEXXZ 1002c070 f i imgui.obj
 0001:0002b070       ?clear@?$ImVector@UImFontConfig@@@@QAEXXZ 1002c070 f i imgui_draw.obj
 0001:0002b070       ?clear@?$ImVector@G@@QAEXXZ 1002c070 f i imgui.obj
 0001:0002b0b0       ?clear@ImGuiTextBuffer@@QAEXXZ 1002c0b0 f i imgui.obj
 0001:0002b0e0       ?empty@?$ImVector@UImDrawCmd@@@@QBE_NXZ 1002c0e0 f i imgui.obj
 0001:0002b0e0       ?empty@?$ImVector@UCustomRect@ImFontAtlas@@@@QBE_NXZ 1002c0e0 f i imgui_draw.obj
 0001:0002b0e0       ?empty@?$ImVector@UImGuiPopupRef@@@@QBE_NXZ 1002c0e0 f i imgui.obj
 0001:0002b0e0       ?empty@?$ImVector@UImDrawVert@@@@QBE_NXZ 1002c0e0 f i imgui.obj
 0001:0002b0e0       ?empty@?$ImVector@PAUImGuiWindow@@@@QBE_NXZ 1002c0e0 f i imgui.obj
 0001:0002b0e0       ?empty@?$ImVector@UImFontConfig@@@@QBE_NXZ 1002c0e0 f i imgui_draw.obj
 0001:0002b0e0       ?empty@?$ImVector@PAUImDrawList@@@@QBE_NXZ 1002c0e0 f i imgui.obj
 0001:0002b0e0       ?empty@?$ImVector@M@@QBE_NXZ 1002c0e0 f i imgui.obj
 0001:0002b0e0       ?empty@?$ImVector@PAX@@QBE_NXZ 1002c0e0 f i imgui_draw.obj
 0001:0002b0e0       ?empty@?$ImVector@PAUImFont@@@@QBE_NXZ 1002c0e0 f i imgui.obj
 0001:0002b110       ?end@?$ImVector@UPair@ImGuiStorage@@@@QAEPAUPair@ImGuiStorage@@XZ 1002c110 f i imgui.obj
 0001:0002b110       ?end@?$ImVector@UPair@ImGuiStorage@@@@QBEPBUPair@ImGuiStorage@@XZ 1002c110 f i imgui.obj
 0001:0002b130       ?erase@?$ImVector@PAUImGuiWindow@@@@QAEPAPAUImGuiWindow@@PBQAU2@@Z 1002c130 f i imgui.obj
 0001:0002b1a0       ?front@?$ImVector@D@@QBEABDXZ 1002c1a0 f i imgui.obj
 0001:0002b1c0       ?insert@?$ImVector@PAUImGuiWindow@@@@QAEPAPAUImGuiWindow@@PBQAU2@ABQAU2@@Z 1002c1c0 f i imgui.obj
 0001:0002b280       ?insert@?$ImVector@UPair@ImGuiStorage@@@@QAEPAUPair@ImGuiStorage@@PBU23@ABU23@@Z 1002c280 f i imgui.obj
 0001:0002b340       ?pop_back@?$ImVector@M@@QAEXXZ 1002c340 f i imgui.obj
 0001:0002b340       ?pop_back@?$ImVector@UImGuiColMod@@@@QAEXXZ 1002c340 f i imgui.obj
 0001:0002b340       ?pop_back@?$ImVector@I@@QAEXXZ 1002c340 f i imgui.obj
 0001:0002b340       ?pop_back@?$ImVector@PAUImFont@@@@QAEXXZ 1002c340 f i imgui.obj
 0001:0002b340       ?pop_back@?$ImVector@UImVec4@@@@QAEXXZ 1002c340 f i imgui_draw.obj
 0001:0002b340       ?pop_back@?$ImVector@UImGuiStyleMod@@@@QAEXXZ 1002c340 f i imgui.obj
 0001:0002b340       ?pop_back@?$ImVector@UImDrawCmd@@@@QAEXXZ 1002c340 f i imgui.obj
 0001:0002b340       ?pop_back@?$ImVector@UImGuiPopupRef@@@@QAEXXZ 1002c340 f i imgui.obj
 0001:0002b340       ?pop_back@?$ImVector@PAUImGuiWindow@@@@QAEXXZ 1002c340 f i imgui.obj
 0001:0002b340       ?pop_back@?$ImVector@PAX@@QAEXXZ 1002c340 f i imgui_draw.obj
 0001:0002b360       ?push_back@?$ImVector@D@@QAEXABD@Z 1002c360 f i imgui.obj
 0001:0002b3c0       ?push_back@?$ImVector@PAUImFont@@@@QAEXABQAUImFont@@@Z 1002c3c0 f i imgui.obj
 0001:0002b3c0       ?push_back@?$ImVector@PAX@@QAEXABQAX@Z 1002c3c0 f i imgui_draw.obj
 0001:0002b3c0       ?push_back@?$ImVector@I@@QAEXABI@Z 1002c3c0 f i imgui.obj
 0001:0002b3c0       ?push_back@?$ImVector@PAUImGuiWindow@@@@QAEXABQAUImGuiWindow@@@Z 1002c3c0 f i imgui.obj
 0001:0002b3c0       ?push_back@?$ImVector@M@@QAEXABM@Z 1002c3c0 f i imgui.obj
 0001:0002b3c0       ?push_back@?$ImVector@PAUImDrawList@@@@QAEXABQAUImDrawList@@@Z 1002c3c0 f i imgui.obj
 0001:0002b420       ?push_back@?$ImVector@UImGuiColMod@@@@QAEXABUImGuiColMod@@@Z 1002c420 f i imgui.obj
 0001:0002b490       ?push_back@?$ImVector@UImGuiPopupRef@@@@QAEXABUImGuiPopupRef@@@Z 1002c490 f i imgui.obj
 0001:0002b510       ?push_back@?$ImVector@UImGuiStyleMod@@@@QAEXABUImGuiStyleMod@@@Z 1002c510 f i imgui.obj
 0001:0002b510       ?push_back@?$ImVector@UCustomRect@ImFontAtlas@@@@QAEXABUCustomRect@ImFontAtlas@@@Z 1002c510 f i imgui_draw.obj
 0001:0002b580       ?push_back@?$ImVector@UImVec2@@@@QAEXABUImVec2@@@Z 1002c580 f i imgui.obj
 0001:0002b5e0       ?reserve@?$ImVector@D@@QAEXH@Z 1002c5e0 f i imgui.obj
 0001:0002b5e0       ?reserve@?$ImVector@_N@@QAEXH@Z 1002c5e0 f i imgui.obj
 0001:0002b650       ?reserve@?$ImVector@G@@QAEXH@Z 1002c650 f i imgui.obj
 0001:0002b6d0       ?reserve@?$ImVector@M@@QAEXH@Z 1002c6d0 f i imgui.obj
 0001:0002b6d0       ?reserve@?$ImVector@PAUImFont@@@@QAEXH@Z 1002c6d0 f i imgui.obj
 0001:0002b6d0       ?reserve@?$ImVector@PAUImGuiWindow@@@@QAEXH@Z 1002c6d0 f i imgui.obj
 0001:0002b6d0       ?reserve@?$ImVector@I@@QAEXH@Z 1002c6d0 f i imgui.obj
 0001:0002b6d0       ?reserve@?$ImVector@PAX@@QAEXH@Z 1002c6d0 f i imgui_draw.obj
 0001:0002b6d0       ?reserve@?$ImVector@PAUImDrawList@@@@QAEXH@Z 1002c6d0 f i imgui.obj
 0001:0002b750       ?reserve@?$ImVector@UImGuiColMod@@@@QAEXH@Z 1002c750 f i imgui.obj
 0001:0002b750       ?reserve@?$ImVector@UImDrawVert@@@@QAEXH@Z 1002c750 f i imgui_draw.obj
 0001:0002b750       ?reserve@?$ImVector@UImGuiColumnData@@@@QAEXH@Z 1002c750 f i imgui.obj
 0001:0002b7c0       ?reserve@?$ImVector@UImGuiGroupData@@@@QAEXH@Z 1002c7c0 f i imgui.obj
 0001:0002b7c0       ?reserve@?$ImVector@UGlyph@ImFont@@@@QAEXH@Z 1002c7c0 f i imgui_draw.obj
 0001:0002b830       ?reserve@?$ImVector@UImGuiIniData@@@@QAEXH@Z 1002c830 f i imgui.obj
 0001:0002b8a0       ?reserve@?$ImVector@UImDrawChannel@@@@QAEXH@Z 1002c8a0 f i imgui_draw.obj
 0001:0002b8a0       ?reserve@?$ImVector@UImGuiPopupRef@@@@QAEXH@Z 1002c8a0 f i imgui.obj
 0001:0002b910       ?reserve@?$ImVector@UCustomRect@ImFontAtlas@@@@QAEXH@Z 1002c910 f i imgui_draw.obj
 0001:0002b910       ?reserve@?$ImVector@UImGuiStyleMod@@@@QAEXH@Z 1002c910 f i imgui.obj
 0001:0002b980       ?reserve@?$ImVector@UImVec2@@@@QAEXH@Z 1002c980 f i imgui.obj
 0001:0002b980       ?reserve@?$ImVector@UPair@ImGuiStorage@@@@QAEXH@Z 1002c980 f i imgui.obj
 0001:0002ba00       ?resize@?$ImVector@_N@@QAEXH@Z 1002ca00 f i imgui.obj
 0001:0002ba00       ?resize@?$ImVector@D@@QAEXH@Z 1002ca00 f i imgui.obj
 0001:0002ba40       ?resize@?$ImVector@G@@QAEXH@Z 1002ca40 f i imgui.obj
 0001:0002ba80       ?resize@?$ImVector@PAX@@QAEXH@Z 1002ca80 f i imgui_draw.obj
 0001:0002ba80       ?resize@?$ImVector@PAUImGuiWindow@@@@QAEXH@Z 1002ca80 f i imgui.obj
 0001:0002ba80       ?resize@?$ImVector@M@@QAEXH@Z 1002ca80 f i imgui.obj
 0001:0002ba80       ?resize@?$ImVector@I@@QAEXH@Z 1002ca80 f i imgui.obj
 0001:0002ba80       ?resize@?$ImVector@PAUImDrawList@@@@QAEXH@Z 1002ca80 f i imgui.obj
 0001:0002bac0       ?resize@?$ImVector@UImDrawVert@@@@QAEXH@Z 1002cac0 f i imgui_draw.obj
 0001:0002bac0       ?resize@?$ImVector@UImGuiColumnData@@@@QAEXH@Z 1002cac0 f i imgui.obj
 0001:0002bb00       ?resize@?$ImVector@UImGuiGroupData@@@@QAEXH@Z 1002cb00 f i imgui.obj
 0001:0002bb00       ?resize@?$ImVector@UGlyph@ImFont@@@@QAEXH@Z 1002cb00 f i imgui_draw.obj
 0001:0002bb40       ?resize@?$ImVector@UImGuiIniData@@@@QAEXH@Z 1002cb40 f i imgui.obj
 0001:0002bb80       ?resize@?$ImVector@UImGuiPopupRef@@@@QAEXH@Z 1002cb80 f i imgui.obj
 0001:0002bb80       ?resize@?$ImVector@UImDrawChannel@@@@QAEXH@Z 1002cb80 f i imgui_draw.obj
 0001:0002bbc0       ?resize@?$ImVector@UImVec2@@@@QAEXH@Z 1002cbc0 f i imgui.obj
 0001:0002bc00       ?size@ImGuiTextBuffer@@QBEHXZ 1002cc00 f i imgui.obj
 0001:0002bc20       ?swap@?$ImVector@PAUImGuiWindow@@@@QAEXAAV1@@Z 1002cc20 f i imgui.obj
 0001:0002bc90       ___local_stdio_scanf_options 1002cc90 f i imgui.obj
 0001:0002bca0       __vfprintf_l               1002cca0 f i imgui.obj
 0001:0002bcd0       __vsnprintf_l              1002ccd0 f i imgui.obj
 0001:0002bd30       __vsscanf_l                1002cd30 f i imgui.obj
 0001:0002bd60       _fmodf                     1002cd60 f i imgui.obj
 0001:0002bda0       _fprintf                   1002cda0 f i imgui.obj
 0001:0002bde0       _sscanf                    1002cde0 f i imgui.obj
 0001:0002be20       _vfprintf                  1002ce20 f i imgui.obj
 0001:0002be40       _vsnprintf                 1002ce40 f i imgui.obj
 0001:0002be90       ??0CustomRect@ImFontAtlas@@QAE@XZ 1002ce90 f i imgui_draw.obj
 0001:0002bee0       ??0ImDrawChannel@@QAE@XZ   1002cee0 f i imgui_draw.obj
 0001:0002bf40       ??0ImDrawCmd@@QAE@XZ       1002cf40 f i imgui_draw.obj
 0001:0002bfc0       ??0ImFont@@QAE@XZ          1002cfc0 f   imgui_draw.obj
 0001:0002c060       ??0ImFontAtlas@@QAE@XZ     1002d060 f   imgui_draw.obj
 0001:0002c150       ??0ImFontConfig@@QAE@XZ    1002d150 f   imgui_draw.obj
 0001:0002c250       ??1ImFont@@QAE@XZ          1002d250 f   imgui_draw.obj
 0001:0002c2b0       ??1ImFontAtlas@@QAE@XZ     1002d2b0 f   imgui_draw.obj
 0001:0002c310       ??A?$ImVector@UCustomRect@ImFontAtlas@@@@QAEAAUCustomRect@ImFontAtlas@@H@Z 1002d310 f i imgui_draw.obj
 0001:0002c330       ??A?$ImVector@UGlyph@ImFont@@@@QAEAAUGlyph@ImFont@@H@Z 1002d330 f i imgui_draw.obj
 0001:0002c350       ??A?$ImVector@UImFontConfig@@@@QAEAAUImFontConfig@@H@Z 1002d350 f i imgui_draw.obj
 0001:0002c370       ??A?$ImVector@Ustbrp_rect@@@@QAEAAUstbrp_rect@@H@Z 1002d370 f i imgui_draw.obj
 0001:0002c390       ??_GImFont@@QAEPAXI@Z      1002d390 f i imgui_draw.obj
 0001:0002c3c0       ?AddCircleFilled@ImDrawList@@QAEXABUImVec2@@MIH@Z 1002d3c0 f   imgui_draw.obj
 0001:0002c440       ?AddConvexPolyFilled@ImDrawList@@QAEXPBUImVec2@@HI_N@Z 1002d440 f   imgui_draw.obj
 0001:0002ca70       ?AddDrawCmd@ImDrawList@@QAEXXZ 1002da70 f   imgui_draw.obj
 0001:0002cb10       ?AddFont@ImFontAtlas@@QAEPAUImFont@@PBUImFontConfig@@@Z 1002db10 f   imgui_draw.obj
 0001:0002cc50       ?AddFontDefault@ImFontAtlas@@QAEPAUImFont@@PBUImFontConfig@@@Z 1002dc50 f   imgui_draw.obj
 0001:0002cdb0       ?AddFontFromFileTTF@ImFontAtlas@@QAEPAUImFont@@PBDMPBUImFontConfig@@PBG@Z 1002ddb0 f   imgui_draw.obj
 0001:0002cf80       ?AddFontFromMemoryCompressedBase85TTF@ImFontAtlas@@QAEPAUImFont@@PBDMPBUImFontConfig@@PBG@Z 1002df80 f   imgui_draw.obj
 0001:0002d030       ?AddFontFromMemoryCompressedTTF@ImFontAtlas@@QAEPAUImFont@@PBXHMPBUImFontConfig@@PBG@Z 1002e030 f   imgui_draw.obj
 0001:0002d120       ?AddFontFromMemoryTTF@ImFontAtlas@@QAEPAUImFont@@PAXHMPBUImFontConfig@@PBG@Z 1002e120 f   imgui_draw.obj
 0001:0002d1e0       ?AddImage@ImDrawList@@QAEXPAXABUImVec2@@111I@Z 1002e1e0 f   imgui_draw.obj
 0001:0002d280       ?AddLine@ImDrawList@@QAEXABUImVec2@@0IM@Z 1002e280 f   imgui_draw.obj
 0001:0002d340       ?AddPolyline@ImDrawList@@QAEXPBUImVec2@@HI_NM1@Z 1002e340 f   imgui_draw.obj
 0001:0002e7b0       ?AddRect@ImDrawList@@QAEXABUImVec2@@0IMHM@Z 1002f7b0 f   imgui_draw.obj
 0001:0002e880       ?AddRectFilled@ImDrawList@@QAEXABUImVec2@@0IMH@Z 1002f880 f   imgui_draw.obj
 0001:0002e900       ?AddRectFilledMultiColor@ImDrawList@@QAEXABUImVec2@@0IIII@Z 1002f900 f   imgui_draw.obj
 0001:0002ea50       ?AddText@ImDrawList@@QAEXABUImVec2@@IPBD1@Z 1002fa50 f   imgui_draw.obj
 0001:0002ea90       ?AddText@ImDrawList@@QAEXPBUImFont@@MABUImVec2@@IPBD2MPBUImVec4@@@Z 1002fa90 f   imgui_draw.obj
 0001:0002ec40       ?AddTriangleFilled@ImDrawList@@QAEXABUImVec2@@00I@Z 1002fc40 f   imgui_draw.obj
 0001:0002ec90       ?Build@ImFontAtlas@@QAE_NXZ 1002fc90 f   imgui_draw.obj
 0001:0002ecb0       ?BuildLookupTable@ImFont@@QAEXXZ 1002fcb0 f   imgui_draw.obj
 0001:0002ef70       ?CalcTextSizeA@ImFont@@QBE?AUImVec2@@MMMPBD0PAPBD@Z 1002ff70 f   imgui_draw.obj
 0001:0002f280       ?CalcWordWrapPositionA@ImFont@@QBEPBDMPBD0M@Z 10030280 f   imgui_draw.obj
 0001:0002f4c0       ?ChannelsMerge@ImDrawList@@QAEXXZ 100304c0 f   imgui_draw.obj
 0001:0002f6b0       ?ChannelsSetCurrent@ImDrawList@@QAEXH@Z 100306b0 f   imgui_draw.obj
 0001:0002f780       ?ChannelsSplit@ImDrawList@@QAEXH@Z 10030780 f   imgui_draw.obj
 0001:0002f980       ?Clear@ImDrawList@@QAEXXZ  10030980 f   imgui_draw.obj
 0001:0002fa30       ?Clear@ImFont@@QAEXXZ      10030a30 f   imgui_draw.obj
 0001:0002faf0       ?Clear@ImFontAtlas@@QAEXXZ 10030af0 f   imgui_draw.obj
 0001:0002fb20       ?ClearFonts@ImFontAtlas@@QAEXXZ 10030b20 f   imgui_draw.obj
 0001:0002fba0       ?ClearFreeMemory@ImDrawList@@QAEXXZ 10030ba0 f   imgui_draw.obj
 0001:0002fcc0       ?ClearInputData@ImFontAtlas@@QAEXXZ 10030cc0 f   imgui_draw.obj
 0001:0002fe30       ?ClearTexData@ImFontAtlas@@QAEXXZ 10030e30 f   imgui_draw.obj
 0001:0002fe80       ?CustomRectRegister@ImFontAtlas@@QAEHIHH@Z 10030e80 f   imgui_draw.obj
 0001:00030040       ?FindGlyph@ImFont@@QBEPBUGlyph@1@G@Z 10031040 f   imgui_draw.obj
 0001:000300b0       ?GetGlyphRangesDefault@ImFontAtlas@@QAEPBGXZ 100310b0 f   imgui_draw.obj
 0001:000300d0       ?GetTexDataAsAlpha8@ImFontAtlas@@QAEXPAPAEPAH11@Z 100310d0 f   imgui_draw.obj
 0001:00030150       ?GetTexDataAsRGBA32@ImFontAtlas@@QAEXPAPAEPAH11@Z 10031150 f   imgui_draw.obj
 0001:00030250       ?GrowIndex@ImFont@@QAEXH@Z 10031250 f   imgui_draw.obj
 0001:00030330       ?ImFontAtlasBuildPackCustomRects@@YAXPAUImFontAtlas@@PAX@Z 10031330 f   imgui_draw.obj
 0001:00030510       ?ImFontAtlasBuildRegisterDefaultCustomRects@@YAXPAUImFontAtlas@@@Z 10031510 f   imgui_draw.obj
 0001:00030540       ?ImFontAtlasBuildRenderDefaultTexData@@YAXPAUImFontAtlas@@@Z 10031540 f   imgui_draw.obj
 0001:00030c70       ?ImFontAtlasBuildSetupFont@@YAXPAUImFontAtlas@@PAUImFont@@PAUImFontConfig@@MM@Z 10031c70 f   imgui_draw.obj
 0001:00030d00       ?ImFontAtlasBuildWithStbTruetype@@YA_NPAUImFontAtlas@@@Z 10031d00 f   imgui_draw.obj
 0001:000319c0       ?PathArcTo@ImDrawList@@QAEXABUImVec2@@MMMH@Z 100329c0 f   imgui_draw.obj
 0001:00031af0       ?PathArcToFast@ImDrawList@@QAEXABUImVec2@@MHH@Z 10032af0 f   imgui_draw.obj
 0001:00031d00       ?PathRect@ImDrawList@@QAEXABUImVec2@@0MH@Z 10032d00 f   imgui_draw.obj
 0001:00032070       ?PopClipRect@ImDrawList@@QAEXXZ 10033070 f   imgui_draw.obj
 0001:00032090       ?PopTextureID@ImDrawList@@QAEXXZ 10033090 f   imgui_draw.obj
 0001:000320b0       ?PrimRect@ImDrawList@@QAEXABUImVec2@@0I@Z 100330b0 f   imgui_draw.obj
 0001:00032320       ?PrimRectUV@ImDrawList@@QAEXABUImVec2@@000I@Z 10033320 f   imgui_draw.obj
 0001:000325c0       ?PrimReserve@ImDrawList@@QAEXHH@Z 100335c0 f   imgui_draw.obj
 0001:00032660       ?PrimWriteIdx@ImDrawList@@QAEXG@Z 10033660 f i imgui_draw.obj
 0001:00032690       ?PrimWriteVtx@ImDrawList@@QAEXABUImVec2@@0I@Z 10033690 f i imgui_draw.obj
 0001:000326f0       ?PushClipRect@ImDrawList@@QAEXUImVec2@@0_N@Z 100336f0 f   imgui_draw.obj
 0001:00032830       ?PushClipRectFullScreen@ImDrawList@@QAEXXZ 10033830 f   imgui_draw.obj
 0001:000328d0       ?PushTextureID@ImDrawList@@QAEXABQAX@Z 100338d0 f   imgui_draw.obj
 0001:00032900       ?RenderText@ImFont@@QBEXPAUImDrawList@@MUImVec2@@IABUImVec4@@PBD3M_N@Z 10033900 f   imgui_draw.obj
 0001:00033180       ?UpdateClipRect@ImDrawList@@QAEXXZ 10034180 f   imgui_draw.obj
 0001:000332f0       ?UpdateTextureID@ImDrawList@@QAEXXZ 100342f0 f   imgui_draw.obj
 0001:00033420       ?back@?$ImVector@UGlyph@ImFont@@@@QAEAAUGlyph@ImFont@@XZ 10034420 f i imgui_draw.obj
 0001:00033440       ?back@?$ImVector@UImFontConfig@@@@QAEAAUImFontConfig@@XZ 10034440 f i imgui_draw.obj
 0001:00033460       ?push_back@?$ImVector@UImDrawCmd@@@@QAEXABUImDrawCmd@@@Z 10034460 f i imgui_draw.obj
 0001:000334c0       ?push_back@?$ImVector@UImFontConfig@@@@QAEXABUImFontConfig@@@Z 100344c0 f i imgui_draw.obj
 0001:00033520       ?push_back@?$ImVector@UImVec4@@@@QAEXABUImVec4@@@Z 10034520 f i imgui_draw.obj
 0001:00033680       ?reserve@?$ImVector@UImDrawCmd@@@@QAEXH@Z 10034680 f i imgui_draw.obj
 0001:00033700       ?reserve@?$ImVector@UImFontConfig@@@@QAEXH@Z 10034700 f i imgui_draw.obj
 0001:00033770       ?reserve@?$ImVector@UImVec4@@@@QAEXH@Z 10034770 f i imgui_draw.obj
 0001:00033770       ?reserve@?$ImVector@Ustbrp_rect@@@@QAEXH@Z 10034770 f i imgui_draw.obj
 0001:000337f0       ?resize@?$ImVector@UImDrawCmd@@@@QAEXH@Z 100347f0 f i imgui_draw.obj
 0001:00033830       ?resize@?$ImVector@Ustbrp_rect@@@@QAEXH@Z 10034830 f i imgui_draw.obj
 0001:00033830       ?resize@?$ImVector@UImVec4@@@@QAEXH@Z 10034830 f i imgui_draw.obj
 0001:0003b3e0       __snprintf                 1003c3e0 f i imgui_draw.obj
 0001:0003b420       __vsnprintf                1003c420 f i imgui_draw.obj
 0001:0003cdd0       ??$GetOriginal@P6GXW4ClientFrameStage_t@@@Z@VMTHook@@QAEP6GXW4ClientFrameStage_t@@@ZI@Z 1003ddd0 f i fsn_hook.obj
 0001:0003cdd0       ??$GetOriginal@P6EXPAXPAVIMatRenderContext@@ABUDrawModelState_t@@ABUModelRenderInfo_t@@PAVmatrix3x4_t@@@Z@VMTHook@@QAEP6EXPAXPAVIMatRenderContext@@ABUDrawModelState_t@@ABUModelRenderInfo_t@@PAVmatrix3x4_t@@@ZI@Z 1003ddd0 f i dme_hook.obj
 0001:0003cdd0       ??$GetOriginal@P6GXPAUIDirect3DDevice9@@@Z@VMTHook@@QAEP6GXPAUIDirect3DDevice9@@@ZI@Z 1003ddd0 f i directx_preset_hook.obj
 0001:0003cdd0       ??$GetOriginal@P6IXPAX0@Z@VMTHook@@QAEP6IXPAX0@ZI@Z 1003ddd0 f i sceneend_hook.obj
 0001:0003cdd0       ??$GetOriginal@P6GXPAUIDirect3DDevice9@@PAU_D3DPRESENT_PARAMETERS_@@@Z@VMTHook@@QAEP6GXPAUIDirect3DDevice9@@PAU_D3DPRESENT_PARAMETERS_@@@ZI@Z 1003ddd0 f i directx_preset_hook.obj
 0001:0003cdd0       ??$GetOriginal@P6IXPAVISurface@@PAX@Z@VMTHook@@QAEP6IXPAVISurface@@PAX@ZI@Z 1003ddd0 f i lock_cursor_hook.obj
 0001:0003cdd0       ??$GetOriginal@P6IXPAX0PAVCViewSetup@@@Z@VMTHook@@QAEP6IXPAX0PAVCViewSetup@@@ZI@Z 1003ddd0 f i oview_hook.obj
 0001:0003cdd0       ??$GetOriginal@P6I_NPAVIClientMode@@PAXMPAVCUserCmd@@@Z@VMTHook@@QAEP6I_NPAVIClientMode@@PAXMPAVCUserCmd@@@ZI@Z 1003ddd0 f i createmove_hook.obj
 0001:0003cdd0       ??$GetOriginal@P6EXPAXI_N1@Z@VMTHook@@QAEP6EXPAXI_N1@ZI@Z 1003ddd0 f i painttraverse_hook.obj
 0001:0003cdf0       ??AVector@@QAEAAMH@Z       1003ddf0 f i createmove_hook.obj
 0001:0003ce10       ?Clamp@Vector@@QAE?AV1@XZ  1003de10 f i createmove_hook.obj
 0001:0003cee0       ?CreateMove@c_hooks@@SI_NPAVIClientMode@@PAXMPAVCUserCmd@@@Z 1003dee0 f   createmove_hook.obj
 0001:0003d100       ?DoAutostrafe@Misc@@ABEXXZ 1003e100 f i createmove_hook.obj
 0001:0003d2a0       ?DoBhop@Misc@@ABEXXZ       1003e2a0 f i createmove_hook.obj
 0001:0003d370       ?DoFakeLag@Misc@@ABEXXZ    1003e370 f i createmove_hook.obj
 0001:0003d8f0       ?MovementFix@Misc@@QAEXAAVVector@@@Z 1003e8f0 f i createmove_hook.obj
 0001:0003dc50       ?OnCreateMove@Misc@@QAEXXZ 1003ec50 f i createmove_hook.obj
 0001:0003dc90       ?Hooked_EndScene@c_hooks@@SGXPAUIDirect3DDevice9@@@Z 1003ec90 f   directx_preset_hook.obj
 0001:0003dd90       ?Hooked_EndScene_Reset@c_hooks@@SGXPAUIDirect3DDevice9@@PAU_D3DPRESENT_PARAMETERS_@@@Z 1003ed90 f   directx_preset_hook.obj
 0001:0003de80       ?create_objects@@YGXPAUIDirect3DDevice9@@@Z 1003ee80 f   directx_preset_hook.obj
 0001:0003dea0       ?end_present@@YGXPAUIDirect3DDevice9@@@Z 1003eea0 f   directx_preset_hook.obj
 0001:0003df90       ?invalidate_objects@@YGXXZ 1003ef90 f   directx_preset_hook.obj
 0001:0003dfa0       ?post_render@@YGXXZ        1003efa0 f   directx_preset_hook.obj
 0001:0003dfc0       ?pre_render@@YGXPAUIDirect3DDevice9@@@Z 1003efc0 f   directx_preset_hook.obj
 0001:0003e270       ?setup_resent@@YGXPAUIDirect3DDevice9@@@Z 1003f270 f   directx_preset_hook.obj
 0001:0003f310       ?DrawModelExecute@c_hooks@@SIXPAX0PAVIMatRenderContext@@ABUDrawModelState_t@@ABUModelRenderInfo_t@@PAVmatrix3x4_t@@@Z 10040310 f   dme_hook.obj
 0001:0003f410       ?GetModelName@IVModelInfo@@QAEPBDPBUmodel_t@@@Z 10040410 f i dme_hook.obj
 0001:0003f440       ?FireGameEvent@Event@@UAEXPAVIGameEvent@@@Z 10040440 f   event_hook.obj
 0001:0003f5a0       ?FrameStageNotify@c_hooks@@SGXW4ClientFrameStage_t@@@Z 100405a0 f   fsn_hook.obj
 0001:0003f670       ?SetValue@ConVar@@QAEXH@Z  10040670 f i fsn_hook.obj
 0001:0003f6a0       ?ThirdPerson@Misc@@QAEXW4ClientFrameStage_t@@@Z 100406a0 f i fsn_hook.obj
 0001:0003f850       ??__Kms@chrono_literals@literals@std@@YA?AV?$duration@_JU?$ratio@$00$0DOI@@std@@@chrono@3@_K@Z 10040850 f i hooking_init.obj
 0001:0003f870       ?FontCreate@ISurface@@QAEKXZ 10040870 f i hooking_init.obj
 0001:0003f8a0       ?SetFontGlyphSet@ISurface@@QAEXKPBDHHHHH@Z 100408a0 f i hooking_init.obj
 0001:0003f8f0       ?init_fonts@hooking@@QAEXXZ 100408f0 f   hooking_init.obj
 0001:0003f9a0       ?window_handle@hooking@@QAEXXZ 100409a0 f   hooking_init.obj
 0001:0003f9f0       ?LockCursor@c_hooks@@SIXPAVISurface@@PAX@Z 100409f0 f   lock_cursor_hook.obj
 0001:0003fac0       ?UnLockCursor@ISurface@@QAEXXZ 10040ac0 f i lock_cursor_hook.obj
 0001:0003faf0       ?GetViewPunchAngle@C_BaseEntity@@QAE?AVVector@@XZ 10040af0 f i oview_hook.obj
 0001:0003fb20       ?IsScoped@C_BaseEntity@@QAE_NXZ 10040b20 f i oview_hook.obj
 0001:0003fbe0       ?OverrideView@c_hooks@@SIXPAX0PAVCViewSetup@@@Z 10040be0 f   oview_hook.obj
 0001:0003fee0       ?Crosshair@Misc@@QAEXXZ    10040ee0 f i painttraverse_hook.obj
 0001:00040310       ?GetName@IPanel@@QAEPBDI@Z 10041310 f i painttraverse_hook.obj
 0001:00040340       ?PaintTraverse@c_hooks@@SIXPAXHI_N1@Z 10041340 f   painttraverse_hook.obj
 0001:00040570       ?SceneEnd@c_hooks@@SIXPAX0@Z 10041570 f   sceneend_hook.obj
 0001:00040630       ?WndProc@c_hooks@@SGJPAUHWND__@@IIJ@Z 10041630 f   wndproc_hook.obj
 0001:000406f0       ??$?8DU?$char_traits@D@std@@V?$allocator@D@1@@std@@YA_NABV?$basic_string@DU?$char_traits@D@std@@V?$allocator@D@2@@0@QBD@Z 100416f0 f i config_system.obj
 0001:00040710       ??$_Destroy_range1@V?$allocator@V?$basic_string@DU?$char_traits@D@std@@V?$allocator@D@2@@std@@@std@@@std@@YAXPAV?$basic_string@DU?$char_traits@D@std@@V?$allocator@D@2@@0@0AAV?$allocator@V?$basic_string@DU?$char_traits@D@std@@V?$allocator@D@2@@std@@@0@U?$integral_constant@_N$0A@@0@@Z 10041710 f i config_system.obj
 0001:00040750       ??$_Destroy_range@V?$allocator@V?$basic_string@DU?$char_traits@D@std@@V?$allocator@D@2@@std@@@std@@@std@@YAXPAV?$basic_string@DU?$char_traits@D@std@@V?$allocator@D@2@@0@0AAV?$allocator@V?$basic_string@DU?$char_traits@D@std@@V?$allocator@D@2@@std@@@0@@Z 10041750 f i config_system.obj
 0001:00040780       ??$_Fgetc@D@std@@YA_NAADPAU_iobuf@@@Z 10041780 f i config_system.obj
 0001:000407b0       ??$_Fputc@D@std@@YA_NDPAU_iobuf@@@Z 100417b0 f i config_system.obj
 0001:000407f0       ??$_Reallocate_grow_by@V<lambda_15711c68e099a15a58f4d77303cb286d>@@D@?$basic_string@DU?$char_traits@D@std@@V?$allocator@D@2@@std@@QAEAAV01@IV<lambda_15711c68e099a15a58f4d77303cb286d>@@D@Z 100417f0 f i config_system.obj
 0001:00040920       ??$_Ungetc@D@std@@YA_NABDPAU_iobuf@@@Z 10041920 f i config_system.obj
 0001:00040960       ??$destroy@V?$basic_string@DU?$char_traits@D@std@@V?$allocator@D@2@@std@@@?$_Default_allocator_traits@V?$allocator@V?$basic_string@DU?$char_traits@D@std@@V?$allocator@D@2@@std@@@std@@@std@@SAXAAV?$allocator@V?$basic_string@DU?$char_traits@D@std@@V?$allocator@D@2@@std@@@1@QAV?$basic_string@DU?$char_traits@D@std@@V?$allocator@D@2@@1@@Z 10041960 f i config_system.obj
 0001:00040970       ??$use_facet@V?$codecvt@DDU_Mbstatet@@@std@@@std@@YAABV?$codecvt@DDU_Mbstatet@@@0@ABVlocale@0@@Z 10041970 f i config_system.obj
 0001:00040a90       ??0<unnamed-type-cfg>@c_config@@QAE@XZ 10041a90 f i config_system.obj
 0001:00040af0       ??0?$basic_filebuf@DU?$char_traits@D@std@@@std@@QAE@PAU_iobuf@@@Z 10041af0 f i config_system.obj
 0001:00040b60       ??0?$basic_string@DU?$char_traits@D@std@@V?$allocator@D@2@@std@@QAE@XZ 10041b60 f i config_system.obj
 0001:00040bb0       ??0?$basic_string@_WU?$char_traits@_W@std@@V?$allocator@_W@2@@std@@QAE@XZ 10041bb0 f i config_system.obj
 0001:00040c00       ??0?$fpos@U_Mbstatet@@@std@@QAE@U_Mbstatet@@_J@Z 10041c00 f i config_system.obj
 0001:00040c40       ??0?$fpos@U_Mbstatet@@@std@@QAE@_J@Z 10041c40 f i config_system.obj
 0001:00040c80       ??0_Ref_count_base@std@@IAE@XZ 10041c80 f i config_system.obj
 0001:00040cb0       ??0bad_cast@std@@QAE@ABV01@@Z 10041cb0 f i config_system.obj
 0001:00040ce0       ??0bad_cast@std@@QAE@XZ    10041ce0 f i config_system.obj
 0001:00040d10       ??0c_config@@QAE@XZ        10041d10 f i config_system.obj
 0001:00040d40       ??0exception@std@@QAE@QBDH@Z 10041d40 f i config_system.obj
 0001:00040d70       ??0path@filesystem@std@@QAE@XZ 10041d70 f i config_system.obj
 0001:00040d90       ??1?$basic_filebuf@DU?$char_traits@D@std@@@std@@UAE@XZ 10041d90 f i config_system.obj
 0001:00040e00       ??1?$basic_ofstream@DU?$char_traits@D@std@@@std@@UAE@XZ 10041e00 f i config_system.obj
 0001:00040e60       ??1?$basic_string@_WU?$char_traits@_W@std@@V?$allocator@_W@2@@std@@QAE@XZ 10041e60 f i config_system.obj
 0001:00040eb0       ??1?$unique_ptr@V_Facet_base@std@@U?$default_delete@V_Facet_base@std@@@2@@std@@QAE@XZ 10041eb0 f i config_system.obj
 0001:00040ef0       ??1?$vector@V?$basic_string@DU?$char_traits@D@std@@V?$allocator@D@2@@std@@V?$allocator@V?$basic_string@DU?$char_traits@D@std@@V?$allocator@D@2@@std@@@2@@std@@QAE@XZ 10041ef0 f i config_system.obj
 0001:00040f30       ??1c_config@@QAE@XZ        10041f30 f i config_system.obj
 0001:00040f60       ??1locale@std@@QAE@XZ      10041f60 f i config_system.obj
 0001:00040fe0       ??1path@filesystem@std@@QAE@XZ 10041fe0 f i config_system.obj
 0001:00041000       ??B?$fpos@U_Mbstatet@@@std@@QBE_JXZ 10042000 f i config_system.obj
 0001:00041030       ??R<lambda_15711c68e099a15a58f4d77303cb286d>@@QBEXQADQBDID@Z 10042030 f i config_system.obj
 0001:00041090       ??R?$default_delete@V_Facet_base@std@@@std@@QBEXPAV_Facet_base@1@@Z 10042090 f i config_system.obj
 0001:000410d0       ??_D?$basic_ofstream@DU?$char_traits@D@std@@@std@@QAEXXZ 100420d0 f i config_system.obj
 0001:000410f2       ??_E?$basic_ofstream@DU?$char_traits@D@std@@@std@@$4PPPPPPPM@A@AEPAXI@Z 100420f2 f i config_system.obj
 0001:00041100       ??_G?$basic_filebuf@DU?$char_traits@D@std@@@std@@UAEPAXI@Z 10042100 f i config_system.obj
 0001:00041100       ??_E?$basic_filebuf@DU?$char_traits@D@std@@@std@@UAEPAXI@Z 10042100 f i config_system.obj
 0001:00041130       ??_E?$basic_ofstream@DU?$char_traits@D@std@@@std@@UAEPAXI@Z 10042130 f i config_system.obj
 0001:00041130       ??_G?$basic_ofstream@DU?$char_traits@D@std@@@std@@UAEPAXI@Z 10042130 f i config_system.obj
 0001:00041170       ??_G?$basic_string@DU?$char_traits@D@std@@V?$allocator@D@2@@std@@QAEPAXI@Z 10042170 f i config_system.obj
 0001:000411a0       ?_Destroy@?$vector@V?$basic_string@DU?$char_traits@D@std@@V?$allocator@D@2@@std@@V?$allocator@V?$basic_string@DU?$char_traits@D@std@@V?$allocator@D@2@@std@@@2@@std@@AAEXPAV?$basic_string@DU?$char_traits@D@std@@V?$allocator@D@2@@2@0@Z 100421a0 f i config_system.obj
 0001:000411d0       ?_Endwrite@?$basic_filebuf@DU?$char_traits@D@std@@@std@@IAE_NXZ 100421d0 f i config_system.obj
 0001:00041300       ?_Equal@?$basic_string@DU?$char_traits@D@std@@V?$allocator@D@2@@std@@QBE_NQBD@Z 10042300 f i config_system.obj
 0001:00041380       ?_Get_deleter@_Ref_count_base@std@@UBEPAXABVtype_info@@@Z 10042380 f i config_system.obj
 0001:00041390       ?_Getfacet@locale@std@@QBEPBVfacet@12@I@Z 10042390 f i config_system.obj
 0001:00041420       ?_Incref@_Ref_count_base@std@@QAEXXZ 10042420 f i config_system.obj
 0001:00041440       ?_Init@?$basic_filebuf@DU?$char_traits@D@std@@@std@@IAEXPAU_iobuf@@W4_Initfl@12@@Z 10042440 f i config_system.obj
 0001:00041510       ?_Initcvt@?$basic_filebuf@DU?$char_traits@D@std@@@std@@IAEXABV?$codecvt@DDU_Mbstatet@@@2@@Z 10042510 f i config_system.obj
 0001:00041560       ?_Large_string_engaged@?$_String_val@U?$_Simple_types@_W@std@@@std@@QBE_NXZ 10042560 f i config_system.obj
 0001:00041590       ?_Lock@?$basic_filebuf@DU?$char_traits@D@std@@@std@@UAEXXZ 10042590 f i config_system.obj
 0001:000415c0       ?_Reset_back@?$basic_filebuf@DU?$char_traits@D@std@@@std@@AAEXXZ 100425c0 f i config_system.obj
 0001:00041600       ?_Set_back@?$basic_filebuf@DU?$char_traits@D@std@@@std@@AAEXXZ 10042600 f i config_system.obj
 0001:00041660       ?_Tidy@?$vector@V?$basic_string@DU?$char_traits@D@std@@V?$allocator@D@2@@std@@V?$allocator@V?$basic_string@DU?$char_traits@D@std@@V?$allocator@D@2@@std@@@2@@std@@AAEXXZ 10042660 f i config_system.obj
 0001:00041710       ?_Tidy_deallocate@?$basic_string@_WU?$char_traits@_W@std@@V?$allocator@_W@2@@std@@QAEXXZ 10042710 f i config_system.obj
 0001:000417c0       ?_Tidy_init@?$basic_string@_WU?$char_traits@_W@std@@V?$allocator@_W@2@@std@@QAEXXZ 100427c0 f i config_system.obj
 0001:00041810       ?_Unlock@?$basic_filebuf@DU?$char_traits@D@std@@@std@@UAEXXZ 10042810 f i config_system.obj
 0001:00041840       ?assign@?$_WChar_traits@_W@std@@SAXAA_WAB_W@Z 10042840 f i config_system.obj
 0001:00041860       ?capacity@?$vector@V?$basic_string@DU?$char_traits@D@std@@V?$allocator@D@2@@std@@V?$allocator@V?$basic_string@DU?$char_traits@D@std@@V?$allocator@D@2@@std@@@2@@std@@QBEIXZ 10042860 f i config_system.obj
 0001:00041890       ?close@?$basic_filebuf@DU?$char_traits@D@std@@@std@@QAEPAV12@XZ 10042890 f i config_system.obj
 0001:00041900       ?deallocate@?$allocator@V?$basic_string@DU?$char_traits@D@std@@V?$allocator@D@2@@std@@@std@@QAEXQAV?$basic_string@DU?$char_traits@D@std@@V?$allocator@D@2@@2@I@Z 10042900 f i config_system.obj
 0001:00041920       ?deallocate@?$allocator@_W@std@@QAEXQA_WI@Z 10042920 f i config_system.obj
 0001:00041940       ?empty@?$basic_string@DU?$char_traits@D@std@@V?$allocator@D@2@@std@@QBE_NXZ 10042940 f i config_system.obj
 0001:00041970       ?eq_int_type@?$char_traits@D@std@@SA_NABH0@Z 10042970 f i config_system.obj
 0001:000419a0       ?front@?$basic_string@DU?$char_traits@D@std@@V?$allocator@D@2@@std@@QAEAADXZ 100429a0 f i config_system.obj
 0001:000419c0       ?imbue@?$basic_filebuf@DU?$char_traits@D@std@@@std@@MAEXABVlocale@2@@Z 100429c0 f i config_system.obj
 0001:000419f0       ?not_eof@?$char_traits@D@std@@SAHABH@Z 100429f0 f i config_system.obj
 0001:00041a40       ?overflow@?$basic_filebuf@DU?$char_traits@D@std@@@std@@MAEHH@Z 10042a40 f i config_system.obj
 0001:00041c30       ?pbackfail@?$basic_filebuf@DU?$char_traits@D@std@@@std@@MAEHH@Z 10042c30 f i config_system.obj
 0001:00041d90       ?push_back@?$basic_string@DU?$char_traits@D@std@@V?$allocator@D@2@@std@@QAEXD@Z 10042d90 f i config_system.obj
 0001:00041e20       ?seekoff@?$basic_filebuf@DU?$char_traits@D@std@@@std@@MAE?AV?$fpos@U_Mbstatet@@@2@_JHH@Z 10042e20 f i config_system.obj
 0001:00041f00       ?seekpos@?$basic_filebuf@DU?$char_traits@D@std@@@std@@MAE?AV?$fpos@U_Mbstatet@@@2@V32@H@Z 10042f00 f i config_system.obj
 0001:00041fa0       ?setbuf@?$basic_filebuf@DU?$char_traits@D@std@@@std@@MAEPAV?$basic_streambuf@DU?$char_traits@D@std@@@2@PAD_J@Z 10042fa0 f i config_system.obj
 0001:00042020       ?state@?$fpos@U_Mbstatet@@@std@@QBE?AU_Mbstatet@@XZ 10043020 f i config_system.obj
 0001:00042050       ?sync@?$basic_filebuf@DU?$char_traits@D@std@@@std@@MAEHXZ 10043050 f i config_system.obj
 0001:000420d0       ?to_char_type@?$char_traits@D@std@@SADABH@Z 100430d0 f i config_system.obj
 0001:000420e0       ?to_int_type@?$char_traits@D@std@@SAHABD@Z 100430e0 f i config_system.obj
 0001:000420f0       ?uflow@?$basic_filebuf@DU?$char_traits@D@std@@@std@@MAEHXZ 100430f0 f i config_system.obj
 0001:00042380       ?underflow@?$basic_filebuf@DU?$char_traits@D@std@@@std@@MAEHXZ 10043380 f i config_system.obj
 0001:00042420       ?xsgetn@?$basic_filebuf@DU?$char_traits@D@std@@@std@@MAE_JPAD_J@Z 10043420 f i config_system.obj
 0001:00042540       ?xsputn@?$basic_filebuf@DU?$char_traits@D@std@@@std@@MAE_JPBD_J@Z 10043540 f i config_system.obj
 0001:00042660       ??0c_menu@@QAE@XZ          10043660 f i menu_system.obj
 0001:00042680       ?Render@c_menu@@QAEXXZ     10043680 f   menu_system.obj
 0001:00043480       ?apply_fonts@c_menu@@QAEXXZ 10044480 f   menu_system.obj
 0001:00043500       ?legit_tab@@YAXXZ          10044500 f   menu_system.obj
 0001:00043820       ?misc_tab@@YAXXZ           10044820 f   menu_system.obj
 0001:00043a40       ?rage_tab@@YAXXZ           10044a40 f   menu_system.obj
 0001:00043d60       ?visuals_tab@@YAXXZ        10044d60 f   menu_system.obj
 0001:00044120       ?FireRate@C_BaseEntity@@QAEMXZ 10045120 f   CEntity.obj
 0001:00044990       ?FixSetupBones@C_BaseEntity@@QAEXPAVmatrix3x4_t@@@Z 10045990 f   CEntity.obj
 0001:00044a60       ?GetAbsOrigin@C_BaseEntity@@QAE?AVVector@@XZ 10045a60 f i CEntity.obj
 0001:00044aa0       ?GetHitbox@mstudiohitboxset_t@@QBEPAUmstudiobbox_t@@H@Z 10045aa0 f i CEntity.obj
 0001:00044ac0       ?GetHitboxPosition@C_BaseEntity@@QAE?AVVector@@HPAVmatrix3x4_t@@@Z 10045ac0 f   CEntity.obj
 0001:00044c30       ?GetHitboxPosition@C_BaseEntity@@QAE?AVVector@@HPAVmatrix3x4_t@@PAM@Z 10045c30 f   CEntity.obj
 0001:00044db0       ?GetHitboxSet@studiohdr_t@@QBEPAUmstudiohitboxset_t@@H@Z 10045db0 f i CEntity.obj
 0001:00044de0       ?GetStudiomodel@IVModelInfo@@QAEPAUstudiohdr_t@@PBUmodel_t@@@Z 10045de0 f i CEntity.obj
 0001:00044e10       ?IsKnifeorNade@C_BaseEntity@@QAE_NXZ 10045e10 f   CEntity.obj
 0001:00045030       ?SetAbsAngles@C_BaseEntity@@QAEXVVector@@@Z 10046030 f   CEntity.obj
 0001:000450f0       ?SetAbsOrigin@C_BaseEntity@@QAEXVVector@@@Z 100460f0 f   CEntity.obj
 0001:000451a0       ??$?6U?$char_traits@D@std@@@std@@YAAAV?$basic_ostream@DU?$char_traits@D@std@@@0@AAV10@PBD@Z 100461a0 f i Interfaces.obj
 0001:00045520       ??$?6V?$basic_ofstream@DU?$char_traits@D@std@@@std@@$$BY0BCC@D$0A@@std@@YA$$QAV?$basic_ofstream@DU?$char_traits@D@std@@@0@$$QAV10@AAY0BCC@$$CBD@Z 10046520 f i Interfaces.obj
 0001:00045550       ??$CaptureInterface@VIGameEventManager@@@interfaces@@YAPAVIGameEventManager@@PBD0@Z 10046550 f i Interfaces.obj
 0001:00045600       ??$FindClass@VCModelRender@@@interfaces@@YAPAVCModelRender@@V?$basic_string@DU?$char_traits@D@std@@V?$allocator@D@2@@std@@0_N@Z 10046600 f i Interfaces.obj
 0001:000457e0       ??$FindClass@VCPrediction@@@interfaces@@YAPAVCPrediction@@V?$basic_string@DU?$char_traits@D@std@@V?$allocator@D@2@@std@@0_N@Z 100467e0 f i Interfaces.obj
 0001:000459c0       ??$FindClass@VIBaseClientDLL@@@interfaces@@YAPAVIBaseClientDLL@@V?$basic_string@DU?$char_traits@D@std@@V?$allocator@D@2@@std@@0_N@Z 100469c0 f i Interfaces.obj
 0001:00045ba0       ??$FindClass@VICVar@@@interfaces@@YAPAVICVar@@V?$basic_string@DU?$char_traits@D@std@@V?$allocator@D@2@@std@@0_N@Z 10046ba0 f i Interfaces.obj
 0001:00045d80       ??$FindClass@VIClientEntityList@@@interfaces@@YAPAVIClientEntityList@@V?$basic_string@DU?$char_traits@D@std@@V?$allocator@D@2@@std@@0_N@Z 10046d80 f i Interfaces.obj
 0001:00045f60       ??$FindClass@VIEngineTrace@@@interfaces@@YAPAVIEngineTrace@@V?$basic_string@DU?$char_traits@D@std@@V?$allocator@D@2@@std@@0_N@Z 10046f60 f i Interfaces.obj
 0001:00046140       ??$FindClass@VIGameMovement@@@interfaces@@YAPAVIGameMovement@@V?$basic_string@DU?$char_traits@D@std@@V?$allocator@D@2@@std@@0_N@Z 10047140 f i Interfaces.obj
 0001:00046320       ??$FindClass@VIMaterialSystem@@@interfaces@@YAPAVIMaterialSystem@@V?$basic_string@DU?$char_traits@D@std@@V?$allocator@D@2@@std@@0_N@Z 10047320 f i Interfaces.obj
 0001:00046500       ??$FindClass@VIPanel@@@interfaces@@YAPAVIPanel@@V?$basic_string@DU?$char_traits@D@std@@V?$allocator@D@2@@std@@0_N@Z 10047500 f i Interfaces.obj
 0001:000466e0       ??$FindClass@VIPhysicsSurfaceProps@@@interfaces@@YAPAVIPhysicsSurfaceProps@@V?$basic_string@DU?$char_traits@D@std@@V?$allocator@D@2@@std@@0_N@Z 100476e0 f i Interfaces.obj
 0001:000468c0       ??$FindClass@VISurface@@@interfaces@@YAPAVISurface@@V?$basic_string@DU?$char_traits@D@std@@V?$allocator@D@2@@std@@0_N@Z 100478c0 f i Interfaces.obj
 0001:00046aa0       ??$FindClass@VIVEngineClient@@@interfaces@@YAPAVIVEngineClient@@V?$basic_string@DU?$char_traits@D@std@@V?$allocator@D@2@@std@@0_N@Z 10047aa0 f i Interfaces.obj
 0001:00046c80       ??$FindClass@VIVModelInfo@@@interfaces@@YAPAVIVModelInfo@@V?$basic_string@DU?$char_traits@D@std@@V?$allocator@D@2@@std@@0_N@Z 10047c80 f i Interfaces.obj
 0001:00046e60       ??$FindClass@VIVRenderView@@@interfaces@@YAPAVIVRenderView@@V?$basic_string@DU?$char_traits@D@std@@V?$allocator@D@2@@std@@0_N@Z 10047e60 f i Interfaces.obj
 0001:00047040       ??$sprintf_s@$0BAA@@@YAHAAY0BAA@DPBDZZ 10048040 f i Interfaces.obj
 0001:00047070       ??0?$basic_ofstream@DU?$char_traits@D@std@@@std@@QAE@PBDHH@Z 10048070 f i Interfaces.obj
 0001:00047190       ??0_Sentry_base@?$basic_ostream@DU?$char_traits@D@std@@@std@@QAE@AAV12@@Z 10048190 f i Interfaces.obj
 0001:000471f0       ??0sentry@?$basic_ostream@DU?$char_traits@D@std@@@std@@QAE@AAV12@@Z 100481f0 f i Interfaces.obj
 0001:000472c0       ??1_Sentry_base@?$basic_ostream@DU?$char_traits@D@std@@@std@@QAE@XZ 100482c0 f i Interfaces.obj
 0001:00047340       ??1sentry@?$basic_ostream@DU?$char_traits@D@std@@@std@@QAE@XZ 10048340 f i Interfaces.obj
 0001:000473a0       ??Bsentry@?$basic_ostream@DU?$char_traits@D@std@@@std@@QBE_NXZ 100483a0 f i Interfaces.obj
 0001:000473c0       ?Init@interfaces@@YAXXZ    100483c0 f   Interfaces.obj
 0001:00047920       ?open@?$basic_filebuf@DU?$char_traits@D@std@@@std@@QAEPAV12@PBDHH@Z 10048920 f i Interfaces.obj
 0001:000479e0       ??$isinf@M@@YA_NM@Z        100489e0 f i Math.obj
 0001:00047a20       ??$isnan@M@@YA_NM@Z        10048a20 f i Math.obj
 0001:00047a60       ??AVector@@QBEMH@Z         10048a60 f i Math.obj
 0001:00047a80       ??Amatrix3x4_t@@QBEPBMH@Z  10048a80 f i Math.obj
 0001:00047aa0       ?AngleVectors@Math@@QAEXABVVector@@PAV2@11@Z 10048aa0 f   Math.obj
 0001:00047c80       ?AngleVectors@Math@@QAEXABVVector@@PAV2@@Z 10048c80 f   Math.obj
 0001:00047d80       ?CalcAngle@Math@@QAE?AVVector@@ABV2@0@Z 10048d80 f   Math.obj
 0001:00047fd0       ?Clamp@Math@@QAE_NAAVVector@@@Z 10048fd0 f   Math.obj
 0001:000480c0       ?ClampAngles@Math@@QAEXAAVVector@@@Z 100490c0 f   Math.obj
 0001:00048160       ?CrossProduct@@YA?AVVector@@ABV1@0@Z 10049160 f i Math.obj
 0001:000481f0       ?Distance@Math@@QAEMVVector2D@@0@Z 100491f0 f   Math.obj
 0001:00048250       ?DotProduct@@YAMABVVector@@0@Z 10049250 f i Math.obj
 0001:000482a0       ?GRD_TO_BOG@Math@@QAEMM@Z  100492a0 f   Math.obj
 0001:000482d0       ?NormalizeAngles@Math@@QAEXAAVVector@@@Z 100492d0 f   Math.obj
 0001:00048380       ?NormalizeYaw@Math@@QAEMM@Z 10049380 f   Math.obj
 0001:00048420       ?RandomFloat@Math@@QAEMMM@Z 10049420 f   Math.obj
 0001:000484b0       ?VectorAngles@Math@@QAEXABVVector@@AAV2@1@Z 100494b0 f   Math.obj
 0001:000486b0       ?VectorAngles@Math@@QAEXABVVector@@AAV2@@Z 100496b0 f   Math.obj
 0001:00048930       ?VectorTransform@Math@@QAEXVVector@@Vmatrix3x4_t@@AAV2@@Z 10049930 f   Math.obj
 0001:00048ba0       ?atan2@@YAMMM@Z            10049ba0 f i Math.obj
 0001:00048bd0       ?atan@@YAMM@Z              10049bd0 f i Math.obj
 0001:00048bf0       ?fpclassify@@YAHM@Z        10049bf0 f i Math.obj
 0001:00048c10       ?round@@YAMM@Z             10049c10 f i Math.obj
 0001:00048c30       ?sin_cos@@YAXMPAM0@Z       10049c30 f   Math.obj
 0001:00048c70       _atan2f                    10049c70 f i Math.obj
 0001:00048cb0       _atanf                     10049cb0 f i Math.obj
 0001:00048cd0       ??$?0AAU?$equal_to@V?$basic_string@DU?$char_traits@D@std@@V?$allocator@D@2@@std@@@std@@M@?$_Compressed_pair@U?$equal_to@V?$basic_string@DU?$char_traits@D@std@@V?$allocator@D@2@@std@@@std@@M$00@std@@QAE@U_One_then_variadic_args_t@1@AAU?$equal_to@V?$basic_string@DU?$char_traits@D@std@@V?$allocator@D@2@@std@@@1@$$QAM@Z 10049cd0 f i NetvarManager.obj
 0001:00048d00       ??$?0AAU?$hash@V?$basic_string@DU?$char_traits@D@std@@V?$allocator@D@2@@std@@@std@@U_One_then_variadic_args_t@1@AAU?$equal_to@V?$basic_string@DU?$char_traits@D@std@@V?$allocator@D@2@@std@@@1@M@?$_Compressed_pair@U?$hash@V?$basic_string@DU?$char_traits@D@std@@V?$allocator@D@2@@std@@@std@@V?$_Compressed_pair@U?$equal_to@V?$basic_string@DU?$char_traits@D@std@@V?$allocator@D@2@@std@@@std@@M$00@2@$00@std@@QAE@U_One_then_variadic_args_t@1@AAU?$hash@V?$basic_string@DU?$char_traits@D@std@@V?$allocator@D@2@@std@@@1@$$QAU21@AAU?$equal_to@V?$basic_string@DU?$char_traits@D@std@@V?$allocator@D@2@@std@@@1@$$QAM@Z 10049d00 f i NetvarManager.obj
 0001:00048d70       ??$?0ABV?$allocator@U?$pair@$$CBV?$basic_string@DU?$char_traits@D@std@@V?$allocator@D@2@@std@@V?$shared_ptr@UNode@NetvarTree@@@2@@std@@@std@@$$V@?$_Compressed_pair@V?$allocator@U?$_List_node@U?$pair@$$CBV?$basic_string@DU?$char_traits@D@std@@V?$allocator@D@2@@std@@V?$shared_ptr@UNode@NetvarTree@@@2@@std@@PAX@std@@@std@@V?$_List_val@U?$_List_simple_types@U?$pair@$$CBV?$basic_string@DU?$char_traits@D@std@@V?$allocator@D@2@@std@@V?$shared_ptr@UNode@NetvarTree@@@2@@std@@@std@@@2@$00@std@@QAE@U_One_then_variadic_args_t@1@ABV?$allocator@U?$pair@$$CBV?$basic_string@DU?$char_traits@D@std@@V?$allocator@D@2@@std@@V?$shared_ptr@UNode@NetvarTree@@@2@@std@@@1@@Z 10049d70 f i NetvarManager.obj
 0001:00048da0       ??$?0ABV?$allocator@U?$pair@$$CBV?$basic_string@DU?$char_traits@D@std@@V?$allocator@D@2@@std@@V?$shared_ptr@UNode@NetvarTree@@@2@@std@@@std@@X@?$_List_alloc@U?$_List_base_types@U?$pair@$$CBV?$basic_string@DU?$char_traits@D@std@@V?$allocator@D@2@@std@@V?$shared_ptr@UNode@NetvarTree@@@2@@std@@V?$allocator@U?$pair@$$CBV?$basic_string@DU?$char_traits@D@std@@V?$allocator@D@2@@std@@V?$shared_ptr@UNode@NetvarTree@@@2@@std@@@2@@std@@@std@@QAE@ABV?$allocator@U?$pair@$$CBV?$basic_string@DU?$char_traits@D@std@@V?$allocator@D@2@@std@@V?$shared_ptr@UNode@NetvarTree@@@2@@std@@@1@@Z 10049da0 f i NetvarManager.obj
 0001:00048e00       ??$?0ABV?$allocator@U?$pair@$$CBV?$basic_string@DU?$char_traits@D@std@@V?$allocator@D@2@@std@@V?$shared_ptr@UNode@NetvarTree@@@2@@std@@@std@@X@?$_List_buy@U?$pair@$$CBV?$basic_string@DU?$char_traits@D@std@@V?$allocator@D@2@@std@@V?$shared_ptr@UNode@NetvarTree@@@2@@std@@V?$allocator@U?$pair@$$CBV?$basic_string@DU?$char_traits@D@std@@V?$allocator@D@2@@std@@V?$shared_ptr@UNode@NetvarTree@@@2@@std@@@2@@std@@QAE@ABV?$allocator@U?$pair@$$CBV?$basic_string@DU?$char_traits@D@std@@V?$allocator@D@2@@std@@V?$shared_ptr@UNode@NetvarTree@@@2@@std@@@1@@Z 10049e00 f i NetvarManager.obj
 0001:00048e30       ??$?0ABV?$allocator@V?$_List_unchecked_iterator@V?$_List_val@U?$_List_simple_types@U?$pair@$$CBV?$basic_string@DU?$char_traits@D@std@@V?$allocator@D@2@@std@@V?$shared_ptr@UNode@NetvarTree@@@2@@std@@@std@@@std@@@std@@@std@@$$V@?$_Compressed_pair@V?$allocator@V?$_List_unchecked_iterator@V?$_List_val@U?$_List_simple_types@U?$pair@$$CBV?$basic_string@DU?$char_traits@D@std@@V?$allocator@D@2@@std@@V?$shared_ptr@UNode@NetvarTree@@@2@@std@@@std@@@std@@@std@@@std@@V?$_Vector_val@U?$_Simple_types@V?$_List_unchecked_iterator@V?$_List_val@U?$_List_simple_types@U?$pair@$$CBV?$basic_string@DU?$char_traits@D@std@@V?$allocator@D@2@@std@@V?$shared_ptr@UNode@NetvarTree@@@2@@std@@@std@@@std@@@std@@@std@@@2@$00@std@@QAE@U_One_then_variadic_args_t@1@ABV?$allocator@V?$_List_unchecked_iterator@V?$_List_val@U?$_List_simple_types@U?$pair@$$CBV?$basic_string@DU?$char_traits@D@std@@V?$allocator@D@2@@std@@V?$shared_ptr@UNode@NetvarTree@@@2@@std@@@std@@@std@@@std@@@1@@Z 10049e30 f i NetvarManager.obj
 0001:00048e60       ??$?0ABV?$allocator@V?$_List_unchecked_iterator@V?$_List_val@U?$_List_simple_types@U?$pair@$$CBV?$basic_string@DU?$char_traits@D@std@@V?$allocator@D@2@@std@@V?$shared_ptr@UNode@NetvarTree@@@2@@std@@@std@@@std@@@std@@@std@@X@?$_Vector_alloc@U?$_Vec_base_types@V?$_List_unchecked_iterator@V?$_List_val@U?$_List_simple_types@U?$pair@$$CBV?$basic_string@DU?$char_traits@D@std@@V?$allocator@D@2@@std@@V?$shared_ptr@UNode@NetvarTree@@@2@@std@@@std@@@std@@@std@@V?$allocator@V?$_List_unchecked_iterator@V?$_List_val@U?$_List_simple_types@U?$pair@$$CBV?$basic_string@DU?$char_traits@D@std@@V?$allocator@D@2@@std@@V?$shared_ptr@UNode@NetvarTree@@@2@@std@@@std@@@std@@@std@@@2@@std@@@std@@QAE@ABV?$allocator@V?$_List_unchecked_iterator@V?$_List_val@U?$_List_simple_types@U?$pair@$$CBV?$basic_string@DU?$char_traits@D@std@@V?$allocator@D@2@@std@@V?$shared_ptr@UNode@NetvarTree@@@2@@std@@@std@@@std@@@std@@@1@@Z 10049e60 f i NetvarManager.obj
 0001:00048ea0       ??$?0H@?$_Ref_count_obj@UNode@NetvarTree@@@std@@QAE@$$QAH@Z 10049ea0 f i NetvarManager.obj
 0001:00048f30       ??$?0PBDABV?$shared_ptr@UNode@NetvarTree@@@std@@$0A@@?$pair@$$CBV?$basic_string@DU?$char_traits@D@std@@V?$allocator@D@2@@std@@V?$shared_ptr@UNode@NetvarTree@@@2@@std@@QAE@$$QAPBDABV?$shared_ptr@UNode@NetvarTree@@@1@@Z 10049f30 f i NetvarManager.obj
 0001:00048f80       ??$_Buynode@PBDABV?$shared_ptr@UNode@NetvarTree@@@std@@@?$_List_buy@U?$pair@$$CBV?$basic_string@DU?$char_traits@D@std@@V?$allocator@D@2@@std@@V?$shared_ptr@UNode@NetvarTree@@@2@@std@@V?$allocator@U?$pair@$$CBV?$basic_string@DU?$char_traits@D@std@@V?$allocator@D@2@@std@@V?$shared_ptr@UNode@NetvarTree@@@2@@std@@@2@@std@@QAEPAU?$_List_node@U?$pair@$$CBV?$basic_string@DU?$char_traits@D@std@@V?$allocator@D@2@@std@@V?$shared_ptr@UNode@NetvarTree@@@2@@std@@PAX@1@PAU21@0$$QAPBDABV?$shared_ptr@UNode@NetvarTree@@@1@@Z 10049f80 f i NetvarManager.obj
 0001:00049070       ??$_Copy_construct_from@UNode@NetvarTree@@@?$_Ptr_base@UNode@NetvarTree@@@std@@IAEXABV?$shared_ptr@UNode@NetvarTree@@@1@@Z 1004a070 f i NetvarManager.obj
 0001:000490b0       ??$_Enable_shared_from_this@UNode@NetvarTree@@U12@@std@@YAXABV?$shared_ptr@UNode@NetvarTree@@@0@PAUNode@NetvarTree@@@Z 1004a0b0 f i NetvarManager.obj
 0001:000490e0       ??$_Insert@PBDABV?$shared_ptr@UNode@NetvarTree@@@std@@@?$list@U?$pair@$$CBV?$basic_string@DU?$char_traits@D@std@@V?$allocator@D@2@@std@@V?$shared_ptr@UNode@NetvarTree@@@2@@std@@V?$allocator@U?$pair@$$CBV?$basic_string@DU?$char_traits@D@std@@V?$allocator@D@2@@std@@V?$shared_ptr@UNode@NetvarTree@@@2@@std@@@2@@std@@QAEXV?$_List_unchecked_const_iterator@V?$_List_val@U?$_List_simple_types@U?$pair@$$CBV?$basic_string@DU?$char_traits@D@std@@V?$allocator@D@2@@std@@V?$shared_ptr@UNode@NetvarTree@@@2@@std@@@std@@@std@@U_Iterator_base0@2@@1@$$QAPBDABV?$shared_ptr@UNode@NetvarTree@@@1@@Z 1004a0e0 f i NetvarManager.obj
 0001:00049160       ??$_Move_construct_from@UNode@NetvarTree@@@?$_Ptr_base@UNode@NetvarTree@@@std@@IAEX$$QAV01@@Z 1004a160 f i NetvarManager.obj
 0001:000491a0       ??$_Set_ptr_rep_and_enable_shared@UNode@NetvarTree@@@?$shared_ptr@UNode@NetvarTree@@@std@@AAEXPAUNode@NetvarTree@@PAV_Ref_count_base@1@@Z 1004a1a0 f i NetvarManager.obj
 0001:000491d0       ??$construct@U?$pair@$$CBV?$basic_string@DU?$char_traits@D@std@@V?$allocator@D@2@@std@@V?$shared_ptr@UNode@NetvarTree@@@2@@std@@PBDABV?$shared_ptr@UNode@NetvarTree@@@2@@?$_Default_allocator_traits@V?$allocator@U?$_List_node@U?$pair@$$CBV?$basic_string@DU?$char_traits@D@std@@V?$allocator@D@2@@std@@V?$shared_ptr@UNode@NetvarTree@@@2@@std@@PAX@std@@@std@@@std@@SAXAAV?$allocator@U?$_List_node@U?$pair@$$CBV?$basic_string@DU?$char_traits@D@std@@V?$allocator@D@2@@std@@V?$shared_ptr@UNode@NetvarTree@@@2@@std@@PAX@std@@@1@QAU?$pair@$$CBV?$basic_string@DU?$char_traits@D@std@@V?$allocator@D@2@@std@@V?$shared_ptr@UNode@NetvarTree@@@2@@1@$$QAPBDABV?$shared_ptr@UNode@NetvarTree@@@1@@Z 1004a1d0 f i NetvarManager.obj
 0001:00049220       ??$emplace@PBDABV?$shared_ptr@UNode@NetvarTree@@@std@@@?$_Hash@V?$_Umap_traits@V?$basic_string@DU?$char_traits@D@std@@V?$allocator@D@2@@std@@V?$shared_ptr@UNode@NetvarTree@@@2@V?$_Uhash_compare@V?$basic_string@DU?$char_traits@D@std@@V?$allocator@D@2@@std@@U?$hash@V?$basic_string@DU?$char_traits@D@std@@V?$allocator@D@2@@std@@@2@U?$equal_to@V?$basic_string@DU?$char_traits@D@std@@V?$allocator@D@2@@std@@@2@@2@V?$allocator@U?$pair@$$CBV?$basic_string@DU?$char_traits@D@std@@V?$allocator@D@2@@std@@V?$shared_ptr@UNode@NetvarTree@@@2@@std@@@2@$0A@@std@@@std@@QAE?AU?$pair@V?$_List_iterator@V?$_List_val@U?$_List_simple_types@U?$pair@$$CBV?$basic_string@DU?$char_traits@D@std@@V?$allocator@D@2@@std@@V?$shared_ptr@UNode@NetvarTree@@@2@@std@@@std@@@std@@@std@@_N@1@$$QAPBDABV?$shared_ptr@UNode@NetvarTree@@@1@@Z 1004a220 f i NetvarManager.obj
 0001:000492a0       ??$emplace_front@PBDABV?$shared_ptr@UNode@NetvarTree@@@std@@@?$list@U?$pair@$$CBV?$basic_string@DU?$char_traits@D@std@@V?$allocator@D@2@@std@@V?$shared_ptr@UNode@NetvarTree@@@2@@std@@V?$allocator@U?$pair@$$CBV?$basic_string@DU?$char_traits@D@std@@V?$allocator@D@2@@std@@V?$shared_ptr@UNode@NetvarTree@@@2@@std@@@2@@std@@QAEAAU?$pair@$$CBV?$basic_string@DU?$char_traits@D@std@@V?$allocator@D@2@@std@@V?$shared_ptr@UNode@NetvarTree@@@2@@1@$$QAPBDABV?$shared_ptr@UNode@NetvarTree@@@1@@Z 1004a2a0 f i NetvarManager.obj
 0001:00049310       ??$make_shared@UNode@NetvarTree@@H@std@@YA?AV?$shared_ptr@UNode@NetvarTree@@@0@$$QAH@Z 1004a310 f i NetvarManager.obj
 0001:000493f0       ??0?$_Hash@V?$_Umap_traits@V?$basic_string@DU?$char_traits@D@std@@V?$allocator@D@2@@std@@V?$shared_ptr@UNode@NetvarTree@@@2@V?$_Uhash_compare@V?$basic_string@DU?$char_traits@D@std@@V?$allocator@D@2@@std@@U?$hash@V?$basic_string@DU?$char_traits@D@std@@V?$allocator@D@2@@std@@@2@U?$equal_to@V?$basic_string@DU?$char_traits@D@std@@V?$allocator@D@2@@std@@@2@@2@V?$allocator@U?$pair@$$CBV?$basic_string@DU?$char_traits@D@std@@V?$allocator@D@2@@std@@V?$shared_ptr@UNode@NetvarTree@@@2@@std@@@2@$0A@@std@@@std@@QAE@ABV?$_Uhash_compare@V?$basic_string@DU?$char_traits@D@std@@V?$allocator@D@2@@std@@U?$hash@V?$basic_string@DU?$char_traits@D@std@@V?$allocator@D@2@@std@@@2@U?$equal_to@V?$basic_string@DU?$char_traits@D@std@@V?$allocator@D@2@@std@@@2@@1@ABV?$allocator@U?$pair@$$CBV?$basic_string@DU?$char_traits@D@std@@V?$allocator@D@2@@std@@V?$shared_ptr@UNode@NetvarTree@@@2@@std@@@1@@Z 1004a3f0 f i NetvarManager.obj
 0001:000494b0       ??0?$_Uhash_compare@V?$basic_string@DU?$char_traits@D@std@@V?$allocator@D@2@@std@@U?$hash@V?$basic_string@DU?$char_traits@D@std@@V?$allocator@D@2@@std@@@2@U?$equal_to@V?$basic_string@DU?$char_traits@D@std@@V?$allocator@D@2@@std@@@2@@std@@QAE@U?$hash@V?$basic_string@DU?$char_traits@D@std@@V?$allocator@D@2@@std@@@1@U?$equal_to@V?$basic_string@DU?$char_traits@D@std@@V?$allocator@D@2@@std@@@1@@Z 1004a4b0 f i NetvarManager.obj
 0001:000494f0       ??0?$_Umap_traits@V?$basic_string@DU?$char_traits@D@std@@V?$allocator@D@2@@std@@V?$shared_ptr@UNode@NetvarTree@@@2@V?$_Uhash_compare@V?$basic_string@DU?$char_traits@D@std@@V?$allocator@D@2@@std@@U?$hash@V?$basic_string@DU?$char_traits@D@std@@V?$allocator@D@2@@std@@@2@U?$equal_to@V?$basic_string@DU?$char_traits@D@std@@V?$allocator@D@2@@std@@@2@@2@V?$allocator@U?$pair@$$CBV?$basic_string@DU?$char_traits@D@std@@V?$allocator@D@2@@std@@V?$shared_ptr@UNode@NetvarTree@@@2@@std@@@2@$0A@@std@@QAE@ABV?$_Uhash_compare@V?$basic_string@DU?$char_traits@D@std@@V?$allocator@D@2@@std@@U?$hash@V?$basic_string@DU?$char_traits@D@std@@V?$allocator@D@2@@std@@@2@U?$equal_to@V?$basic_string@DU?$char_traits@D@std@@V?$allocator@D@2@@std@@@2@@1@@Z 1004a4f0 f i NetvarManager.obj
 0001:00049510       ??0?$list@U?$pair@$$CBV?$basic_string@DU?$char_traits@D@std@@V?$allocator@D@2@@std@@V?$shared_ptr@UNode@NetvarTree@@@2@@std@@V?$allocator@U?$pair@$$CBV?$basic_string@DU?$char_traits@D@std@@V?$allocator@D@2@@std@@V?$shared_ptr@UNode@NetvarTree@@@2@@std@@@2@@std@@QAE@ABV?$allocator@U?$pair@$$CBV?$basic_string@DU?$char_traits@D@std@@V?$allocator@D@2@@std@@V?$shared_ptr@UNode@NetvarTree@@@2@@std@@@1@@Z 1004a510 f i NetvarManager.obj
 0001:00049530       ??0?$shared_ptr@UNode@NetvarTree@@@std@@QAE@$$QAV01@@Z 1004a530 f i NetvarManager.obj
 0001:00049590       ??0?$shared_ptr@UNode@NetvarTree@@@std@@QAE@ABV01@@Z 1004a590 f i NetvarManager.obj
 0001:000495e0       ??0?$unordered_map@V?$basic_string@DU?$char_traits@D@std@@V?$allocator@D@2@@std@@V?$shared_ptr@UNode@NetvarTree@@@2@U?$hash@V?$basic_string@DU?$char_traits@D@std@@V?$allocator@D@2@@std@@@2@U?$equal_to@V?$basic_string@DU?$char_traits@D@std@@V?$allocator@D@2@@std@@@2@V?$allocator@U?$pair@$$CBV?$basic_string@DU?$char_traits@D@std@@V?$allocator@D@2@@std@@V?$shared_ptr@UNode@NetvarTree@@@2@@std@@@2@@std@@QAE@XZ 1004a5e0 f i NetvarManager.obj
 0001:00049620       ??0?$vector@V?$_List_unchecked_iterator@V?$_List_val@U?$_List_simple_types@U?$pair@$$CBV?$basic_string@DU?$char_traits@D@std@@V?$allocator@D@2@@std@@V?$shared_ptr@UNode@NetvarTree@@@2@@std@@@std@@@std@@@std@@V?$allocator@V?$_List_unchecked_iterator@V?$_List_val@U?$_List_simple_types@U?$pair@$$CBV?$basic_string@DU?$char_traits@D@std@@V?$allocator@D@2@@std@@V?$shared_ptr@UNode@NetvarTree@@@2@@std@@@std@@@std@@@std@@@2@@std@@QAE@ABV?$allocator@V?$_List_unchecked_iterator@V?$_List_val@U?$_List_simple_types@U?$pair@$$CBV?$basic_string@DU?$char_traits@D@std@@V?$allocator@D@2@@std@@V?$shared_ptr@UNode@NetvarTree@@@2@@std@@@std@@@std@@@std@@@1@@Z 1004a620 f i NetvarManager.obj
 0001:00049670       ??0NetvarTree@@QAE@XZ      1004a670 f   NetvarManager.obj
 0001:00049750       ??0Node@NetvarTree@@QAE@H@Z 1004a750 f i NetvarManager.obj
 0001:00049780       ??_G?$_Ref_count_obj@UNode@NetvarTree@@@std@@UAEPAXI@Z 1004a780 f i NetvarManager.obj
 0001:00049780       ??_E?$_Ref_count_obj@UNode@NetvarTree@@@std@@UAEPAXI@Z 1004a780 f i NetvarManager.obj
 0001:000497b0       ??_GNode@NetvarTree@@QAEPAXI@Z 1004a7b0 f i NetvarManager.obj
 0001:000497e0       ?GetDataTable@RecvProp@@QBEPAVRecvTable@@XZ 1004a7e0 f i NetvarManager.obj
 0001:00049800       ?GetName@RecvTable@@QAEPBDXZ 1004a800 f i NetvarManager.obj
 0001:00049820       ?GetNumProps@RecvTable@@QAEHXZ 1004a820 f i NetvarManager.obj
 0001:00049820       ?GetType@RecvProp@@QBE?AW4SendPropType@@XZ 1004a820 f i NetvarManager.obj
 0001:00049840       ?GetOffset@RecvProp@@QBEHXZ 1004a840 f i NetvarManager.obj
 0001:00049860       ?GetProp@RecvTable@@QAEPAVRecvProp@@H@Z 1004a860 f i NetvarManager.obj
 0001:00049880       ?PopulateNodes@NetvarTree@@AAEXPAVRecvTable@@PAV?$unordered_map@V?$basic_string@DU?$char_traits@D@std@@V?$allocator@D@2@@std@@V?$shared_ptr@UNode@NetvarTree@@@2@U?$hash@V?$basic_string@DU?$char_traits@D@std@@V?$allocator@D@2@@std@@@2@U?$equal_to@V?$basic_string@DU?$char_traits@D@std@@V?$allocator@D@2@@std@@@2@V?$allocator@U?$pair@$$CBV?$basic_string@DU?$char_traits@D@std@@V?$allocator@D@2@@std@@V?$shared_ptr@UNode@NetvarTree@@@2@@std@@@2@@std@@@Z 1004a880 f   NetvarManager.obj
 0001:00049980       ?_Buyheadnode@?$_List_alloc@U?$_List_base_types@U?$pair@$$CBV?$basic_string@DU?$char_traits@D@std@@V?$allocator@D@2@@std@@V?$shared_ptr@UNode@NetvarTree@@@2@@std@@V?$allocator@U?$pair@$$CBV?$basic_string@DU?$char_traits@D@std@@V?$allocator@D@2@@std@@V?$shared_ptr@UNode@NetvarTree@@@2@@std@@@2@@std@@@std@@QAEPAU?$_List_node@U?$pair@$$CBV?$basic_string@DU?$char_traits@D@std@@V?$allocator@D@2@@std@@V?$shared_ptr@UNode@NetvarTree@@@2@@std@@PAX@2@XZ 1004a980 f i NetvarManager.obj
 0001:000499a0       ?_Delete_this@?$_Ref_count_obj@UNode@NetvarTree@@@std@@EAEXXZ 1004a9a0 f i NetvarManager.obj
 0001:000499e0       ?_Destroy@?$_Ref_count_obj@UNode@NetvarTree@@@std@@EAEXXZ 1004a9e0 f i NetvarManager.obj
 0001:00049a30       ?_Getptr@?$_Ref_count_obj@UNode@NetvarTree@@@std@@QAEPAUNode@NetvarTree@@XZ 1004aa30 f i NetvarManager.obj
 0001:00049a50       ?_Set_ptr_rep@?$_Ptr_base@UNode@NetvarTree@@@std@@IAEXPAUNode@NetvarTree@@PAV_Ref_count_base@2@@Z 1004aa50 f i NetvarManager.obj
 0001:00049a6e       _K32GetModuleInformation@16 1004aa6e f   kernel32:KERNEL32.dll
 0001:00049a74       ?_Xlength_error@std@@YAXPBD@Z 1004aa74 f   msvcprt:MSVCP140.dll
 0001:00049a7a       __Xtime_get_ticks          1004aa7a f   msvcprt:MSVCP140.dll
 0001:00049a80       __Thrd_sleep               1004aa80 f   msvcprt:MSVCP140.dll
 0001:00049a86       ?_Xout_of_range@std@@YAXPBD@Z 1004aa86 f   msvcprt:MSVCP140.dll
 0001:00049a8c       ??1_Fac_node@std@@QAE@XZ   1004aa8c f i msvcprt:locale0_implib.obj
 0001:00049aeb       ??1_Fac_tidy_reg_t@std@@QAE@XZ 1004aaeb f i msvcprt:locale0_implib.obj
 0001:00049b12       ?_Facet_Register@std@@YAXPAV_Facet_base@1@@Z 1004ab12 f   msvcprt:locale0_implib.obj
 0001:00049b3e       ?_Getgloballocale@locale@std@@CAPAV_Locimp@12@XZ 1004ab3e f   msvcprt:MSVCP140.dll
 0001:00049b44       ?showmanyc@?$basic_streambuf@DU?$char_traits@D@std@@@std@@MAE_JXZ 1004ab44 f   msvcprt:MSVCP140.dll
 0001:00049b4a       ?uncaught_exception@std@@YA_NXZ 1004ab4a f   msvcprt:MSVCP140.dll
 0001:00049b50       ?_Fiopen@std@@YAPAU_iobuf@@PBDHH@Z 1004ab50 f   msvcprt:MSVCP140.dll
 0001:00049b56       ??_L@YGXPAXIIP6EX0@Z1@Z    1004ab56 f   MSVCRT:ehvecctr.obj
 0001:00049bca       ??_M@YGXPAXIIP6EX0@Z@Z     1004abca f   MSVCRT:ehvecdtr.obj
 0001:00049c4f       ?__ArrayUnwind@@YGXPAXIIP6EX0@Z@Z 1004ac4f f   MSVCRT:ehvecdtr.obj
 0001:00049cc8       ??2@YAPAXI@Z               1004acc8 f   MSVCRT:new_scalar.obj
 0001:00049cf8       ??3@YAXPAXI@Z              1004acf8 f   MSVCRT:delete_scalar_size.obj
 0001:00049d06       ??_U@YAPAXI@Z              1004ad06 f   MSVCRT:new_array.obj
 0001:00049d0f       ??_V@YAXPAX@Z              1004ad0f f   MSVCRT:delete_array.obj
 0001:00049d58       ___scrt_acquire_startup_lock 1004ad58 f   MSVCRT:utility.obj
 0001:00049d8a       ___scrt_dllmain_after_initialize_c 1004ad8a f   MSVCRT:utility.obj
 0001:00049db5       ___scrt_dllmain_before_initialize_c 1004adb5 f   MSVCRT:utility.obj
 0001:00049dc3       ___scrt_dllmain_crt_thread_attach 1004adc3 f   MSVCRT:utility.obj
 0001:00049de2       ___scrt_dllmain_crt_thread_detach 1004ade2 f   MSVCRT:utility.obj
 0001:00049def       ___scrt_dllmain_exception_filter 1004adef f   MSVCRT:utility.obj
 0001:00049e23       ___scrt_dllmain_uninitialize_c 1004ae23 f   MSVCRT:utility.obj
 0001:00049e46       ___scrt_dllmain_uninitialize_critical 1004ae46 f   MSVCRT:utility.obj
 0001:00049e53       ___scrt_initialize_crt     1004ae53 f   MSVCRT:utility.obj
 0001:00049e8c       ___scrt_initialize_onexit_tables 1004ae8c f   MSVCRT:utility.obj
 0001:00049f31       ___scrt_is_nonwritable_in_current_image 1004af31 f   MSVCRT:utility.obj
 0001:00049fc5       ___scrt_release_startup_lock 1004afc5 f   MSVCRT:utility.obj
 0001:00049fe2       ___scrt_uninitialize_crt   1004afe2 f   MSVCRT:utility.obj
 0001:0004a00a       __onexit                   1004b00a f   MSVCRT:utility.obj
 0001:0004a045       _atexit                    1004b045 f   MSVCRT:utility.obj
 0001:0004a05a       @__security_check_cookie@4 1004b05a f   MSVCRT:secchk.obj
 0001:0004a06b       ??_Etype_info@@UAEPAXI@Z   1004b06b f i MSVCRT:std_type_info_static.obj
 0001:0004a06b       ??_Gtype_info@@UAEPAXI@Z   1004b06b f i MSVCRT:std_type_info_static.obj
 0001:0004a090       __alldiv                   1004b090 f   MSVCRT:lldiv.obj
 0001:0004a140       __allmul                   1004b140 f   MSVCRT:llmul.obj
 0001:0004a174       ___raise_securityfailure   1004b174 f   MSVCRT:gs_report.obj
 0001:0004a19c       ___report_gsfailure        1004b19c f   MSVCRT:gs_report.obj
 0001:0004a295       ___report_rangecheckfailure 1004b295 f   MSVCRT:gs_report.obj
 0001:0004a2a1       ___report_securityfailure  1004b2a1 f   MSVCRT:gs_report.obj
 0001:0004a396       ??$__crt_fast_encode_pointer@P6GHPAU_RTL_CONDITION_VARIABLE@@PAU_RTL_CRITICAL_SECTION@@K@Z@@YAP6GHPAU_RTL_CONDITION_VARIABLE@@PAU_RTL_CRITICAL_SECTION@@K@ZQ6GH01K@Z@Z 1004b396 f i MSVCRT:thread_safe_statics.obj
 0001:0004a396       ??$__crt_fast_encode_pointer@P6GXPAU_RTL_CONDITION_VARIABLE@@@Z@@YAP6GXPAU_RTL_CONDITION_VARIABLE@@@ZQ6GX0@Z@Z 1004b396 f i MSVCRT:thread_safe_statics.obj
 0001:0004a4be       __Init_thread_abort        1004b4be f   MSVCRT:thread_safe_statics.obj
 0001:0004a4e2       __Init_thread_footer       1004b4e2 f   MSVCRT:thread_safe_statics.obj
 0001:0004a52c       __Init_thread_header       1004b52c f   MSVCRT:thread_safe_statics.obj
 0001:0004a57e       __Init_thread_notify       1004b57e f   MSVCRT:thread_safe_statics.obj
 0001:0004a5c0       __Init_thread_wait         1004b5c0 f   MSVCRT:thread_safe_statics.obj
 0001:0004a620       __chkstk                   1004b620 f   MSVCRT:chkstk.obj
 0001:0004a620       __alloca_probe             1004b620 f   MSVCRT:chkstk.obj
 0001:0004a650       __ftol2_sse                1004b650 f   MSVCRT:ftol2.obj
 0001:0004a659       __ftol2_pentium4           1004b659 f   MSVCRT:ftol2.obj
 0001:0004a66c       __ftol2_sse_excpt          1004b66c f   MSVCRT:ftol2.obj
 0001:0004a690       __ftol2                    1004b690 f   MSVCRT:ftol2.obj
 0001:0004a710       __ftoui3                   1004b710 f   MSVCRT:ftol3.obj
 0001:0004a71f       __ftoul3                   1004b71f f   MSVCRT:ftol3.obj
 0001:0004a72e       __ftol3                    1004b72e f   MSVCRT:ftol3.obj
 0001:0004a73b       __ftol3_NaN                1004b73b f   MSVCRT:ftol3.obj
 0001:0004a753       __ftol3_work               1004b753 f   MSVCRT:ftol3.obj
 0001:0004a7d9       __ftol3_common             1004b7d9 f   MSVCRT:ftol3.obj
 0001:0004a89b       __ftol3_arg_error          1004b89b f   MSVCRT:ftol3.obj
 0001:0004a8ad       __ftol3_except             1004b8ad f   MSVCRT:ftol3.obj
 0001:0004a8f1       __dtoui3                   1004b8f1 f   MSVCRT:ftol3.obj
 0001:0004a900       __dtoul3                   1004b900 f   MSVCRT:ftol3.obj
 0001:0004a90f       __dtol3                    1004b90f f   MSVCRT:ftol3.obj
 0001:0004a91c       __dtol3_NaN                1004b91c f   MSVCRT:ftol3.obj
 0001:0004a939       __dtol3_work               1004b939 f   MSVCRT:ftol3.obj
 0001:0004aa20       __ultod3                   1004ba20 f   MSVCRT:ftol3.obj
 0001:0004aa60       __ltod3                    1004ba60 f   MSVCRT:ftol3.obj
 0001:0004aa90       __alloca_probe_16          1004ba90 f   MSVCRT:alloca16.obj
 0001:0004aaa6       __alloca_probe_8           1004baa6     MSVCRT:alloca16.obj
 0001:0004aac0       __allshl                   1004bac0 f   MSVCRT:llshl.obj
 0001:0004adff       __DllMainCRTStartup@12     1004bdff f   MSVCRT:dll_dllmain.obj
 0001:0004ae22       @_guard_check_icall_nop@4  1004be22 f i MSVCRT:guard_support.obj
 0001:0004ae30       __SEH_prolog4              1004be30 f   MSVCRT:sehprolg4.obj
 0001:0004ae76       __SEH_epilog4              1004be76 f   MSVCRT:sehprolg4.obj
 0001:0004ae8b       __except_handler4          1004be8b f   MSVCRT:chandler4gs.obj
 0001:0004aeae       ??0bad_alloc@std@@QAE@ABV01@@Z 1004beae f i MSVCRT:throw_bad_alloc.obj
 0001:0004aec9       ??0bad_alloc@std@@QAE@XZ   1004bec9 f i MSVCRT:throw_bad_alloc.obj
 0001:0004aee1       ??0bad_array_new_length@std@@QAE@ABV01@@Z 1004bee1 f i MSVCRT:throw_bad_alloc.obj
 0001:0004aefc       ??0bad_array_new_length@std@@QAE@XZ 1004befc f i MSVCRT:throw_bad_alloc.obj
 0001:0004af14       ??1bad_alloc@std@@UAE@XZ   1004bf14 f i MSVCRT:throw_bad_alloc.obj
 0001:0004af14       ??1bad_array_new_length@std@@UAE@XZ 1004bf14 f i MSVCRT:throw_bad_alloc.obj
 0001:0004af25       ??_Gbad_alloc@std@@UAEPAXI@Z 1004bf25 f i MSVCRT:throw_bad_alloc.obj
 0001:0004af25       ??_Ebad_alloc@std@@UAEPAXI@Z 1004bf25 f i MSVCRT:throw_bad_alloc.obj
 0001:0004af25       ??_Gbad_array_new_length@std@@UAEPAXI@Z 1004bf25 f i MSVCRT:throw_bad_alloc.obj
 0001:0004af25       ??_Ebad_array_new_length@std@@UAEPAXI@Z 1004bf25 f i MSVCRT:throw_bad_alloc.obj
 0001:0004af52       ?__scrt_throw_std_bad_alloc@@YAXXZ 1004bf52 f   MSVCRT:throw_bad_alloc.obj
 0001:0004af6f       ?__scrt_throw_std_bad_array_new_length@@YAXXZ 1004bf6f f   MSVCRT:throw_bad_alloc.obj
 0001:0004af8c       ??3@YAXPAX@Z               1004bf8c f   MSVCRT:delete_scalar.obj
 0001:0004af91       ___isa_available_init      1004bf91 f   MSVCRT:cpu_disp.obj
 0001:0004b128       __get_startup_argv_mode    1004c128 f   MSVCRT:argv_mode.obj
 0001:0004b12c       ___scrt_is_ucrt_dll_in_use 1004c12c f   MSVCRT:ucrt_detection.obj
 0001:0004b138       ___scrt_fastfail           1004c138 f   MSVCRT:utility_desktop.obj
 0001:0004b252       __crt_debugger_hook        1004c252 f   MSVCRT:utility_desktop.obj
 0001:0004b2a7       ___security_init_cookie    1004c2a7 f   MSVCRT:gs_support.obj
 0001:0004b2f2       ?__scrt_initialize_type_info@@YAXXZ 1004c2f2 f   MSVCRT:tncleanup.obj
 0001:0004b2fe       ?__scrt_uninitialize_type_info@@YAXXZ 1004c2fe f   MSVCRT:tncleanup.obj
 0001:0004b30a       ___scrt_initialize_default_local_stdio_options 1004c30a f   MSVCRT:default_local_stdio_options.obj
 0001:0004b327       ___scrt_get_dyn_tls_init_callback 1004c327 f   MSVCRT:dyn_tls_init.obj
 0001:0004b32d       __RTC_Initialize           1004c32d f   MSVCRT:initsect.obj
 0001:0004b359       __RTC_Terminate            1004c359 f   MSVCRT:initsect.obj
 0001:0004b385       _ImmGetContext@4           1004c385 f   imm32:IMM32.dll
 0001:0004b38b       _ImmSetCompositionWindow@8 1004c38b f   imm32:IMM32.dll
 0001:0004b391       __purecall                 1004c391 f   vcruntime:VCRUNTIME140.dll
 0001:0004b397       ___std_exception_copy      1004c397 f   vcruntime:VCRUNTIME140.dll
 0001:0004b39d       ___std_exception_destroy   1004c39d f   vcruntime:VCRUNTIME140.dll
 0001:0004b3a3       __CxxThrowException@8      1004c3a3 f   vcruntime:VCRUNTIME140.dll
 0001:0004b3a9       ___CxxFrameHandler3        1004c3a9 f   vcruntime:VCRUNTIME140.dll
 0001:0004b3af       _memcpy                    1004c3af f   vcruntime:VCRUNTIME140.dll
 0001:0004b3b5       _memmove                   1004c3b5 f   vcruntime:VCRUNTIME140.dll
 0001:0004b3bb       _memset                    1004c3bb f   vcruntime:VCRUNTIME140.dll
 0001:0004b3c1       _memcmp                    1004c3c1 f   vcruntime:VCRUNTIME140.dll
 0001:0004b3c7       _memchr                    1004c3c7 f   vcruntime:VCRUNTIME140.dll
 0001:0004b3cd       _strchr                    1004c3cd f   vcruntime:VCRUNTIME140.dll
 0001:0004b3d3       _strstr                    1004c3d3 f   vcruntime:VCRUNTIME140.dll
 0001:0004b3d9       __except_handler4_common   1004c3d9 f   vcruntime:VCRUNTIME140.dll
 0001:0004b3df       ___std_type_info_destroy_list 1004c3df f   vcruntime:VCRUNTIME140.dll
 0001:0004b3e5       __libm_sse2_cos_precise    1004c3e5 f   ucrt:api-ms-win-crt-math-l1-1-0.dll
 0001:0004b3eb       __libm_sse2_sin_precise    1004c3eb f   ucrt:api-ms-win-crt-math-l1-1-0.dll
 0001:0004b3f1       __libm_sse2_sqrt_precise   1004c3f1 f   ucrt:api-ms-win-crt-math-l1-1-0.dll
 0001:0004b3f7       __libm_sse2_tan_precise    1004c3f7 f   ucrt:api-ms-win-crt-math-l1-1-0.dll
 0001:0004b3fd       __libm_sse2_pow_precise    1004c3fd f   ucrt:api-ms-win-crt-math-l1-1-0.dll
 0001:0004b403       _free                      1004c403 f   ucrt:api-ms-win-crt-heap-l1-1-0.dll
 0001:0004b409       _malloc                    1004c409 f   ucrt:api-ms-win-crt-heap-l1-1-0.dll
 0001:0004b40f       __CIfmod                   1004c40f f   ucrt:api-ms-win-crt-math-l1-1-0.dll
 0001:0004b415       _ceil                      1004c415 f   ucrt:api-ms-win-crt-math-l1-1-0.dll
 0001:0004b41b       _floor                     1004c41b f   ucrt:api-ms-win-crt-math-l1-1-0.dll
 0001:0004b421       _terminate                 1004c421 f   ucrt:api-ms-win-crt-runtime-l1-1-0.dll
 0001:0004b427       __CIatan2                  1004c427 f   ucrt:api-ms-win-crt-math-l1-1-0.dll
 0001:0004b42d       __libm_sse2_atan_precise   1004c42d f   ucrt:api-ms-win-crt-math-l1-1-0.dll
 0001:0004b433       __callnewh                 1004c433 f   ucrt:api-ms-win-crt-heap-l1-1-0.dll
 0001:0004b439       __seh_filter_dll           1004c439 f   ucrt:api-ms-win-crt-runtime-l1-1-0.dll
 0001:0004b43f       __configure_narrow_argv    1004c43f f   ucrt:api-ms-win-crt-runtime-l1-1-0.dll
 0001:0004b445       __initialize_narrow_environment 1004c445 f   ucrt:api-ms-win-crt-runtime-l1-1-0.dll
 0001:0004b44b       __initialize_onexit_table  1004c44b f   ucrt:api-ms-win-crt-runtime-l1-1-0.dll
 0001:0004b451       __register_onexit_function 1004c451 f   ucrt:api-ms-win-crt-runtime-l1-1-0.dll
 0001:0004b457       __execute_onexit_table     1004c457 f   ucrt:api-ms-win-crt-runtime-l1-1-0.dll
 0001:0004b45d       __crt_atexit               1004c45d f   ucrt:api-ms-win-crt-runtime-l1-1-0.dll
 0001:0004b463       __cexit                    1004c463 f   ucrt:api-ms-win-crt-runtime-l1-1-0.dll
 0001:0004b469       __except1                  1004c469 f   ucrt:api-ms-win-crt-math-l1-1-0.dll
 0001:0004b46f       __initterm                 1004c46f f   ucrt:api-ms-win-crt-runtime-l1-1-0.dll
 0001:0004b475       __initterm_e               1004c475 f   ucrt:api-ms-win-crt-runtime-l1-1-0.dll
 0001:0004b47b       _IsProcessorFeaturePresent@4 1004c47b f   kernel32:KERNEL32.dll
 0001:0004b481       ___acrt_initialize         1004c481 f   MSVCRT:ucrt_stubs.obj
 0001:0004b481       ___acrt_thread_attach      1004c481 f   MSVCRT:ucrt_stubs.obj
 0001:0004b481       ___acrt_uninitialize_critical 1004c481 f   MSVCRT:ucrt_stubs.obj
 0001:0004b481       ___acrt_uninitialize       1004c481 f   MSVCRT:ucrt_stubs.obj
 0001:0004b481       ___vcrt_thread_detach      1004c481 f   MSVCRT:ucrt_stubs.obj
 0001:0004b481       ___scrt_stub_for_acrt_uninitialize_critical 1004c481 f   MSVCRT:ucrt_stubs.obj
 0001:0004b481       ___scrt_stub_for_acrt_thread_detach 1004c481 f   MSVCRT:ucrt_stubs.obj
 0001:0004b481       ___vcrt_uninitialize_critical 1004c481 f   MSVCRT:ucrt_stubs.obj
 0001:0004b481       ___vcrt_initialize         1004c481 f   MSVCRT:ucrt_stubs.obj
 0001:0004b481       ___vcrt_uninitialize       1004c481 f   MSVCRT:ucrt_stubs.obj
 0001:0004b481       ___scrt_stub_for_acrt_uninitialize 1004c481 f   MSVCRT:ucrt_stubs.obj
 0001:0004b481       ___scrt_stub_for_acrt_initialize 1004c481 f   MSVCRT:ucrt_stubs.obj
 0001:0004b481       ___scrt_stub_for_acrt_thread_attach 1004c481 f   MSVCRT:ucrt_stubs.obj
 0001:0004b481       ___vcrt_thread_attach      1004c481 f   MSVCRT:ucrt_stubs.obj
 0001:0004b481       ___acrt_thread_detach      1004c481 f   MSVCRT:ucrt_stubs.obj
 0001:0004b484       __is_c_termination_complete 1004c484 f   MSVCRT:ucrt_stubs.obj
 0001:0004b484       ___scrt_stub_for_is_c_termination_complete 1004c484 f   MSVCRT:ucrt_stubs.obj
 0002:00000000       __imp__ImmGetContext@4     1004e000     imm32:IMM32.dll
 0002:00000004       __imp__ImmSetCompositionWindow@8 1004e004     imm32:IMM32.dll
 0002:00000008       \177IMM32_NULL_THUNK_DATA  1004e008     imm32:IMM32.dll
 0002:0000000c       __imp__K32GetModuleInformation@16 1004e00c     kernel32:KERNEL32.dll
 0002:00000010       __imp__Sleep@4             1004e010     kernel32:KERNEL32.dll
 0002:00000014       __imp__CreateThread@24     1004e014     kernel32:KERNEL32.dll
 0002:00000018       __imp__DisableThreadLibraryCalls@4 1004e018     kernel32:KERNEL32.dll
 0002:0000001c       __imp__FreeLibraryAndExitThread@8 1004e01c     kernel32:KERNEL32.dll
 0002:00000020       __imp__GetModuleHandleW@4  1004e020     kernel32:KERNEL32.dll
 0002:00000024       __imp__QueryPerformanceCounter@4 1004e024     kernel32:KERNEL32.dll
 0002:00000028       __imp__QueryPerformanceFrequency@4 1004e028     kernel32:KERNEL32.dll
 0002:0000002c       __imp__GlobalAlloc@8       1004e02c     kernel32:KERNEL32.dll
 0002:00000030       __imp__GlobalUnlock@4      1004e030     kernel32:KERNEL32.dll
 0002:00000034       __imp__GlobalLock@4        1004e034     kernel32:KERNEL32.dll
 0002:00000038       __imp__GetProcAddress@8    1004e038     kernel32:KERNEL32.dll
 0002:0000003c       __imp__GetSystemTimeAsFileTime@4 1004e03c     kernel32:KERNEL32.dll
 0002:00000040       __imp__GetCurrentThreadId@0 1004e040     kernel32:KERNEL32.dll
 0002:00000044       __imp__GetCurrentProcessId@0 1004e044     kernel32:KERNEL32.dll
 0002:00000048       __imp__IsDebuggerPresent@0 1004e048     kernel32:KERNEL32.dll
 0002:0000004c       __imp__CreateEventW@16     1004e04c     kernel32:KERNEL32.dll
 0002:00000050       __imp__WaitForSingleObjectEx@12 1004e050     kernel32:KERNEL32.dll
 0002:00000054       __imp__ResetEvent@4        1004e054     kernel32:KERNEL32.dll
 0002:00000058       __imp__SetEvent@4          1004e058     kernel32:KERNEL32.dll
 0002:0000005c       __imp__DeleteCriticalSection@4 1004e05c     kernel32:KERNEL32.dll
 0002:00000060       __imp__InitializeCriticalSectionAndSpinCount@8 1004e060     kernel32:KERNEL32.dll
 0002:00000064       __imp__LeaveCriticalSection@4 1004e064     kernel32:KERNEL32.dll
 0002:00000068       __imp__EnterCriticalSection@4 1004e068     kernel32:KERNEL32.dll
 0002:0000006c       __imp__IsProcessorFeaturePresent@4 1004e06c     kernel32:KERNEL32.dll
 0002:00000070       __imp__TerminateProcess@8  1004e070     kernel32:KERNEL32.dll
 0002:00000074       __imp__SetUnhandledExceptionFilter@4 1004e074     kernel32:KERNEL32.dll
 0002:00000078       __imp__VirtualProtect@16   1004e078     kernel32:KERNEL32.dll
 0002:0000007c       __imp__CloseHandle@4       1004e07c     kernel32:KERNEL32.dll
 0002:00000080       __imp__InitializeSListHead@4 1004e080     kernel32:KERNEL32.dll
 0002:00000084       __imp__GetModuleHandleA@4  1004e084     kernel32:KERNEL32.dll
 0002:00000088       __imp__UnhandledExceptionFilter@4 1004e088     kernel32:KERNEL32.dll
 0002:0000008c       __imp__GetCurrentProcess@0 1004e08c     kernel32:KERNEL32.dll
 0002:00000090       \177KERNEL32_NULL_THUNK_DATA 1004e090     kernel32:KERNEL32.dll
 0002:00000094       __imp_?egptr@?$basic_streambuf@DU?$char_traits@D@std@@@std@@IBEPADXZ 1004e094     msvcprt:MSVCP140.dll
 0002:00000098       __imp_?gbump@?$basic_streambuf@DU?$char_traits@D@std@@@std@@IAEXH@Z 1004e098     msvcprt:MSVCP140.dll
 0002:0000009c       __imp_?setg@?$basic_streambuf@DU?$char_traits@D@std@@@std@@IAEXPAD00@Z 1004e09c     msvcprt:MSVCP140.dll
 0002:000000a0       __imp_?epptr@?$basic_streambuf@DU?$char_traits@D@std@@@std@@IBEPADXZ 1004e0a0     msvcprt:MSVCP140.dll
 0002:000000a4       __imp_?_Gndec@?$basic_streambuf@DU?$char_traits@D@std@@@std@@IAEPADXZ 1004e0a4     msvcprt:MSVCP140.dll
 0002:000000a8       __imp_?_Gninc@?$basic_streambuf@DU?$char_traits@D@std@@@std@@IAEPADXZ 1004e0a8     msvcprt:MSVCP140.dll
 0002:000000ac       __imp_?_Gnavail@?$basic_streambuf@DU?$char_traits@D@std@@@std@@IBE_JXZ 1004e0ac     msvcprt:MSVCP140.dll
 0002:000000b0       __imp_?pbump@?$basic_streambuf@DU?$char_traits@D@std@@@std@@IAEXH@Z 1004e0b0     msvcprt:MSVCP140.dll
 0002:000000b4       __imp_?_Pninc@?$basic_streambuf@DU?$char_traits@D@std@@@std@@IAEPADXZ 1004e0b4     msvcprt:MSVCP140.dll
 0002:000000b8       __imp_?_Pnavail@?$basic_streambuf@DU?$char_traits@D@std@@@std@@IBE_JXZ 1004e0b8     msvcprt:MSVCP140.dll
 0002:000000bc       __imp_?_Init@?$basic_streambuf@DU?$char_traits@D@std@@@std@@IAEXXZ 1004e0bc     msvcprt:MSVCP140.dll
 0002:000000c0       __imp_?_Init@?$basic_streambuf@DU?$char_traits@D@std@@@std@@IAEXPAPAD0PAH001@Z 1004e0c0     msvcprt:MSVCP140.dll
 0002:000000c4       __imp_?xsgetn@?$basic_streambuf@DU?$char_traits@D@std@@@std@@MAE_JPAD_J@Z 1004e0c4     msvcprt:MSVCP140.dll
 0002:000000c8       __imp_?xsputn@?$basic_streambuf@DU?$char_traits@D@std@@@std@@MAE_JPBD_J@Z 1004e0c8     msvcprt:MSVCP140.dll
 0002:000000cc       __imp_??1?$basic_ios@DU?$char_traits@D@std@@@std@@UAE@XZ 1004e0cc     msvcprt:MSVCP140.dll
 0002:000000d0       __imp_?setstate@?$basic_ios@DU?$char_traits@D@std@@@std@@QAEXH_N@Z 1004e0d0     msvcprt:MSVCP140.dll
 0002:000000d4       __imp_??0?$basic_ios@DU?$char_traits@D@std@@@std@@IAE@XZ 1004e0d4     msvcprt:MSVCP140.dll
 0002:000000d8       __imp_??0?$basic_ostream@DU?$char_traits@D@std@@@std@@QAE@PAV?$basic_streambuf@DU?$char_traits@D@std@@@1@_N@Z 1004e0d8     msvcprt:MSVCP140.dll
 0002:000000dc       __imp_??1?$basic_ostream@DU?$char_traits@D@std@@@std@@UAE@XZ 1004e0dc     msvcprt:MSVCP140.dll
 0002:000000e0       __imp_?showmanyc@?$basic_streambuf@DU?$char_traits@D@std@@@std@@MAE_JXZ 1004e0e0     msvcprt:MSVCP140.dll
 0002:000000e4       __imp_?id@?$codecvt@DDU_Mbstatet@@@std@@2V0locale@2@A 1004e0e4     msvcprt:MSVCP140.dll
 0002:000000e8       __imp_?uncaught_exception@std@@YA_NXZ 1004e0e8     msvcprt:MSVCP140.dll
 0002:000000ec       __imp_?flags@ios_base@std@@QBEHXZ 1004e0ec     msvcprt:MSVCP140.dll
 0002:000000f0       __imp_?width@ios_base@std@@QBE_JXZ 1004e0f0     msvcprt:MSVCP140.dll
 0002:000000f4       __imp_?width@ios_base@std@@QAE_J_J@Z 1004e0f4     msvcprt:MSVCP140.dll
 0002:000000f8       __imp_?sputc@?$basic_streambuf@DU?$char_traits@D@std@@@std@@QAEHD@Z 1004e0f8     msvcprt:MSVCP140.dll
 0002:000000fc       __imp_?sputn@?$basic_streambuf@DU?$char_traits@D@std@@@std@@QAE_JPBD_J@Z 1004e0fc     msvcprt:MSVCP140.dll
 0002:00000100       __imp_?tie@?$basic_ios@DU?$char_traits@D@std@@@std@@QBEPAV?$basic_ostream@DU?$char_traits@D@std@@@2@XZ 1004e100     msvcprt:MSVCP140.dll
 0002:00000104       __imp_?rdbuf@?$basic_ios@DU?$char_traits@D@std@@@std@@QBEPAV?$basic_streambuf@DU?$char_traits@D@std@@@2@XZ 1004e104     msvcprt:MSVCP140.dll
 0002:00000108       __imp_?fill@?$basic_ios@DU?$char_traits@D@std@@@std@@QBEDXZ 1004e108     msvcprt:MSVCP140.dll
 0002:0000010c       __imp_?_Osfx@?$basic_ostream@DU?$char_traits@D@std@@@std@@QAEXXZ 1004e10c     msvcprt:MSVCP140.dll
 0002:00000110       __imp_?flush@?$basic_ostream@DU?$char_traits@D@std@@@std@@QAEAAV12@XZ 1004e110     msvcprt:MSVCP140.dll
 0002:00000114       __imp_?_Fiopen@std@@YAPAU_iobuf@@PBDHH@Z 1004e114     msvcprt:MSVCP140.dll
 0002:00000118       __imp_?good@ios_base@std@@QBE_NXZ 1004e118     msvcprt:MSVCP140.dll
 0002:0000011c       __imp_?gptr@?$basic_streambuf@DU?$char_traits@D@std@@@std@@IBEPADXZ 1004e11c     msvcprt:MSVCP140.dll
 0002:00000120       __imp_?eback@?$basic_streambuf@DU?$char_traits@D@std@@@std@@IBEPADXZ 1004e120     msvcprt:MSVCP140.dll
 0002:00000124       __imp_?getloc@?$basic_streambuf@DU?$char_traits@D@std@@@std@@QBE?AVlocale@2@XZ 1004e124     msvcprt:MSVCP140.dll
 0002:00000128       __imp_?_Getcat@?$codecvt@DDU_Mbstatet@@@std@@SAIPAPBVfacet@locale@2@PBV42@@Z 1004e128     msvcprt:MSVCP140.dll
 0002:0000012c       __imp_?unshift@?$codecvt@DDU_Mbstatet@@@std@@QBEHAAU_Mbstatet@@PAD1AAPAD@Z 1004e12c     msvcprt:MSVCP140.dll
 0002:00000130       __imp_?out@?$codecvt@DDU_Mbstatet@@@std@@QBEHAAU_Mbstatet@@PBD1AAPBDPAD3AAPAD@Z 1004e130     msvcprt:MSVCP140.dll
 0002:00000134       __imp_?in@?$codecvt@DDU_Mbstatet@@@std@@QBEHAAU_Mbstatet@@PBD1AAPBDPAD3AAPAD@Z 1004e134     msvcprt:MSVCP140.dll
 0002:00000138       __imp_??0?$basic_streambuf@DU?$char_traits@D@std@@@std@@IAE@XZ 1004e138     msvcprt:MSVCP140.dll
 0002:0000013c       __imp_?always_noconv@codecvt_base@std@@QBE_NXZ 1004e13c     msvcprt:MSVCP140.dll
 0002:00000140       __imp_?_Getgloballocale@locale@std@@CAPAV_Locimp@12@XZ 1004e140     msvcprt:MSVCP140.dll
 0002:00000144       __imp_??Bid@locale@std@@QAEIXZ 1004e144     msvcprt:MSVCP140.dll
 0002:00000148       __imp_??1?$basic_streambuf@DU?$char_traits@D@std@@@std@@UAE@XZ 1004e148     msvcprt:MSVCP140.dll
 0002:0000014c       __imp_??1_Lockit@std@@QAE@XZ 1004e14c     msvcprt:MSVCP140.dll
 0002:00000150       __imp_??0_Lockit@std@@QAE@H@Z 1004e150     msvcprt:MSVCP140.dll
 0002:00000154       __imp_?pptr@?$basic_streambuf@DU?$char_traits@D@std@@@std@@IBEPADXZ 1004e154     msvcprt:MSVCP140.dll
 0002:00000158       __imp_?_Xout_of_range@std@@YAXPBD@Z 1004e158     msvcprt:MSVCP140.dll
 0002:0000015c       __imp___Thrd_sleep         1004e15c     msvcprt:MSVCP140.dll
 0002:00000160       __imp___Xtime_get_ticks    1004e160     msvcprt:MSVCP140.dll
 0002:00000164       __imp_?_Xlength_error@std@@YAXPBD@Z 1004e164     msvcprt:MSVCP140.dll
 0002:00000168       \177MSVCP140_NULL_THUNK_DATA 1004e168     msvcprt:MSVCP140.dll
 0002:0000016c       __imp__SetWindowLongA@12   1004e16c     user32:USER32.dll
 0002:00000170       __imp__CallWindowProcA@20  1004e170     user32:USER32.dll
 0002:00000174       __imp__EmptyClipboard@0    1004e174     user32:USER32.dll
 0002:00000178       __imp__GetClipboardData@4  1004e178     user32:USER32.dll
 0002:0000017c       __imp__SetClipboardData@8  1004e17c     user32:USER32.dll
 0002:00000180       __imp__CloseClipboard@0    1004e180     user32:USER32.dll
 0002:00000184       __imp__OpenClipboard@4     1004e184     user32:USER32.dll
 0002:00000188       __imp__SetCursor@4         1004e188     user32:USER32.dll
 0002:0000018c       __imp__GetClientRect@8     1004e18c     user32:USER32.dll
 0002:00000190       __imp__GetKeyState@4       1004e190     user32:USER32.dll
 0002:00000194       __imp__MessageBoxA@16      1004e194     user32:USER32.dll
 0002:00000198       __imp__GetAsyncKeyState@4  1004e198     user32:USER32.dll
 0002:0000019c       __imp__FindWindowA@8       1004e19c     user32:USER32.dll
 0002:000001a0       \177USER32_NULL_THUNK_DATA 1004e1a0     user32:USER32.dll
 0002:000001a4       __imp___except_handler4_common 1004e1a4     vcruntime:VCRUNTIME140.dll
 0002:000001a8       __imp__strstr              1004e1a8     vcruntime:VCRUNTIME140.dll
 0002:000001ac       __imp__strchr              1004e1ac     vcruntime:VCRUNTIME140.dll
 0002:000001b0       __imp__memchr              1004e1b0     vcruntime:VCRUNTIME140.dll
 0002:000001b4       __imp__memset              1004e1b4     vcruntime:VCRUNTIME140.dll
 0002:000001b8       __imp____std_type_info_destroy_list 1004e1b8     vcruntime:VCRUNTIME140.dll
 0002:000001bc       __imp__memcpy              1004e1bc     vcruntime:VCRUNTIME140.dll
 0002:000001c0       __imp____CxxFrameHandler3  1004e1c0     vcruntime:VCRUNTIME140.dll
 0002:000001c4       __imp___CxxThrowException@8 1004e1c4     vcruntime:VCRUNTIME140.dll
 0002:000001c8       __imp____std_exception_destroy 1004e1c8     vcruntime:VCRUNTIME140.dll
 0002:000001cc       __imp____std_exception_copy 1004e1cc     vcruntime:VCRUNTIME140.dll
 0002:000001d0       __imp___purecall           1004e1d0     vcruntime:VCRUNTIME140.dll
 0002:000001d4       __imp__memmove             1004e1d4     vcruntime:VCRUNTIME140.dll
 0002:000001d8       __imp__memcmp              1004e1d8     vcruntime:VCRUNTIME140.dll
 0002:000001dc       \177VCRUNTIME140_NULL_THUNK_DATA 1004e1dc     vcruntime:VCRUNTIME140.dll
 0002:000001e0       __imp__mbstowcs_s          1004e1e0     ucrt:api-ms-win-crt-convert-l1-1-0.dll
 0002:000001e4       \177api-ms-win-crt-convert-l1-1-0_NULL_THUNK_DATA 1004e1e4     ucrt:api-ms-win-crt-convert-l1-1-0.dll
 0002:000001e8       __imp___unlock_file        1004e1e8     ucrt:api-ms-win-crt-filesystem-l1-1-0.dll
 0002:000001ec       __imp___lock_file          1004e1ec     ucrt:api-ms-win-crt-filesystem-l1-1-0.dll
 0002:000001f0       \177api-ms-win-crt-filesystem-l1-1-0_NULL_THUNK_DATA 1004e1f0     ucrt:api-ms-win-crt-filesystem-l1-1-0.dll
 0002:000001f4       __imp___callnewh           1004e1f4     ucrt:api-ms-win-crt-heap-l1-1-0.dll
 0002:000001f8       __imp__malloc              1004e1f8     ucrt:api-ms-win-crt-heap-l1-1-0.dll
 0002:000001fc       __imp__free                1004e1fc     ucrt:api-ms-win-crt-heap-l1-1-0.dll
 0002:00000200       \177api-ms-win-crt-heap-l1-1-0_NULL_THUNK_DATA 1004e200     ucrt:api-ms-win-crt-heap-l1-1-0.dll
 0002:00000204       __imp___libm_sse2_pow_precise 1004e204     ucrt:api-ms-win-crt-math-l1-1-0.dll
 0002:00000208       __imp___except1            1004e208     ucrt:api-ms-win-crt-math-l1-1-0.dll
 0002:0000020c       __imp___libm_sse2_sin_precise 1004e20c     ucrt:api-ms-win-crt-math-l1-1-0.dll
 0002:00000210       __imp___libm_sse2_cos_precise 1004e210     ucrt:api-ms-win-crt-math-l1-1-0.dll
 0002:00000214       __imp___libm_sse2_atan_precise 1004e214     ucrt:api-ms-win-crt-math-l1-1-0.dll
 0002:00000218       __imp___libm_sse2_tan_precise 1004e218     ucrt:api-ms-win-crt-math-l1-1-0.dll
 0002:0000021c       __imp__ceil                1004e21c     ucrt:api-ms-win-crt-math-l1-1-0.dll
 0002:00000220       __imp__floor               1004e220     ucrt:api-ms-win-crt-math-l1-1-0.dll
 0002:00000224       __imp___CIfmod             1004e224     ucrt:api-ms-win-crt-math-l1-1-0.dll
 0002:00000228       __imp___CIatan2            1004e228     ucrt:api-ms-win-crt-math-l1-1-0.dll
 0002:0000022c       __imp__roundf              1004e22c     ucrt:api-ms-win-crt-math-l1-1-0.dll
 0002:00000230       __imp__fmaxf               1004e230     ucrt:api-ms-win-crt-math-l1-1-0.dll
 0002:00000234       __imp___libm_sse2_sqrt_precise 1004e234     ucrt:api-ms-win-crt-math-l1-1-0.dll
 0002:00000238       __imp___fdtest             1004e238     ucrt:api-ms-win-crt-math-l1-1-0.dll
 0002:0000023c       \177api-ms-win-crt-math-l1-1-0_NULL_THUNK_DATA 1004e23c     ucrt:api-ms-win-crt-math-l1-1-0.dll
 0002:00000240       __imp___seh_filter_dll     1004e240     ucrt:api-ms-win-crt-runtime-l1-1-0.dll
 0002:00000244       __imp___cexit              1004e244     ucrt:api-ms-win-crt-runtime-l1-1-0.dll
 0002:00000248       __imp___crt_atexit         1004e248     ucrt:api-ms-win-crt-runtime-l1-1-0.dll
 0002:0000024c       __imp___execute_onexit_table 1004e24c     ucrt:api-ms-win-crt-runtime-l1-1-0.dll
 0002:00000250       __imp___initterm           1004e250     ucrt:api-ms-win-crt-runtime-l1-1-0.dll
 0002:00000254       __imp___initterm_e         1004e254     ucrt:api-ms-win-crt-runtime-l1-1-0.dll
 0002:00000258       __imp___register_onexit_function 1004e258     ucrt:api-ms-win-crt-runtime-l1-1-0.dll
 0002:0000025c       __imp___invalid_parameter_noinfo_noreturn 1004e25c     ucrt:api-ms-win-crt-runtime-l1-1-0.dll
 0002:00000260       __imp___initialize_onexit_table 1004e260     ucrt:api-ms-win-crt-runtime-l1-1-0.dll
 0002:00000264       __imp___initialize_narrow_environment 1004e264     ucrt:api-ms-win-crt-runtime-l1-1-0.dll
 0002:00000268       __imp___configure_narrow_argv 1004e268     ucrt:api-ms-win-crt-runtime-l1-1-0.dll
 0002:0000026c       __imp__terminate           1004e26c     ucrt:api-ms-win-crt-runtime-l1-1-0.dll
 0002:00000270       \177api-ms-win-crt-runtime-l1-1-0_NULL_THUNK_DATA 1004e270     ucrt:api-ms-win-crt-runtime-l1-1-0.dll
 0002:00000274       __imp____stdio_common_vfprintf 1004e274     ucrt:api-ms-win-crt-stdio-l1-1-0.dll
 0002:00000278       __imp__ftell               1004e278     ucrt:api-ms-win-crt-stdio-l1-1-0.dll
 0002:0000027c       __imp____stdio_common_vsscanf 1004e27c     ucrt:api-ms-win-crt-stdio-l1-1-0.dll
 0002:00000280       __imp__fread               1004e280     ucrt:api-ms-win-crt-stdio-l1-1-0.dll
 0002:00000284       __imp__fflush              1004e284     ucrt:api-ms-win-crt-stdio-l1-1-0.dll
 0002:00000288       __imp__fclose              1004e288     ucrt:api-ms-win-crt-stdio-l1-1-0.dll
 0002:0000028c       __imp___wfopen             1004e28c     ucrt:api-ms-win-crt-stdio-l1-1-0.dll
 0002:00000290       __imp____acrt_iob_func     1004e290     ucrt:api-ms-win-crt-stdio-l1-1-0.dll
 0002:00000294       __imp____stdio_common_vsprintf 1004e294     ucrt:api-ms-win-crt-stdio-l1-1-0.dll
 0002:00000298       __imp___get_stream_buffer_pointers 1004e298     ucrt:api-ms-win-crt-stdio-l1-1-0.dll
 0002:0000029c       __imp__fgetc               1004e29c     ucrt:api-ms-win-crt-stdio-l1-1-0.dll
 0002:000002a0       __imp__fputc               1004e2a0     ucrt:api-ms-win-crt-stdio-l1-1-0.dll
 0002:000002a4       __imp__fsetpos             1004e2a4     ucrt:api-ms-win-crt-stdio-l1-1-0.dll
 0002:000002a8       __imp___fseeki64           1004e2a8     ucrt:api-ms-win-crt-stdio-l1-1-0.dll
 0002:000002ac       __imp__fwrite              1004e2ac     ucrt:api-ms-win-crt-stdio-l1-1-0.dll
 0002:000002b0       __imp__setvbuf             1004e2b0     ucrt:api-ms-win-crt-stdio-l1-1-0.dll
 0002:000002b4       __imp____stdio_common_vsprintf_s 1004e2b4     ucrt:api-ms-win-crt-stdio-l1-1-0.dll
 0002:000002b8       __imp__ungetc              1004e2b8     ucrt:api-ms-win-crt-stdio-l1-1-0.dll
 0002:000002bc       __imp__fseek               1004e2bc     ucrt:api-ms-win-crt-stdio-l1-1-0.dll
 0002:000002c0       __imp__fgetpos             1004e2c0     ucrt:api-ms-win-crt-stdio-l1-1-0.dll
 0002:000002c4       \177api-ms-win-crt-stdio-l1-1-0_NULL_THUNK_DATA 1004e2c4     ucrt:api-ms-win-crt-stdio-l1-1-0.dll
 0002:000002c8       __imp__toupper             1004e2c8     ucrt:api-ms-win-crt-string-l1-1-0.dll
 0002:000002cc       \177api-ms-win-crt-string-l1-1-0_NULL_THUNK_DATA 1004e2cc     ucrt:api-ms-win-crt-string-l1-1-0.dll
 0002:000002d0       __imp__qsort               1004e2d0     ucrt:api-ms-win-crt-utility-l1-1-0.dll
 0002:000002d4       __imp__rand                1004e2d4     ucrt:api-ms-win-crt-utility-l1-1-0.dll
 0002:000002d8       \177api-ms-win-crt-utility-l1-1-0_NULL_THUNK_DATA 1004e2d8     ucrt:api-ms-win-crt-utility-l1-1-0.dll
 0002:000002dc       ___guard_check_icall_fptr  1004e2dc     MSVCRT:guard_support.obj
 0002:000002e0       ___xc_a                    1004e2e0     MSVCRT:initializers.obj
 0002:000003ac       ___xc_z                    1004e3ac     MSVCRT:initializers.obj
 0002:000003b0       ___xi_a                    1004e3b0     MSVCRT:initializers.obj
 0002:000003b8       ___xi_z                    1004e3b8     MSVCRT:initializers.obj
 0002:000003bc       ___xl_a                    1004e3bc     MSVCRT:tlssup.obj
 0002:000003c0       ___xl_z                    1004e3c0     MSVCRT:tlssup.obj
 0002:000003c4       ___xp_a                    1004e3c4     MSVCRT:initializers.obj
 0002:000003c8       ___xp_z                    1004e3c8     MSVCRT:initializers.obj
 0002:000003cc       ___xt_a                    1004e3cc     MSVCRT:initializers.obj
 0002:000003d0       ___xt_z                    1004e3d0     MSVCRT:initializers.obj
 0002:00000460       ??_7exception@std@@6B@     1004e460     c_hooks.obj
 0002:00000468       ??_C@_0BC@EOODALEL@Unknown?5exception@ 1004e468     c_hooks.obj
 0002:00000480       ??_7runtime_error@std@@6B@ 1004e480     c_hooks.obj
 0002:0000048c       ??_7IGameEventListener@@6B@ 1004e48c     c_hooks.obj
 0002:0000049c       ??_7Event@@6B@             1004e49c     c_hooks.obj
 0002:000004a8       ??_C@_0M@GPCKBPEK@player_hurt@ 1004e4a8     c_hooks.obj
 0002:000004b4       ??_C@_0BK@ILCFOOBA@Failed?5to?5protect?5region?$CB@ 1004e4b4     c_hooks.obj
 0002:000004d0       ??_C@_0BA@JFNIOLAK@string?5too?5long@ 1004e4d0     c_hooks.obj
 0002:00000560       ?piecewise_construct@std@@3Upiecewise_construct_t@1@B 1004e560     Aimbot.obj
 0002:00000564       ??_C@_0O@NDBNDAKG@DT_BaseEntity@ 1004e564     Aimbot.obj
 0002:00000574       ??_C@_0BA@MIGFFMNM@m_hActiveWeapon@ 1004e574     Aimbot.obj
 0002:00000584       ??_C@_0BH@EFEKCINC@DT_BaseCombatCharacter@ 1004e584     Aimbot.obj
 0002:0000059c       ??_C@_0L@OEKNBODE@m_iTeamNum@ 1004e59c     Aimbot.obj
 0002:000005a8       ??_C@_08JPGJABNM@m_fFlags@ 1004e5a8     Aimbot.obj
 0002:000005b4       ??_C@_0O@KNDKHNCF@DT_BasePlayer@ 1004e5b4     Aimbot.obj
 0002:000005c4       ??_C@_0BD@IDNCLOOB@m_flSimulationTime@ 1004e5c4     Aimbot.obj
 0002:000005d8       ??_C@_0M@LGBCIIFJ@DT_CSPlayer@ 1004e5d8     Aimbot.obj
 0002:000005e4       ??_C@_0M@GDCAJHLF@m_lifeState@ 1004e5e4     Aimbot.obj
 0002:000005f0       ??_C@_09FOIALPOM@m_iHealth@ 1004e5f0     Aimbot.obj
 0002:000005fc       ??_C@_0M@MBFMJJPI@m_nTickBase@ 1004e5fc     Aimbot.obj
 0002:00000608       ??_C@_09JINBMJKL@localdata@ 1004e608     Aimbot.obj
 0002:00000614       ??_C@_0P@PAJMEMKA@m_angEyeAngles@ 1004e614     Aimbot.obj
 0002:00000624       ??_C@_0M@BAFECOKC@m_vecOrigin@ 1004e624     Aimbot.obj
 0002:00000630       ??_C@_0BB@CHJEEOLK@m_vecVelocity?$FL0?$FN@ 1004e630     Aimbot.obj
 0002:00000644       ??_C@_0BD@LCOIAPKE@m_fAccuracyPenalty@ 1004e644     Aimbot.obj
 0002:00000658       ??_C@_0BA@GJLMCNFJ@DT_WeaponCSBase@ 1004e658     Aimbot.obj
 0002:00000668       ??_C@_0BA@PHEHCCBG@m_fLastShotTime@ 1004e668     Aimbot.obj
 0002:00000678       ??_C@_0BG@IBOJPCLN@m_flNextPrimaryAttack@ 1004e678     Aimbot.obj
 0002:00000690       ??_C@_0BG@JBGBGMFE@LocalActiveWeaponData@ 1004e690     Aimbot.obj
 0002:000006a8       ??_C@_0BE@OBECLDDP@DT_BaseCombatWeapon@ 1004e6a8     Aimbot.obj
 0002:000006bc       ??_C@_0BL@KOKKEGGO@invalid?5deque?$DMT?$DO?5subscript@ 1004e6bc     Aimbot.obj
 0002:000006d8       ??_C@_0BD@OLBABOEK@vector?$DMT?$DO?5too?5long@ 1004e6d8     Aimbot.obj
 0002:000006ec       ??_C@_0BB@MOGOBHAF@list?$DMT?$DO?5too?5long@ 1004e6ec     Aimbot.obj
 0002:00000700       __real@00000000            1004e700     Aimbot.obj
 0002:00000704       __real@34000000            1004e704     Aimbot.obj
 0002:00000708       __real@3eae147b            1004e708     Aimbot.obj
 0002:0000070c       __real@3f800000            1004e70c     Aimbot.obj
 0002:00000710       __real@3fe0000000000000    1004e710     Aimbot.obj
 0002:00000718       __real@400921fb54442d18    1004e718     Aimbot.obj
 0002:00000720       __real@400ccccd            1004e720     Aimbot.obj
 0002:00000728       __real@4066800000000000    1004e728     Aimbot.obj
 0002:00000730       __real@40a00000            1004e730     Aimbot.obj
 0002:00000734       __real@40c90fdb            1004e734     Aimbot.obj
 0002:00000738       __real@41200000            1004e738     Aimbot.obj
 0002:0000073c       __real@41e80000            1004e73c     Aimbot.obj
 0002:00000740       __real@41f00000            1004e740     Aimbot.obj
 0002:00000744       __real@42c80000            1004e744     Aimbot.obj
 0002:00000748       __real@43340000            1004e748     Aimbot.obj
 0002:0000074c       __real@43570000            1004e74c     Aimbot.obj
 0002:00000750       __real@43800000            1004e750     Aimbot.obj
 0002:00000754       __real@43b20000            1004e754     Aimbot.obj
 0002:00000758       __real@43c80000            1004e758     Aimbot.obj
 0002:0000075c       __real@453b8000            1004e75c     Aimbot.obj
 0002:00000760       __real@47c35000            1004e760     Aimbot.obj
 0002:00000764       __real@49742400            1004e764     Aimbot.obj
 0002:00000770       __xmm@41f00000000000000000000000000000 1004e770     Aimbot.obj
 0002:00000780       __xmm@7fffffffffffffff7fffffffffffffff 1004e780     Aimbot.obj
 0002:00000790       __xmm@80000000800000008000000080000000 1004e790     Aimbot.obj
 0002:00000828       ??_C@_0N@IIBEIILJ@m_ArmorValue@ 1004e828     Autowall.obj
 0002:00000838       ??_C@_0N@KELFAIEF@m_bHasHelmet@ 1004e838     Autowall.obj
 0002:0000084c       ??_7ITraceFilter@@6B@      1004e84c     Autowall.obj
 0002:00000858       ??_7C_TraceFilter@@6B@     1004e858     Autowall.obj
 0002:00000860       __real@3d4ccccd            1004e860     Autowall.obj
 0002:00000864       __real@3dcccccd            1004e864     Autowall.obj
 0002:00000868       __real@3e23d70a            1004e868     Autowall.obj
 0002:0000086c       __real@3f000000            1004e86c     Autowall.obj
 0002:00000870       __real@3f400000            1004e870     Autowall.obj
 0002:00000878       __real@3f60624dd2f1a9fc    1004e878     Autowall.obj
 0002:00000880       __real@3fa00000            1004e880     Autowall.obj
 0002:00000884       __real@40000000            1004e884     Autowall.obj
 0002:00000888       __real@40400000            1004e888     Autowall.obj
 0002:0000088c       __real@40800000            1004e88c     Autowall.obj
 0002:00000890       __real@41c00000            1004e890     Autowall.obj
 0002:00000894       __real@42200000            1004e894     Autowall.obj
 0002:0000090c       ??_C@_0BE@HFJPMIJB@m_hConstraintEntity@ 1004e90c     EnginePrediction.obj
 0002:000009ac       ??_C@_0BC@KBDMBKEH@deque?$DMT?$DO?5too?5long@ 1004e9ac     LagComp.obj
 0002:000009c0       __real@3e4ccccd            1004e9c0     LagComp.obj
 0002:000009c4       __real@42340000            1004e9c4     AntiAim.obj
 0002:000009c8       __real@42480000            1004e9c8     AntiAim.obj
 0002:000009cc       __real@42a00000            1004e9cc     AntiAim.obj
 0002:000009d0       __real@42b3cccd            1004e9d0     AntiAim.obj
 0002:000009d4       __real@42b40000            1004e9d4     AntiAim.obj
 0002:000009d8       ??_C@_0CC@KGCKDAPP@0F?510?505?5?$DP?5?$DP?5?$DP?5?$DP?58D?585?5?$DP?5?$DP?5?$DP?5?$DP?5@ 1004e9d8     Legitbot.obj
 0002:000009fc       ??_C@_0BE@FJNGABL@client_panorama?4dll@ 1004e9fc     Legitbot.obj
 0002:00000a10       __real@3a83126f            1004ea10     Legitbot.obj
 0002:00000a14       ??_C@_0BH@BMLKANBG@m_bClientSideAnimation@ 1004ea14     Resolver.obj
 0002:00000a2c       ??_C@_0BB@POPPCPOC@DT_BaseAnimating@ 1004ea2c     Resolver.obj
 0002:00000a40       ??_C@_0BH@GJAPHBOD@m_flLowerBodyYawTarget@ 1004ea40     Resolver.obj
 0002:00000a58       __real@3e75c28f            1004ea58     Resolver.obj
 0002:00000a5c       __real@42680000            1004ea5c     Resolver.obj
 0002:00000a60       __real@42700000            1004ea60     Resolver.obj
 0002:00000a64       __real@428c0000            1004ea64     Resolver.obj
 0002:00000a68       __real@c2680000            1004ea68     Resolver.obj
 0002:00000a6c       __real@c2700000            1004ea6c     Resolver.obj
 0002:00000a70       __real@c2b40000            1004ea70     Resolver.obj
 0002:00000a94       ??_C@_08CHHOFABL@m_iClip1@ 1004ea94     c_esp.obj
 0002:00000aa0       ??_C@_0BL@GKAMNBOO@m_iPrimaryReserveAmmoCount@ 1004eaa0     c_esp.obj
 0002:00000abc       ??_C@_0BI@CFPLBAOH@invalid?5string?5position@ 1004eabc     c_esp.obj
 0002:00000ad4       __real@41000000            1004ead4     c_esp.obj
 0002:00000ad8       __real@bf800000            1004ead8     imgui_impl_dx9.obj
 0002:00001de0       ??_C@_09GBFFKCDJ@?$CD?$CDOverlay@ 1004fde0     imgui.obj
 0002:00001dec       __real@358637bd            1004fdec     imgui.obj
 0002:00001df0       __real@3727c5ac            1004fdf0     imgui.obj
 0002:00001df4       __real@38d1b717            1004fdf4     imgui.obj
 0002:00001df8       __real@3b808081            1004fdf8     imgui.obj
 0002:00001dfc       __real@3c23d70a            1004fdfc     imgui.obj
 0002:00001e00       __real@3c888889            1004fe00     imgui.obj
 0002:00001e04       __real@3da3d70a            1004fe04     imgui.obj
 0002:00001e08       __real@3e19999a            1004fe08     imgui.obj
 0002:00001e0c       __real@3e6147ae            1004fe0c     imgui.obj
 0002:00001e10       __real@3e800000            1004fe10     imgui.obj
 0002:00001e14       __real@3e8a3d71            1004fe14     imgui.obj
 0002:00001e18       __real@3e99999a            1004fe18     imgui.obj
 0002:00001e1c       __real@3ea3d70a            1004fe1c     imgui.obj
 0002:00001e20       __real@3eb33333            1004fe20     imgui.obj
 0002:00001e24       __real@3ec28f5c            1004fe24     imgui.obj
 0002:00001e28       __real@3ecccccd            1004fe28     imgui.obj
 0002:00001e2c       __real@3ee66666            1004fe2c     imgui.obj
 0002:00001e30       __real@3f07ae14            1004fe30     imgui.obj
 0002:00001e34       __real@3f0a3d71            1004fe34     imgui.obj
 0002:00001e38       __real@3f0ccccd            1004fe38     imgui.obj
 0002:00001e3c       __real@3f170a3d            1004fe3c     imgui.obj
 0002:00001e40       __real@3f19999a            1004fe40     imgui.obj
 0002:00001e44       __real@3f2147ae            1004fe44     imgui.obj
 0002:00001e48       __real@3f266666            1004fe48     imgui.obj
 0002:00001e4c       __real@3f2b851f            1004fe4c     imgui.obj
 0002:00001e50       __real@3f333333            1004fe50     imgui.obj
 0002:00001e54       __real@3f350481            1004fe54     imgui.obj
 0002:00001e58       __real@3f4ccccd            1004fe58     imgui.obj
 0002:00001e5c       __real@3f547ae1            1004fe5c     imgui.obj
 0002:00001e60       __real@3f5db22d            1004fe60     imgui.obj
 0002:00001e64       __real@3f5eb852            1004fe64     imgui.obj
 0002:00001e68       __real@3f666666            1004fe68     imgui.obj
 0002:00001e6c       __real@3f733333            1004fe6c     imgui.obj
 0002:00001e70       __real@3f7d70a4            1004fe70     imgui.obj
 0002:00001e74       __real@3faccccd            1004fe74     imgui.obj
 0002:00001e78       __real@40200000            1004fe78     imgui.obj
 0002:00001e7c       __real@40c00000            1004fe7c     imgui.obj
 0002:00001e80       __real@40e00000            1004fe80     imgui.obj
 0002:00001e84       __real@41100000            1004fe84     imgui.obj
 0002:00001e88       __real@41300000            1004fe88     imgui.obj
 0002:00001e8c       __real@41400000            1004fe8c     imgui.obj
 0002:00001e90       __real@41700000            1004fe90     imgui.obj
 0002:00001e94       __real@41800000            1004fe94     imgui.obj
 0002:00001e98       __real@41880000            1004fe98     imgui.obj
 0002:00001e9c       __real@41900000            1004fe9c     imgui.obj
 0002:00001ea0       __real@41a00000            1004fea0     imgui.obj
 0002:00001ea4       __real@41a80000            1004fea4     imgui.obj
 0002:00001ea8       __real@41b00000            1004fea8     imgui.obj
 0002:00001eac       __real@42000000            1004feac     imgui.obj
 0002:00001eb0       __real@42f00000            1004feb0     imgui.obj
 0002:00001eb4       __real@437f0000            1004feb4     imgui.obj
 0002:00001eb8       __real@43b40000            1004feb8     imgui.obj
 0002:00001ebc       __real@461c3c00            1004febc     imgui.obj
 0002:00001ec0       __real@7f7fffff            1004fec0     imgui.obj
 0002:00001ec4       __real@bf000000            1004fec4     imgui.obj
 0002:00001ec8       __real@bf5db22d            1004fec8     imgui.obj
 0002:00001ecc       __real@c0000000            1004fecc     imgui.obj
 0002:00001ed0       __real@c61c3c00            1004fed0     imgui.obj
 0002:00001ed4       __real@ff7fffff            1004fed4     imgui.obj
 0002:00005858       __real@3ffeb852            10053858     imgui_draw.obj
 0002:0000585c       __real@40490fdb            1005385c     imgui_draw.obj
 0002:00005860       __real@41500000            10053860     imgui_draw.obj
 0002:00005864       __real@41980000            10053864     imgui_draw.obj
 0002:00005868       __real@41b80000            10053868     imgui_draw.obj
 0002:0000586c       __real@41f80000            1005386c     imgui_draw.obj
 0002:00005870       __real@425c0000            10053870     imgui_draw.obj
 0002:00005874       __real@42920000            10053874     imgui_draw.obj
 0002:00005878       __real@42b60000            10053878     imgui_draw.obj
 0002:0000587c       __real@46000000            1005387c     imgui_draw.obj
 0002:00005880       __real@46800000            10053880     imgui_draw.obj
 0002:00005884       __real@47800000            10053884     imgui_draw.obj
 0002:00005888       __real@c6000000            10053888     imgui_draw.obj
 0002:0000588c       __real@3e500000            1005388c     createmove_hook.obj
 0002:00005890       __real@3e600000            10053890     createmove_hook.obj
 0002:00005894       __real@42b20000            10053894     createmove_hook.obj
 0002:00005898       __real@43e10000            10053898     createmove_hook.obj
 0002:0000589c       __real@461c4000            1005389c     createmove_hook.obj
 0002:000058a0       __real@c2b20000            100538a0     createmove_hook.obj
 0002:000058a4       __real@c3340000            100538a4     createmove_hook.obj
 0002:000058a8       __real@c3e10000            100538a8     createmove_hook.obj
 0002:000058ac       __real@3dc8c8c9            100538ac     directx_preset_hook.obj
 0002:000058b0       __real@3e0c8c8d            100538b0     directx_preset_hook.obj
 0002:000058b4       __real@3e0f5c29            100538b4     directx_preset_hook.obj
 0002:000058b8       __real@3e2e147b            100538b8     directx_preset_hook.obj
 0002:000058bc       __real@3e851eb8            100538bc     directx_preset_hook.obj
 0002:000058c0       __real@3edc28f6            100538c0     directx_preset_hook.obj
 0002:000058c4       __real@3f078788            100538c4     directx_preset_hook.obj
 0002:000058c8       __real@3f179798            100538c8     directx_preset_hook.obj
 0002:000058cc       __real@3f1c28f6            100538cc     directx_preset_hook.obj
 0002:000058d0       __real@3f70a3d7            100538d0     directx_preset_hook.obj
 0002:000058d4       __real@3f7ae148            100538d4     directx_preset_hook.obj
 0002:000058ec       ??_C@_09NFOPKLIK@sv_cheats@ 100538ec     fsn_hook.obj
 0002:000058f8       ??_C@_0M@BIELKGOF@thirdperson@ 100538f8     fsn_hook.obj
 0002:00005904       ??_C@_0M@INGIFFDB@firstperson@ 10053904     fsn_hook.obj
 0002:0000594c       ??_C@_0M@PPOAODEA@m_bIsScoped@ 1005394c     oview_hook.obj
 0002:00005958       __real@3ee66663            10053958     oview_hook.obj
 0002:00005978       ??_C@_0BL@OOBMLGKK@weapon_debug_spread_show?50@ 10053978     painttraverse_hook.obj
 0002:00005994       ??_C@_0M@HPFLIJIB@crosshair?50@ 10053994     painttraverse_hook.obj
 0002:000059a0       ??_C@_0BL@MFDBOFGJ@weapon_debug_spread_show?53@ 100539a0     painttraverse_hook.obj
 0002:000059bc       ??_C@_0M@GGEALIMA@crosshair?51@ 100539bc     painttraverse_hook.obj
 0002:000059d8       ??_7bad_cast@std@@6B@      100539d8     config_system.obj
 0002:000059e0       ??_C@_08EPJLHIJG@bad?5cast@ 100539e0     config_system.obj
 0002:000059f0       ??_7?$basic_filebuf@DU?$char_traits@D@std@@@std@@6B@ 100539f0     config_system.obj
 0002:00005a30       ??_7?$basic_ofstream@DU?$char_traits@D@std@@@std@@6B@ 10053a30     config_system.obj
 0002:00005a34       ??_8?$basic_ofstream@DU?$char_traits@D@std@@@std@@7B@ 10053a34     config_system.obj
 0002:0000845c       __real@42be0000            1005645c     menu_system.obj
 0002:00008460       __real@43180000            10056460     menu_system.obj
 0002:00008464       __real@43490000            10056464     menu_system.obj
 0002:00008468       __real@437a0000            10056468     menu_system.obj
 0002:0000846c       __real@43868000            1005646c     menu_system.obj
 0002:00008470       __real@43908000            10056470     menu_system.obj
 0002:00008474       __real@43b48000            10056474     menu_system.obj
 0002:00008478       __real@43e38000            10056478     menu_system.obj
 0002:0000847c       __real@440e0000            1005647c     menu_system.obj
 0002:00008480       __real@44160000            10056480     menu_system.obj
 0002:00008484       __real@c0400000            10056484     menu_system.obj
 0002:00008768       __real@3a51b717            10056768     CEntity.obj
 0002:0000876c       __real@3d8f5c29            1005676c     CEntity.obj
 0002:00008770       __real@3d99999a            10056770     CEntity.obj
 0002:00008774       __real@3db645a2            10056774     CEntity.obj
 0002:00008778       __real@3df5c28f            10056778     CEntity.obj
 0002:0000877c       __real@3e2d0e56            1005677c     CEntity.obj
 0002:00008780       __real@3e656042            10056780     CEntity.obj
 0002:00008784       __real@3f5851ec            10056784     CEntity.obj
 0002:00008788       __real@3f61cac1            10056788     CEntity.obj
 0002:0000878c       __real@3fbb4396            1005678c     CEntity.obj
 0002:00009110       __real@3c8efa35            10057110     Math.obj
 0002:00009118       __real@3f91df46a2529d39    10057118     Math.obj
 0002:00009120       __real@404ca5dc1a63c1f8    10057120     Math.obj
 0002:00009128       __real@c3b40000            10057128     Math.obj
 0002:00009130       ??_7?$_Ref_count_obj@UNode@NetvarTree@@@std@@6B@ 10057130     NetvarManager.obj
 0002:00009140       ??_C@_1BK@MGMFAEKH@?$AAk?$AAe?$AAr?$AAn?$AAe?$AAl?$AA3?$AA2?$AA?4?$AAd?$AAl?$AAl@ 10057140     msvcprt:filesystem.obj
 0002:00009160       ??_7type_info@@6B@         10057160     MSVCRT:std_type_info_static.obj
 0002:00009170       ??_C@_1EC@JIJBPKFM@?$AAa?$AAp?$AAi?$AA?9?$AAm?$AAs?$AA?9?$AAw?$AAi?$AAn?$AA?9?$AAc?$AAo?$AAr?$AAe@ 10057170     MSVCRT:thread_safe_statics.obj
 0002:000091b4       ??_C@_0BM@HLJJNPAH@InitializeConditionVariable@ 100571b4     MSVCRT:thread_safe_statics.obj
 0002:000091d0       ??_C@_0BJ@JEBJOJFJ@SleepConditionVariableCS@ 100571d0     MSVCRT:thread_safe_statics.obj
 0002:000091ec       ??_C@_0BJ@PGPPEPCC@WakeAllConditionVariable@ 100571ec     MSVCRT:thread_safe_statics.obj
 0002:00009294       __pRawDllMain              10057294     MSVCRT:dll_dllmain.obj
 0002:00009294       __pDefaultRawDllMain       10057294     MSVCRT:dll_dllmain.obj
 0002:0000929c       ??_7bad_alloc@std@@6B@     1005729c     MSVCRT:throw_bad_alloc.obj
 0002:000092a4       ??_C@_0P@GHFPNOJB@bad?5allocation@ 100572a4     MSVCRT:throw_bad_alloc.obj
 0002:000092b8       ??_7bad_array_new_length@std@@6B@ 100572b8     MSVCRT:throw_bad_alloc.obj
 0002:000092c0       ??_C@_0BF@KINCDENJ@bad?5array?5new?5length@ 100572c0     MSVCRT:throw_bad_alloc.obj
 0002:00009338       __load_config_used         10057338     MSVCRT:loadcfg.obj
 0002:000093d8       __tls_used                 100573d8     MSVCRT:tlssup.obj
 0002:000093f0       ??_R4exception@std@@6B@    100573f0     c_hooks.obj
 0002:00009404       ??_R3exception@std@@8      10057404     c_hooks.obj
 0002:00009414       ??_R2exception@std@@8      10057414     c_hooks.obj
 0002:0000941c       ??_R1A@?0A@EA@exception@std@@8 1005741c     c_hooks.obj
 0002:00009438       ??_R4runtime_error@std@@6B@ 10057438     c_hooks.obj
 0002:0000944c       ??_R3runtime_error@std@@8  1005744c     c_hooks.obj
 0002:0000945c       ??_R2runtime_error@std@@8  1005745c     c_hooks.obj
 0002:00009468       ??_R1A@?0A@EA@runtime_error@std@@8 10057468     c_hooks.obj
 0002:00009484       ??_R4IGameEventListener@@6B@ 10057484     c_hooks.obj
 0002:00009498       ??_R3IGameEventListener@@8 10057498     c_hooks.obj
 0002:000094a8       ??_R2IGameEventListener@@8 100574a8     c_hooks.obj
 0002:000094b0       ??_R1A@?0A@EA@IGameEventListener@@8 100574b0     c_hooks.obj
 0002:000094cc       ??_R4Event@@6B@            100574cc     c_hooks.obj
 0002:000094e0       ??_R3Event@@8              100574e0     c_hooks.obj
 0002:000094f0       ??_R2Event@@8              100574f0     c_hooks.obj
 0002:000094fc       ??_R1A@?0A@EA@Event@@8     100574fc     c_hooks.obj
 0002:00009518       ??_R4ITraceFilter@@6B@     10057518     Autowall.obj
 0002:0000952c       ??_R3ITraceFilter@@8       1005752c     Autowall.obj
 0002:0000953c       ??_R2ITraceFilter@@8       1005753c     Autowall.obj
 0002:00009544       ??_R1A@?0A@EA@ITraceFilter@@8 10057544     Autowall.obj
 0002:00009560       ??_R4C_TraceFilter@@6B@    10057560     Autowall.obj
 0002:00009574       ??_R3C_TraceFilter@@8      10057574     Autowall.obj
 0002:00009584       ??_R2C_TraceFilter@@8      10057584     Autowall.obj
 0002:00009590       ??_R1A@?0A@EA@C_TraceFilter@@8 10057590     Autowall.obj
 0002:000095ac       ??_R4?$basic_filebuf@DU?$char_traits@D@std@@@std@@6B@ 100575ac     config_system.obj
 0002:000095c0       ??_R3?$basic_filebuf@DU?$char_traits@D@std@@@std@@8 100575c0     config_system.obj
 0002:000095d0       ??_R2?$basic_filebuf@DU?$char_traits@D@std@@@std@@8 100575d0     config_system.obj
 0002:000095dc       ??_R1A@?0A@EA@?$basic_filebuf@DU?$char_traits@D@std@@@std@@8 100575dc     config_system.obj
 0002:000095f8       ??_R1A@?0A@EA@?$basic_streambuf@DU?$char_traits@D@std@@@std@@8 100575f8     config_system.obj
 0002:00009614       ??_R3?$basic_streambuf@DU?$char_traits@D@std@@@std@@8 10057614     config_system.obj
 0002:00009624       ??_R2?$basic_streambuf@DU?$char_traits@D@std@@@std@@8 10057624     config_system.obj
 0002:0000962c       ??_R1A@A@3FA@?$basic_ios@DU?$char_traits@D@std@@@std@@8 1005762c     config_system.obj
 0002:00009648       ??_R3?$basic_ios@DU?$char_traits@D@std@@@std@@8 10057648     config_system.obj
 0002:00009658       ??_R2?$basic_ios@DU?$char_traits@D@std@@@std@@8 10057658     config_system.obj
 0002:00009668       ??_R1A@?0A@EA@?$basic_ios@DU?$char_traits@D@std@@@std@@8 10057668     config_system.obj
 0002:00009684       ??_R1A@?0A@EA@ios_base@std@@8 10057684     config_system.obj
 0002:000096a0       ??_R3ios_base@std@@8       100576a0     config_system.obj
 0002:000096b0       ??_R2ios_base@std@@8       100576b0     config_system.obj
 0002:000096bc       ??_R17?0A@EA@?$_Iosb@H@std@@8 100576bc     config_system.obj
 0002:000096d8       ??_R3?$_Iosb@H@std@@8      100576d8     config_system.obj
 0002:000096e8       ??_R2?$_Iosb@H@std@@8      100576e8     config_system.obj
 0002:000096f0       ??_R1A@?0A@EA@?$_Iosb@H@std@@8 100576f0     config_system.obj
 0002:0000970c       ??_R1A@A@3EA@ios_base@std@@8 1005770c     config_system.obj
 0002:00009728       ??_R17A@3EA@?$_Iosb@H@std@@8 10057728     config_system.obj
 0002:00009744       ??_R4?$basic_ofstream@DU?$char_traits@D@std@@@std@@6B@ 10057744     config_system.obj
 0002:00009758       ??_R3?$basic_ofstream@DU?$char_traits@D@std@@@std@@8 10057758     config_system.obj
 0002:00009768       ??_R2?$basic_ofstream@DU?$char_traits@D@std@@@std@@8 10057768     config_system.obj
 0002:00009780       ??_R1A@?0A@EA@?$basic_ofstream@DU?$char_traits@D@std@@@std@@8 10057780     config_system.obj
 0002:0000979c       ??_R1A@?0A@EA@?$basic_ostream@DU?$char_traits@D@std@@@std@@8 1005779c     config_system.obj
 0002:000097b8       ??_R3?$basic_ostream@DU?$char_traits@D@std@@@std@@8 100577b8     config_system.obj
 0002:000097c8       ??_R2?$basic_ostream@DU?$char_traits@D@std@@@std@@8 100577c8     config_system.obj
 0002:000097dc       ??_R4bad_cast@std@@6B@     100577dc     config_system.obj
 0002:000097f0       ??_R3bad_cast@std@@8       100577f0     config_system.obj
 0002:00009800       ??_R2bad_cast@std@@8       10057800     config_system.obj
 0002:0000980c       ??_R1A@?0A@EA@bad_cast@std@@8 1005780c     config_system.obj
 0002:00009828       ??_R3_Ref_count_base@std@@8 10057828     config_system.obj
 0002:00009838       ??_R2_Ref_count_base@std@@8 10057838     config_system.obj
 0002:00009840       ??_R1A@?0A@EA@_Ref_count_base@std@@8 10057840     config_system.obj
 0002:0000985c       ??_R4?$_Ref_count_obj@UNode@NetvarTree@@@std@@6B@ 1005785c     NetvarManager.obj
 0002:00009870       ??_R3?$_Ref_count_obj@UNode@NetvarTree@@@std@@8 10057870     NetvarManager.obj
 0002:00009880       ??_R2?$_Ref_count_obj@UNode@NetvarTree@@@std@@8 10057880     NetvarManager.obj
 0002:0000988c       ??_R1A@?0A@EA@?$_Ref_count_obj@UNode@NetvarTree@@@std@@8 1005788c     NetvarManager.obj
 0002:000098a8       ??_R4type_info@@6B@        100578a8     MSVCRT:std_type_info_static.obj
 0002:000098bc       ??_R3type_info@@8          100578bc     MSVCRT:std_type_info_static.obj
 0002:000098cc       ??_R2type_info@@8          100578cc     MSVCRT:std_type_info_static.obj
 0002:000098d4       ??_R1A@?0A@EA@type_info@@8 100578d4     MSVCRT:std_type_info_static.obj
 0002:000098f0       ??_R4bad_alloc@std@@6B@    100578f0     MSVCRT:throw_bad_alloc.obj
 0002:00009904       ??_R3bad_alloc@std@@8      10057904     MSVCRT:throw_bad_alloc.obj
 0002:00009914       ??_R2bad_alloc@std@@8      10057914     MSVCRT:throw_bad_alloc.obj
 0002:00009920       ??_R1A@?0A@EA@bad_alloc@std@@8 10057920     MSVCRT:throw_bad_alloc.obj
 0002:0000993c       ??_R4bad_array_new_length@std@@6B@ 1005793c     MSVCRT:throw_bad_alloc.obj
 0002:00009950       ??_R3bad_array_new_length@std@@8 10057950     MSVCRT:throw_bad_alloc.obj
 0002:00009960       ??_R2bad_array_new_length@std@@8 10057960     MSVCRT:throw_bad_alloc.obj
 0002:00009970       ??_R1A@?0A@EA@bad_array_new_length@std@@8 10057970     MSVCRT:throw_bad_alloc.obj
 0002:00009990       ___safe_se_handler_table   10057990     <linker-defined>
 0002:00009ee4       ___rtc_iaa                 10057ee4     MSVCRT:initsect.obj
 0002:00009ee8       ___rtc_izz                 10057ee8     MSVCRT:initsect.obj
 0002:00009eec       ___rtc_taa                 10057eec     MSVCRT:initsect.obj
 0002:00009ef0       ___rtc_tzz                 10057ef0     MSVCRT:initsect.obj
 0002:00009ef4       __tls_start                10057ef4     MSVCRT:tlssup.obj
 0002:00009ef8       __Init_thread_epoch        10057ef8     MSVCRT:thread_safe_statics.obj
 0002:00009efc       __tls_end                  10057efc     MSVCRT:tlssup.obj
 0002:0000a08c       __TI2?AVruntime_error@std@@ 1005808c     c_hooks.obj
 0002:0000a09c       __CTA2?AVruntime_error@std@@ 1005809c     c_hooks.obj
 0002:0000a0a8       __CT??_R0?AVruntime_error@std@@@8??0runtime_error@std@@QAE@ABV01@@Z12 100580a8     c_hooks.obj
 0002:0000a0c4       __CT??_R0?AVexception@std@@@8??0exception@std@@QAE@ABV01@@Z12 100580c4     c_hooks.obj
 0002:0000b200       __TI2?AVbad_cast@std@@     10059200     config_system.obj
 0002:0000b210       __CTA2?AVbad_cast@std@@    10059210     config_system.obj
 0002:0000b21c       __CT??_R0?AVbad_cast@std@@@8??0bad_cast@std@@QAE@ABV01@@Z12 1005921c     config_system.obj
 0002:0000b6d4       __TI2?AVbad_alloc@std@@    100596d4     MSVCRT:throw_bad_alloc.obj
 0002:0000b6e4       __CTA2?AVbad_alloc@std@@   100596e4     MSVCRT:throw_bad_alloc.obj
 0002:0000b6f0       __CT??_R0?AVbad_alloc@std@@@8??0bad_alloc@std@@QAE@ABV01@@Z12 100596f0     MSVCRT:throw_bad_alloc.obj
 0002:0000b70c       __TI3?AVbad_array_new_length@std@@ 1005970c     MSVCRT:throw_bad_alloc.obj
 0002:0000b71c       __CTA3?AVbad_array_new_length@std@@ 1005971c     MSVCRT:throw_bad_alloc.obj
 0002:0000b72c       __CT??_R0?AVbad_array_new_length@std@@@8??0bad_array_new_length@std@@QAE@ABV01@@Z12 1005972c     MSVCRT:throw_bad_alloc.obj
 0002:0000b748       __IMPORT_DESCRIPTOR_KERNEL32 10059748     kernel32:KERNEL32.dll
 0002:0000b75c       __IMPORT_DESCRIPTOR_USER32 1005975c     user32:USER32.dll
 0002:0000b770       __IMPORT_DESCRIPTOR_MSVCP140 10059770     msvcprt:MSVCP140.dll
 0002:0000b784       __IMPORT_DESCRIPTOR_IMM32  10059784     imm32:IMM32.dll
 0002:0000b798       __IMPORT_DESCRIPTOR_VCRUNTIME140 10059798     vcruntime:VCRUNTIME140.dll
 0002:0000b7ac       __IMPORT_DESCRIPTOR_api-ms-win-crt-runtime-l1-1-0 100597ac     ucrt:api-ms-win-crt-runtime-l1-1-0.dll
 0002:0000b7c0       __IMPORT_DESCRIPTOR_api-ms-win-crt-heap-l1-1-0 100597c0     ucrt:api-ms-win-crt-heap-l1-1-0.dll
 0002:0000b7d4       __IMPORT_DESCRIPTOR_api-ms-win-crt-math-l1-1-0 100597d4     ucrt:api-ms-win-crt-math-l1-1-0.dll
 0002:0000b7e8       __IMPORT_DESCRIPTOR_api-ms-win-crt-utility-l1-1-0 100597e8     ucrt:api-ms-win-crt-utility-l1-1-0.dll
 0002:0000b7fc       __IMPORT_DESCRIPTOR_api-ms-win-crt-string-l1-1-0 100597fc     ucrt:api-ms-win-crt-string-l1-1-0.dll
 0002:0000b810       __IMPORT_DESCRIPTOR_api-ms-win-crt-convert-l1-1-0 10059810     ucrt:api-ms-win-crt-convert-l1-1-0.dll
 0002:0000b824       __IMPORT_DESCRIPTOR_api-ms-win-crt-stdio-l1-1-0 10059824     ucrt:api-ms-win-crt-stdio-l1-1-0.dll
 0002:0000b838       __IMPORT_DESCRIPTOR_api-ms-win-crt-filesystem-l1-1-0 10059838     ucrt:api-ms-win-crt-filesystem-l1-1-0.dll
 0002:0000b84c       __NULL_IMPORT_DESCRIPTOR   1005984c     kernel32:KERNEL32.dll
 0003:00000024       ?GImGui@@3PAUImGuiContext@@A 1005c024     imgui.obj
 0003:0000002c       ?maxSpeed@?1??DoFakeLag@Misc@@ABEXXZ@4MA 1005c02c     createmove_hook.obj
 0003:00000030       ?Acceleration@?1??DoFakeLag@Misc@@ABEXXZ@4MA 1005c030     createmove_hook.obj
 0003:00000034       ?stop@?1??DoFakeLag@Misc@@ABEXXZ@4_NA 1005c034     createmove_hook.obj
 0003:00000035       ?stop2@?1??DoFakeLag@Misc@@ABEXXZ@4_NA 1005c035     createmove_hook.obj
 0003:00000038       ?bSendPacket@g@@3_NA       1005c038     GlobalVars.obj
 0003:0000003c       ?TargetIndex@g@@3HA        1005c03c     GlobalVars.obj
 0003:00000040       ___scrt_native_dllmain_reason 1005c040     MSVCRT:utility.obj
 0003:00000044       ___security_cookie_complement 1005c044     MSVCRT:gs_cookie.obj
 0003:00000048       ___security_cookie         1005c048     MSVCRT:gs_cookie.obj
 0003:0000004c       __fltused                  1005c04c     MSVCRT:fltused.obj
 0003:00000050       __Init_global_epoch        1005c050     MSVCRT:thread_safe_statics.obj
 0003:00000060       ___isa_enabled             1005c060     MSVCRT:cpu_disp.obj
 0003:00000064       ___scrt_ucrt_dll_is_in_use 1005c064     MSVCRT:ucrt_stubs.obj
 0003:00000068       ??_R0?AVruntime_error@std@@@8 1005c068     c_hooks.obj
 0003:00000088       ??_R0?AVexception@std@@@8  1005c088     c_hooks.obj
 0003:000000a4       ??_R0?AVIGameEventListener@@@8 1005c0a4     c_hooks.obj
 0003:000000c8       ??_R0?AVEvent@@@8          1005c0c8     c_hooks.obj
 0003:000000dc       ??_R0?AVITraceFilter@@@8   1005c0dc     Autowall.obj
 0003:000000f8       ??_R0?AVC_TraceFilter@@@8  1005c0f8     Autowall.obj
 0003:00000114       ??_R0?AVbad_cast@std@@@8   1005c114     config_system.obj
 0003:00000130       ??_R0?AV?$basic_filebuf@DU?$char_traits@D@std@@@std@@@8 1005c130     config_system.obj
 0003:0000016c       ??_R0?AV?$basic_streambuf@DU?$char_traits@D@std@@@std@@@8 1005c16c     config_system.obj
 0003:000001a8       ??_R0?AV?$basic_ios@DU?$char_traits@D@std@@@std@@@8 1005c1a8     config_system.obj
 0003:000001e0       ??_R0?AVios_base@std@@@8   1005c1e0     config_system.obj
 0003:000001fc       ??_R0?AV?$_Iosb@H@std@@@8  1005c1fc     config_system.obj
 0003:00000218       ??_R0?AV?$basic_ofstream@DU?$char_traits@D@std@@@std@@@8 1005c218     config_system.obj
 0003:00000254       ??_R0?AV?$basic_ostream@DU?$char_traits@D@std@@@std@@@8 1005c254     config_system.obj
 0003:00000290       ??_R0?AV_Ref_count_base@std@@@8 1005c290     config_system.obj
 0003:000002b4       ??_R0?AV?$_Ref_count_obj@UNode@NetvarTree@@@std@@@8 1005c2b4     NetvarManager.obj
 0003:000002ec       ??_R0?AVtype_info@@@8      1005c2ec     MSVCRT:std_type_info_static.obj
 0003:00000304       ??_R0?AVbad_alloc@std@@@8  1005c304     MSVCRT:throw_bad_alloc.obj
 0003:00000320       ??_R0?AVbad_array_new_length@std@@@8 1005c320     MSVCRT:throw_bad_alloc.obj
 0003:00000348       ?g_Misc@@3VMisc@@A         1005c348     c_hooks.obj
 0003:00000350       ?hooks@@3Vc_hooks@@A       1005c350     c_hooks.obj
 0003:00000488       ?g_Event@@3VEvent@@A       1005c488     c_hooks.obj
 0003:00000490       ?HThisModule@@3PAUHINSTANCE__@@A 1005c490     dll_main.obj
 0003:000004a8       ?g_Aimbot@@3VAimbot@@A     1005c4a8     Aimbot.obj
 0003:00061d34       ?m_hActiveWeapon@?1??GetActiveWeapon@C_BaseEntity@@QAEPAVC_BaseCombatWeapon@@XZ@4HA 100bdd34     Aimbot.obj
 0003:00061d38       ?$TSS0@?1??GetActiveWeapon@C_BaseEntity@@QAEPAVC_BaseCombatWeapon@@XZ@4HA 100bdd38     Aimbot.obj
 0003:00061d3c       ?m_iTeamNum@?1??GetTeam@C_BaseEntity@@QAEHXZ@4HA 100bdd3c     Aimbot.obj
 0003:00061d40       ?$TSS0@?1??GetTeam@C_BaseEntity@@QAEHXZ@4HA 100bdd40     Aimbot.obj
 0003:00061d44       ?m_fFlags@?1??GetFlags@C_BaseEntity@@QAE?AW4EntityFlags@@XZ@4HA 100bdd44     Aimbot.obj
 0003:00061d48       ?$TSS0@?1??GetFlags@C_BaseEntity@@QAE?AW4EntityFlags@@XZ@4HA 100bdd48     Aimbot.obj
 0003:00061d4c       ?m_flSimulationTime@?1??GetSimulationTime@C_BaseEntity@@QAEMXZ@4HA 100bdd4c     Aimbot.obj
 0003:00061d50       ?$TSS0@?1??GetSimulationTime@C_BaseEntity@@QAEMXZ@4HA 100bdd50     Aimbot.obj
 0003:00061d54       ?m_lifeState@?1??GetLifeState@C_BaseEntity@@QAE_NXZ@4HA 100bdd54     Aimbot.obj
 0003:00061d58       ?$TSS0@?1??GetLifeState@C_BaseEntity@@QAE_NXZ@4HA 100bdd58     Aimbot.obj
 0003:00061d5c       ?m_iHealth@?1??GetHealth@C_BaseEntity@@QAEHXZ@4HA 100bdd5c     Aimbot.obj
 0003:00061d60       ?$TSS0@?1??GetHealth@C_BaseEntity@@QAEHXZ@4HA 100bdd60     Aimbot.obj
 0003:00061d64       ?m_nTickBase@?1??GetTickBase@C_BaseEntity@@QAEHXZ@4HA 100bdd64     Aimbot.obj
 0003:00061d68       ?$TSS0@?1??GetTickBase@C_BaseEntity@@QAEHXZ@4HA 100bdd68     Aimbot.obj
 0003:00061d6c       ?m_angEyeAngles@?1??GetEyeAngles@C_BaseEntity@@QAE?AVVector@@XZ@4HA 100bdd6c     Aimbot.obj
 0003:00061d70       ?$TSS0@?1??GetEyeAngles@C_BaseEntity@@QAE?AVVector@@XZ@4HA 100bdd70     Aimbot.obj
 0003:00061d74       ?m_vecOrigin@?1??GetOrigin@C_BaseEntity@@QAE?AVVector@@XZ@4HA 100bdd74     Aimbot.obj
 0003:00061d78       ?$TSS0@?1??GetOrigin@C_BaseEntity@@QAE?AVVector@@XZ@4HA 100bdd78     Aimbot.obj
 0003:00061d7c       ?m_vecVelocity@?1??GetVelocity@C_BaseEntity@@QAE?AVVector@@XZ@4HA 100bdd7c     Aimbot.obj
 0003:00061d80       ?$TSS0@?1??GetVelocity@C_BaseEntity@@QAE?AVVector@@XZ@4HA 100bdd80     Aimbot.obj
 0003:00061d84       ?m_fAccuracyPenalty@?1??GetAccuracyPenalty@C_BaseCombatWeapon@@QAEMXZ@4HA 100bdd84     Aimbot.obj
 0003:00061d88       ?$TSS0@?1??GetAccuracyPenalty@C_BaseCombatWeapon@@QAEMXZ@4HA 100bdd88     Aimbot.obj
 0003:00061d8c       ?m_fLastShotTime@?1??GetLastShotTime@C_BaseCombatWeapon@@QAEMXZ@4HA 100bdd8c     Aimbot.obj
 0003:00061d90       ?$TSS0@?1??GetLastShotTime@C_BaseCombatWeapon@@QAEMXZ@4HA 100bdd90     Aimbot.obj
 0003:00061d94       ?m_flNextPrimaryAttack@?1??GetNextPrimaryAttack@C_BaseCombatWeapon@@QAEMXZ@4HA 100bdd94     Aimbot.obj
 0003:00061d98       ?$TSS0@?1??GetNextPrimaryAttack@C_BaseCombatWeapon@@QAEMXZ@4HA 100bdd98     Aimbot.obj
 0003:00062204       ?g_Autowall@@3VAutowall@@A 100be204     Autowall.obj
 0003:00062210       ?m_ArmorValue@?1??ArmorValue@C_BaseEntity@@QAEHXZ@4HA 100be210     Autowall.obj
 0003:00062214       ?$TSS0@?1??ArmorValue@C_BaseEntity@@QAEHXZ@4HA 100be214     Autowall.obj
 0003:00062218       ?m_bHasHelmet@?1??HasHelmet@C_BaseEntity@@QAE_NXZ@4HA 100be218     Autowall.obj
 0003:0006221c       ?$TSS0@?1??HasHelmet@C_BaseEntity@@QAE_NXZ@4HA 100be21c     Autowall.obj
 0003:00062230       ?flOldCurtime@@3MA         100be230     EnginePrediction.obj
 0003:00062234       ?flOldFrametime@@3MA       100be234     EnginePrediction.obj
 0003:00062238       ?m_nPredictionRandomSeed@@3PAHA 100be238     EnginePrediction.obj
 0003:0006223c       ?m_pSetPredictionPlayer@@3PAHA 100be23c     EnginePrediction.obj
 0003:00062248       ?m_hConstraintEntity@?1??SetCurrentCommand@C_BaseEntity@@QAEXPAVCUserCmd@@@Z@4HA 100be248     EnginePrediction.obj
 0003:0006224c       ?$TSS0@?1??SetCurrentCommand@C_BaseEntity@@QAEXPAVCUserCmd@@@Z@4HA 100be24c     EnginePrediction.obj
 0003:00062258       ?g_LagComp@@3VLagComp@@A   100be258     LagComp.obj
 0003:00062a7c       ?Swtich@@3_NA              100bea7c     AntiAim.obj
 0003:00062a7d       ?g_AntiAim@@3VAntiAim@@A   100bea7d     AntiAim.obj
 0003:00062aa8       ?g_Legitbot@@3VLegitbot@@A 100beaa8     Legitbot.obj
 0003:00062fbc       ?pViewMatrix@?1???R<lambda_498009bf6358dc471fbe163595f67980>@@QBE_NXZ@4IA 100befbc     Legitbot.obj
 0003:000631d8       ?g_Resolver@@3VResolver@@A 100bf1d8     Resolver.obj
 0003:00063430       ?m_bClientSideAnimation@?1??ClientAnimations@C_BaseEntity@@QAEX_N@Z@4HA 100bf430     Resolver.obj
 0003:00063434       ?$TSS0@?1??ClientAnimations@C_BaseEntity@@QAEX_N@Z@4HA 100bf434     Resolver.obj
 0003:00063438       ?m_flLowerBodyYawTarget@?1??GetLowerBodyYaw@C_BaseEntity@@QAEMXZ@4HA 100bf438     Resolver.obj
 0003:0006343c       ?$TSS0@?1??GetLowerBodyYaw@C_BaseEntity@@QAEMXZ@4HA 100bf43c     Resolver.obj
 0003:00063440       ?m_flLowerBodyYawTarget@?1??SetLowerBodyYaw@C_BaseEntity@@QAEXM@Z@4HA 100bf440     Resolver.obj
 0003:00063444       ?$TSS0@?1??SetLowerBodyYaw@C_BaseEntity@@QAEXM@Z@4HA 100bf444     Resolver.obj
 0003:00072d20       ?_OptionsStorage@?1??__local_stdio_printf_options@@9@4_KA 100ced20     c_esp.obj
 0003:00072d28       ?esp@@3Vc_esp@@A           100ced28     c_esp.obj
 0003:00072d78       ?m_iClip1@?1??GetAmmo@C_BaseCombatWeapon@@QAEHXZ@4HA 100ced78     c_esp.obj
 0003:00072d7c       ?$TSS0@?1??GetAmmo@C_BaseCombatWeapon@@QAEHXZ@4HA 100ced7c     c_esp.obj
 0003:00072d80       ?primary_reserve@?1??m_iPrimaryReserveAmmoCount@C_BaseCombatWeapon@@QAEHXZ@4HA 100ced80     c_esp.obj
 0003:00072d84       ?$TSS0@?1??m_iPrimaryReserveAmmoCount@C_BaseCombatWeapon@@QAEHXZ@4HA 100ced84     c_esp.obj
 0003:00072db0       ?_OptionsStorage@?1??__local_stdio_scanf_options@@9@4_KA 100cedb0     imgui.obj
 0003:00076870       ?bLastJumped@?1??DoBhop@Misc@@ABEXXZ@4_NA 100d2870     createmove_hook.obj
 0003:00076871       ?bShouldFake@?1??DoBhop@Misc@@ABEXXZ@4_NA 100d2871     createmove_hook.obj
 0003:00076872       ?init@?1??DoFakeLag@Misc@@ABEXXZ@4_NA 100d2872     createmove_hook.obj
 0003:0007687c       ?m_pStateBlockDraw@@3PAUIDirect3DStateBlock9@@A 100d287c     directx_preset_hook.obj
 0003:00076880       ?m_pStateBlockText@@3PAUIDirect3DStateBlock9@@A 100d2880     directx_preset_hook.obj
 0003:00076884       ?state_block@@3PAUIDirect3DStateBlock9@@A 100d2884     directx_preset_hook.obj
 0003:00076888       ?dwOld_D3DRS_COLORWRITEENABLE@@3KA 100d2888     directx_preset_hook.obj
 0003:000768c8       ?init@?1??ThirdPerson@Misc@@QAEXW4ClientFrameStage_t@@@Z@4_NA 100d28c8     fsn_hook.obj
 0003:000768d4       ?c_hooking@@3PAVhooking@@A 100d28d4     hooking_init.obj
 0003:000768f8       ?m_bIsScoped@?1??IsScoped@C_BaseEntity@@QAE_NXZ@4HA 100d28f8     oview_hook.obj
 0003:000768fc       ?$TSS0@?1??IsScoped@C_BaseEntity@@QAE_NXZ@4HA 100d28fc     oview_hook.obj
 0003:00076910       ?init@?1??Crosshair@Misc@@QAEXXZ@4_NA 100d2910     painttraverse_hook.obj
 0003:00076911       ?init2@?1??Crosshair@Misc@@QAEXXZ@4_NA 100d2911     painttraverse_hook.obj
 0003:00076940       ?galaxy_vars@@3Vc_config@@A 100d2940     config_system.obj
 0003:000769d4       ?_Stinit@?1??_Init@?$basic_filebuf@DU?$char_traits@D@std@@@std@@IAEXPAU_iobuf@@W4_Initfl@23@@Z@4U_Mbstatet@@A 100d29d4     config_system.obj
 0003:000769dc       ?_Psave@?$_Facetptr@V?$codecvt@DDU_Mbstatet@@@std@@@std@@2PBVfacet@locale@2@B 100d29dc     config_system.obj
 0003:000769e0       ?Main@@3PAUImFont@@A       100d29e0     menu_system.obj
 0003:000769e4       ?MainCaps@@3PAUImFont@@A   100d29e4     menu_system.obj
 0003:000769f0       ?menu@@3Vc_menu@@A         100d29f0     menu_system.obj
 0003:00076a18       ?pCmd@g@@3PAVCUserCmd@@A   100d2a18     GlobalVars.obj
 0003:00076a1c       ?pLocalEntity@g@@3PAVC_BaseEntity@@A 100d2a1c     GlobalVars.obj
 0003:00076a20       ?uRandomSeed@g@@3IA        100d2a20     GlobalVars.obj
 0003:00076a24       ?LagPeek@g@@3_NA           100d2a24     GlobalVars.obj
 0003:00076a28       ?Shot@g@@3PA_NA            100d2a28     GlobalVars.obj
 0003:00076a6c       ?weapon_font@g@@3KA        100d2a6c     GlobalVars.obj
 0003:00076a70       ?Hit@g@@3PA_NA             100d2a70     GlobalVars.obj
 0003:00076ab4       ?CourierNew@g@@3KA         100d2ab4     GlobalVars.obj
 0003:00076ab8       ?MissedShots@g@@3PAHA      100d2ab8     GlobalVars.obj
 0003:00076bbc       ?Tahoma@g@@3KA             100d2bbc     GlobalVars.obj
 0003:00076bc0       ?FakeAngle@g@@3VVector@@A  100d2bc0     GlobalVars.obj
 0003:00076bcc       ?OriginalView@g@@3VVector@@A 100d2bcc     GlobalVars.obj
 0003:00076bd8       ?AimbotHitbox@g@@3PAY0BM@VVector@@A 100d2bd8     GlobalVars.obj
 0003:0007c130       ?RealAngle@g@@3VVector@@A  100d8130     GlobalVars.obj
 0003:0007c140       ?EnemyEyeAngs@g@@3PAVVector@@A 100d8140     GlobalVars.obj
 0003:0007c44c       ?g_pEngine@@3PAVIVEngineClient@@A 100d844c     Interfaces.obj
 0003:0007c450       ?g_pTrace@@3PAVIEngineTrace@@A 100d8450     Interfaces.obj
 0003:0007c454       ?g_pSurfaceData@@3PAVIPhysicsSurfaceProps@@A 100d8454     Interfaces.obj
 0003:0007c458       ?g_pCvar@@3PAVICVar@@A     100d8458     Interfaces.obj
 0003:0007c45c       ?g_pEntityList@@3PAVIClientEntityList@@A 100d845c     Interfaces.obj
 0003:0007c460       ?g_pModelInfo@@3PAVIVModelInfo@@A 100d8460     Interfaces.obj
 0003:0007c464       ?g_pModelRender@@3PAVCModelRender@@A 100d8464     Interfaces.obj
 0003:0007c468       ?g_pMaterialSys@@3PAVIMaterialSystem@@A 100d8468     Interfaces.obj
 0003:0007c46c       ?g_pRenderView@@3PAVIVRenderView@@A 100d846c     Interfaces.obj
 0003:0007c470       ?g_pPanel@@3PAVIPanel@@A   100d8470     Interfaces.obj
 0003:0007c474       ?g_pClientMode@@3PAVIClientMode@@A 100d8474     Interfaces.obj
 0003:0007c478       ?g_pGlobalVars@@3PAVCGlobalVarsBase@@A 100d8478     Interfaces.obj
 0003:0007c47c       ?g_pClientDll@@3PAVIBaseClientDLL@@A 100d847c     Interfaces.obj
 0003:0007c480       ?g_pMoveHelper@@3PAVIMoveHelper@@A 100d8480     Interfaces.obj
 0003:0007c484       ?g_pMovement@@3PAVIGameMovement@@A 100d8484     Interfaces.obj
 0003:0007c488       ?g_pPrediction@@3PAVCPrediction@@A 100d8488     Interfaces.obj
 0003:0007c48c       ?g_pEventManager@@3PAVIGameEventManager@@A 100d848c     Interfaces.obj
 0003:0007c490       ?g_pSurface@@3PAVISurface@@A 100d8490     Interfaces.obj
 0003:0007c49c       ?g_Math@@3VMath@@A         100d849c     Math.obj
 0003:0007c4b0       ?g_pNetvars@@3V?$unique_ptr@VNetvarTree@@U?$default_delete@VNetvarTree@@@std@@@std@@A 100d84b0     NetvarManager.obj
 0003:0007c4bc       ?GetFinalPathNameByHandleW_p@?A0xb24c12bc@@3P6GKPAXPA_WKK@ZA 100d84bc     msvcprt:filesystem.obj
 0003:0007c4c0       ?_GetFileInformationByHandleEx_p@?A0xb24c12bc@@3P6GHPAXW4_FILE_INFO_BY_HANDLE_CLASS@@0K@ZA 100d84c0     msvcprt:filesystem.obj
 0003:0007c4c4       ?_SetFileInformationByHandle_p@?A0xb24c12bc@@3P6GHPAXW4_FILE_INFO_BY_HANDLE_CLASS@@0K@ZA 100d84c4     msvcprt:filesystem.obj
 0003:0007c4c8       ?_CreateSymbolicLinkW_p@?A0xb24c12bc@@3P6GEPB_W0K@ZA 100d84c8     msvcprt:filesystem.obj
 0003:0007c4cc       ___scrt_current_native_startup_state 100d84cc     MSVCRT:utility.obj
 0003:0007c4d0       ___scrt_native_startup_lock 100d84d0     MSVCRT:utility.obj
 0003:0007c834       __tls_index                100d8834     MSVCRT:tlssup.obj
 0003:0007c83c       ___isa_available           100d883c     MSVCRT:cpu_disp.obj
 0003:0007c840       ___favor                   100d8840     MSVCRT:cpu_disp.obj
 0003:0007c844       ___scrt_debugger_hook_flag 100d8844     MSVCRT:utility_desktop.obj
 0003:0007c848       ?__type_info_root_node@@3U__type_info_node@@A 100d8848     MSVCRT:tncleanup.obj
 0003:0007c850       ___dyn_tls_init_callback   100d8850     <common>

 entry point at        0001:0004adff

 Static symbols

 0002:fffb2000       .idata$6                   10000000     ole32:ole32.dll
 0000:fff22000       .debug$S                   10000000     kernel32:KERNEL32.dll
 0000:fff22000       .debug$S                   10000000     kernel32:KERNEL32.dll
 0000:fff22000       .debug$S                   10000000     kernel32:KERNEL32.dll
 0000:fff22000       .debug$S                   10000000     kernel32:KERNEL32.dll
 0000:fff22000       .debug$S                   10000000     kernel32:KERNEL32.dll
 0000:fff22000       .debug$S                   10000000     kernel32:KERNEL32.dll
 0000:fff22000       .debug$S                   10000000     kernel32:KERNEL32.dll
 0000:fff22000       .debug$S                   10000000     kernel32:KERNEL32.dll
 0000:fff22000       .debug$S                   10000000     kernel32:KERNEL32.dll
 0000:fff22000       .debug$S                   10000000     kernel32:KERNEL32.dll
 0000:fff22000       .debug$S                   10000000     kernel32:KERNEL32.dll
 0000:fff22000       .debug$S                   10000000     kernel32:KERNEL32.dll
 0000:fff22000       .debug$S                   10000000     kernel32:KERNEL32.dll
 0000:fff22000       .debug$S                   10000000     kernel32:KERNEL32.dll
 0000:fff22000       .debug$S                   10000000     kernel32:KERNEL32.dll
 0000:fff22000       .debug$S                   10000000     kernel32:KERNEL32.dll
 0000:fff22000       .debug$S                   10000000     kernel32:KERNEL32.dll
 0000:fff22000       .debug$S                   10000000     kernel32:KERNEL32.dll
 0000:fff22000       .debug$S                   10000000     kernel32:KERNEL32.dll
 0000:fff22000       .debug$S                   10000000     kernel32:KERNEL32.dll
 0000:fff22000       .debug$S                   10000000     kernel32:KERNEL32.dll
 0000:fff22000       .debug$S                   10000000     kernel32:KERNEL32.dll
 0000:fff22000       .debug$S                   10000000     kernel32:KERNEL32.dll
 0000:fff22000       .debug$S                   10000000     kernel32:KERNEL32.dll
 0000:fff22000       .debug$S                   10000000     kernel32:KERNEL32.dll
 0000:fff22000       .debug$S                   10000000     kernel32:KERNEL32.dll
 0000:fff22000       .debug$S                   10000000     kernel32:KERNEL32.dll
 0000:fff22000       .debug$S                   10000000     kernel32:KERNEL32.dll
 0000:fff22000       .debug$S                   10000000     kernel32:KERNEL32.dll
 0000:fff22000       .debug$S                   10000000     kernel32:KERNEL32.dll
 0000:fff22000       .debug$S                   10000000     kernel32:KERNEL32.dll
 0000:fff22000       .debug$S                   10000000     kernel32:KERNEL32.dll
 0000:fff22000       .debug$S                   10000000     kernel32:KERNEL32.dll
 0000:fff22000       .debug$S                   10000000     kernel32:KERNEL32.dll
 0000:fff22000       .debug$S                   10000000     kernel32:KERNEL32.dll
 0000:fff22000       .debug$S                   10000000     kernel32:KERNEL32.dll
 0000:fff22000       .debug$S                   10000000     kernel32:KERNEL32.dll
 0000:fff22000       .debug$S                   10000000     kernel32:KERNEL32.dll
 0000:fff22000       .debug$S                   10000000     kernel32:KERNEL32.dll
 0000:fff22000       .debug$S                   10000000     kernel32:KERNEL32.dll
 0000:fff22000       .debug$S                   10000000     kernel32:KERNEL32.dll
 0000:fff22000       .debug$S                   10000000     kernel32:KERNEL32.dll
 0000:fff22000       .debug$S                   10000000     kernel32:KERNEL32.dll
 0000:fff22000       .debug$S                   10000000     kernel32:KERNEL32.dll
 0000:fff22000       .debug$S                   10000000     kernel32:KERNEL32.dll
 0000:fff22000       .debug$S                   10000000     kernel32:KERNEL32.dll
 0002:fffb2000       .idata$6                   10000000     ucrt:api-ms-win-crt-locale-l1-1-0.dll
 0000:fff22000       .debug$S                   10000000     msvcprt:MSVCP140.dll
 0000:fff22000       .debug$S                   10000000     msvcprt:MSVCP140.dll
 0000:fff22000       .debug$S                   10000000     msvcprt:MSVCP140.dll
 0000:fff22000       .debug$S                   10000000     msvcprt:MSVCP140.dll
 0000:fff22000       .debug$S                   10000000     msvcprt:MSVCP140.dll
 0000:fff22000       .debug$S                   10000000     msvcprt:MSVCP140.dll
 0000:fff22000       .debug$S                   10000000     msvcprt:MSVCP140.dll
 0000:fff22000       .debug$S                   10000000     msvcprt:MSVCP140.dll
 0000:fff22000       .debug$S                   10000000     ucrt:api-ms-win-crt-runtime-l1-1-0.dll
 0000:fff22000       .debug$S                   10000000     ucrt:api-ms-win-crt-runtime-l1-1-0.dll
 0000:fff22000       .debug$S                   10000000     ucrt:api-ms-win-crt-math-l1-1-0.dll
 0000:fff22000       .debug$S                   10000000     ucrt:api-ms-win-crt-runtime-l1-1-0.dll
 0000:fff22000       .debug$S                   10000000     ucrt:api-ms-win-crt-runtime-l1-1-0.dll
 0000:fff22000       .debug$S                   10000000     ucrt:api-ms-win-crt-runtime-l1-1-0.dll
 0000:fff22000       .debug$S                   10000000     ucrt:api-ms-win-crt-runtime-l1-1-0.dll
 0000:fff22000       .debug$S                   10000000     ucrt:api-ms-win-crt-runtime-l1-1-0.dll
 0000:fff22000       .debug$S                   10000000     ucrt:api-ms-win-crt-runtime-l1-1-0.dll
 0000:fff22000       .debug$S                   10000000     ucrt:api-ms-win-crt-runtime-l1-1-0.dll
 0000:fff22000       .debug$S                   10000000     ucrt:api-ms-win-crt-runtime-l1-1-0.dll
 0000:fff22000       .debug$S                   10000000     ucrt:api-ms-win-crt-runtime-l1-1-0.dll
 0000:fff22000       .debug$S                   10000000     ucrt:api-ms-win-crt-heap-l1-1-0.dll
 0000:fff22000       .debug$S                   10000000     ucrt:api-ms-win-crt-locale-l1-1-0.dll
 0000:fff22000       .debug$S                   10000000     ucrt:api-ms-win-crt-math-l1-1-0.dll
 0000:fff22000       .debug$S                   10000000     ucrt:api-ms-win-crt-math-l1-1-0.dll
 0000:fff22000       .debug$S                   10000000     ucrt:api-ms-win-crt-math-l1-1-0.dll
 0000:fff22000       .debug$S                   10000000     ucrt:api-ms-win-crt-math-l1-1-0.dll
 0000:fff22000       .debug$S                   10000000     ucrt:api-ms-win-crt-runtime-l1-1-0.dll
 0000:fff22000       .debug$S                   10000000     ucrt:api-ms-win-crt-filesystem-l1-1-0.dll
 0000:fff22000       .debug$S                   10000000     ucrt:api-ms-win-crt-filesystem-l1-1-0.dll
 0000:fff22000       .debug$S                   10000000     ucrt:api-ms-win-crt-stdio-l1-1-0.dll
 0000:fff22000       .debug$S                   10000000     ucrt:api-ms-win-crt-stdio-l1-1-0.dll
 0000:fff22000       .debug$S                   10000000     ucrt:api-ms-win-crt-stdio-l1-1-0.dll
 0000:fff22000       .debug$S                   10000000     ucrt:api-ms-win-crt-stdio-l1-1-0.dll
 0000:fff22000       .debug$S                   10000000     ucrt:api-ms-win-crt-stdio-l1-1-0.dll
 0000:fff22000       .debug$S                   10000000     ucrt:api-ms-win-crt-stdio-l1-1-0.dll
 0000:fff22000       .debug$S                   10000000     ucrt:api-ms-win-crt-stdio-l1-1-0.dll
 0000:fff22000       .debug$S                   10000000     ucrt:api-ms-win-crt-stdio-l1-1-0.dll
 0000:fff22000       .debug$S                   10000000     ucrt:api-ms-win-crt-stdio-l1-1-0.dll
 0000:fff22000       .debug$S                   10000000     ucrt:api-ms-win-crt-math-l1-1-0.dll
 0000:fff22000       .debug$S                   10000000     ucrt:api-ms-win-crt-math-l1-1-0.dll
 0000:fff22000       .debug$S                   10000000     ucrt:api-ms-win-crt-math-l1-1-0.dll
 0000:fff22000       .debug$S                   10000000     ucrt:api-ms-win-crt-stdio-l1-1-0.dll
 0000:fff22000       .debug$S                   10000000     ucrt:api-ms-win-crt-stdio-l1-1-0.dll
 0000:fff22000       .debug$S                   10000000     ucrt:api-ms-win-crt-stdio-l1-1-0.dll
 0000:fff22000       .debug$S                   10000000     ucrt:api-ms-win-crt-stdio-l1-1-0.dll
 0000:fff22000       .debug$S                   10000000     ucrt:api-ms-win-crt-stdio-l1-1-0.dll
 0000:fff22000       .debug$S                   10000000     ucrt:api-ms-win-crt-stdio-l1-1-0.dll
 0000:fff22000       .debug$S                   10000000     ucrt:api-ms-win-crt-stdio-l1-1-0.dll
 0000:fff22000       .debug$S                   10000000     ucrt:api-ms-win-crt-stdio-l1-1-0.dll
 0000:fff22000       .debug$S                   10000000     ucrt:api-ms-win-crt-stdio-l1-1-0.dll
 0000:fff22000       .debug$S                   10000000     ucrt:api-ms-win-crt-stdio-l1-1-0.dll
 0000:fff22000       .debug$S                   10000000     ucrt:api-ms-win-crt-convert-l1-1-0.dll
 0000:fff22000       .debug$S                   10000000     ucrt:api-ms-win-crt-utility-l1-1-0.dll
 0000:fff22000       .debug$S                   10000000     ucrt:api-ms-win-crt-heap-l1-1-0.dll
 0000:fff22000       .debug$S                   10000000     ucrt:api-ms-win-crt-heap-l1-1-0.dll
 0000:fff22000       .debug$S                   10000000     ucrt:api-ms-win-crt-string-l1-1-0.dll
 0000:fff22000       .debug$S                   10000000     ucrt:api-ms-win-crt-string-l1-1-0.dll
 0000:fff22000       .debug$S                   10000000     ucrt:api-ms-win-crt-stdio-l1-1-0.dll
 0000:fff22000       .debug$S                   10000000     ucrt:api-ms-win-crt-convert-l1-1-0.dll
 0000:fff22000       .debug$S                   10000000     ucrt:api-ms-win-crt-string-l1-1-0.dll
 0000:fff22000       .debug$S                   10000000     ucrt:api-ms-win-crt-utility-l1-1-0.dll
 0000:fff22000       .debug$S                   10000000     ucrt:api-ms-win-crt-math-l1-1-0.dll
 0000:fff22000       .debug$S                   10000000     ucrt:api-ms-win-crt-math-l1-1-0.dll
 0000:fff22000       .debug$S                   10000000     ucrt:api-ms-win-crt-math-l1-1-0.dll
 0000:fff22000       .debug$S                   10000000     ucrt:api-ms-win-crt-math-l1-1-0.dll
 0000:fff22000       .debug$S                   10000000     ucrt:api-ms-win-crt-math-l1-1-0.dll
 0000:fff22000       .debug$S                   10000000     ucrt:api-ms-win-crt-math-l1-1-0.dll
 0000:fff22000       .debug$S                   10000000     ucrt:api-ms-win-crt-heap-l1-1-0.dll
 0000:fff22000       .debug$S                   10000000     ucrt:api-ms-win-crt-runtime-l1-1-0.dll
 0000:fff22000       .debug$S                   10000000     kernel32:KERNEL32.dll
 0000:fff22000       .debug$S                   10000000     vcruntime:VCRUNTIME140.dll
 0000:fff22000       .debug$S                   10000000     vcruntime:VCRUNTIME140.dll
 0000:fff22000       .debug$S                   10000000     vcruntime:VCRUNTIME140.dll
 0000:fff22000       .debug$S                   10000000     vcruntime:VCRUNTIME140.dll
 0000:fff22000       .debug$S                   10000000     vcruntime:VCRUNTIME140.dll
 0000:fff22000       .debug$S                   10000000     vcruntime:VCRUNTIME140.dll
 0000:fff22000       .debug$S                   10000000     vcruntime:VCRUNTIME140.dll
 0000:fff22000       .debug$S                   10000000     vcruntime:VCRUNTIME140.dll
 0000:fff22000       .debug$S                   10000000     vcruntime:VCRUNTIME140.dll
 0000:fff22000       .debug$S                   10000000     vcruntime:VCRUNTIME140.dll
 0000:fff22000       .debug$S                   10000000     vcruntime:VCRUNTIME140.dll
 0000:fff22000       .debug$S                   10000000     vcruntime:VCRUNTIME140.dll
 0000:fff22000       .debug$S                   10000000     vcruntime:VCRUNTIME140.dll
 0000:fff22000       .debug$S                   10000000     vcruntime:VCRUNTIME140.dll
 0000:fff22000       .debug$S                   10000000     vcruntime:VCRUNTIME140.dll
 0000:fff22000       .debug$S                   10000000     kernel32:KERNEL32.dll
 0000:fff22000       .debug$S                   10000000     imm32:IMM32.dll
 0000:fff22000       .debug$S                   10000000     imm32:IMM32.dll
 0000:fff22000       .debug$S                   10000000     kernel32:KERNEL32.dll
 0000:fff22000       .debug$S                   10000000     kernel32:KERNEL32.dll
 0000:fff22000       .debug$S                   10000000     kernel32:KERNEL32.dll
 0000:fff22000       .debug$S                   10000000     kernel32:KERNEL32.dll
 0000:fff22000       .debug$S                   10000000     kernel32:KERNEL32.dll
 0000:fff22000       .debug$S                   10000000     kernel32:KERNEL32.dll
 0000:fff22000       .debug$S                   10000000     kernel32:KERNEL32.dll
 0000:fff22000       .debug$S                   10000000     kernel32:KERNEL32.dll
 0000:fff22000       .debug$S                   10000000     kernel32:KERNEL32.dll
 0000:fff22000       .debug$S                   10000000     kernel32:KERNEL32.dll
 0000:fff22000       .debug$S                   10000000     kernel32:KERNEL32.dll
 0000:fff22000       .debug$S                   10000000     kernel32:KERNEL32.dll
 0000:fff22000       .debug$S                   10000000     kernel32:KERNEL32.dll
 0000:fff22000       .debug$S                   10000000     user32:USER32.dll
 0000:fff22000       .debug$S                   10000000     user32:USER32.dll
 0000:fff22000       .debug$S                   10000000     user32:USER32.dll
 0000:fff22000       .debug$S                   10000000     user32:USER32.dll
 0000:fff22000       .debug$S                   10000000     user32:USER32.dll
 0000:fff22000       .debug$S                   10000000     user32:USER32.dll
 0000:fff22000       .debug$S                   10000000     user32:USER32.dll
 0000:fff22000       .debug$S                   10000000     user32:USER32.dll
 0000:fff22000       .debug$S                   10000000     user32:USER32.dll
 0000:fff22000       .debug$S                   10000000     user32:USER32.dll
 0000:fff22000       .debug$S                   10000000     user32:USER32.dll
 0000:fff22000       .debug$S                   10000000     user32:USER32.dll
 0000:fff22000       .debug$S                   10000000     user32:USER32.dll
 0000:fff22000       .debug$S                   10000000     shell32:SHELL32.dll
 0002:fffb2000       .idata$6                   10000000     shell32:SHELL32.dll
 0000:fff22000       .debug$S                   10000000     ole32:ole32.dll
 0000:fff22000       .debug$S                   10000000     msvcprt:MSVCP140.dll
 0000:fff22000       .debug$S                   10000000     msvcprt:MSVCP140.dll
 0000:fff22000       .debug$S                   10000000     msvcprt:MSVCP140.dll
 0000:fff22000       .debug$S                   10000000     msvcprt:MSVCP140.dll
 0000:fff22000       .debug$S                   10000000     msvcprt:MSVCP140.dll
 0000:fff22000       .debug$S                   10000000     msvcprt:MSVCP140.dll
 0000:fff22000       .debug$S                   10000000     msvcprt:MSVCP140.dll
 0000:fff22000       .debug$S                   10000000     msvcprt:MSVCP140.dll
 0000:fff22000       .debug$S                   10000000     msvcprt:MSVCP140.dll
 0000:fff22000       .debug$S                   10000000     msvcprt:MSVCP140.dll
 0000:fff22000       .debug$S                   10000000     msvcprt:MSVCP140.dll
 0000:fff22000       .debug$S                   10000000     msvcprt:MSVCP140.dll
 0000:fff22000       .debug$S                   10000000     msvcprt:MSVCP140.dll
 0000:fff22000       .debug$S                   10000000     msvcprt:MSVCP140.dll
 0000:fff22000       .debug$S                   10000000     msvcprt:MSVCP140.dll
 0000:fff22000       .debug$S                   10000000     msvcprt:MSVCP140.dll
 0000:fff22000       .debug$S                   10000000     msvcprt:MSVCP140.dll
 0000:fff22000       .debug$S                   10000000     msvcprt:MSVCP140.dll
 0000:fff22000       .debug$S                   10000000     msvcprt:MSVCP140.dll
 0000:fff22000       .debug$S                   10000000     msvcprt:MSVCP140.dll
 0000:fff22000       .debug$S                   10000000     msvcprt:MSVCP140.dll
 0000:fff22000       .debug$S                   10000000     msvcprt:MSVCP140.dll
 0000:fff22000       .debug$S                   10000000     msvcprt:MSVCP140.dll
 0000:fff22000       .debug$S                   10000000     msvcprt:MSVCP140.dll
 0000:fff22000       .debug$S                   10000000     msvcprt:MSVCP140.dll
 0000:fff22000       .debug$S                   10000000     msvcprt:MSVCP140.dll
 0000:fff22000       .debug$S                   10000000     msvcprt:MSVCP140.dll
 0000:fff22000       .debug$S                   10000000     msvcprt:MSVCP140.dll
 0000:fff22000       .debug$S                   10000000     msvcprt:MSVCP140.dll
 0000:fff22000       .debug$S                   10000000     msvcprt:MSVCP140.dll
 0000:fff22000       .debug$S                   10000000     msvcprt:MSVCP140.dll
 0000:fff22000       .debug$S                   10000000     msvcprt:MSVCP140.dll
 0000:fff22000       .debug$S                   10000000     msvcprt:MSVCP140.dll
 0000:fff22000       .debug$S                   10000000     msvcprt:MSVCP140.dll
 0000:fff22000       .debug$S                   10000000     msvcprt:MSVCP140.dll
 0000:fff22000       .debug$S                   10000000     msvcprt:MSVCP140.dll
 0000:fff22000       .debug$S                   10000000     msvcprt:MSVCP140.dll
 0000:fff22000       .debug$S                   10000000     msvcprt:MSVCP140.dll
 0000:fff22000       .debug$S                   10000000     msvcprt:MSVCP140.dll
 0000:fff22000       .debug$S                   10000000     msvcprt:MSVCP140.dll
 0000:fff22000       .debug$S                   10000000     msvcprt:MSVCP140.dll
 0000:fff22000       .debug$S                   10000000     msvcprt:MSVCP140.dll
 0000:fff22000       .debug$S                   10000000     msvcprt:MSVCP140.dll
 0000:fff22000       .debug$S                   10000000     msvcprt:MSVCP140.dll
 0000:fff22000       .debug$S                   10000000     msvcprt:MSVCP140.dll
 0000:fff22000       .debug$S                   10000000     msvcprt:MSVCP140.dll
 0000:fff22000       .debug$S                   10000000     msvcprt:MSVCP140.dll
 0000:fff22000       .debug$S                   10000000     msvcprt:MSVCP140.dll
 0000:fff22000       .debug$S                   10000000     msvcprt:MSVCP140.dll
 0000:fff22000       .debug$S                   10000000     msvcprt:MSVCP140.dll
 0000:fff22000       .debug$S                   10000000     msvcprt:MSVCP140.dll
 0000:fff22000       .debug$S                   10000000     msvcprt:MSVCP140.dll
 0000:fff22000       .debug$S                   10000000     msvcprt:MSVCP140.dll
 0000:fff22000       .debug$S                   10000000     msvcprt:MSVCP140.dll
 0000:fff22000       .debug$S                   10000000     msvcprt:MSVCP140.dll
 0000:fff22000       .debug$S                   10000000     msvcprt:MSVCP140.dll
 0000:fff22000       .debug$S                   10000000     msvcprt:MSVCP140.dll
 0000:fff22000       .debug$S                   10000000     msvcprt:MSVCP140.dll
 0000:fff22000       .debug$S                   10000000     msvcprt:MSVCP140.dll
 0000:fff22000       .debug$S                   10000000     msvcprt:MSVCP140.dll
 0000:fff22000       .debug$S                   10000000     msvcprt:MSVCP140.dll
 0001:00000000       ??__Eg_Event@@YAXXZ        10001000 f   c_hooks.obj
 0001:00000020       ??__Ehooks@@YAXXZ          10001020 f   c_hooks.obj
 0001:00000040       ??__Evec2_origin@@YAXXZ    10001040 f   c_hooks.obj
 0001:00000070       ??__Evec2_origin@@YAXXZ    10001070 f   dll_main.obj
 0001:000000a0       ??__Eg_Aimbot@@YAXXZ       100010a0 f   Aimbot.obj
 0001:000000b0       ??__Evec2_origin@@YAXXZ    100010b0 f   Aimbot.obj
 0001:000000e0       ??__Evec2_origin@@YAXXZ    100010e0 f   Autowall.obj
 0001:00000110       ??__Evec2_origin@@YAXXZ    10001110 f   EnginePrediction.obj
 0001:00000140       ??__Eg_LagComp@@YAXXZ      10001140 f   LagComp.obj
 0001:00000160       ??__Evec2_origin@@YAXXZ    10001160 f   LagComp.obj
 0001:00000190       ??__Evec2_origin@@YAXXZ    10001190 f   AntiAim.obj
 0001:000001c0       ??__Eg_Legitbot@@YAXXZ     100011c0 f   Legitbot.obj
 0001:000001e0       ??__Evec2_origin@@YAXXZ    100011e0 f   Legitbot.obj
 0001:00000210       ??__Eg_Resolver@@YAXXZ     10001210 f   Resolver.obj
 0001:00000220       ??__Evec2_origin@@YAXXZ    10001220 f   Resolver.obj
 0001:00000250       ??__Eesp@@YAXXZ            10001250 f   c_esp.obj
 0001:00000260       ??__Evec2_origin@@YAXXZ    10001260 f   c_esp.obj
 0001:00000290       ??__EGImDefaultContext@@YAXXZ 10001290 f   imgui.obj
 0001:000002b0       ??__EGImDefaultFontAtlas@@YAXXZ 100012b0 f   imgui.obj
 0001:000002d0       ??__EGNullClipRect@@YAXXZ  100012d0 f   imgui_draw.obj
 0001:00000320       ??__Evec2_origin@@YAXXZ    10001320 f   bone_processing_hook.obj
 0001:00000350       ??__Evec2_origin@@YAXXZ    10001350 f   createmove_hook.obj
 0001:00000380       ??__Evec2_origin@@YAXXZ    10001380 f   directx_preset_hook.obj
 0001:000003b0       ??__Evec2_origin@@YAXXZ    100013b0 f   dme_hook.obj
 0001:000003e0       ??__Evec2_origin@@YAXXZ    100013e0 f   event_hook.obj
 0001:00000410       ??__Evec2_origin@@YAXXZ    10001410 f   fsn_hook.obj
 0001:00000440       ??__Evec2_origin@@YAXXZ    10001440 f   hooking_init.obj
 0001:00000470       ??__Evec2_origin@@YAXXZ    10001470 f   lock_cursor_hook.obj
 0001:000004a0       ??__Evec2_origin@@YAXXZ    100014a0 f   oview_hook.obj
 0001:000004d0       ??__Evec2_origin@@YAXXZ    100014d0 f   painttraverse_hook.obj
 0001:00000500       ??__Evec2_origin@@YAXXZ    10001500 f   sceneend_hook.obj
 0001:00000530       ??__Evec2_origin@@YAXXZ    10001530 f   wndproc_hook.obj
 0001:00000560       ??__Egalaxy_vars@@YAXXZ    10001560 f   config_system.obj
 0001:00000580       ??__Emenu@@YAXXZ           10001580 f   menu_system.obj
 0001:00000590       ??__Evec2_origin@@YAXXZ    10001590 f   menu_system.obj
 0001:000005c0       ??__Ew_printf@XorCompileTime@@YAXXZ 100015c0 f   menu_system.obj
 0001:000005d0       ??__Ew_printf_s@XorCompileTime@@YAXXZ 100015d0 f   menu_system.obj
 0001:000005e0       ??__Ew_sprintf@XorCompileTime@@YAXXZ 100015e0 f   menu_system.obj
 0001:000005f0       ??__Ew_sprintf_s@XorCompileTime@@YAXXZ 100015f0 f   menu_system.obj
 0001:00000600       ??__Evec2_origin@@YAXXZ    10001600 f   CEntity.obj
 0001:00000630       ??__EAimbotHitbox@g@@YAXXZ 10001630 f   GlobalVars.obj
 0001:00000650       ??__EEnemyEyeAngs@g@@YAXXZ 10001650 f   GlobalVars.obj
 0001:00000670       ??__EFakeAngle@g@@YAXXZ    10001670 f   GlobalVars.obj
 0001:00000680       ??__EOriginalView@g@@YAXXZ 10001680 f   GlobalVars.obj
 0001:00000690       ??__ERealAngle@g@@YAXXZ    10001690 f   GlobalVars.obj
 0001:000006a0       ??__Evec2_origin@@YAXXZ    100016a0 f   GlobalVars.obj
 0001:000006d0       ??__Evec2_origin@@YAXXZ    100016d0 f   Interfaces.obj
 0001:00000700       ??__Evec2_origin@@YAXXZ    10001700 f   Math.obj
 0001:00000730       ??__Eg_pNetvars@@YAXXZ     10001730 f   NetvarManager.obj
 0001:0000074c       ??__E_Fac_tidy_reg@std@@YAXXZ 1000174c f   msvcprt:locale0_implib.obj
 0001:000021b2       __catch$?RestoreTable@ShadowVTManager@@QAEXXZ$0 100031b2 f i c_hooks.obj
 0001:00003666       __catch$?attach@@YGKPAX@Z$0 10004666 f   dll_main.obj
 0001:00003ed1       __catch$??$_Buynode@ABUpiecewise_construct_t@std@@V?$tuple@$$QAV?$basic_string@DU?$char_traits@D@std@@V?$allocator@D@2@@std@@@2@V?$tuple@$$V@2@@?$_List_buy@U?$pair@$$CBV?$basic_string@DU?$char_traits@D@std@@V?$allocator@D@2@@std@@V?$shared_ptr@UNode@NetvarTree@@@2@@std@@V?$allocator@U?$pair@$$CBV?$basic_string@DU?$char_traits@D@std@@V?$allocator@D@2@@std@@V?$shared_ptr@UNode@NetvarTree@@@2@@std@@@2@@std@@QAEPAU?$_List_node@U?$pair@$$CBV?$basic_string@DU?$char_traits@D@std@@V?$allocator@D@2@@std@@V?$shared_ptr@UNode@NetvarTree@@@2@@std@@PAX@1@PAU21@0ABUpiecewise_construct_t@1@$$QAV?$tuple@$$QAV?$basic_string@DU?$char_traits@D@std@@V?$allocator@D@2@@std@@@1@$$QAV?$tuple@$$V@1@@Z$0 10004ed1 f i Aimbot.obj
 0001:000041e9       __catch$??$_Emplace_reallocate@H@?$vector@HV?$allocator@H@std@@@std@@QAEPAHQAH$$QAH@Z$0 100051e9 f i Aimbot.obj
 0001:000044e2       __catch$??$_Insert@AAU?$pair@$$CBV?$basic_string@DU?$char_traits@D@std@@V?$allocator@D@2@@std@@V?$shared_ptr@UNode@NetvarTree@@@2@@std@@V?$_List_unchecked_iterator@V?$_List_val@U?$_List_simple_types@U?$pair@$$CBV?$basic_string@DU?$char_traits@D@std@@V?$allocator@D@2@@std@@V?$shared_ptr@UNode@NetvarTree@@@2@@std@@@std@@@std@@@2@@?$_Hash@V?$_Umap_traits@V?$basic_string@DU?$char_traits@D@std@@V?$allocator@D@2@@std@@V?$shared_ptr@UNode@NetvarTree@@@2@V?$_Uhash_compare@V?$basic_string@DU?$char_traits@D@std@@V?$allocator@D@2@@std@@U?$hash@V?$basic_string@DU?$char_traits@D@std@@V?$allocator@D@2@@std@@@2@U?$equal_to@V?$basic_string@DU?$char_traits@D@std@@V?$allocator@D@2@@std@@@2@@2@V?$allocator@U?$pair@$$CBV?$basic_string@DU?$char_traits@D@std@@V?$allocator@D@2@@std@@V?$shared_ptr@UNode@NetvarTree@@@2@@std@@@2@$0A@@std@@@std@@IAE?AU?$pair@V?$_List_iterator@V?$_List_val@U?$_List_simple_types@U?$pair@$$CBV?$basic_string@DU?$char_traits@D@std@@V?$allocator@D@2@@std@@V?$shared_ptr@UNode@NetvarTree@@@2@@std@@@std@@@std@@@std@@_N@1@AAU?$pair@$$CBV?$basic_string@DU?$char_traits@D@std@@V?$allocator@D@2@@std@@V?$shared_ptr@UNode@NetvarTree@@@2@@1@V?$_List_unchecked_iterator@V?$_List_val@U?$_List_simple_types@U?$pair@$$CBV?$basic_string@DU?$char_traits@D@std@@V?$allocator@D@2@@std@@V?$shared_ptr@UNode@NetvarTree@@@2@@std@@@std@@@std@@@1@@Z$0 100054e2 f i Aimbot.obj
 0001:0000459c       __catch$??$_Insert@AAU?$pair@$$CBV?$basic_string@DU?$char_traits@D@std@@V?$allocator@D@2@@std@@V?$shared_ptr@UNode@NetvarTree@@@2@@std@@V?$_List_unchecked_iterator@V?$_List_val@U?$_List_simple_types@U?$pair@$$CBV?$basic_string@DU?$char_traits@D@std@@V?$allocator@D@2@@std@@V?$shared_ptr@UNode@NetvarTree@@@2@@std@@@std@@@std@@@2@@?$_Hash@V?$_Umap_traits@V?$basic_string@DU?$char_traits@D@std@@V?$allocator@D@2@@std@@V?$shared_ptr@UNode@NetvarTree@@@2@V?$_Uhash_compare@V?$basic_string@DU?$char_traits@D@std@@V?$allocator@D@2@@std@@U?$hash@V?$basic_string@DU?$char_traits@D@std@@V?$allocator@D@2@@std@@@2@U?$equal_to@V?$basic_string@DU?$char_traits@D@std@@V?$allocator@D@2@@std@@@2@@2@V?$allocator@U?$pair@$$CBV?$basic_string@DU?$char_traits@D@std@@V?$allocator@D@2@@std@@V?$shared_ptr@UNode@NetvarTree@@@2@@std@@@2@$0A@@std@@@std@@IAE?AU?$pair@V?$_List_iterator@V?$_List_val@U?$_List_simple_types@U?$pair@$$CBV?$basic_string@DU?$char_traits@D@std@@V?$allocator@D@2@@std@@V?$shared_ptr@UNode@NetvarTree@@@2@@std@@@std@@@std@@@std@@_N@1@AAU?$pair@$$CBV?$basic_string@DU?$char_traits@D@std@@V?$allocator@D@2@@std@@V?$shared_ptr@UNode@NetvarTree@@@2@@1@V?$_List_unchecked_iterator@V?$_List_val@U?$_List_simple_types@U?$pair@$$CBV?$basic_string@DU?$char_traits@D@std@@V?$allocator@D@2@@std@@V?$shared_ptr@UNode@NetvarTree@@@2@@std@@@std@@@std@@@1@@Z$2 1000559c f i Aimbot.obj
 0001:00005150       ??0<lambda_d047aa5cc1f86c7b1c4b875d1253a0f3>@@QAE@ABQAUImGuiWindow@@@Z 10006150 f i imgui.obj
 0001:000090fa       __catch$?_Buynode0@?$_List_alloc@U?$_List_base_types@U?$pair@$$CBV?$basic_string@DU?$char_traits@D@std@@V?$allocator@D@2@@std@@V?$shared_ptr@UNode@NetvarTree@@@2@@std@@V?$allocator@U?$pair@$$CBV?$basic_string@DU?$char_traits@D@std@@V?$allocator@D@2@@std@@V?$shared_ptr@UNode@NetvarTree@@@2@@std@@@2@@std@@@std@@QAEPAU?$_List_node@U?$pair@$$CBV?$basic_string@DU?$char_traits@D@std@@V?$allocator@D@2@@std@@V?$shared_ptr@UNode@NetvarTree@@@2@@std@@PAX@2@PAU32@0@Z$0 1000a0fa f i Aimbot.obj
 0001:00009a1b       __catch$?_Reallocate_exactly@?$vector@V?$_List_unchecked_iterator@V?$_List_val@U?$_List_simple_types@U?$pair@$$CBV?$basic_string@DU?$char_traits@D@std@@V?$allocator@D@2@@std@@V?$shared_ptr@UNode@NetvarTree@@@2@@std@@@std@@@std@@@std@@V?$allocator@V?$_List_unchecked_iterator@V?$_List_val@U?$_List_simple_types@U?$pair@$$CBV?$basic_string@DU?$char_traits@D@std@@V?$allocator@D@2@@std@@V?$shared_ptr@UNode@NetvarTree@@@2@@std@@@std@@@std@@@std@@@2@@std@@AAEXI@Z$0 1000aa1b f i Aimbot.obj
 0001:0000afe4       $LN8                       1000bfe4     Autowall.obj
 0001:00010ba0       ??R<lambda_f338f303ecc4ff2fd081edb185de3335>@@QBEMMMMMM@Z 10011ba0 f   Resolver.obj
 0001:000164b0       ?ImGui_ImplDX9_CreateFontsTexture@@YA_NXZ 100174b0 f   imgui_impl_dx9.obj
 0001:0001781c       $LN22                      1001881c     imgui_impl_dx9.obj
 0001:0001ab00       ??D@YA?AUImVec2@@ABU0@0@Z  1001bb00 f   imgui_draw.obj
 0001:0001ab00       ??D@YA?AUImVec2@@ABU0@0@Z  1001bb00 f   imgui.obj
 0001:0001ab40       ??D@YA?AUImVec2@@ABU0@M@Z  1001bb40 f   imgui.obj
 0001:0001ab40       ??D@YA?AUImVec2@@ABU0@M@Z  1001bb40 f   imgui_draw.obj
 0001:0001ab80       ??G@YA?AUImVec2@@ABU0@0@Z  1001bb80 f   imgui_draw.obj
 0001:0001ab80       ??G@YA?AUImVec2@@ABU0@0@Z  1001bb80 f   imgui.obj
 0001:0001abc0       ??H@YA?AUImVec2@@ABU0@0@Z  1001bbc0 f   imgui_draw.obj
 0001:0001abc0       ??H@YA?AUImVec2@@ABU0@0@Z  1001bbc0 f   imgui.obj
 0001:0001ac00       ??K@YA?AUImVec2@@ABU0@0@Z  1001bc00 f   imgui.obj
 0001:0001ac40       ??R<lambda_d047aa5cc1f86c7b1c4b875d1253a0f3>@@QBEXHH_NM@Z 1001bc40 f   imgui.obj
 0001:0001afd0       ??X@YAAAUImVec2@@AAU0@M@Z  1001bfd0 f   imgui.obj
 0001:0001afd0       ??X@YAAAUImVec2@@AAU0@M@Z  1001bfd0 f   imgui_draw.obj
 0001:0001b000       ??Y@YAAAUImVec2@@AAU0@ABU0@@Z 1001c000 f   imgui.obj
 0001:0001b040       ?AddDrawListToRenderList@@YAXAAV?$ImVector@PAUImDrawList@@@@PAUImDrawList@@@Z 1001c040 f   imgui.obj
 0001:0001b130       ?AddWindowSettings@@YAPAUImGuiIniData@@PBD@Z 1001c130 f   imgui.obj
 0001:0001b200       ?AddWindowToRenderList@@YAXAAV?$ImVector@PAUImDrawList@@@@PAUImGuiWindow@@@Z 1001c200 f   imgui.obj
 0001:0001b2a0       ?AddWindowToSortedBuffer@@YAXAAV?$ImVector@PAUImGuiWindow@@@@PAUImGuiWindow@@@Z 1001c2a0 f   imgui.obj
 0001:0001b360       ?ApplySizeFullWithConstraint@@YAXPAUImGuiWindow@@UImVec2@@@Z 1001c360 f   imgui.obj
 0001:0001ed30       ?BeginChildEx@@YA_NPBDIABUImVec2@@_NH@Z 1001fd30 f   imgui.obj
 0001:00020020       ?CheckStacksSize@@YAXPAUImGuiWindow@@_N@Z 10021020 f   imgui.obj
 0001:00020a10       ?ChildWindowComparer@@YAHPBX0@Z 10021a10 f   imgui.obj
 0001:00020e50       ?CloseInactivePopups@@YAXXZ 10021e50 f   imgui.obj
 0001:00021280       ?CreateNewWindow@@YAPAUImGuiWindow@@PBDUImVec2@@H@Z 10022280 f   imgui.obj
 0001:00022bf0       ?FindBestPopupWindowPos@@YA?AUImVec2@@ABU1@0PAHABUImRect@@@Z 10023bf0 f   imgui.obj
 0001:00022fd0       ?FindHoveredWindow@@YAPAUImGuiWindow@@UImVec2@@_N@Z 10023fd0 f   imgui.obj
 0001:000231d0       ?FindWindowSettings@@YAPAUImGuiIniData@@PBD@Z 100241d0 f   imgui.obj
 0001:00023450       ?GetClipboardTextFn_DefaultImpl@@YAPBDPAX@Z 10024450 f   imgui.obj
 0001:00023900       ?GetDefaultFont@@YAPAUImFont@@XZ 10024900 f   imgui.obj
 0001:00023950       ?GetDraggedColumnOffset@@YAMH@Z 10024950 f   imgui.obj
 0001:00023a80       ?GetFrontMostModalRootWindow@@YAPAUImGuiWindow@@XZ 10024a80 f   imgui.obj
 0001:00023cf0       ?GetStyleVarInfo@@YAPBUImGuiStyleVarInfo@@H@Z 10024cf0 f   imgui.obj
 0001:00023d80       ?GetVisibleRect@@YA?AUImRect@@XZ 10024d80 f   imgui.obj
 0001:00023f00       ?ImClamp@@YA?AUImVec2@@ABU1@0U1@@Z 10024f00 f   imgui.obj
 0001:00023f90       ?ImClamp@@YAMMMM@Z         10024f90 f   imgui.obj
 0001:00024210       ?ImFloor@@YA?AUImVec2@@ABU1@@Z 10025210 f   imgui.obj
 0001:00024250       ?ImFloor@@YAMM@Z           10025250 f   imgui.obj
 0001:00024490       ?ImLengthSqr@@YAMABUImVec2@@@Z 10025490 f   imgui.obj
 0001:000244d0       ?ImLerp@@YAMMMM@Z          100254d0 f   imgui.obj
 0001:00024500       ?ImMax@@YA?AUImVec2@@ABU1@0@Z 10025500 f   imgui.obj
 0001:00024580       ?ImMax@@YAMMM@Z            10025580 f   imgui_draw.obj
 0001:00024580       ?ImMax@@YAMMM@Z            10025580 f   imgui.obj
 0001:000245b0       ?ImMin@@YA?AUImVec2@@ABU1@0@Z 100255b0 f   imgui.obj
 0001:00024630       ?ImMin@@YAMMM@Z            10025630 f   imgui.obj
 0001:00024630       ?ImMin@@YAMMM@Z            10025630 f   imgui_draw.obj
 0001:00024660       ?ImSaturate@@YAMM@Z        10025660 f   imgui.obj
 0001:00024ba0       ?ImTextCharToUtf8@@YAHPADHI@Z 10025ba0 f   imgui.obj
 0001:00024da0       ?ImTextCountUtf8BytesFromChar@@YAHI@Z 10025da0 f   imgui.obj
 0001:00024fb0       ?ImeSetInputScreenPosFn_DefaultImpl@@YAXHH@Z 10025fb0 f   imgui.obj
 0001:000252b0       ?IsKeyPressedMap@@YA_NH_N@Z 100262b0 f   imgui.obj
 0001:000254b0       ?IsWindowContentHoverable@@YA_NPAUImGuiWindow@@@Z 100264b0 f   imgui.obj
 0001:00025890       ?LoadIniSettingsFromDisk@@YAXPBD@Z 10026890 f   imgui.obj
 0001:00025ba0       ?LogRenderedText@@YAXABUImVec2@@PBD1@Z 10026ba0 f   imgui.obj
 0001:00025dc0       ?LowerBound@@YAPAUPair@ImGuiStorage@@AAV?$ImVector@UPair@ImGuiStorage@@@@I@Z 10026dc0 f   imgui.obj
 0001:00025e40       ?MarkIniSettingsDirty@@YAXPAUImGuiWindow@@@Z 10026e40 f   imgui.obj
 0001:000273a0       ?OffsetNormToPixels@@YAMPAUImGuiWindow@@M@Z 100283a0 f   imgui.obj
 0001:00027520       ?PixelsToOffsetNorm@@YAMPAUImGuiWindow@@M@Z 10028520 f   imgui.obj
 0001:00029090       ?SaveIniSettingsToDisk@@YAXPBD@Z 1002a090 f   imgui.obj
 0001:00029290       ?Scrollbar@@YAXPAUImGuiWindow@@_N@Z 1002a290 f   imgui.obj
 0001:00029e60       ?SetClipboardTextFn_DefaultImpl@@YAXPAXPBD@Z 1002ae60 f   imgui.obj
 0001:0002a090       ?SetCurrentFont@@YAXPAUImFont@@@Z 1002b090 f   imgui.obj
 0001:0002a140       ?SetCurrentWindow@@YAXPAUImGuiWindow@@@Z 1002b140 f   imgui.obj
 0001:0002a360       ?SetWindowCollapsed@@YAXPAUImGuiWindow@@_NH@Z 1002b360 f   imgui.obj
 0001:0002a3c0       ?SetWindowPos@@YAXPAUImGuiWindow@@ABUImVec2@@H@Z 1002b3c0 f   imgui.obj
 0001:0002a4b0       ?SetWindowScrollY@@YAXPAUImGuiWindow@@M@Z 1002b4b0 f   imgui.obj
 0001:0002a500       ?SetWindowSize@@YAXPAUImGuiWindow@@ABUImVec2@@H@Z 1002b500 f   imgui.obj
 0001:0002fed0       ?Decode85@@YAXPBEPAE@Z     10030ed0 f   imgui_draw.obj
 0001:00030010       ?Decode85Byte@@YAID@Z      10031010 f   imgui_draw.obj
 0001:000300a0       ?GetDefaultCompressedFontDataTTFBase85@@YAPBDXZ 100310a0 f   imgui_draw.obj
 0001:00030300       ?ImCharIsSpace@@YA_NH@Z    10031300 f   imgui_draw.obj
 0001:000318c0       ?ImInvLength@@YAMABUImVec2@@M@Z 100328c0 f   imgui_draw.obj
 0001:00031930       ?ImMax@@YAHHH@Z            10032930 f   imgui_draw.obj
 0001:00031960       ?ImUpperPowerOfTwo@@YAHH@Z 10032960 f   imgui_draw.obj
 0001:00033590       ?rect_height_compare@@YAHPBX0@Z 10034590 f   imgui_draw.obj
 0001:00033620       ?rect_original_order@@YAHPBX0@Z 10034620 f   imgui_draw.obj
 0001:00033870       ?stb__lit@@YAXPAEI@Z       10034870 f   imgui_draw.obj
 0001:000338e0       ?stb__match@@YAXPAEI@Z     100348e0 f   imgui_draw.obj
 0001:00033970       ?stb_adler32@@YAIIPAEI@Z   10034970 f   imgui_draw.obj
 0001:00033b50       ?stb_decompress@@YAIPAE0I@Z 10034b50 f   imgui_draw.obj
 0001:00033d40       ?stb_decompress_length@@YAIPAE@Z 10034d40 f   imgui_draw.obj
 0001:00033d90       ?stb_decompress_token@@YAPAEPAE@Z 10034d90 f   imgui_draw.obj
 0001:00034180       ?stbrp__skyline_find_best_pos@@YA?AUstbrp__findresult@@PAUstbrp_context@@HH@Z 10035180 f   imgui_draw.obj
 0001:000343c0       ?stbrp__skyline_find_min_y@@YAHPAUstbrp_context@@PAUstbrp_node@@HHPAH@Z 100353c0 f   imgui_draw.obj
 0001:000344c0       ?stbrp__skyline_pack_rectangle@@YA?AUstbrp__findresult@@PAUstbrp_context@@HH@Z 100354c0 f   imgui_draw.obj
 0001:00034630       ?stbtt_FlattenCurves@@YAPAUstbtt__point@@PAUstbtt_vertex@@HMPAPAHPAHPAX@Z 10035630 f   imgui_draw.obj
 0001:00034a5c       $LN25                      10035a5c     imgui_draw.obj
 0001:00034a70       ?stbtt_GetFontOffsetForIndex_internal@@YAHPAEH@Z 10035a70 f   imgui_draw.obj
 0001:00034ba0       ?stbtt_InitFont_internal@@YAHPAUstbtt_fontinfo@@PAEH@Z 10035ba0 f   imgui_draw.obj
 0001:000352f0       ?stbtt__GetGlyfOffset@@YAHPBUstbtt_fontinfo@@H@Z 100362f0 f   imgui_draw.obj
 0001:000353f0       ?stbtt__GetGlyphInfoT2@@YAHPBUstbtt_fontinfo@@HPAH111@Z 100363f0 f   imgui_draw.obj
 0001:00035500       ?stbtt__GetGlyphShapeT2@@YAHPBUstbtt_fontinfo@@HPAPAUstbtt_vertex@@@Z 10036500 f   imgui_draw.obj
 0001:00035620       ?stbtt__GetGlyphShapeTT@@YAHPBUstbtt_fontinfo@@HPAPAUstbtt_vertex@@@Z 10036620 f   imgui_draw.obj
 0001:000363f0       ?stbtt__add_point@@YAXPAUstbtt__point@@HMM@Z 100373f0 f   imgui_draw.obj
 0001:00036420       ?stbtt__buf_get8@@YAEPAUstbtt__buf@@@Z 10037420 f   imgui_draw.obj
 0001:00036460       ?stbtt__buf_get@@YAIPAUstbtt__buf@@H@Z 10037460 f   imgui_draw.obj
 0001:000364b0       ?stbtt__buf_peek8@@YAEPAUstbtt__buf@@@Z 100374b0 f   imgui_draw.obj
 0001:000364e0       ?stbtt__buf_range@@YA?AUstbtt__buf@@PBU1@HH@Z 100374e0 f   imgui_draw.obj
 0001:00036590       ?stbtt__buf_seek@@YAXPAUstbtt__buf@@H@Z 10037590 f   imgui_draw.obj
 0001:000365d0       ?stbtt__buf_skip@@YAXPAUstbtt__buf@@H@Z 100375d0 f   imgui_draw.obj
 0001:000365f0       ?stbtt__cff_get_index@@YA?AUstbtt__buf@@PAU1@@Z 100375f0 f   imgui_draw.obj
 0001:000366b0       ?stbtt__cff_index_count@@YAHPAUstbtt__buf@@@Z 100376b0 f   imgui_draw.obj
 0001:000366e0       ?stbtt__cff_index_get@@YA?AUstbtt__buf@@U1@H@Z 100376e0 f   imgui_draw.obj
 0001:000367b0       ?stbtt__cff_int@@YAIPAUstbtt__buf@@@Z 100377b0 f   imgui_draw.obj
 0001:00036890       ?stbtt__cff_skip_operand@@YAXPAUstbtt__buf@@@Z 10037890 f   imgui_draw.obj
 0001:00036910       ?stbtt__cid_get_glyph_subrs@@YA?AUstbtt__buf@@PBUstbtt_fontinfo@@H@Z 10037910 f   imgui_draw.obj
 0001:00036ae0       ?stbtt__close_shape@@YAHPAUstbtt_vertex@@HHHHHHHHH@Z 10037ae0 f   imgui_draw.obj
 0001:00036bd0       ?stbtt__csctx_close_shape@@YAXPAUstbtt__csctx@@@Z 10037bd0 f   imgui_draw.obj
 0001:00036c30       ?stbtt__csctx_rccurve_to@@YAXPAUstbtt__csctx@@MMMMMM@Z 10037c30 f   imgui_draw.obj
 0001:00036ce0       ?stbtt__csctx_rline_to@@YAXPAUstbtt__csctx@@MM@Z 10037ce0 f   imgui_draw.obj
 0001:00036d40       ?stbtt__csctx_rmove_to@@YAXPAUstbtt__csctx@@MM@Z 10037d40 f   imgui_draw.obj
 0001:00036de0       ?stbtt__csctx_v@@YAXPAUstbtt__csctx@@EHHHHHH@Z 10037de0 f   imgui_draw.obj
 0001:00036ea0       ?stbtt__dict_get@@YA?AUstbtt__buf@@PAU1@H@Z 10037ea0 f   imgui_draw.obj
 0001:00036fc0       ?stbtt__dict_get_ints@@YAXPAUstbtt__buf@@HHPAI@Z 10037fc0 f   imgui_draw.obj
 0001:00037040       ?stbtt__fill_active_edges_new@@YAXPAM0HPAUstbtt__active_edge@@M@Z 10038040 f   imgui_draw.obj
 0001:00037ac0       ?stbtt__find_table@@YAIPAEIPBD@Z 10038ac0 f   imgui_draw.obj
 0001:00037bd0       ?stbtt__get_subr@@YA?AUstbtt__buf@@U1@H@Z 10038bd0 f   imgui_draw.obj
 0001:00037cb0       ?stbtt__get_subrs@@YA?AUstbtt__buf@@U1@0@Z 10038cb0 f   imgui_draw.obj
 0001:00037e40       ?stbtt__h_prefilter@@YAXPAEHHHI@Z 10038e40 f   imgui_draw.obj
 0001:000380f4       $LN31                      100390f4     imgui_draw.obj
 0001:00038110       ?stbtt__handle_clipped_edge@@YAXPAMHPAUstbtt__active_edge@@MMMM@Z 10039110 f   imgui_draw.obj
 0001:000382c0       ?stbtt__hheap_alloc@@YAPAXPAUstbtt__hheap@@IPAX@Z 100392c0 f   imgui_draw.obj
 0001:00038390       ?stbtt__hheap_cleanup@@YAXPAUstbtt__hheap@@PAX@Z 10039390 f   imgui_draw.obj
 0001:000383d0       ?stbtt__hheap_free@@YAXPAUstbtt__hheap@@PAX@Z 100393d0 f   imgui_draw.obj
 0001:000383f0       ?stbtt__isfont@@YAHPAE@Z   100393f0 f   imgui_draw.obj
 0001:00038650       ?stbtt__new_active@@YAPAUstbtt__active_edge@@PAUstbtt__hheap@@PAUstbtt__edge@@HMPAX@Z 10039650 f   imgui_draw.obj
 0001:00038780       ?stbtt__new_buf@@YA?AUstbtt__buf@@PBXI@Z 10039780 f   imgui_draw.obj
 0001:000387c0       ?stbtt__oversample_shift@@YAMH@Z 100397c0 f   imgui_draw.obj
 0001:00038800       ?stbtt__rasterize@@YAXPAUstbtt__bitmap@@PAUstbtt__point@@PAHHMMMMHHHPAX@Z 10039800 f   imgui_draw.obj
 0001:00038ad0       ?stbtt__rasterize_sorted_edges@@YAXPAUstbtt__bitmap@@PAUstbtt__edge@@HHHHPAX@Z 10039ad0 f   imgui_draw.obj
 0001:00038ef0       ?stbtt__run_charstring@@YAHPBUstbtt_fontinfo@@HPAUstbtt__csctx@@@Z 10039ef0 f   imgui_draw.obj
 0001:0003a49c       $LN104                     1003b49c     imgui_draw.obj
 0001:0003a4ec       $LN103                     1003b4ec     imgui_draw.obj
 0001:0003a50c       $LN105                     1003b50c     imgui_draw.obj
 0001:0003a520       ?stbtt__sort_edges@@YAXPAUstbtt__edge@@H@Z 1003b520 f   imgui_draw.obj
 0001:0003a550       ?stbtt__sort_edges_ins_sort@@YAXPAUstbtt__edge@@H@Z 1003b550 f   imgui_draw.obj
 0001:0003a670       ?stbtt__sort_edges_quicksort@@YAXPAUstbtt__edge@@H@Z 1003b670 f   imgui_draw.obj
 0001:0003a9c0       ?stbtt__tesselate_cubic@@YAXPAUstbtt__point@@PAHMMMMMMMMMH@Z 1003b9c0 f   imgui_draw.obj
 0001:0003ad70       ?stbtt__tesselate_curve@@YAHPAUstbtt__point@@PAHMMMMMMMH@Z 1003bd70 f   imgui_draw.obj
 0001:0003af70       ?stbtt__track_vertex@@YAXPAUstbtt__csctx@@HH@Z 1003bf70 f   imgui_draw.obj
 0001:0003b000       ?stbtt__v_prefilter@@YAXPAEHHHI@Z 1003c000 f   imgui_draw.obj
 0001:0003b304       $LN31                      1003c304     imgui_draw.obj
 0001:0003b320       ?stbtt_setvertex@@YAXPAUstbtt_vertex@@EHHHH@Z 1003c320 f   imgui_draw.obj
 0001:0003b360       ?ttULONG@@YAIPAE@Z         1003c360 f   imgui_draw.obj
 0001:0003b360       ?ttLONG@@YAHPAE@Z          1003c360 f   imgui_draw.obj
 0001:0003b3b0       ?ttSHORT@@YAFPAE@Z         1003c3b0 f   imgui_draw.obj
 0001:0003b3b0       ?ttUSHORT@@YAGPAE@Z        1003c3b0 f   imgui_draw.obj
 0001:0003b440       _stbrp_init_target         1003c440 f   imgui_draw.obj
 0001:0003b570       _stbrp_pack_rects          1003c570 f   imgui_draw.obj
 0001:0003b750       _stbrp_setup_allow_out_of_mem 1003c750 f   imgui_draw.obj
 0001:0003b790       _stbtt_FindGlyphIndex      1003c790 f   imgui_draw.obj
 0001:0003bb80       _stbtt_GetFontOffsetForIndex 1003cb80 f   imgui_draw.obj
 0001:0003bba0       _stbtt_GetFontVMetrics     1003cba0 f   imgui_draw.obj
 0001:0003bc20       _stbtt_GetGlyphBitmapBox   1003cc20 f   imgui_draw.obj
 0001:0003bc70       _stbtt_GetGlyphBitmapBoxSubpixel 1003cc70 f   imgui_draw.obj
 0001:0003bde0       _stbtt_GetGlyphBox         1003cde0 f   imgui_draw.obj
 0001:0003bed0       _stbtt_GetGlyphHMetrics    1003ced0 f   imgui_draw.obj
 0001:0003bfc0       _stbtt_GetGlyphShape       1003cfc0 f   imgui_draw.obj
 0001:0003c000       _stbtt_GetPackedQuad       1003d000 f   imgui_draw.obj
 0001:0003c200       _stbtt_InitFont            1003d200 f   imgui_draw.obj
 0001:0003c220       _stbtt_MakeGlyphBitmapSubpixel 1003d220 f   imgui_draw.obj
 0001:0003c320       _stbtt_PackBegin           1003d320 f   imgui_draw.obj
 0001:0003c440       _stbtt_PackEnd             1003d440 f   imgui_draw.obj
 0001:0003c470       _stbtt_PackFontRangesGatherRects 1003d470 f   imgui_draw.obj
 0001:0003c690       _stbtt_PackFontRangesRenderIntoRects 1003d690 f   imgui_draw.obj
 0001:0003cc20       _stbtt_PackSetOversampling 1003dc20 f   imgui_draw.obj
 0001:0003cc50       _stbtt_Rasterize           1003dc50 f   imgui_draw.obj
 0001:0003cd30       _stbtt_ScaleForMappingEmToPixels 1003dd30 f   imgui_draw.obj
 0001:0003cd70       _stbtt_ScaleForPixelHeight 1003dd70 f   imgui_draw.obj
 0001:00043464       $LN17                      10044464     menu_system.obj
 0001:0004549d       __catch$??$?6U?$char_traits@D@std@@@std@@YAAAV?$basic_ostream@DU?$char_traits@D@std@@@0@AAV10@PBD@Z$0 1004649d f i Interfaces.obj
 0001:0004901e       __catch$??$_Buynode@PBDABV?$shared_ptr@UNode@NetvarTree@@@std@@@?$_List_buy@U?$pair@$$CBV?$basic_string@DU?$char_traits@D@std@@V?$allocator@D@2@@std@@V?$shared_ptr@UNode@NetvarTree@@@2@@std@@V?$allocator@U?$pair@$$CBV?$basic_string@DU?$char_traits@D@std@@V?$allocator@D@2@@std@@V?$shared_ptr@UNode@NetvarTree@@@2@@std@@@2@@std@@QAEPAU?$_List_node@U?$pair@$$CBV?$basic_string@DU?$char_traits@D@std@@V?$allocator@D@2@@std@@V?$shared_ptr@UNode@NetvarTree@@@2@@std@@PAX@1@PAU21@0$$QAPBDABV?$shared_ptr@UNode@NetvarTree@@@1@@Z$0 1004a01e f i NetvarManager.obj
 0001:00049d14       ?find_pe_section@@YAPAU_IMAGE_SECTION_HEADER@@QAEI@Z 1004ad14 f   MSVCRT:utility.obj
 0001:0004a090       $$000000                   1004b090     MSVCRT:lldiv.obj
 0001:0004a140       $$000000                   1004b140     MSVCRT:llmul.obj
 0001:0004a36f       ?__scrt_initialize_thread_safe_statics@@YAHXZ 1004b36f f   MSVCRT:thread_safe_statics.obj
 0001:0004a3b3       ?__scrt_initialize_thread_safe_statics_platform_specific@@YAXXZ 1004b3b3 f   MSVCRT:thread_safe_statics.obj
 0001:0004a4a2       ?__scrt_uninitialize_thread_safe_statics@@YAXXZ 1004b4a2 f   MSVCRT:thread_safe_statics.obj
 0001:0004a620       $$000000                   1004b620     MSVCRT:chkstk.obj
 0001:0004a650       $$000000                   1004b650     MSVCRT:ftol2.obj
 0001:0004a710       $$000000                   1004b710     MSVCRT:ftol3.obj
 0001:0004aa90       $$000000                   1004ba90     MSVCRT:alloca16.obj
 0001:0004aac0       $$000000                   1004bac0     MSVCRT:llshl.obj
 0001:0004aadf       ?dllmain_crt_dispatch@@YGHQAUHINSTANCE__@@KQAX@Z 1004badf f   MSVCRT:dll_dllmain.obj
 0001:0004ab32       ?dllmain_crt_process_attach@@YAHQAUHINSTANCE__@@QAX@Z 1004bb32 f   MSVCRT:dll_dllmain.obj
 0001:0004ac3c       ?dllmain_crt_process_detach@@YAH_N@Z 1004bc3c f   MSVCRT:dll_dllmain.obj
 0001:0004acce       ?dllmain_dispatch@@YAHQAUHINSTANCE__@@KQAX@Z 1004bcce f   MSVCRT:dll_dllmain.obj
 0001:0004add4       ?dllmain_raw@@YGHQAUHINSTANCE__@@KQAX@Z 1004bdd4 f   MSVCRT:dll_dllmain.obj
 0001:0004ae30       $$000000                   1004be30     MSVCRT:sehprolg4.obj
 0001:0004b25a       ___get_entropy             1004c25a f   MSVCRT:gs_support.obj
 0001:0004b490       __ehhandler$??1?$ImVector@UGlyph@ImFont@@@@QAE@XZ 1004c490 f   imgui_draw.obj
 0001:0004b490       __ehhandler$??1?$vector@HV?$allocator@H@std@@@std@@QAE@XZ 1004c490 f   Aimbot.obj
 0001:0004b490       __ehhandler$??0?$vector@HV?$allocator@H@std@@@std@@QAE@XZ 1004c490 f   Aimbot.obj
 0001:0004b490       __ehhandler$??1?$ImVector@UImFontConfig@@@@QAE@XZ 1004c490 f   imgui_draw.obj
 0001:0004b490       __ehhandler$??1?$ImVector@UCustomRect@ImFontAtlas@@@@QAE@XZ 1004c490 f   imgui_draw.obj
 0001:0004b490       __ehhandler$??1ImFontAtlas@@QAE@XZ 1004c490 f   imgui_draw.obj
 0001:0004b490       __ehhandler$??0?$vector@V?$_List_unchecked_iterator@V?$_List_val@U?$_List_simple_types@U?$pair@$$CBV?$basic_string@DU?$char_traits@D@std@@V?$allocator@D@2@@std@@V?$shared_ptr@UNode@NetvarTree@@@2@@std@@@std@@@std@@@std@@V?$allocator@V?$_List_unchecked_iterator@V?$_List_val@U?$_List_simple_types@U?$pair@$$CBV?$basic_string@DU?$char_traits@D@std@@V?$allocator@D@2@@std@@V?$shared_ptr@UNode@NetvarTree@@@2@@std@@@std@@@std@@@std@@@2@@std@@QAE@ABV?$allocator@V?$_List_unchecked_iterator@V?$_List_val@U?$_List_simple_types@U?$pair@$$CBV?$basic_string@DU?$char_traits@D@std@@V?$allocator@D@2@@std@@V?$shared_ptr@UNode@NetvarTree@@@2@@std@@@std@@@std@@@std@@@1@@Z 1004c490 f   NetvarManager.obj
 0001:0004b490       __ehhandler$??0?$shared_ptr@UNode@NetvarTree@@@std@@QAE@ABV01@@Z 1004c490 f   NetvarManager.obj
 0001:0004b490       __ehhandler$??0?$shared_ptr@UNode@NetvarTree@@@std@@QAE@$$QAV01@@Z 1004c490 f   NetvarManager.obj
 0001:0004b490       __ehhandler$??$?0U?$default_delete@VNetvarTree@@@std@@$0A@@?$unique_ptr@VNetvarTree@@U?$default_delete@VNetvarTree@@@std@@@std@@QAE@XZ 1004c490 f   NetvarManager.obj
 0001:0004b490       __ehhandler$??1?$ImVector@UImGuiColumnData@@@@QAE@XZ 1004c490 f   imgui.obj
 0001:0004b490       __ehhandler$?c_str@?$basic_string@DU?$char_traits@D@std@@V?$allocator@D@2@@std@@QBEPBDXZ 1004c490 f   Aimbot.obj
 0001:0004b490       __ehhandler$??1?$basic_string@DU?$char_traits@D@std@@V?$allocator@D@2@@std@@QAE@XZ 1004c490 f   c_hooks.obj
 0001:0004b490       __ehhandler$??1?$ImVector@UImGuiGroupData@@@@QAE@XZ 1004c490 f   imgui.obj
 0001:0004b490       __ehhandler$??1?$list@U?$pair@$$CBV?$basic_string@DU?$char_traits@D@std@@V?$allocator@D@2@@std@@V?$shared_ptr@UNode@NetvarTree@@@2@@std@@V?$allocator@U?$pair@$$CBV?$basic_string@DU?$char_traits@D@std@@V?$allocator@D@2@@std@@V?$shared_ptr@UNode@NetvarTree@@@2@@std@@@2@@std@@QAE@XZ 1004c490 f   c_hooks.obj
 0001:0004b490       __ehhandler$??1?$ImVector@Ustbrp_rect@@@@QAE@XZ 1004c490 f   imgui_draw.obj
 0001:0004b490       __ehhandler$??1?$ImVector@D@@QAE@XZ 1004c490 f   imgui.obj
 0001:0004b490       __ehhandler$??1?$vector@V?$_List_unchecked_iterator@V?$_List_val@U?$_List_simple_types@U?$pair@$$CBV?$basic_string@DU?$char_traits@D@std@@V?$allocator@D@2@@std@@V?$shared_ptr@UNode@NetvarTree@@@2@@std@@@std@@@std@@@std@@V?$allocator@V?$_List_unchecked_iterator@V?$_List_val@U?$_List_simple_types@U?$pair@$$CBV?$basic_string@DU?$char_traits@D@std@@V?$allocator@D@2@@std@@V?$shared_ptr@UNode@NetvarTree@@@2@@std@@@std@@@std@@@std@@@2@@std@@QAE@XZ 1004c490 f   c_hooks.obj
 0001:0004b490       __ehhandler$??1?$shared_ptr@UNode@NetvarTree@@@std@@QAE@XZ 1004c490 f   c_hooks.obj
 0001:0004b490       __ehhandler$??1?$_Uninitialized_backout_al@PAV?$_List_unchecked_iterator@V?$_List_val@U?$_List_simple_types@U?$pair@$$CBV?$basic_string@DU?$char_traits@D@std@@V?$allocator@D@2@@std@@V?$shared_ptr@UNode@NetvarTree@@@2@@std@@@std@@@std@@@std@@V?$allocator@V?$_List_unchecked_iterator@V?$_List_val@U?$_List_simple_types@U?$pair@$$CBV?$basic_string@DU?$char_traits@D@std@@V?$allocator@D@2@@std@@V?$shared_ptr@UNode@NetvarTree@@@2@@std@@@std@@@std@@@std@@@2@@std@@QAE@XZ 1004c490 f   Aimbot.obj
 0001:0004b490       __ehhandler$??1?$ImVector@_N@@QAE@XZ 1004c490 f   imgui.obj
 0001:0004b490       __ehhandler$??1?$ImVector@I@@QAE@XZ 1004c490 f   imgui.obj
 0001:0004b490       __ehhandler$??1ImGuiContext@@QAE@XZ 1004c490 f   imgui.obj
 0001:0004b490       __ehhandler$??1sentry@?$basic_ostream@DU?$char_traits@D@std@@@std@@QAE@XZ 1004c490 f   Interfaces.obj
 0001:0004b490       __ehhandler$??1?$_Deque_alloc@U?$_Deque_base_types@UPlayerRecords@@V?$allocator@UPlayerRecords@@@std@@@std@@@std@@QAE@XZ 1004c490 f   LagComp.obj
 0001:0004b490       __ehhandler$??1?$deque@UPlayerRecords@@V?$allocator@UPlayerRecords@@@std@@@std@@QAE@XZ 1004c490 f   LagComp.obj
 0001:0004b490       __ehhandler$??1?$ImVector@PAUImDrawList@@@@QAE@XZ 1004c490 f   imgui.obj
 0001:0004b490       __ehhandler$??1?$ImVector@UImGuiPopupRef@@@@QAE@XZ 1004c490 f   imgui.obj
 0001:0004b490       __ehhandler$??1?$ImVector@UImGuiStyleMod@@@@QAE@XZ 1004c490 f   imgui.obj
 0001:0004b490       __ehhandler$??$?0U?$default_delete@VVMTHook@@@std@@$0A@@?$unique_ptr@VVMTHook@@U?$default_delete@VVMTHook@@@std@@@std@@QAE@XZ 1004c490 f   c_hooks.obj
 0001:0004b490       __ehhandler$??1?$ImVector@UImGuiColMod@@@@QAE@XZ 1004c490 f   imgui.obj
 0001:0004b490       __ehhandler$??$?0U?$default_delete@VShadowVTManager@@@std@@$0A@@?$unique_ptr@VShadowVTManager@@U?$default_delete@VShadowVTManager@@@std@@@std@@QAE@XZ 1004c490 f   c_hooks.obj
 0001:0004b490       __ehhandler$??0c_hooks@@QAE@XZ 1004c490 f   c_hooks.obj
 0001:0004b490       __ehhandler$??1c_hooks@@QAE@XZ 1004c490 f   c_hooks.obj
 0001:0004b490       __ehhandler$??1?$unique_ptr@$$BY0A@IU?$default_delete@$$BY0A@I@std@@@std@@QAE@XZ 1004c490 f   c_hooks.obj
 0001:0004b490       __ehhandler$??$?0U?$default_delete@$$BY0A@I@std@@$0A@@?$unique_ptr@$$BY0A@IU?$default_delete@$$BY0A@I@std@@@std@@QAE@$$T@Z 1004c490 f   c_hooks.obj
 0001:0004b490       __ehhandler$??1?$ImVector@UImGuiIniData@@@@QAE@XZ 1004c490 f   imgui.obj
 0001:0004b490       __ehhandler$??1?$ImVector@PAUImGuiWindow@@@@QAE@XZ 1004c490 f   imgui.obj
 0001:0004b490       __ehhandler$??1?$ImVector@M@@QAE@XZ 1004c490 f   imgui.obj
 0001:0004b490       __ehhandler$??1?$ImVector@PAUImFont@@@@QAE@XZ 1004c490 f   imgui.obj
 0001:0004b490       __ehhandler$??1ImDrawList@@QAE@XZ 1004c490 f   imgui.obj
 0001:0004b490       __ehhandler$??1?$ImVector@UImDrawChannel@@@@QAE@XZ 1004c490 f   imgui.obj
 0001:0004b490       __ehhandler$??1?$ImVector@UImVec2@@@@QAE@XZ 1004c490 f   imgui.obj
 0001:0004b490       __ehhandler$??$?0U?$default_delete@V_Facet_base@std@@@std@@$0A@@?$unique_ptr@V_Facet_base@std@@U?$default_delete@V_Facet_base@std@@@2@@std@@QAE@PAV_Facet_base@1@@Z 1004c490 f   config_system.obj
 0001:0004b490       __ehhandler$??1?$basic_filebuf@DU?$char_traits@D@std@@@std@@UAE@XZ 1004c490 f   config_system.obj
 0001:0004b490       __ehhandler$??1LagComp@@QAE@XZ 1004c490 f   LagComp.obj
 0001:0004b490       __ehhandler$??1?$vector@V?$basic_string@DU?$char_traits@D@std@@V?$allocator@D@2@@std@@V?$allocator@V?$basic_string@DU?$char_traits@D@std@@V?$allocator@D@2@@std@@@2@@std@@QAE@XZ 1004c490 f   config_system.obj
 0001:0004b490       __ehhandler$??0?$vector@V?$basic_string@DU?$char_traits@D@std@@V?$allocator@D@2@@std@@V?$allocator@V?$basic_string@DU?$char_traits@D@std@@V?$allocator@D@2@@std@@@2@@std@@QAE@XZ 1004c490 f   config_system.obj
 0001:0004b490       __ehhandler$??1?$basic_string@_WU?$char_traits@_W@std@@V?$allocator@_W@2@@std@@QAE@XZ 1004c490 f   config_system.obj
 0001:0004b490       __ehhandler$??0?$basic_string@_WU?$char_traits@_W@std@@V?$allocator@_W@2@@std@@QAE@XZ 1004c490 f   config_system.obj
 0001:0004b490       __ehhandler$?data@?$basic_string@DU?$char_traits@D@std@@V?$allocator@D@2@@std@@QAEPADXZ 1004c490 f   config_system.obj
 0001:0004b490       __ehhandler$??0?$basic_string@DU?$char_traits@D@std@@V?$allocator@D@2@@std@@QAE@XZ 1004c490 f   config_system.obj
 0001:0004b490       __ehhandler$??1?$ImVector@PAX@@QAE@XZ 1004c490 f   imgui.obj
 0001:0004b490       __ehhandler$??1?$ImVector@UImVec4@@@@QAE@XZ 1004c490 f   imgui.obj
 0001:0004b490       __ehhandler$??1?$ImVector@UImDrawVert@@@@QAE@XZ 1004c490 f   imgui.obj
 0001:0004b490       __ehhandler$??1Legitbot@@QAE@XZ 1004c490 f   Legitbot.obj
 0001:0004b490       __ehhandler$??1?$ImVector@G@@QAE@XZ 1004c490 f   imgui.obj
 0001:0004b490       __ehhandler$??1?$ImVector@UImDrawCmd@@@@QAE@XZ 1004c490 f   imgui.obj
 0001:0004b490       __ehhandler$??1?$ImVector@UPair@ImGuiStorage@@@@QAE@XZ 1004c490 f   imgui.obj
 0001:0004b490       __ehhandler$??$_Freenode0@V?$allocator@U?$_List_node@U?$pair@$$CBV?$basic_string@DU?$char_traits@D@std@@V?$allocator@D@2@@std@@V?$shared_ptr@UNode@NetvarTree@@@2@@std@@PAX@std@@@std@@@?$_List_node@U?$pair@$$CBV?$basic_string@DU?$char_traits@D@std@@V?$allocator@D@2@@std@@V?$shared_ptr@UNode@NetvarTree@@@2@@std@@PAX@std@@SAXAAV?$allocator@U?$_List_node@U?$pair@$$CBV?$basic_string@DU?$char_traits@D@std@@V?$allocator@D@2@@std@@V?$shared_ptr@UNode@NetvarTree@@@2@@std@@PAX@std@@@1@PAU01@@Z 1004c490 f   c_hooks.obj
 0001:0004b490       __ehhandler$??1?$_List_alloc@U?$_List_base_types@U?$pair@$$CBV?$basic_string@DU?$char_traits@D@std@@V?$allocator@D@2@@std@@V?$shared_ptr@UNode@NetvarTree@@@2@@std@@V?$allocator@U?$pair@$$CBV?$basic_string@DU?$char_traits@D@std@@V?$allocator@D@2@@std@@V?$shared_ptr@UNode@NetvarTree@@@2@@std@@@2@@std@@@std@@QAE@XZ 1004c490 f   c_hooks.obj
 0001:0004b490       __ehhandler$??$?0PAIU?$default_delete@$$BY0A@I@std@@$0A@X@?$unique_ptr@$$BY0A@IU?$default_delete@$$BY0A@I@std@@@std@@QAE@PAI@Z 1004c490 f   c_hooks.obj
 0001:0004b490       __ehhandler$??$?0U?$default_delete@VVMTHook@@@std@@$0A@@?$unique_ptr@VVMTHook@@U?$default_delete@VVMTHook@@@std@@@std@@QAE@PAVVMTHook@@@Z 1004c490 f   c_hooks.obj
 0001:0004b490       __ehhandler$??1?$_Deque_alloc@U?$_Deque_base_types@ULegitPlayerRecords@@V?$allocator@ULegitPlayerRecords@@@std@@@std@@@std@@QAE@XZ 1004c490 f   Legitbot.obj
 0001:0004b490       __ehhandler$??1?$deque@ULegitPlayerRecords@@V?$allocator@ULegitPlayerRecords@@@std@@@std@@QAE@XZ 1004c490 f   Legitbot.obj
 0001:0004b490       __ehhandler$??$?0U?$default_delete@VNetvarTree@@@std@@$0A@@?$unique_ptr@VNetvarTree@@U?$default_delete@VNetvarTree@@@std@@@std@@QAE@PAVNetvarTree@@@Z 1004c490 f   c_hooks.obj
 0001:0004b490       __ehhandler$??1ImFont@@QAE@XZ 1004c490 f   imgui_draw.obj
 0001:0004b4b0       __unwindfunclet$??$make_unique@VNetvarTree@@$$V$0A@@std@@YA?AV?$unique_ptr@VNetvarTree@@U?$default_delete@VNetvarTree@@@std@@@0@XZ$0 1004c4b0 f   c_hooks.obj
 0001:0004b4bf       __ehhandler$??$make_unique@VNetvarTree@@$$V$0A@@std@@YA?AV?$unique_ptr@VNetvarTree@@U?$default_delete@VNetvarTree@@@std@@@0@XZ 1004c4bf f   c_hooks.obj
 0001:0004b4e0       __unwindfunclet$??$make_unique@VVMTHook@@AAPAVIVRenderView@@$0A@@std@@YA?AV?$unique_ptr@VVMTHook@@U?$default_delete@VVMTHook@@@std@@@0@AAPAVIVRenderView@@@Z$0 1004c4e0 f   c_hooks.obj
 0001:0004b4e0       __unwindfunclet$??$make_unique@VVMTHook@@AAPAVIPanel@@$0A@@std@@YA?AV?$unique_ptr@VVMTHook@@U?$default_delete@VVMTHook@@@std@@@0@AAPAVIPanel@@@Z$0 1004c4e0 f   c_hooks.obj
 0001:0004b4e0       __unwindfunclet$??$make_unique@VVMTHook@@PAPAK$0A@@std@@YA?AV?$unique_ptr@VVMTHook@@U?$default_delete@VVMTHook@@@std@@@0@$$QAPAPAK@Z$0 1004c4e0 f   c_hooks.obj
 0001:0004b4e0       __unwindfunclet$??$make_unique@VVMTHook@@AAPAVISurface@@$0A@@std@@YA?AV?$unique_ptr@VVMTHook@@U?$default_delete@VVMTHook@@@std@@@0@AAPAVISurface@@@Z$0 1004c4e0 f   c_hooks.obj
 0001:0004b4e0       __unwindfunclet$??$make_unique@VVMTHook@@AAPAVCModelRender@@$0A@@std@@YA?AV?$unique_ptr@VVMTHook@@U?$default_delete@VVMTHook@@@std@@@0@AAPAVCModelRender@@@Z$0 1004c4e0 f   c_hooks.obj
 0001:0004b4e0       __unwindfunclet$??$make_unique@VVMTHook@@AAPAVIBaseClientDLL@@$0A@@std@@YA?AV?$unique_ptr@VVMTHook@@U?$default_delete@VVMTHook@@@std@@@0@AAPAVIBaseClientDLL@@@Z$0 1004c4e0 f   c_hooks.obj
 0001:0004b4e0       __unwindfunclet$??$make_unique@VVMTHook@@AAPAVIClientMode@@$0A@@std@@YA?AV?$unique_ptr@VVMTHook@@U?$default_delete@VVMTHook@@@std@@@0@AAPAVIClientMode@@@Z$0 1004c4e0 f   c_hooks.obj
 0001:0004b4ef       __ehhandler$??$make_unique@VVMTHook@@AAPAVIBaseClientDLL@@$0A@@std@@YA?AV?$unique_ptr@VVMTHook@@U?$default_delete@VVMTHook@@@std@@@0@AAPAVIBaseClientDLL@@@Z 1004c4ef f   c_hooks.obj
 0001:0004b4ef       __ehhandler$??$make_unique@VVMTHook@@AAPAVCModelRender@@$0A@@std@@YA?AV?$unique_ptr@VVMTHook@@U?$default_delete@VVMTHook@@@std@@@0@AAPAVCModelRender@@@Z 1004c4ef f   c_hooks.obj
 0001:0004b4ef       __ehhandler$??$make_unique@VVMTHook@@AAPAVISurface@@$0A@@std@@YA?AV?$unique_ptr@VVMTHook@@U?$default_delete@VVMTHook@@@std@@@0@AAPAVISurface@@@Z 1004c4ef f   c_hooks.obj
 0001:0004b4ef       __ehhandler$??$make_unique@VVMTHook@@AAPAVIVRenderView@@$0A@@std@@YA?AV?$unique_ptr@VVMTHook@@U?$default_delete@VVMTHook@@@std@@@0@AAPAVIVRenderView@@@Z 1004c4ef f   c_hooks.obj
 0001:0004b4ef       __ehhandler$??$make_unique@VVMTHook@@AAPAVIPanel@@$0A@@std@@YA?AV?$unique_ptr@VVMTHook@@U?$default_delete@VVMTHook@@@std@@@0@AAPAVIPanel@@@Z 1004c4ef f   c_hooks.obj
 0001:0004b4ef       __ehhandler$??$make_unique@VVMTHook@@AAPAVIClientMode@@$0A@@std@@YA?AV?$unique_ptr@VVMTHook@@U?$default_delete@VVMTHook@@@std@@@0@AAPAVIClientMode@@@Z 1004c4ef f   c_hooks.obj
 0001:0004b4ef       __ehhandler$??$make_unique@VVMTHook@@PAPAK$0A@@std@@YA?AV?$unique_ptr@VVMTHook@@U?$default_delete@VVMTHook@@@std@@@0@$$QAPAPAK@Z 1004c4ef f   c_hooks.obj
 0001:0004b510       __unwindfunclet$??0?$basic_string@DU?$char_traits@D@std@@V?$allocator@D@2@@std@@QAE@QBD@Z$0 1004c510 f   c_hooks.obj
 0001:0004b518       __ehhandler$??0?$basic_string@DU?$char_traits@D@std@@V?$allocator@D@2@@std@@QAE@QBD@Z 1004c518 f   c_hooks.obj
 0001:0004b540       __unwindfunclet$??0VMTHook@@QAE@PAX@Z$0 1004c540 f   c_hooks.obj
 0001:0004b548       __ehhandler$??0VMTHook@@QAE@PAX@Z 1004c548 f   c_hooks.obj
 0001:0004b570       __ehhandler$?end@?$basic_string@DU?$char_traits@D@std@@V?$allocator@D@2@@std@@QAE?AV?$_String_iterator@V?$_String_val@U?$_Simple_types@D@std@@@std@@@2@XZ 1004c570 f   c_esp.obj
 0001:0004b570       __ehhandler$??1ShadowVTManager@@QAE@XZ 1004c570 f   c_hooks.obj
 0001:0004b570       __ehhandler$?_Destroy@?$_Ref_count_obj@UNode@NetvarTree@@@std@@EAEXXZ 1004c570 f   NetvarManager.obj
 0001:0004b570       __ehhandler$?begin@?$basic_string@DU?$char_traits@D@std@@V?$allocator@D@2@@std@@QAE?AV?$_String_iterator@V?$_String_val@U?$_Simple_types@D@std@@@std@@@2@XZ 1004c570 f   c_esp.obj
 0001:0004b570       __ehhandler$??1_Fac_node@std@@QAE@XZ 1004c570 f   msvcprt:locale0_implib.obj
 0001:0004b570       __ehhandler$?zero@?$duration@_JU?$ratio@$00$0DOI@@std@@@chrono@std@@SA?AV123@XZ 1004c570 f   dll_main.obj
 0001:0004b590       __unwindfunclet$?Init@c_hooks@@SAXXZ$1 1004c590 f   c_hooks.obj
 0001:0004b598       __ehhandler$?Init@c_hooks@@SAXXZ 1004c598 f   c_hooks.obj
 0001:0004b5c0       __unwindfunclet$?Restore@c_hooks@@SAXXZ$0 1004c5c0 f   c_hooks.obj
 0001:0004b5c8       __unwindfunclet$?Restore@c_hooks@@SAXXZ$1 1004c5c8 f   c_hooks.obj
 0001:0004b5d0       __ehhandler$?Restore@c_hooks@@SAXXZ 1004c5d0 f   c_hooks.obj
 0001:0004b600       __ehhandler$?RestoreTable@ShadowVTManager@@QAEXXZ 1004c600 f   c_hooks.obj
 0001:0004b620       __ehhandler$?find@?$basic_string@DU?$char_traits@D@std@@V?$allocator@D@2@@std@@QBEIQBDI@Z 1004c620 f   c_esp.obj
 0001:0004b620       __ehhandler$?_Equal@?$basic_string@DU?$char_traits@D@std@@V?$allocator@D@2@@std@@QBE_NQBD@Z 1004c620 f   config_system.obj
 0001:0004b620       __ehhandler$??1locale@std@@QAE@XZ 1004c620 f   config_system.obj
 0001:0004b620       __ehhandler$?clear@?$list@U?$pair@$$CBV?$basic_string@DU?$char_traits@D@std@@V?$allocator@D@2@@std@@V?$shared_ptr@UNode@NetvarTree@@@2@@std@@V?$allocator@U?$pair@$$CBV?$basic_string@DU?$char_traits@D@std@@V?$allocator@D@2@@std@@V?$shared_ptr@UNode@NetvarTree@@@2@@std@@@2@@std@@QAEXXZ 1004c620 f   c_hooks.obj
 0001:0004b640       __ehhandler$?attach@@YGKPAX@Z 1004c640 f   dll_main.obj
 0001:0004b660       __ehhandler$?end@?$deque@ULegitPlayerRecords@@V?$allocator@ULegitPlayerRecords@@@std@@@std@@QAE?AV?$_Deque_iterator@V?$_Deque_val@U?$_Deque_simple_types@ULegitPlayerRecords@@@std@@@std@@@2@XZ 1004c660 f   Legitbot.obj
 0001:0004b660       __ehhandler$?end@?$deque@UPlayerRecords@@V?$allocator@UPlayerRecords@@@std@@@std@@QAE?AV?$_Deque_iterator@V?$_Deque_val@U?$_Deque_simple_types@UPlayerRecords@@@std@@@std@@@2@XZ 1004c660 f   LagComp.obj
 0001:0004b660       __ehhandler$?_Assign_rv_contents_with_alloc_always_equal@?$basic_string@DU?$char_traits@D@std@@V?$allocator@D@2@@std@@QAEX$$QAV12@U?$integral_constant@_N$00@2@@Z 1004c660 f   Aimbot.obj
 0001:0004b660       __ehhandler$??1_Sentry_base@?$basic_ostream@DU?$char_traits@D@std@@@std@@QAE@XZ 1004c660 f   Interfaces.obj
 0001:0004b660       __ehhandler$?now@system_clock@chrono@std@@SA?AV?$time_point@Usystem_clock@chrono@std@@V?$duration@_JU?$ratio@$00$0JIJGIA@@std@@@23@@23@XZ 1004c660 f   dll_main.obj
 0001:0004b680       __ehhandler$??$?0V?$basic_string@DU?$char_traits@D@std@@V?$allocator@D@2@@std@@$$V$0A@@?$tuple@$$QAV?$basic_string@DU?$char_traits@D@std@@V?$allocator@D@2@@std@@@std@@QAE@$$QAV?$basic_string@DU?$char_traits@D@std@@V?$allocator@D@2@@1@@Z 1004c680 f   Aimbot.obj
 0001:0004b680       __ehhandler$?begin@?$list@U?$pair@$$CBV?$basic_string@DU?$char_traits@D@std@@V?$allocator@D@2@@std@@V?$shared_ptr@UNode@NetvarTree@@@2@@std@@V?$allocator@U?$pair@$$CBV?$basic_string@DU?$char_traits@D@std@@V?$allocator@D@2@@std@@V?$shared_ptr@UNode@NetvarTree@@@2@@std@@@2@@std@@QAE?AV?$_List_iterator@V?$_List_val@U?$_List_simple_types@U?$pair@$$CBV?$basic_string@DU?$char_traits@D@std@@V?$allocator@D@2@@std@@V?$shared_ptr@UNode@NetvarTree@@@2@@std@@@std@@@std@@@2@XZ 1004c680 f   Aimbot.obj
 0001:0004b680       __ehhandler$??4?$basic_string@DU?$char_traits@D@std@@V?$allocator@D@2@@std@@QAEAAV01@$$QAV01@@Z 1004c680 f   imgui.obj
 0001:0004b680       __ehhandler$?begin@?$deque@ULegitPlayerRecords@@V?$allocator@ULegitPlayerRecords@@@std@@@std@@QAE?AV?$_Deque_iterator@V?$_Deque_val@U?$_Deque_simple_types@ULegitPlayerRecords@@@std@@@std@@@2@XZ 1004c680 f   Legitbot.obj
 0001:0004b680       __ehhandler$?end@?$list@U?$pair@$$CBV?$basic_string@DU?$char_traits@D@std@@V?$allocator@D@2@@std@@V?$shared_ptr@UNode@NetvarTree@@@2@@std@@V?$allocator@U?$pair@$$CBV?$basic_string@DU?$char_traits@D@std@@V?$allocator@D@2@@std@@V?$shared_ptr@UNode@NetvarTree@@@2@@std@@@2@@std@@QAE?AV?$_List_iterator@V?$_List_val@U?$_List_simple_types@U?$pair@$$CBV?$basic_string@DU?$char_traits@D@std@@V?$allocator@D@2@@std@@V?$shared_ptr@UNode@NetvarTree@@@2@@std@@@std@@@std@@@2@XZ 1004c680 f   Aimbot.obj
 0001:0004b680       __ehhandler$??0?$basic_string@DU?$char_traits@D@std@@V?$allocator@D@2@@std@@QAE@$$QAV01@@Z 1004c680 f   Aimbot.obj
 0001:0004b680       __ehhandler$?__scrt_initialize_thread_safe_statics_platform_specific@@YAXXZ 1004c680 f   MSVCRT:thread_safe_statics.obj
 0001:0004b680       __ehhandler$?_Make_iter@?$list@U?$pair@$$CBV?$basic_string@DU?$char_traits@D@std@@V?$allocator@D@2@@std@@V?$shared_ptr@UNode@NetvarTree@@@2@@std@@V?$allocator@U?$pair@$$CBV?$basic_string@DU?$char_traits@D@std@@V?$allocator@D@2@@std@@V?$shared_ptr@UNode@NetvarTree@@@2@@std@@@2@@std@@QBE?AV?$_List_iterator@V?$_List_val@U?$_List_simple_types@U?$pair@$$CBV?$basic_string@DU?$char_traits@D@std@@V?$allocator@D@2@@std@@V?$shared_ptr@UNode@NetvarTree@@@2@@std@@@std@@@std@@@2@V?$_List_const_iterator@V?$_List_val@U?$_List_simple_types@U?$pair@$$CBV?$basic_string@DU?$char_traits@D@std@@V?$allocator@D@2@@std@@V?$shared_ptr@UNode@NetvarTree@@@2@@std@@@std@@@std@@@2@@Z 1004c680 f   Aimbot.obj
 0001:0004b680       __ehhandler$?begin@?$deque@UPlayerRecords@@V?$allocator@UPlayerRecords@@@std@@@std@@QAE?AV?$_Deque_iterator@V?$_Deque_val@U?$_Deque_simple_types@UPlayerRecords@@@std@@@std@@@2@XZ 1004c680 f   Aimbot.obj
 0001:0004b6a0       __unwindfunclet$??$GetOffset@PBDPBD@NetvarTree@@QAEHPBD00@Z$0 1004c6a0 f   Aimbot.obj
 0001:0004b6a0       __unwindfunclet$??$GetOffset@PBD@NetvarTree@@QAEHPBD0@Z$0 1004c6a0 f   Aimbot.obj
 0001:0004b6a8       __ehhandler$??$GetOffset@PBD@NetvarTree@@QAEHPBD0@Z 1004c6a8 f   Aimbot.obj
 0001:0004b6a8       __ehhandler$??$GetOffset@PBDPBD@NetvarTree@@QAEHPBD00@Z 1004c6a8 f   Aimbot.obj
 0001:0004b6d0       __unwindfunclet$?IsKnifeorNade@C_BaseEntity@@QAE_NXZ$0 1004c6d0 f   CEntity.obj
 0001:0004b6d0       __unwindfunclet$??$GetOffsetRecursive@PBD@NetvarTree@@AAEHAAV?$unordered_map@V?$basic_string@DU?$char_traits@D@std@@V?$allocator@D@2@@std@@V?$shared_ptr@UNode@NetvarTree@@@2@U?$hash@V?$basic_string@DU?$char_traits@D@std@@V?$allocator@D@2@@std@@@2@U?$equal_to@V?$basic_string@DU?$char_traits@D@std@@V?$allocator@D@2@@std@@@2@V?$allocator@U?$pair@$$CBV?$basic_string@DU?$char_traits@D@std@@V?$allocator@D@2@@std@@V?$shared_ptr@UNode@NetvarTree@@@2@@std@@@2@@std@@HPBD1@Z$0 1004c6d0 f   Aimbot.obj
 0001:0004b6d8       __ehhandler$??$GetOffsetRecursive@PBD@NetvarTree@@AAEHAAV?$unordered_map@V?$basic_string@DU?$char_traits@D@std@@V?$allocator@D@2@@std@@V?$shared_ptr@UNode@NetvarTree@@@2@U?$hash@V?$basic_string@DU?$char_traits@D@std@@V?$allocator@D@2@@std@@@2@U?$equal_to@V?$basic_string@DU?$char_traits@D@std@@V?$allocator@D@2@@std@@@2@V?$allocator@U?$pair@$$CBV?$basic_string@DU?$char_traits@D@std@@V?$allocator@D@2@@std@@V?$shared_ptr@UNode@NetvarTree@@@2@@std@@@2@@std@@HPBD1@Z 1004c6d8 f   Aimbot.obj
 0001:0004b6d8       __ehhandler$?IsKnifeorNade@C_BaseEntity@@QAE_NXZ 1004c6d8 f   CEntity.obj
 0001:0004b700       __ehhandler$??$_Buynode@ABUpiecewise_construct_t@std@@V?$tuple@$$QAV?$basic_string@DU?$char_traits@D@std@@V?$allocator@D@2@@std@@@2@V?$tuple@$$V@2@@?$_List_buy@U?$pair@$$CBV?$basic_string@DU?$char_traits@D@std@@V?$allocator@D@2@@std@@V?$shared_ptr@UNode@NetvarTree@@@2@@std@@V?$allocator@U?$pair@$$CBV?$basic_string@DU?$char_traits@D@std@@V?$allocator@D@2@@std@@V?$shared_ptr@UNode@NetvarTree@@@2@@std@@@2@@std@@QAEPAU?$_List_node@U?$pair@$$CBV?$basic_string@DU?$char_traits@D@std@@V?$allocator@D@2@@std@@V?$shared_ptr@UNode@NetvarTree@@@2@@std@@PAX@1@PAU21@0ABUpiecewise_construct_t@1@$$QAV?$tuple@$$QAV?$basic_string@DU?$char_traits@D@std@@V?$allocator@D@2@@std@@@1@$$QAV?$tuple@$$V@1@@Z 1004c700 f   Aimbot.obj
 0001:0004b720       __ehhandler$??$_Emplace_reallocate@H@?$vector@HV?$allocator@H@std@@@std@@QAEPAHQAH$$QAH@Z 1004c720 f   Aimbot.obj
 0001:0004b740       __ehhandler$??$_Insert@AAU?$pair@$$CBV?$basic_string@DU?$char_traits@D@std@@V?$allocator@D@2@@std@@V?$shared_ptr@UNode@NetvarTree@@@2@@std@@V?$_List_unchecked_iterator@V?$_List_val@U?$_List_simple_types@U?$pair@$$CBV?$basic_string@DU?$char_traits@D@std@@V?$allocator@D@2@@std@@V?$shared_ptr@UNode@NetvarTree@@@2@@std@@@std@@@std@@@2@@?$_Hash@V?$_Umap_traits@V?$basic_string@DU?$char_traits@D@std@@V?$allocator@D@2@@std@@V?$shared_ptr@UNode@NetvarTree@@@2@V?$_Uhash_compare@V?$basic_string@DU?$char_traits@D@std@@V?$allocator@D@2@@std@@U?$hash@V?$basic_string@DU?$char_traits@D@std@@V?$allocator@D@2@@std@@@2@U?$equal_to@V?$basic_string@DU?$char_traits@D@std@@V?$allocator@D@2@@std@@@2@@2@V?$allocator@U?$pair@$$CBV?$basic_string@DU?$char_traits@D@std@@V?$allocator@D@2@@std@@V?$shared_ptr@UNode@NetvarTree@@@2@@std@@@2@$0A@@std@@@std@@IAE?AU?$pair@V?$_List_iterator@V?$_List_val@U?$_List_simple_types@U?$pair@$$CBV?$basic_string@DU?$char_traits@D@std@@V?$allocator@D@2@@std@@V?$shared_ptr@UNode@NetvarTree@@@2@@std@@@std@@@std@@@std@@_N@1@AAU?$pair@$$CBV?$basic_string@DU?$char_traits@D@std@@V?$allocator@D@2@@std@@V?$shared_ptr@UNode@NetvarTree@@@2@@1@V?$_List_unchecked_iterator@V?$_List_val@U?$_List_simple_types@U?$pair@$$CBV?$basic_string@DU?$char_traits@D@std@@V?$allocator@D@2@@std@@V?$shared_ptr@UNode@NetvarTree@@@2@@std@@@std@@@std@@@1@@Z 1004c740 f   Aimbot.obj
 0001:0004b760       __unwindfunclet$??$_Uninitialized_move_al_unchecked@PAV?$_List_unchecked_iterator@V?$_List_val@U?$_List_simple_types@U?$pair@$$CBV?$basic_string@DU?$char_traits@D@std@@V?$allocator@D@2@@std@@V?$shared_ptr@UNode@NetvarTree@@@2@@std@@@std@@@std@@@std@@PAV12@V?$allocator@V?$_List_unchecked_iterator@V?$_List_val@U?$_List_simple_types@U?$pair@$$CBV?$basic_string@DU?$char_traits@D@std@@V?$allocator@D@2@@std@@V?$shared_ptr@UNode@NetvarTree@@@2@@std@@@std@@@std@@@std@@@2@@std@@YAPAV?$_List_unchecked_iterator@V?$_List_val@U?$_List_simple_types@U?$pair@$$CBV?$basic_string@DU?$char_traits@D@std@@V?$allocator@D@2@@std@@V?$shared_ptr@UNode@NetvarTree@@@2@@std@@@std@@@std@@@0@PAV10@QAV10@1AAV?$allocator@V?$_List_unchecked_iterator@V?$_List_val@U?$_List_simple_types@U?$pair@$$CBV?$basic_string@DU?$char_traits@D@std@@V?$allocator@D@2@@std@@V?$shared_ptr@UNode@NetvarTree@@@2@@std@@@std@@@std@@@std@@@0@U_General_ptr_iterator_tag@0@U_Unused_parameter@0@@Z$0 1004c760 f   Aimbot.obj
 0001:0004b760       __unwindfunclet$??$_Uninit_alloc_fill_n1@PAV?$_List_unchecked_iterator@V?$_List_val@U?$_List_simple_types@U?$pair@$$CBV?$basic_string@DU?$char_traits@D@std@@V?$allocator@D@2@@std@@V?$shared_ptr@UNode@NetvarTree@@@2@@std@@@std@@@std@@@std@@IV?$allocator@V?$_List_unchecked_iterator@V?$_List_val@U?$_List_simple_types@U?$pair@$$CBV?$basic_string@DU?$char_traits@D@std@@V?$allocator@D@2@@std@@V?$shared_ptr@UNode@NetvarTree@@@2@@std@@@std@@@std@@@std@@@2@@std@@YAPAV?$_List_unchecked_iterator@V?$_List_val@U?$_List_simple_types@U?$pair@$$CBV?$basic_string@DU?$char_traits@D@std@@V?$allocator@D@2@@std@@V?$shared_ptr@UNode@NetvarTree@@@2@@std@@@std@@@std@@@0@QAV10@IABV10@AAV?$allocator@V?$_List_unchecked_iterator@V?$_List_val@U?$_List_simple_types@U?$pair@$$CBV?$basic_string@DU?$char_traits@D@std@@V?$allocator@D@2@@std@@V?$shared_ptr@UNode@NetvarTree@@@2@@std@@@std@@@std@@@std@@@0@U?$integral_constant@_N$0A@@0@@Z$0 1004c760 f   Aimbot.obj
 0001:0004b768       __ehhandler$??$_Uninitialized_move_al_unchecked@PAV?$_List_unchecked_iterator@V?$_List_val@U?$_List_simple_types@U?$pair@$$CBV?$basic_string@DU?$char_traits@D@std@@V?$allocator@D@2@@std@@V?$shared_ptr@UNode@NetvarTree@@@2@@std@@@std@@@std@@@std@@PAV12@V?$allocator@V?$_List_unchecked_iterator@V?$_List_val@U?$_List_simple_types@U?$pair@$$CBV?$basic_string@DU?$char_traits@D@std@@V?$allocator@D@2@@std@@V?$shared_ptr@UNode@NetvarTree@@@2@@std@@@std@@@std@@@std@@@2@@std@@YAPAV?$_List_unchecked_iterator@V?$_List_val@U?$_List_simple_types@U?$pair@$$CBV?$basic_string@DU?$char_traits@D@std@@V?$allocator@D@2@@std@@V?$shared_ptr@UNode@NetvarTree@@@2@@std@@@std@@@std@@@0@PAV10@QAV10@1AAV?$allocator@V?$_List_unchecked_iterator@V?$_List_val@U?$_List_simple_types@U?$pair@$$CBV?$basic_string@DU?$char_traits@D@std@@V?$allocator@D@2@@std@@V?$shared_ptr@UNode@NetvarTree@@@2@@std@@@std@@@std@@@std@@@0@U_General_ptr_iterator_tag@0@U_Unused_parameter@0@@Z 1004c768 f   Aimbot.obj
 0001:0004b768       __ehhandler$??$_Uninit_alloc_fill_n1@PAV?$_List_unchecked_iterator@V?$_List_val@U?$_List_simple_types@U?$pair@$$CBV?$basic_string@DU?$char_traits@D@std@@V?$allocator@D@2@@std@@V?$shared_ptr@UNode@NetvarTree@@@2@@std@@@std@@@std@@@std@@IV?$allocator@V?$_List_unchecked_iterator@V?$_List_val@U?$_List_simple_types@U?$pair@$$CBV?$basic_string@DU?$char_traits@D@std@@V?$allocator@D@2@@std@@V?$shared_ptr@UNode@NetvarTree@@@2@@std@@@std@@@std@@@std@@@2@@std@@YAPAV?$_List_unchecked_iterator@V?$_List_val@U?$_List_simple_types@U?$pair@$$CBV?$basic_string@DU?$char_traits@D@std@@V?$allocator@D@2@@std@@V?$shared_ptr@UNode@NetvarTree@@@2@@std@@@std@@@std@@@0@QAV10@IABV10@AAV?$allocator@V?$_List_unchecked_iterator@V?$_List_val@U?$_List_simple_types@U?$pair@$$CBV?$basic_string@DU?$char_traits@D@std@@V?$allocator@D@2@@std@@V?$shared_ptr@UNode@NetvarTree@@@2@@std@@@std@@@std@@@std@@@0@U?$integral_constant@_N$0A@@0@@Z 1004c768 f   Aimbot.obj
 0001:0004b790       __unwindfunclet$??0?$_Deque_const_iterator@V?$_Deque_val@U?$_Deque_simple_types@ULegitPlayerRecords@@@std@@@std@@@std@@QAE@IPBU_Container_base12@1@@Z$0 1004c790 f   Legitbot.obj
 0001:0004b790       __unwindfunclet$??0?$_Deque_const_iterator@V?$_Deque_val@U?$_Deque_simple_types@UPlayerRecords@@@std@@@std@@@std@@QAE@IPBU_Container_base12@1@@Z$0 1004c790 f   Aimbot.obj
 0001:0004b798       __ehhandler$??0?$_Deque_const_iterator@V?$_Deque_val@U?$_Deque_simple_types@ULegitPlayerRecords@@@std@@@std@@@std@@QAE@IPBU_Container_base12@1@@Z 1004c798 f   Legitbot.obj
 0001:0004b798       __ehhandler$??0?$_Deque_const_iterator@V?$_Deque_val@U?$_Deque_simple_types@UPlayerRecords@@@std@@@std@@@std@@QAE@IPBU_Container_base12@1@@Z 1004c798 f   Aimbot.obj
 0001:0004b7c0       __unwindfunclet$??H?$_Deque_iterator@V?$_Deque_val@U?$_Deque_simple_types@UPlayerRecords@@@std@@@std@@@std@@QBE?AV01@H@Z$0 1004c7c0 f   Aimbot.obj
 0001:0004b7c0       __unwindfunclet$??H?$_Deque_iterator@V?$_Deque_val@U?$_Deque_simple_types@ULegitPlayerRecords@@@std@@@std@@@std@@QBE?AV01@H@Z$0 1004c7c0 f   Legitbot.obj
 0001:0004b7c8       __ehhandler$??H?$_Deque_iterator@V?$_Deque_val@U?$_Deque_simple_types@UPlayerRecords@@@std@@@std@@@std@@QBE?AV01@H@Z 1004c7c8 f   Aimbot.obj
 0001:0004b7c8       __ehhandler$??H?$_Deque_iterator@V?$_Deque_val@U?$_Deque_simple_types@ULegitPlayerRecords@@@std@@@std@@@std@@QBE?AV01@H@Z 1004c7c8 f   Legitbot.obj
 0001:0004b7f0       __unwindfunclet$?GetAccuracyPenalty@C_BaseCombatWeapon@@QAEMXZ$0 1004c7f0 f   Aimbot.obj
 0001:0004b7fc       __ehhandler$?GetAccuracyPenalty@C_BaseCombatWeapon@@QAEMXZ 1004c7fc f   Aimbot.obj
 0001:0004b820       __unwindfunclet$?GetActiveWeapon@C_BaseEntity@@QAEPAVC_BaseCombatWeapon@@XZ$0 1004c820 f   Aimbot.obj
 0001:0004b82c       __ehhandler$?GetActiveWeapon@C_BaseEntity@@QAEPAVC_BaseCombatWeapon@@XZ 1004c82c f   Aimbot.obj
 0001:0004b850       __unwindfunclet$?GetEyeAngles@C_BaseEntity@@QAE?AVVector@@XZ$0 1004c850 f   Aimbot.obj
 0001:0004b85c       __ehhandler$?GetEyeAngles@C_BaseEntity@@QAE?AVVector@@XZ 1004c85c f   Aimbot.obj
 0001:0004b880       __unwindfunclet$?GetFlags@C_BaseEntity@@QAE?AW4EntityFlags@@XZ$0 1004c880 f   Aimbot.obj
 0001:0004b88c       __ehhandler$?GetFlags@C_BaseEntity@@QAE?AW4EntityFlags@@XZ 1004c88c f   Aimbot.obj
 0001:0004b8b0       __unwindfunclet$?GetHealth@C_BaseEntity@@QAEHXZ$0 1004c8b0 f   Aimbot.obj
 0001:0004b8bc       __ehhandler$?GetHealth@C_BaseEntity@@QAEHXZ 1004c8bc f   Aimbot.obj
 0001:0004b8e0       __unwindfunclet$?GetLastShotTime@C_BaseCombatWeapon@@QAEMXZ$0 1004c8e0 f   Aimbot.obj
 0001:0004b8ec       __ehhandler$?GetLastShotTime@C_BaseCombatWeapon@@QAEMXZ 1004c8ec f   Aimbot.obj
 0001:0004b910       __unwindfunclet$?GetLifeState@C_BaseEntity@@QAE_NXZ$0 1004c910 f   Aimbot.obj
 0001:0004b91c       __ehhandler$?GetLifeState@C_BaseEntity@@QAE_NXZ 1004c91c f   Aimbot.obj
 0001:0004b940       __unwindfunclet$?GetNextPrimaryAttack@C_BaseCombatWeapon@@QAEMXZ$0 1004c940 f   Aimbot.obj
 0001:0004b94c       __ehhandler$?GetNextPrimaryAttack@C_BaseCombatWeapon@@QAEMXZ 1004c94c f   Aimbot.obj
 0001:0004b970       __unwindfunclet$?GetOffsetRecursive@NetvarTree@@CAHAAV?$unordered_map@V?$basic_string@DU?$char_traits@D@std@@V?$allocator@D@2@@std@@V?$shared_ptr@UNode@NetvarTree@@@2@U?$hash@V?$basic_string@DU?$char_traits@D@std@@V?$allocator@D@2@@std@@@2@U?$equal_to@V?$basic_string@DU?$char_traits@D@std@@V?$allocator@D@2@@std@@@2@V?$allocator@U?$pair@$$CBV?$basic_string@DU?$char_traits@D@std@@V?$allocator@D@2@@std@@V?$shared_ptr@UNode@NetvarTree@@@2@@std@@@2@@std@@HPBD@Z$0 1004c970 f   Aimbot.obj
 0001:0004b978       __ehhandler$?GetOffsetRecursive@NetvarTree@@CAHAAV?$unordered_map@V?$basic_string@DU?$char_traits@D@std@@V?$allocator@D@2@@std@@V?$shared_ptr@UNode@NetvarTree@@@2@U?$hash@V?$basic_string@DU?$char_traits@D@std@@V?$allocator@D@2@@std@@@2@U?$equal_to@V?$basic_string@DU?$char_traits@D@std@@V?$allocator@D@2@@std@@@2@V?$allocator@U?$pair@$$CBV?$basic_string@DU?$char_traits@D@std@@V?$allocator@D@2@@std@@V?$shared_ptr@UNode@NetvarTree@@@2@@std@@@2@@std@@HPBD@Z 1004c978 f   Aimbot.obj
 0001:0004b9a0       __unwindfunclet$?GetOrigin@C_BaseEntity@@QAE?AVVector@@XZ$0 1004c9a0 f   Aimbot.obj
 0001:0004b9ac       __ehhandler$?GetOrigin@C_BaseEntity@@QAE?AVVector@@XZ 1004c9ac f   Aimbot.obj
 0001:0004b9d0       __unwindfunclet$?GetSimulationTime@C_BaseEntity@@QAEMXZ$0 1004c9d0 f   Aimbot.obj
 0001:0004b9dc       __ehhandler$?GetSimulationTime@C_BaseEntity@@QAEMXZ 1004c9dc f   Aimbot.obj
 0001:0004ba00       __unwindfunclet$?GetTeam@C_BaseEntity@@QAEHXZ$0 1004ca00 f   Aimbot.obj
 0001:0004ba0c       __ehhandler$?GetTeam@C_BaseEntity@@QAEHXZ 1004ca0c f   Aimbot.obj
 0001:0004ba30       __unwindfunclet$?GetTickBase@C_BaseEntity@@QAEHXZ$0 1004ca30 f   Aimbot.obj
 0001:0004ba3c       __ehhandler$?GetTickBase@C_BaseEntity@@QAEHXZ 1004ca3c f   Aimbot.obj
 0001:0004ba60       __unwindfunclet$?GetVelocity@C_BaseEntity@@QAE?AVVector@@XZ$0 1004ca60 f   Aimbot.obj
 0001:0004ba6c       __ehhandler$?GetVelocity@C_BaseEntity@@QAE?AVVector@@XZ 1004ca6c f   Aimbot.obj
 0001:0004ba90       __unwindfunclet$?Hitscan@Aimbot@@AAE?AVVector@@PAVC_BaseEntity@@@Z$0 1004ca90 f   Aimbot.obj
 0001:0004ba9b       __ehhandler$?Hitscan@Aimbot@@AAE?AVVector@@PAVC_BaseEntity@@@Z 1004ca9b f   Aimbot.obj
 0001:0004bad0       __ehhandler$?_Buynode0@?$_List_alloc@U?$_List_base_types@U?$pair@$$CBV?$basic_string@DU?$char_traits@D@std@@V?$allocator@D@2@@std@@V?$shared_ptr@UNode@NetvarTree@@@2@@std@@V?$allocator@U?$pair@$$CBV?$basic_string@DU?$char_traits@D@std@@V?$allocator@D@2@@std@@V?$shared_ptr@UNode@NetvarTree@@@2@@std@@@2@@std@@@std@@QAEPAU?$_List_node@U?$pair@$$CBV?$basic_string@DU?$char_traits@D@std@@V?$allocator@D@2@@std@@V?$shared_ptr@UNode@NetvarTree@@@2@@std@@PAX@2@PAU32@0@Z 1004cad0 f   Aimbot.obj
 0001:0004baf0       __ehhandler$?_Equal@?$basic_string@DU?$char_traits@D@std@@V?$allocator@D@2@@std@@QBE_NABV12@@Z 1004caf0 f   Aimbot.obj
 0001:0004bb10       __ehhandler$?_Reallocate_exactly@?$vector@V?$_List_unchecked_iterator@V?$_List_val@U?$_List_simple_types@U?$pair@$$CBV?$basic_string@DU?$char_traits@D@std@@V?$allocator@D@2@@std@@V?$shared_ptr@UNode@NetvarTree@@@2@@std@@@std@@@std@@@std@@V?$allocator@V?$_List_unchecked_iterator@V?$_List_val@U?$_List_simple_types@U?$pair@$$CBV?$basic_string@DU?$char_traits@D@std@@V?$allocator@D@2@@std@@V?$shared_ptr@UNode@NetvarTree@@@2@@std@@@std@@@std@@@std@@@2@@std@@AAEXI@Z 1004cb10 f   Aimbot.obj
 0001:0004bb30       __unwindfunclet$?at@?$deque@ULegitPlayerRecords@@V?$allocator@ULegitPlayerRecords@@@std@@@std@@QAEAAULegitPlayerRecords@@I@Z$0 1004cb30 f   Legitbot.obj
 0001:0004bb30       __unwindfunclet$?at@?$deque@UPlayerRecords@@V?$allocator@UPlayerRecords@@@std@@@std@@QAEAAUPlayerRecords@@I@Z$0 1004cb30 f   Aimbot.obj
 0001:0004bb38       __unwindfunclet$?at@?$deque@ULegitPlayerRecords@@V?$allocator@ULegitPlayerRecords@@@std@@@std@@QAEAAULegitPlayerRecords@@I@Z$1 1004cb38 f   Legitbot.obj
 0001:0004bb38       __unwindfunclet$?at@?$deque@UPlayerRecords@@V?$allocator@UPlayerRecords@@@std@@@std@@QAEAAUPlayerRecords@@I@Z$1 1004cb38 f   Aimbot.obj
 0001:0004bb40       __ehhandler$?at@?$deque@UPlayerRecords@@V?$allocator@UPlayerRecords@@@std@@@std@@QAEAAUPlayerRecords@@I@Z 1004cb40 f   Aimbot.obj
 0001:0004bb40       __ehhandler$?at@?$deque@ULegitPlayerRecords@@V?$allocator@ULegitPlayerRecords@@@std@@@std@@QAEAAULegitPlayerRecords@@I@Z 1004cb40 f   Legitbot.obj
 0001:0004bb60       __unwindfunclet$?ArmorValue@C_BaseEntity@@QAEHXZ$0 1004cb60 f   Autowall.obj
 0001:0004bb6c       __ehhandler$?ArmorValue@C_BaseEntity@@QAEHXZ 1004cb6c f   Autowall.obj
 0001:0004bb90       __unwindfunclet$?HasHelmet@C_BaseEntity@@QAE_NXZ$0 1004cb90 f   Autowall.obj
 0001:0004bb9c       __ehhandler$?HasHelmet@C_BaseEntity@@QAE_NXZ 1004cb9c f   Autowall.obj
 0001:0004bbc0       __unwindfunclet$?TraceToExitalt@@YA_NAAVVector@@AAUC_Trace@@V1@2PAU2@@Z$0 1004cbc0 f   Autowall.obj
 0001:0004bbcc       __ehhandler$?TraceToExitalt@@YA_NAAVVector@@AAUC_Trace@@V1@2PAU2@@Z 1004cbcc f   Autowall.obj
 0001:0004bbf0       __unwindfunclet$?UTIL_ClipTraceToPlayers@@YAXABVVector@@0IPAVITraceFilter@@PAUC_Trace@@@Z$0 1004cbf0 f   Autowall.obj
 0001:0004bbfc       __ehhandler$?UTIL_ClipTraceToPlayers@@YAXABVVector@@0IPAVITraceFilter@@PAUC_Trace@@@Z 1004cbfc f   Autowall.obj
 0001:0004bc20       __unwindfunclet$?SetCurrentCommand@C_BaseEntity@@QAEXPAVCUserCmd@@@Z$0 1004cc20 f   EnginePrediction.obj
 0001:0004bc2c       __ehhandler$?SetCurrentCommand@C_BaseEntity@@QAEXPAVCUserCmd@@@Z 1004cc2c f   EnginePrediction.obj
 0001:0004bc50       __unwindfunclet$??$move_backward@V?$_Deque_iterator@V?$_Deque_val@U?$_Deque_simple_types@ULegitPlayerRecords@@@std@@@std@@@std@@V12@@std@@YA?AV?$_Deque_iterator@V?$_Deque_val@U?$_Deque_simple_types@ULegitPlayerRecords@@@std@@@std@@@0@V10@00@Z$0 1004cc50 f   Legitbot.obj
 0001:0004bc50       __unwindfunclet$??$move@V?$_Deque_iterator@V?$_Deque_val@U?$_Deque_simple_types@UPlayerRecords@@@std@@@std@@@std@@V12@@std@@YA?AV?$_Deque_iterator@V?$_Deque_val@U?$_Deque_simple_types@UPlayerRecords@@@std@@@std@@@0@V10@00@Z$0 1004cc50 f   LagComp.obj
 0001:0004bc50       __unwindfunclet$??$move@V?$_Deque_iterator@V?$_Deque_val@U?$_Deque_simple_types@ULegitPlayerRecords@@@std@@@std@@@std@@V12@@std@@YA?AV?$_Deque_iterator@V?$_Deque_val@U?$_Deque_simple_types@ULegitPlayerRecords@@@std@@@std@@@0@V10@00@Z$0 1004cc50 f   Legitbot.obj
 0001:0004bc50       __unwindfunclet$??$move_backward@V?$_Deque_iterator@V?$_Deque_val@U?$_Deque_simple_types@UPlayerRecords@@@std@@@std@@@std@@V12@@std@@YA?AV?$_Deque_iterator@V?$_Deque_val@U?$_Deque_simple_types@UPlayerRecords@@@std@@@std@@@0@V10@00@Z$0 1004cc50 f   LagComp.obj
 0001:0004bc58       __unwindfunclet$??$move_backward@V?$_Deque_iterator@V?$_Deque_val@U?$_Deque_simple_types@UPlayerRecords@@@std@@@std@@@std@@V12@@std@@YA?AV?$_Deque_iterator@V?$_Deque_val@U?$_Deque_simple_types@UPlayerRecords@@@std@@@std@@@0@V10@00@Z$1 1004cc58 f   LagComp.obj
 0001:0004bc58       __unwindfunclet$??$move@V?$_Deque_iterator@V?$_Deque_val@U?$_Deque_simple_types@UPlayerRecords@@@std@@@std@@@std@@V12@@std@@YA?AV?$_Deque_iterator@V?$_Deque_val@U?$_Deque_simple_types@UPlayerRecords@@@std@@@std@@@0@V10@00@Z$1 1004cc58 f   LagComp.obj
 0001:0004bc58       __unwindfunclet$??$move@V?$_Deque_iterator@V?$_Deque_val@U?$_Deque_simple_types@ULegitPlayerRecords@@@std@@@std@@@std@@V12@@std@@YA?AV?$_Deque_iterator@V?$_Deque_val@U?$_Deque_simple_types@ULegitPlayerRecords@@@std@@@std@@@0@V10@00@Z$1 1004cc58 f   Legitbot.obj
 0001:0004bc58       __unwindfunclet$??$move_backward@V?$_Deque_iterator@V?$_Deque_val@U?$_Deque_simple_types@ULegitPlayerRecords@@@std@@@std@@@std@@V12@@std@@YA?AV?$_Deque_iterator@V?$_Deque_val@U?$_Deque_simple_types@ULegitPlayerRecords@@@std@@@std@@@0@V10@00@Z$1 1004cc58 f   Legitbot.obj
 0001:0004bc60       __unwindfunclet$??$move@V?$_Deque_iterator@V?$_Deque_val@U?$_Deque_simple_types@ULegitPlayerRecords@@@std@@@std@@@std@@V12@@std@@YA?AV?$_Deque_iterator@V?$_Deque_val@U?$_Deque_simple_types@ULegitPlayerRecords@@@std@@@std@@@0@V10@00@Z$2 1004cc60 f   Legitbot.obj
 0001:0004bc60       __unwindfunclet$??$move_backward@V?$_Deque_iterator@V?$_Deque_val@U?$_Deque_simple_types@UPlayerRecords@@@std@@@std@@@std@@V12@@std@@YA?AV?$_Deque_iterator@V?$_Deque_val@U?$_Deque_simple_types@UPlayerRecords@@@std@@@std@@@0@V10@00@Z$2 1004cc60 f   LagComp.obj
 0001:0004bc60       __unwindfunclet$??$move@V?$_Deque_iterator@V?$_Deque_val@U?$_Deque_simple_types@UPlayerRecords@@@std@@@std@@@std@@V12@@std@@YA?AV?$_Deque_iterator@V?$_Deque_val@U?$_Deque_simple_types@UPlayerRecords@@@std@@@std@@@0@V10@00@Z$2 1004cc60 f   LagComp.obj
 0001:0004bc60       __unwindfunclet$??$move_backward@V?$_Deque_iterator@V?$_Deque_val@U?$_Deque_simple_types@ULegitPlayerRecords@@@std@@@std@@@std@@V12@@std@@YA?AV?$_Deque_iterator@V?$_Deque_val@U?$_Deque_simple_types@ULegitPlayerRecords@@@std@@@std@@@0@V10@00@Z$2 1004cc60 f   Legitbot.obj
 0001:0004bc68       __ehhandler$??$move@V?$_Deque_iterator@V?$_Deque_val@U?$_Deque_simple_types@ULegitPlayerRecords@@@std@@@std@@@std@@V12@@std@@YA?AV?$_Deque_iterator@V?$_Deque_val@U?$_Deque_simple_types@ULegitPlayerRecords@@@std@@@std@@@0@V10@00@Z 1004cc68 f   Legitbot.obj
 0001:0004bc68       __ehhandler$??$move@V?$_Deque_iterator@V?$_Deque_val@U?$_Deque_simple_types@UPlayerRecords@@@std@@@std@@@std@@V12@@std@@YA?AV?$_Deque_iterator@V?$_Deque_val@U?$_Deque_simple_types@UPlayerRecords@@@std@@@std@@@0@V10@00@Z 1004cc68 f   LagComp.obj
 0001:0004bc68       __ehhandler$??$move_backward@V?$_Deque_iterator@V?$_Deque_val@U?$_Deque_simple_types@ULegitPlayerRecords@@@std@@@std@@@std@@V12@@std@@YA?AV?$_Deque_iterator@V?$_Deque_val@U?$_Deque_simple_types@ULegitPlayerRecords@@@std@@@std@@@0@V10@00@Z 1004cc68 f   Legitbot.obj
 0001:0004bc68       __ehhandler$??$move_backward@V?$_Deque_iterator@V?$_Deque_val@U?$_Deque_simple_types@UPlayerRecords@@@std@@@std@@@std@@V12@@std@@YA?AV?$_Deque_iterator@V?$_Deque_val@U?$_Deque_simple_types@UPlayerRecords@@@std@@@std@@@0@V10@00@Z 1004cc68 f   LagComp.obj
 0001:0004bc90       __unwindfunclet$??H?$_Deque_const_iterator@V?$_Deque_val@U?$_Deque_simple_types@UPlayerRecords@@@std@@@std@@@std@@QBE?AV01@H@Z$0 1004cc90 f   LagComp.obj
 0001:0004bc90       __unwindfunclet$??H?$_Deque_const_iterator@V?$_Deque_val@U?$_Deque_simple_types@ULegitPlayerRecords@@@std@@@std@@@std@@QBE?AV01@H@Z$0 1004cc90 f   Legitbot.obj
 0001:0004bc98       __ehhandler$??H?$_Deque_const_iterator@V?$_Deque_val@U?$_Deque_simple_types@UPlayerRecords@@@std@@@std@@@std@@QBE?AV01@H@Z 1004cc98 f   LagComp.obj
 0001:0004bc98       __ehhandler$??H?$_Deque_const_iterator@V?$_Deque_val@U?$_Deque_simple_types@ULegitPlayerRecords@@@std@@@std@@@std@@QBE?AV01@H@Z 1004cc98 f   Legitbot.obj
 0001:0004bcc0       __unwindfunclet$?ClearRecords@LagComp@@QAEXH@Z$0 1004ccc0 f   LagComp.obj
 0001:0004bcc8       __unwindfunclet$?ClearRecords@LagComp@@QAEXH@Z$1 1004ccc8 f   LagComp.obj
 0001:0004bcd0       __ehhandler$?ClearRecords@LagComp@@QAEXH@Z 1004ccd0 f   LagComp.obj
 0001:0004bcf0       __unwindfunclet$?StoreRecord@LagComp@@QAEXPAVC_BaseEntity@@@Z$0 1004ccf0 f   LagComp.obj
 0001:0004bcfb       __unwindfunclet$?StoreRecord@LagComp@@QAEXPAVC_BaseEntity@@@Z$1 1004ccfb f   LagComp.obj
 0001:0004bd06       __ehhandler$?StoreRecord@LagComp@@QAEXPAVC_BaseEntity@@@Z 1004cd06 f   LagComp.obj
 0001:0004bd30       __unwindfunclet$?_Make_iter@?$deque@ULegitPlayerRecords@@V?$allocator@ULegitPlayerRecords@@@std@@@std@@QBE?AV?$_Deque_iterator@V?$_Deque_val@U?$_Deque_simple_types@ULegitPlayerRecords@@@std@@@std@@@2@V?$_Deque_const_iterator@V?$_Deque_val@U?$_Deque_simple_types@ULegitPlayerRecords@@@std@@@std@@@2@@Z$0 1004cd30 f   Legitbot.obj
 0001:0004bd30       __unwindfunclet$?_Make_iter@?$deque@UPlayerRecords@@V?$allocator@UPlayerRecords@@@std@@@std@@QBE?AV?$_Deque_iterator@V?$_Deque_val@U?$_Deque_simple_types@UPlayerRecords@@@std@@@std@@@2@V?$_Deque_const_iterator@V?$_Deque_val@U?$_Deque_simple_types@UPlayerRecords@@@std@@@std@@@2@@Z$0 1004cd30 f   LagComp.obj
 0001:0004bd38       __ehhandler$?_Make_iter@?$deque@ULegitPlayerRecords@@V?$allocator@ULegitPlayerRecords@@@std@@@std@@QBE?AV?$_Deque_iterator@V?$_Deque_val@U?$_Deque_simple_types@ULegitPlayerRecords@@@std@@@std@@@2@V?$_Deque_const_iterator@V?$_Deque_val@U?$_Deque_simple_types@ULegitPlayerRecords@@@std@@@std@@@2@@Z 1004cd38 f   Legitbot.obj
 0001:0004bd38       __ehhandler$?_Make_iter@?$deque@UPlayerRecords@@V?$allocator@UPlayerRecords@@@std@@@std@@QBE?AV?$_Deque_iterator@V?$_Deque_val@U?$_Deque_simple_types@UPlayerRecords@@@std@@@std@@@2@V?$_Deque_const_iterator@V?$_Deque_val@U?$_Deque_simple_types@UPlayerRecords@@@std@@@std@@@2@@Z 1004cd38 f   LagComp.obj
 0001:0004bd60       __unwindfunclet$?erase@?$deque@ULegitPlayerRecords@@V?$allocator@ULegitPlayerRecords@@@std@@@std@@QAE?AV?$_Deque_iterator@V?$_Deque_val@U?$_Deque_simple_types@ULegitPlayerRecords@@@std@@@std@@@2@V?$_Deque_const_iterator@V?$_Deque_val@U?$_Deque_simple_types@ULegitPlayerRecords@@@std@@@std@@@2@0@Z$0 1004cd60 f   Legitbot.obj
 0001:0004bd60       __unwindfunclet$?erase@?$deque@UPlayerRecords@@V?$allocator@UPlayerRecords@@@std@@@std@@QAE?AV?$_Deque_iterator@V?$_Deque_val@U?$_Deque_simple_types@UPlayerRecords@@@std@@@std@@@2@V?$_Deque_const_iterator@V?$_Deque_val@U?$_Deque_simple_types@UPlayerRecords@@@std@@@std@@@2@0@Z$0 1004cd60 f   LagComp.obj
 0001:0004bd68       __unwindfunclet$?erase@?$deque@ULegitPlayerRecords@@V?$allocator@ULegitPlayerRecords@@@std@@@std@@QAE?AV?$_Deque_iterator@V?$_Deque_val@U?$_Deque_simple_types@ULegitPlayerRecords@@@std@@@std@@@2@V?$_Deque_const_iterator@V?$_Deque_val@U?$_Deque_simple_types@ULegitPlayerRecords@@@std@@@std@@@2@0@Z$1 1004cd68 f   Legitbot.obj
 0001:0004bd68       __unwindfunclet$?erase@?$deque@UPlayerRecords@@V?$allocator@UPlayerRecords@@@std@@@std@@QAE?AV?$_Deque_iterator@V?$_Deque_val@U?$_Deque_simple_types@UPlayerRecords@@@std@@@std@@@2@V?$_Deque_const_iterator@V?$_Deque_val@U?$_Deque_simple_types@UPlayerRecords@@@std@@@std@@@2@0@Z$1 1004cd68 f   LagComp.obj
 0001:0004bd70       __unwindfunclet$?erase@?$deque@ULegitPlayerRecords@@V?$allocator@ULegitPlayerRecords@@@std@@@std@@QAE?AV?$_Deque_iterator@V?$_Deque_val@U?$_Deque_simple_types@ULegitPlayerRecords@@@std@@@std@@@2@V?$_Deque_const_iterator@V?$_Deque_val@U?$_Deque_simple_types@ULegitPlayerRecords@@@std@@@std@@@2@0@Z$3 1004cd70 f   Legitbot.obj
 0001:0004bd70       __unwindfunclet$?erase@?$deque@UPlayerRecords@@V?$allocator@UPlayerRecords@@@std@@@std@@QAE?AV?$_Deque_iterator@V?$_Deque_val@U?$_Deque_simple_types@UPlayerRecords@@@std@@@std@@@2@V?$_Deque_const_iterator@V?$_Deque_val@U?$_Deque_simple_types@UPlayerRecords@@@std@@@std@@@2@0@Z$3 1004cd70 f   LagComp.obj
 0001:0004bd78       __unwindfunclet$?erase@?$deque@ULegitPlayerRecords@@V?$allocator@ULegitPlayerRecords@@@std@@@std@@QAE?AV?$_Deque_iterator@V?$_Deque_val@U?$_Deque_simple_types@ULegitPlayerRecords@@@std@@@std@@@2@V?$_Deque_const_iterator@V?$_Deque_val@U?$_Deque_simple_types@ULegitPlayerRecords@@@std@@@std@@@2@0@Z$5 1004cd78 f   Legitbot.obj
 0001:0004bd78       __unwindfunclet$?erase@?$deque@UPlayerRecords@@V?$allocator@UPlayerRecords@@@std@@@std@@QAE?AV?$_Deque_iterator@V?$_Deque_val@U?$_Deque_simple_types@UPlayerRecords@@@std@@@std@@@2@V?$_Deque_const_iterator@V?$_Deque_val@U?$_Deque_simple_types@UPlayerRecords@@@std@@@std@@@2@0@Z$5 1004cd78 f   LagComp.obj
 0001:0004bd80       __unwindfunclet$?erase@?$deque@ULegitPlayerRecords@@V?$allocator@ULegitPlayerRecords@@@std@@@std@@QAE?AV?$_Deque_iterator@V?$_Deque_val@U?$_Deque_simple_types@ULegitPlayerRecords@@@std@@@std@@@2@V?$_Deque_const_iterator@V?$_Deque_val@U?$_Deque_simple_types@ULegitPlayerRecords@@@std@@@std@@@2@0@Z$6 1004cd80 f   Legitbot.obj
 0001:0004bd80       __unwindfunclet$?erase@?$deque@UPlayerRecords@@V?$allocator@UPlayerRecords@@@std@@@std@@QAE?AV?$_Deque_iterator@V?$_Deque_val@U?$_Deque_simple_types@UPlayerRecords@@@std@@@std@@@2@V?$_Deque_const_iterator@V?$_Deque_val@U?$_Deque_simple_types@UPlayerRecords@@@std@@@std@@@2@0@Z$6 1004cd80 f   LagComp.obj
 0001:0004bd8b       __unwindfunclet$?erase@?$deque@ULegitPlayerRecords@@V?$allocator@ULegitPlayerRecords@@@std@@@std@@QAE?AV?$_Deque_iterator@V?$_Deque_val@U?$_Deque_simple_types@ULegitPlayerRecords@@@std@@@std@@@2@V?$_Deque_const_iterator@V?$_Deque_val@U?$_Deque_simple_types@ULegitPlayerRecords@@@std@@@std@@@2@0@Z$7 1004cd8b f   Legitbot.obj
 0001:0004bd8b       __unwindfunclet$?erase@?$deque@UPlayerRecords@@V?$allocator@UPlayerRecords@@@std@@@std@@QAE?AV?$_Deque_iterator@V?$_Deque_val@U?$_Deque_simple_types@UPlayerRecords@@@std@@@std@@@2@V?$_Deque_const_iterator@V?$_Deque_val@U?$_Deque_simple_types@UPlayerRecords@@@std@@@std@@@2@0@Z$7 1004cd8b f   LagComp.obj
 0001:0004bd96       __unwindfunclet$?erase@?$deque@ULegitPlayerRecords@@V?$allocator@ULegitPlayerRecords@@@std@@@std@@QAE?AV?$_Deque_iterator@V?$_Deque_val@U?$_Deque_simple_types@ULegitPlayerRecords@@@std@@@std@@@2@V?$_Deque_const_iterator@V?$_Deque_val@U?$_Deque_simple_types@ULegitPlayerRecords@@@std@@@std@@@2@0@Z$16 1004cd96 f   Legitbot.obj
 0001:0004bd96       __unwindfunclet$?erase@?$deque@UPlayerRecords@@V?$allocator@UPlayerRecords@@@std@@@std@@QAE?AV?$_Deque_iterator@V?$_Deque_val@U?$_Deque_simple_types@UPlayerRecords@@@std@@@std@@@2@V?$_Deque_const_iterator@V?$_Deque_val@U?$_Deque_simple_types@UPlayerRecords@@@std@@@std@@@2@0@Z$16 1004cd96 f   LagComp.obj
 0001:0004bda1       __ehhandler$?erase@?$deque@UPlayerRecords@@V?$allocator@UPlayerRecords@@@std@@@std@@QAE?AV?$_Deque_iterator@V?$_Deque_val@U?$_Deque_simple_types@UPlayerRecords@@@std@@@std@@@2@V?$_Deque_const_iterator@V?$_Deque_val@U?$_Deque_simple_types@UPlayerRecords@@@std@@@std@@@2@0@Z 1004cda1 f   LagComp.obj
 0001:0004bda1       __ehhandler$?erase@?$deque@ULegitPlayerRecords@@V?$allocator@ULegitPlayerRecords@@@std@@@std@@QAE?AV?$_Deque_iterator@V?$_Deque_val@U?$_Deque_simple_types@ULegitPlayerRecords@@@std@@@std@@@2@V?$_Deque_const_iterator@V?$_Deque_val@U?$_Deque_simple_types@ULegitPlayerRecords@@@std@@@std@@@2@0@Z 1004cda1 f   Legitbot.obj
 0001:0004bdc0       __unwindfunclet$?erase@?$deque@UPlayerRecords@@V?$allocator@UPlayerRecords@@@std@@@std@@QAE?AV?$_Deque_iterator@V?$_Deque_val@U?$_Deque_simple_types@UPlayerRecords@@@std@@@std@@@2@V?$_Deque_const_iterator@V?$_Deque_val@U?$_Deque_simple_types@UPlayerRecords@@@std@@@std@@@2@@Z$0 1004cdc0 f   LagComp.obj
 0001:0004bdc0       __unwindfunclet$?erase@?$deque@ULegitPlayerRecords@@V?$allocator@ULegitPlayerRecords@@@std@@@std@@QAE?AV?$_Deque_iterator@V?$_Deque_val@U?$_Deque_simple_types@ULegitPlayerRecords@@@std@@@std@@@2@V?$_Deque_const_iterator@V?$_Deque_val@U?$_Deque_simple_types@ULegitPlayerRecords@@@std@@@std@@@2@@Z$0 1004cdc0 f   Legitbot.obj
 0001:0004bdc8       __ehhandler$?erase@?$deque@UPlayerRecords@@V?$allocator@UPlayerRecords@@@std@@@std@@QAE?AV?$_Deque_iterator@V?$_Deque_val@U?$_Deque_simple_types@UPlayerRecords@@@std@@@std@@@2@V?$_Deque_const_iterator@V?$_Deque_val@U?$_Deque_simple_types@UPlayerRecords@@@std@@@std@@@2@@Z 1004cdc8 f   LagComp.obj
 0001:0004bdc8       __ehhandler$?erase@?$deque@ULegitPlayerRecords@@V?$allocator@ULegitPlayerRecords@@@std@@@std@@QAE?AV?$_Deque_iterator@V?$_Deque_val@U?$_Deque_simple_types@ULegitPlayerRecords@@@std@@@std@@@2@V?$_Deque_const_iterator@V?$_Deque_val@U?$_Deque_simple_types@ULegitPlayerRecords@@@std@@@std@@@2@@Z 1004cdc8 f   Legitbot.obj
 0001:0004bdf0       __unwindfunclet$?OnCreateMove@Legitbot@@QAEXXZ$0 1004cdf0 f   Legitbot.obj
 0001:0004bdfb       __unwindfunclet$?OnCreateMove@Legitbot@@QAEXXZ$1 1004cdfb f   Legitbot.obj
 0001:0004be06       __ehhandler$?OnCreateMove@Legitbot@@QAEXXZ 1004ce06 f   Legitbot.obj
 0001:0004be30       __unwindfunclet$?AnimationFix@Resolver@@AAEXPAVC_BaseEntity@@@Z$0 1004ce30 f   Resolver.obj
 0001:0004be3c       __ehhandler$?AnimationFix@Resolver@@AAEXPAVC_BaseEntity@@@Z 1004ce3c f   Resolver.obj
 0001:0004be60       __unwindfunclet$?ClientAnimations@C_BaseEntity@@QAEX_N@Z$0 1004ce60 f   Resolver.obj
 0001:0004be6c       __ehhandler$?ClientAnimations@C_BaseEntity@@QAEX_N@Z 1004ce6c f   Resolver.obj
 0001:0004be90       __unwindfunclet$?GetLowerBodyYaw@C_BaseEntity@@QAEMXZ$0 1004ce90 f   Resolver.obj
 0001:0004be9c       __ehhandler$?GetLowerBodyYaw@C_BaseEntity@@QAEMXZ 1004ce9c f   Resolver.obj
 0001:0004bec0       __unwindfunclet$?SetLowerBodyYaw@C_BaseEntity@@QAEXM@Z$0 1004cec0 f   Resolver.obj
 0001:0004becc       __ehhandler$?SetLowerBodyYaw@C_BaseEntity@@QAEXM@Z 1004cecc f   Resolver.obj
 0001:0004bef0       __unwindfunclet$??$?0PADX@?$basic_string@DU?$char_traits@D@std@@V?$allocator@D@2@@std@@QAE@PAD0ABV?$allocator@D@1@@Z$0 1004cef0 f   c_esp.obj
 0001:0004bef8       __ehhandler$??$?0PADX@?$basic_string@DU?$char_traits@D@std@@V?$allocator@D@2@@std@@QAE@PAD0ABV?$allocator@D@1@@Z 1004cef8 f   c_esp.obj
 0001:0004bf20       __unwindfunclet$??0?$basic_string@DU?$char_traits@D@std@@V?$allocator@D@2@@std@@QAE@ABV01@@Z$0 1004cf20 f   c_esp.obj
 0001:0004bf28       __ehhandler$??0?$basic_string@DU?$char_traits@D@std@@V?$allocator@D@2@@std@@QAE@ABV01@@Z 1004cf28 f   c_esp.obj
 0001:0004bf50       __unwindfunclet$?GetAmmo@C_BaseCombatWeapon@@QAEHXZ$0 1004cf50 f   c_esp.obj
 0001:0004bf5c       __ehhandler$?GetAmmo@C_BaseCombatWeapon@@QAEHXZ 1004cf5c f   c_esp.obj
 0001:0004bf80       __unwindfunclet$?RenderHealth@c_esp@@AAEXPAVC_BaseEntity@@@Z$0 1004cf80 f   c_esp.obj
 0001:0004bf88       __unwindfunclet$?RenderHealth@c_esp@@AAEXPAVC_BaseEntity@@@Z$1 1004cf88 f   c_esp.obj
 0001:0004bf90       __ehhandler$?RenderHealth@c_esp@@AAEXPAVC_BaseEntity@@@Z 1004cf90 f   c_esp.obj
 0001:0004bfc0       __unwindfunclet$?RenderWeaponName@c_esp@@AAEXPAVC_BaseEntity@@@Z$0 1004cfc0 f   c_esp.obj
 0001:0004bfcb       __unwindfunclet$?RenderWeaponName@c_esp@@AAEXPAVC_BaseEntity@@@Z$1 1004cfcb f   c_esp.obj
 0001:0004bfd6       __unwindfunclet$?RenderWeaponName@c_esp@@AAEXPAVC_BaseEntity@@@Z$3 1004cfd6 f   c_esp.obj
 0001:0004bfe1       __unwindfunclet$?RenderWeaponName@c_esp@@AAEXPAVC_BaseEntity@@@Z$4 1004cfe1 f   c_esp.obj
 0001:0004bfec       __ehhandler$?RenderWeaponName@c_esp@@AAEXPAVC_BaseEntity@@@Z 1004cfec f   c_esp.obj
 0001:0004c020       __unwindfunclet$?clean_name@@YA?AV?$basic_string@DU?$char_traits@D@std@@V?$allocator@D@2@@std@@V12@@Z$0 1004d020 f   c_esp.obj
 0001:0004c028       __unwindfunclet$?clean_name@@YA?AV?$basic_string@DU?$char_traits@D@std@@V?$allocator@D@2@@std@@V12@@Z$1 1004d028 f   c_esp.obj
 0001:0004c030       __ehhandler$?clean_name@@YA?AV?$basic_string@DU?$char_traits@D@std@@V?$allocator@D@2@@std@@V12@@Z 1004d030 f   c_esp.obj
 0001:0004c060       __unwindfunclet$?m_iPrimaryReserveAmmoCount@C_BaseCombatWeapon@@QAEHXZ$0 1004d060 f   c_esp.obj
 0001:0004c06c       __ehhandler$?m_iPrimaryReserveAmmoCount@C_BaseCombatWeapon@@QAEHXZ 1004d06c f   c_esp.obj
 0001:0004c090       __unwindfunclet$??0ImDrawList@@QAE@XZ$0 1004d090 f   imgui.obj
 0001:0004c098       __unwindfunclet$??0ImDrawList@@QAE@XZ$1 1004d098 f   imgui.obj
 0001:0004c0a3       __unwindfunclet$??0ImDrawList@@QAE@XZ$2 1004d0a3 f   imgui.obj
 0001:0004c0ae       __unwindfunclet$??0ImDrawList@@QAE@XZ$3 1004d0ae f   imgui.obj
 0001:0004c0b9       __unwindfunclet$??0ImDrawList@@QAE@XZ$4 1004d0b9 f   imgui.obj
 0001:0004c0c4       __unwindfunclet$??0ImDrawList@@QAE@XZ$5 1004d0c4 f   imgui.obj
 0001:0004c0cf       __unwindfunclet$??0ImDrawList@@QAE@XZ$6 1004d0cf f   imgui.obj
 0001:0004c0da       __ehhandler$??0ImDrawList@@QAE@XZ 1004d0da f   imgui.obj
 0001:0004c100       __unwindfunclet$??0ImGuiContext@@QAE@XZ$0 1004d100 f   imgui.obj
 0001:0004c10e       __unwindfunclet$??0ImGuiContext@@QAE@XZ$1 1004d10e f   imgui.obj
 0001:0004c11c       __unwindfunclet$??0ImGuiContext@@QAE@XZ$2 1004d11c f   imgui.obj
 0001:0004c12a       __unwindfunclet$??0ImGuiContext@@QAE@XZ$3 1004d12a f   imgui.obj
 0001:0004c138       __unwindfunclet$??0ImGuiContext@@QAE@XZ$4 1004d138 f   imgui.obj
 0001:0004c146       __unwindfunclet$??0ImGuiContext@@QAE@XZ$5 1004d146 f   imgui.obj
 0001:0004c154       __unwindfunclet$??0ImGuiContext@@QAE@XZ$6 1004d154 f   imgui.obj
 0001:0004c162       __unwindfunclet$??0ImGuiContext@@QAE@XZ$7 1004d162 f   imgui.obj
 0001:0004c170       __unwindfunclet$??0ImGuiContext@@QAE@XZ$8 1004d170 f   imgui.obj
 0001:0004c17e       __unwindfunclet$??0ImGuiContext@@QAE@XZ$9 1004d17e f   imgui.obj
 0001:0004c196       __unwindfunclet$??0ImGuiContext@@QAE@XZ$10 1004d196 f   imgui.obj
 0001:0004c1a4       __unwindfunclet$??0ImGuiContext@@QAE@XZ$11 1004d1a4 f   imgui.obj
 0001:0004c1b2       __unwindfunclet$??0ImGuiContext@@QAE@XZ$12 1004d1b2 f   imgui.obj
 0001:0004c1c0       __unwindfunclet$??0ImGuiContext@@QAE@XZ$13 1004d1c0 f   imgui.obj
 0001:0004c1ce       __ehhandler$??0ImGuiContext@@QAE@XZ 1004d1ce f   imgui.obj
 0001:0004c1f0       __unwindfunclet$??0ImGuiDrawContext@@QAE@XZ$0 1004d1f0 f   imgui.obj
 0001:0004c1fb       __unwindfunclet$??0ImGuiDrawContext@@QAE@XZ$1 1004d1fb f   imgui.obj
 0001:0004c206       __unwindfunclet$??0ImGuiDrawContext@@QAE@XZ$2 1004d206 f   imgui.obj
 0001:0004c214       __unwindfunclet$??0ImGuiDrawContext@@QAE@XZ$3 1004d214 f   imgui.obj
 0001:0004c222       __unwindfunclet$??0ImGuiDrawContext@@QAE@XZ$4 1004d222 f   imgui.obj
 0001:0004c230       __unwindfunclet$??0ImGuiDrawContext@@QAE@XZ$5 1004d230 f   imgui.obj
 0001:0004c23e       __unwindfunclet$??0ImGuiDrawContext@@QAE@XZ$6 1004d23e f   imgui.obj
 0001:0004c24c       __ehhandler$??0ImGuiDrawContext@@QAE@XZ 1004d24c f   imgui.obj
 0001:0004c270       __unwindfunclet$??0ImGuiTextBuffer@@QAE@XZ$0 1004d270 f   imgui.obj
 0001:0004c278       __ehhandler$??0ImGuiTextBuffer@@QAE@XZ 1004d278 f   imgui.obj
 0001:0004c2a0       __unwindfunclet$??0ImGuiTextEditState@@QAE@XZ$0 1004d2a0 f   imgui.obj
 0001:0004c2ab       __unwindfunclet$??0ImGuiTextEditState@@QAE@XZ$1 1004d2ab f   imgui.obj
 0001:0004c2b6       __ehhandler$??0ImGuiTextEditState@@QAE@XZ 1004d2b6 f   imgui.obj
 0001:0004c2e0       __unwindfunclet$??0ImGuiWindow@@QAE@PBD@Z$0 1004d2e0 f   imgui.obj
 0001:0004c2ee       __unwindfunclet$??0ImGuiWindow@@QAE@PBD@Z$1 1004d2ee f   imgui.obj
 0001:0004c2fc       __unwindfunclet$??0ImGuiWindow@@QAE@PBD@Z$2 1004d2fc f   imgui.obj
 0001:0004c30a       __unwindfunclet$??0ImGuiWindow@@QAE@PBD@Z$3 1004d30a f   imgui.obj
 0001:0004c328       __ehhandler$??0ImGuiWindow@@QAE@PBD@Z 1004d328 f   imgui.obj
 0001:0004c350       __unwindfunclet$?CreateContext@ImGui@@YAPAUImGuiContext@@P6APAXI@ZP6AXPAX@Z@Z$0 1004d350 f   imgui.obj
 0001:0004c368       __ehhandler$?CreateContext@ImGui@@YAPAUImGuiContext@@P6APAXI@ZP6AXPAX@Z@Z 1004d368 f   imgui.obj
 0001:0004c390       __unwindfunclet$?CreateNewWindow@@YAPAUImGuiWindow@@PBDUImVec2@@H@Z$0 1004d390 f   imgui.obj
 0001:0004c3a8       __ehhandler$?CreateNewWindow@@YAPAUImGuiWindow@@PBDUImVec2@@H@Z 1004d3a8 f   imgui.obj
 0001:0004c3d0       __unwindfunclet$?EndChild@ImGui@@YAX_N@Z$0 1004d3d0 f   imgui.obj
 0001:0004c3d8       __ehhandler$?EndChild@ImGui@@YAX_N@Z 1004d3d8 f   imgui.obj
 0001:0004c400       __unwindfunclet$?GetClipboardTextFn_DefaultImpl@@YAPBDPAX@Z$0 1004d400 f   imgui.obj
 0001:0004c40c       __ehhandler$?GetClipboardTextFn_DefaultImpl@@YAPBDPAX@Z 1004d40c f   imgui.obj
 0001:0004c430       __unwindfunclet$?ImFileOpen@@YAPAU_iobuf@@PBD0@Z$0 1004d430 f   imgui.obj
 0001:0004c438       __ehhandler$?ImFileOpen@@YAPAU_iobuf@@PBD0@Z 1004d438 f   imgui.obj
 0001:0004c460       __unwindfunclet$?NewFrame@ImGui@@YAXXZ$0 1004d460 f   imgui.obj
 0001:0004c481       __ehhandler$?NewFrame@ImGui@@YAXXZ 1004d481 f   imgui.obj
 0001:0004c4a0       __unwindfunclet$??0ImDrawChannel@@QAE@XZ$0 1004d4a0 f   imgui_draw.obj
 0001:0004c4a8       __ehhandler$??0ImDrawChannel@@QAE@XZ 1004d4a8 f   imgui_draw.obj
 0001:0004c4d0       __unwindfunclet$??0ImFont@@QAE@XZ$0 1004d4d0 f   imgui_draw.obj
 0001:0004c4db       __unwindfunclet$??0ImFont@@QAE@XZ$1 1004d4db f   imgui_draw.obj
 0001:0004c4e6       __unwindfunclet$??0ImFont@@QAE@XZ$2 1004d4e6 f   imgui_draw.obj
 0001:0004c4f1       __ehhandler$??0ImFont@@QAE@XZ 1004d4f1 f   imgui_draw.obj
 0001:0004c510       __unwindfunclet$??0ImFontAtlas@@QAE@XZ$0 1004d510 f   imgui_draw.obj
 0001:0004c51b       __unwindfunclet$??0ImFontAtlas@@QAE@XZ$1 1004d51b f   imgui_draw.obj
 0001:0004c526       __unwindfunclet$??0ImFontAtlas@@QAE@XZ$2 1004d526 f   imgui_draw.obj
 0001:0004c531       __ehhandler$??0ImFontAtlas@@QAE@XZ 1004d531 f   imgui_draw.obj
 0001:0004c550       __unwindfunclet$?AddFont@ImFontAtlas@@QAEPAUImFont@@PBUImFontConfig@@@Z$0 1004d550 f   imgui_draw.obj
 0001:0004c568       __ehhandler$?AddFont@ImFontAtlas@@QAEPAUImFont@@PBUImFontConfig@@@Z 1004d568 f   imgui_draw.obj
 0001:0004c590       __unwindfunclet$?ChannelsSplit@ImDrawList@@QAEXH@Z$0 1004d590 f   imgui_draw.obj
 0001:0004c5a8       __ehhandler$?ChannelsSplit@ImDrawList@@QAEXH@Z 1004d5a8 f   imgui_draw.obj
 0001:0004c5d0       __unwindfunclet$?ImFontAtlasBuildPackCustomRects@@YAXPAUImFontAtlas@@PAX@Z$0 1004d5d0 f   imgui_draw.obj
 0001:0004c5d8       __ehhandler$?ImFontAtlasBuildPackCustomRects@@YAXPAUImFontAtlas@@PAX@Z 1004d5d8 f   imgui_draw.obj
 0001:0004c600       __unwindfunclet$?PathArcToFast@ImDrawList@@QAEXABUImVec2@@MHH@Z$0 1004d600 f   imgui_draw.obj
 0001:0004c60c       __ehhandler$?PathArcToFast@ImDrawList@@QAEXABUImVec2@@MHH@Z 1004d60c f   imgui_draw.obj
 0001:0004c630       __unwindfunclet$?CreateMove@c_hooks@@SI_NPAVIClientMode@@PAXMPAVCUserCmd@@@Z$0 1004d630 f   createmove_hook.obj
 0001:0004c63c       __ehhandler$?CreateMove@c_hooks@@SI_NPAVIClientMode@@PAXMPAVCUserCmd@@@Z 1004d63c f   createmove_hook.obj
 0001:0004c660       __unwindfunclet$?Hooked_EndScene@c_hooks@@SGXPAUIDirect3DDevice9@@@Z$0 1004d660 f   directx_preset_hook.obj
 0001:0004c66c       __ehhandler$?Hooked_EndScene@c_hooks@@SGXPAUIDirect3DDevice9@@@Z 1004d66c f   directx_preset_hook.obj
 0001:0004c690       __unwindfunclet$?Hooked_EndScene_Reset@c_hooks@@SGXPAUIDirect3DDevice9@@PAU_D3DPRESENT_PARAMETERS_@@@Z$0 1004d690 f   directx_preset_hook.obj
 0001:0004c69c       __ehhandler$?Hooked_EndScene_Reset@c_hooks@@SGXPAUIDirect3DDevice9@@PAU_D3DPRESENT_PARAMETERS_@@@Z 1004d69c f   directx_preset_hook.obj
 0001:0004c6c0       __unwindfunclet$?DrawModelExecute@c_hooks@@SIXPAX0PAVIMatRenderContext@@ABUDrawModelState_t@@ABUModelRenderInfo_t@@PAVmatrix3x4_t@@@Z$0 1004d6c0 f   dme_hook.obj
 0001:0004c6cc       __ehhandler$?DrawModelExecute@c_hooks@@SIXPAX0PAVIMatRenderContext@@ABUDrawModelState_t@@ABUModelRenderInfo_t@@PAVmatrix3x4_t@@@Z 1004d6cc f   dme_hook.obj
 0001:0004c6f0       __unwindfunclet$?FrameStageNotify@c_hooks@@SGXW4ClientFrameStage_t@@@Z$0 1004d6f0 f   fsn_hook.obj
 0001:0004c6fc       __ehhandler$?FrameStageNotify@c_hooks@@SGXW4ClientFrameStage_t@@@Z 1004d6fc f   fsn_hook.obj
 0001:0004c720       __unwindfunclet$?LockCursor@c_hooks@@SIXPAVISurface@@PAX@Z$0 1004d720 f   lock_cursor_hook.obj
 0001:0004c72c       __ehhandler$?LockCursor@c_hooks@@SIXPAVISurface@@PAX@Z 1004d72c f   lock_cursor_hook.obj
 0001:0004c750       __unwindfunclet$?IsScoped@C_BaseEntity@@QAE_NXZ$0 1004d750 f   oview_hook.obj
 0001:0004c75c       __ehhandler$?IsScoped@C_BaseEntity@@QAE_NXZ 1004d75c f   oview_hook.obj
 0001:0004c780       __unwindfunclet$?OverrideView@c_hooks@@SIXPAX0PAVCViewSetup@@@Z$0 1004d780 f   oview_hook.obj
 0001:0004c78c       __ehhandler$?OverrideView@c_hooks@@SIXPAX0PAVCViewSetup@@@Z 1004d78c f   oview_hook.obj
 0001:0004c7b0       __unwindfunclet$?PaintTraverse@c_hooks@@SIXPAXHI_N1@Z$0 1004d7b0 f   painttraverse_hook.obj
 0001:0004c7bc       __ehhandler$?PaintTraverse@c_hooks@@SIXPAXHI_N1@Z 1004d7bc f   painttraverse_hook.obj
 0001:0004c7e0       __unwindfunclet$?SceneEnd@c_hooks@@SIXPAX0@Z$0 1004d7e0 f   sceneend_hook.obj
 0001:0004c7ec       __ehhandler$?SceneEnd@c_hooks@@SIXPAX0@Z 1004d7ec f   sceneend_hook.obj
 0001:0004c810       __unwindfunclet$??$use_facet@V?$codecvt@DDU_Mbstatet@@@std@@@std@@YAABV?$codecvt@DDU_Mbstatet@@@0@ABVlocale@0@@Z$0 1004d810 f   config_system.obj
 0001:0004c819       __unwindfunclet$??$use_facet@V?$codecvt@DDU_Mbstatet@@@std@@@std@@YAABV?$codecvt@DDU_Mbstatet@@@0@ABVlocale@0@@Z$1 1004d819 f   config_system.obj
 0001:0004c821       __ehhandler$??$use_facet@V?$codecvt@DDU_Mbstatet@@@std@@@std@@YAABV?$codecvt@DDU_Mbstatet@@@0@ABVlocale@0@@Z 1004d821 f   config_system.obj
 0001:0004c840       __unwindfunclet$??0?$basic_filebuf@DU?$char_traits@D@std@@@std@@QAE@PAU_iobuf@@@Z$0 1004d840 f   config_system.obj
 0001:0004c849       __ehhandler$??0?$basic_filebuf@DU?$char_traits@D@std@@@std@@QAE@PAU_iobuf@@@Z 1004d849 f   config_system.obj
 0001:0004c870       __unwindfunclet$?uflow@?$basic_filebuf@DU?$char_traits@D@std@@@std@@MAEHXZ$0 1004d870 f   config_system.obj
 0001:0004c878       __ehhandler$?uflow@?$basic_filebuf@DU?$char_traits@D@std@@@std@@MAEHXZ 1004d878 f   config_system.obj
 0001:0004c8a0       __unwindfunclet$?FireRate@C_BaseEntity@@QAEMXZ$0 1004d8a0 f   CEntity.obj
 0001:0004c8a8       __ehhandler$?FireRate@C_BaseEntity@@QAEMXZ 1004d8a8 f   CEntity.obj
 0001:0004c8d0       __unwindfunclet$?SetAbsAngles@C_BaseEntity@@QAEXVVector@@@Z$0 1004d8d0 f   CEntity.obj
 0001:0004c8dc       __ehhandler$?SetAbsAngles@C_BaseEntity@@QAEXVVector@@@Z 1004d8dc f   CEntity.obj
 0001:0004c900       __unwindfunclet$?SetAbsOrigin@C_BaseEntity@@QAEXVVector@@@Z$0 1004d900 f   CEntity.obj
 0001:0004c90c       __ehhandler$?SetAbsOrigin@C_BaseEntity@@QAEXVVector@@@Z 1004d90c f   CEntity.obj
 0001:0004c930       __unwindfunclet$??$?6U?$char_traits@D@std@@@std@@YAAAV?$basic_ostream@DU?$char_traits@D@std@@@0@AAV10@PBD@Z$2 1004d930 f   Interfaces.obj
 0001:0004c93b       __ehhandler$??$?6U?$char_traits@D@std@@@std@@YAAAV?$basic_ostream@DU?$char_traits@D@std@@@0@AAV10@PBD@Z 1004d93b f   Interfaces.obj
 0001:0004c960       __unwindfunclet$??$CaptureInterface@VIGameEventManager@@@interfaces@@YAPAVIGameEventManager@@PBD0@Z$0 1004d960 f   Interfaces.obj
 0001:0004c968       __ehhandler$??$CaptureInterface@VIGameEventManager@@@interfaces@@YAPAVIGameEventManager@@PBD0@Z 1004d968 f   Interfaces.obj
 0001:0004c990       __unwindfunclet$??$FindClass@VIClientEntityList@@@interfaces@@YAPAVIClientEntityList@@V?$basic_string@DU?$char_traits@D@std@@V?$allocator@D@2@@std@@0_N@Z$0 1004d990 f   Interfaces.obj
 0001:0004c990       __unwindfunclet$??$FindClass@VIVEngineClient@@@interfaces@@YAPAVIVEngineClient@@V?$basic_string@DU?$char_traits@D@std@@V?$allocator@D@2@@std@@0_N@Z$0 1004d990 f   Interfaces.obj
 0001:0004c990       __unwindfunclet$??$FindClass@VIGameMovement@@@interfaces@@YAPAVIGameMovement@@V?$basic_string@DU?$char_traits@D@std@@V?$allocator@D@2@@std@@0_N@Z$0 1004d990 f   Interfaces.obj
 0001:0004c990       __unwindfunclet$??$FindClass@VIMaterialSystem@@@interfaces@@YAPAVIMaterialSystem@@V?$basic_string@DU?$char_traits@D@std@@V?$allocator@D@2@@std@@0_N@Z$0 1004d990 f   Interfaces.obj
 0001:0004c990       __unwindfunclet$??$FindClass@VCModelRender@@@interfaces@@YAPAVCModelRender@@V?$basic_string@DU?$char_traits@D@std@@V?$allocator@D@2@@std@@0_N@Z$0 1004d990 f   Interfaces.obj
 0001:0004c990       __unwindfunclet$??$FindClass@VIVModelInfo@@@interfaces@@YAPAVIVModelInfo@@V?$basic_string@DU?$char_traits@D@std@@V?$allocator@D@2@@std@@0_N@Z$0 1004d990 f   Interfaces.obj
 0001:0004c990       __unwindfunclet$??$FindClass@VIBaseClientDLL@@@interfaces@@YAPAVIBaseClientDLL@@V?$basic_string@DU?$char_traits@D@std@@V?$allocator@D@2@@std@@0_N@Z$0 1004d990 f   Interfaces.obj
 0001:0004c990       __unwindfunclet$??$FindClass@VIPhysicsSurfaceProps@@@interfaces@@YAPAVIPhysicsSurfaceProps@@V?$basic_string@DU?$char_traits@D@std@@V?$allocator@D@2@@std@@0_N@Z$0 1004d990 f   Interfaces.obj
 0001:0004c990       __unwindfunclet$??$FindClass@VIEngineTrace@@@interfaces@@YAPAVIEngineTrace@@V?$basic_string@DU?$char_traits@D@std@@V?$allocator@D@2@@std@@0_N@Z$0 1004d990 f   Interfaces.obj
 0001:0004c990       __unwindfunclet$??$FindClass@VIVRenderView@@@interfaces@@YAPAVIVRenderView@@V?$basic_string@DU?$char_traits@D@std@@V?$allocator@D@2@@std@@0_N@Z$0 1004d990 f   Interfaces.obj
 0001:0004c990       __unwindfunclet$??$FindClass@VICVar@@@interfaces@@YAPAVICVar@@V?$basic_string@DU?$char_traits@D@std@@V?$allocator@D@2@@std@@0_N@Z$0 1004d990 f   Interfaces.obj
 0001:0004c990       __unwindfunclet$??$FindClass@VISurface@@@interfaces@@YAPAVISurface@@V?$basic_string@DU?$char_traits@D@std@@V?$allocator@D@2@@std@@0_N@Z$0 1004d990 f   Interfaces.obj
 0001:0004c990       __unwindfunclet$??$FindClass@VCPrediction@@@interfaces@@YAPAVCPrediction@@V?$basic_string@DU?$char_traits@D@std@@V?$allocator@D@2@@std@@0_N@Z$0 1004d990 f   Interfaces.obj
 0001:0004c990       __unwindfunclet$??$FindClass@VIPanel@@@interfaces@@YAPAVIPanel@@V?$basic_string@DU?$char_traits@D@std@@V?$allocator@D@2@@std@@0_N@Z$0 1004d990 f   Interfaces.obj
 0001:0004c998       __unwindfunclet$??$FindClass@VIVRenderView@@@interfaces@@YAPAVIVRenderView@@V?$basic_string@DU?$char_traits@D@std@@V?$allocator@D@2@@std@@0_N@Z$1 1004d998 f   Interfaces.obj
 0001:0004c998       __unwindfunclet$??$FindClass@VICVar@@@interfaces@@YAPAVICVar@@V?$basic_string@DU?$char_traits@D@std@@V?$allocator@D@2@@std@@0_N@Z$1 1004d998 f   Interfaces.obj
 0001:0004c998       __unwindfunclet$??$FindClass@VCPrediction@@@interfaces@@YAPAVCPrediction@@V?$basic_string@DU?$char_traits@D@std@@V?$allocator@D@2@@std@@0_N@Z$1 1004d998 f   Interfaces.obj
 0001:0004c998       __unwindfunclet$??$FindClass@VIGameMovement@@@interfaces@@YAPAVIGameMovement@@V?$basic_string@DU?$char_traits@D@std@@V?$allocator@D@2@@std@@0_N@Z$1 1004d998 f   Interfaces.obj
 0001:0004c998       __unwindfunclet$??$FindClass@VIVEngineClient@@@interfaces@@YAPAVIVEngineClient@@V?$basic_string@DU?$char_traits@D@std@@V?$allocator@D@2@@std@@0_N@Z$1 1004d998 f   Interfaces.obj
 0001:0004c998       __unwindfunclet$??$FindClass@VIVModelInfo@@@interfaces@@YAPAVIVModelInfo@@V?$basic_string@DU?$char_traits@D@std@@V?$allocator@D@2@@std@@0_N@Z$1 1004d998 f   Interfaces.obj
 0001:0004c998       __unwindfunclet$??$FindClass@VIBaseClientDLL@@@interfaces@@YAPAVIBaseClientDLL@@V?$basic_string@DU?$char_traits@D@std@@V?$allocator@D@2@@std@@0_N@Z$1 1004d998 f   Interfaces.obj
 0001:0004c998       __unwindfunclet$??$FindClass@VCModelRender@@@interfaces@@YAPAVCModelRender@@V?$basic_string@DU?$char_traits@D@std@@V?$allocator@D@2@@std@@0_N@Z$1 1004d998 f   Interfaces.obj
 0001:0004c998       __unwindfunclet$??$FindClass@VIClientEntityList@@@interfaces@@YAPAVIClientEntityList@@V?$basic_string@DU?$char_traits@D@std@@V?$allocator@D@2@@std@@0_N@Z$1 1004d998 f   Interfaces.obj
 0001:0004c998       __unwindfunclet$??$FindClass@VISurface@@@interfaces@@YAPAVISurface@@V?$basic_string@DU?$char_traits@D@std@@V?$allocator@D@2@@std@@0_N@Z$1 1004d998 f   Interfaces.obj
 0001:0004c998       __unwindfunclet$??$FindClass@VIMaterialSystem@@@interfaces@@YAPAVIMaterialSystem@@V?$basic_string@DU?$char_traits@D@std@@V?$allocator@D@2@@std@@0_N@Z$1 1004d998 f   Interfaces.obj
 0001:0004c998       __unwindfunclet$??$FindClass@VIEngineTrace@@@interfaces@@YAPAVIEngineTrace@@V?$basic_string@DU?$char_traits@D@std@@V?$allocator@D@2@@std@@0_N@Z$1 1004d998 f   Interfaces.obj
 0001:0004c998       __unwindfunclet$??$FindClass@VIPhysicsSurfaceProps@@@interfaces@@YAPAVIPhysicsSurfaceProps@@V?$basic_string@DU?$char_traits@D@std@@V?$allocator@D@2@@std@@0_N@Z$1 1004d998 f   Interfaces.obj
 0001:0004c998       __unwindfunclet$??$FindClass@VIPanel@@@interfaces@@YAPAVIPanel@@V?$basic_string@DU?$char_traits@D@std@@V?$allocator@D@2@@std@@0_N@Z$1 1004d998 f   Interfaces.obj
 0001:0004c9a0       __ehhandler$??$FindClass@VIPhysicsSurfaceProps@@@interfaces@@YAPAVIPhysicsSurfaceProps@@V?$basic_string@DU?$char_traits@D@std@@V?$allocator@D@2@@std@@0_N@Z 1004d9a0 f   Interfaces.obj
 0001:0004c9a0       __ehhandler$??$FindClass@VIVRenderView@@@interfaces@@YAPAVIVRenderView@@V?$basic_string@DU?$char_traits@D@std@@V?$allocator@D@2@@std@@0_N@Z 1004d9a0 f   Interfaces.obj
 0001:0004c9a0       __ehhandler$??$FindClass@VICVar@@@interfaces@@YAPAVICVar@@V?$basic_string@DU?$char_traits@D@std@@V?$allocator@D@2@@std@@0_N@Z 1004d9a0 f   Interfaces.obj
 0001:0004c9a0       __ehhandler$??$FindClass@VIEngineTrace@@@interfaces@@YAPAVIEngineTrace@@V?$basic_string@DU?$char_traits@D@std@@V?$allocator@D@2@@std@@0_N@Z 1004d9a0 f   Interfaces.obj
 0001:0004c9a0       __ehhandler$??$FindClass@VIVEngineClient@@@interfaces@@YAPAVIVEngineClient@@V?$basic_string@DU?$char_traits@D@std@@V?$allocator@D@2@@std@@0_N@Z 1004d9a0 f   Interfaces.obj
 0001:0004c9a0       __ehhandler$??$FindClass@VIMaterialSystem@@@interfaces@@YAPAVIMaterialSystem@@V?$basic_string@DU?$char_traits@D@std@@V?$allocator@D@2@@std@@0_N@Z 1004d9a0 f   Interfaces.obj
 0001:0004c9a0       __ehhandler$??$FindClass@VIClientEntityList@@@interfaces@@YAPAVIClientEntityList@@V?$basic_string@DU?$char_traits@D@std@@V?$allocator@D@2@@std@@0_N@Z 1004d9a0 f   Interfaces.obj
 0001:0004c9a0       __ehhandler$??$FindClass@VCModelRender@@@interfaces@@YAPAVCModelRender@@V?$basic_string@DU?$char_traits@D@std@@V?$allocator@D@2@@std@@0_N@Z 1004d9a0 f   Interfaces.obj
 0001:0004c9a0       __ehhandler$??$FindClass@VISurface@@@interfaces@@YAPAVISurface@@V?$basic_string@DU?$char_traits@D@std@@V?$allocator@D@2@@std@@0_N@Z 1004d9a0 f   Interfaces.obj
 0001:0004c9a0       __ehhandler$??$FindClass@VIBaseClientDLL@@@interfaces@@YAPAVIBaseClientDLL@@V?$basic_string@DU?$char_traits@D@std@@V?$allocator@D@2@@std@@0_N@Z 1004d9a0 f   Interfaces.obj
 0001:0004c9a0       __ehhandler$??$FindClass@VIVModelInfo@@@interfaces@@YAPAVIVModelInfo@@V?$basic_string@DU?$char_traits@D@std@@V?$allocator@D@2@@std@@0_N@Z 1004d9a0 f   Interfaces.obj
 0001:0004c9a0       __ehhandler$??$FindClass@VCPrediction@@@interfaces@@YAPAVCPrediction@@V?$basic_string@DU?$char_traits@D@std@@V?$allocator@D@2@@std@@0_N@Z 1004d9a0 f   Interfaces.obj
 0001:0004c9a0       __ehhandler$??$FindClass@VIPanel@@@interfaces@@YAPAVIPanel@@V?$basic_string@DU?$char_traits@D@std@@V?$allocator@D@2@@std@@0_N@Z 1004d9a0 f   Interfaces.obj
 0001:0004c9a0       __ehhandler$??$FindClass@VIGameMovement@@@interfaces@@YAPAVIGameMovement@@V?$basic_string@DU?$char_traits@D@std@@V?$allocator@D@2@@std@@0_N@Z 1004d9a0 f   Interfaces.obj
 0001:0004c9d0       __unwindfunclet$??0?$basic_ofstream@DU?$char_traits@D@std@@@std@@QAE@PBDHH@Z$0 1004d9d0 f   Interfaces.obj
 0001:0004c9ed       __unwindfunclet$??0?$basic_ofstream@DU?$char_traits@D@std@@@std@@QAE@PBDHH@Z$1 1004d9ed f   Interfaces.obj
 0001:0004c9f9       __unwindfunclet$??0?$basic_ofstream@DU?$char_traits@D@std@@@std@@QAE@PBDHH@Z$2 1004d9f9 f   Interfaces.obj
 0001:0004ca04       __ehhandler$??0?$basic_ofstream@DU?$char_traits@D@std@@@std@@QAE@PBDHH@Z 1004da04 f   Interfaces.obj
 0001:0004ca20       __unwindfunclet$??0sentry@?$basic_ostream@DU?$char_traits@D@std@@@std@@QAE@AAV12@@Z$0 1004da20 f   Interfaces.obj
 0001:0004ca28       __ehhandler$??0sentry@?$basic_ostream@DU?$char_traits@D@std@@@std@@QAE@AAV12@@Z 1004da28 f   Interfaces.obj
 0001:0004ca50       __unwindfunclet$?Init@interfaces@@YAXXZ$0 1004da50 f   Interfaces.obj
 0001:0004ca58       __unwindfunclet$?Init@interfaces@@YAXXZ$2 1004da58 f   Interfaces.obj
 0001:0004ca60       __unwindfunclet$?Init@interfaces@@YAXXZ$4 1004da60 f   Interfaces.obj
 0001:0004ca68       __unwindfunclet$?Init@interfaces@@YAXXZ$6 1004da68 f   Interfaces.obj
 0001:0004ca70       __unwindfunclet$?Init@interfaces@@YAXXZ$8 1004da70 f   Interfaces.obj
 0001:0004ca78       __unwindfunclet$?Init@interfaces@@YAXXZ$10 1004da78 f   Interfaces.obj
 0001:0004ca83       __unwindfunclet$?Init@interfaces@@YAXXZ$12 1004da83 f   Interfaces.obj
 0001:0004ca8e       __unwindfunclet$?Init@interfaces@@YAXXZ$14 1004da8e f   Interfaces.obj
 0001:0004ca99       __unwindfunclet$?Init@interfaces@@YAXXZ$16 1004da99 f   Interfaces.obj
 0001:0004caa4       __unwindfunclet$?Init@interfaces@@YAXXZ$18 1004daa4 f   Interfaces.obj
 0001:0004caaf       __unwindfunclet$?Init@interfaces@@YAXXZ$20 1004daaf f   Interfaces.obj
 0001:0004caba       __unwindfunclet$?Init@interfaces@@YAXXZ$22 1004daba f   Interfaces.obj
 0001:0004cac5       __unwindfunclet$?Init@interfaces@@YAXXZ$24 1004dac5 f   Interfaces.obj
 0001:0004cad0       __unwindfunclet$?Init@interfaces@@YAXXZ$26 1004dad0 f   Interfaces.obj
 0001:0004cadb       __unwindfunclet$?Init@interfaces@@YAXXZ$28 1004dadb f   Interfaces.obj
 0001:0004cae6       __ehhandler$?Init@interfaces@@YAXXZ 1004dae6 f   Interfaces.obj
 0001:0004cb10       __unwindfunclet$?open@?$basic_filebuf@DU?$char_traits@D@std@@@std@@QAEPAV12@PBDHH@Z$0 1004db10 f   Interfaces.obj
 0001:0004cb18       __ehhandler$?open@?$basic_filebuf@DU?$char_traits@D@std@@@std@@QAEPAV12@PBDHH@Z 1004db18 f   Interfaces.obj
 0001:0004cb40       __unwindfunclet$??$?0H@?$_Ref_count_obj@UNode@NetvarTree@@@std@@QAE@$$QAH@Z$0 1004db40 f   NetvarManager.obj
 0001:0004cb48       __ehhandler$??$?0H@?$_Ref_count_obj@UNode@NetvarTree@@@std@@QAE@$$QAH@Z 1004db48 f   NetvarManager.obj
 0001:0004cb70       __ehhandler$??$_Buynode@PBDABV?$shared_ptr@UNode@NetvarTree@@@std@@@?$_List_buy@U?$pair@$$CBV?$basic_string@DU?$char_traits@D@std@@V?$allocator@D@2@@std@@V?$shared_ptr@UNode@NetvarTree@@@2@@std@@V?$allocator@U?$pair@$$CBV?$basic_string@DU?$char_traits@D@std@@V?$allocator@D@2@@std@@V?$shared_ptr@UNode@NetvarTree@@@2@@std@@@2@@std@@QAEPAU?$_List_node@U?$pair@$$CBV?$basic_string@DU?$char_traits@D@std@@V?$allocator@D@2@@std@@V?$shared_ptr@UNode@NetvarTree@@@2@@std@@PAX@1@PAU21@0$$QAPBDABV?$shared_ptr@UNode@NetvarTree@@@1@@Z 1004db70 f   NetvarManager.obj
 0001:0004cb90       __unwindfunclet$??$make_shared@UNode@NetvarTree@@H@std@@YA?AV?$shared_ptr@UNode@NetvarTree@@@0@$$QAH@Z$0 1004db90 f   NetvarManager.obj
 0001:0004cb9f       __unwindfunclet$??$make_shared@UNode@NetvarTree@@H@std@@YA?AV?$shared_ptr@UNode@NetvarTree@@@0@$$QAH@Z$1 1004db9f f   NetvarManager.obj
 0001:0004cba7       __ehhandler$??$make_shared@UNode@NetvarTree@@H@std@@YA?AV?$shared_ptr@UNode@NetvarTree@@@0@$$QAH@Z 1004dba7 f   NetvarManager.obj
 0001:0004cbd0       __unwindfunclet$??0?$_Hash@V?$_Umap_traits@V?$basic_string@DU?$char_traits@D@std@@V?$allocator@D@2@@std@@V?$shared_ptr@UNode@NetvarTree@@@2@V?$_Uhash_compare@V?$basic_string@DU?$char_traits@D@std@@V?$allocator@D@2@@std@@U?$hash@V?$basic_string@DU?$char_traits@D@std@@V?$allocator@D@2@@std@@@2@U?$equal_to@V?$basic_string@DU?$char_traits@D@std@@V?$allocator@D@2@@std@@@2@@2@V?$allocator@U?$pair@$$CBV?$basic_string@DU?$char_traits@D@std@@V?$allocator@D@2@@std@@V?$shared_ptr@UNode@NetvarTree@@@2@@std@@@2@$0A@@std@@@std@@QAE@ABV?$_Uhash_compare@V?$basic_string@DU?$char_traits@D@std@@V?$allocator@D@2@@std@@U?$hash@V?$basic_string@DU?$char_traits@D@std@@V?$allocator@D@2@@std@@@2@U?$equal_to@V?$basic_string@DU?$char_traits@D@std@@V?$allocator@D@2@@std@@@2@@1@ABV?$allocator@U?$pair@$$CBV?$basic_string@DU?$char_traits@D@std@@V?$allocator@D@2@@std@@V?$shared_ptr@UNode@NetvarTree@@@2@@std@@@1@@Z$0 1004dbd0 f   NetvarManager.obj
 0001:0004cbdb       __unwindfunclet$??0?$_Hash@V?$_Umap_traits@V?$basic_string@DU?$char_traits@D@std@@V?$allocator@D@2@@std@@V?$shared_ptr@UNode@NetvarTree@@@2@V?$_Uhash_compare@V?$basic_string@DU?$char_traits@D@std@@V?$allocator@D@2@@std@@U?$hash@V?$basic_string@DU?$char_traits@D@std@@V?$allocator@D@2@@std@@@2@U?$equal_to@V?$basic_string@DU?$char_traits@D@std@@V?$allocator@D@2@@std@@@2@@2@V?$allocator@U?$pair@$$CBV?$basic_string@DU?$char_traits@D@std@@V?$allocator@D@2@@std@@V?$shared_ptr@UNode@NetvarTree@@@2@@std@@@2@$0A@@std@@@std@@QAE@ABV?$_Uhash_compare@V?$basic_string@DU?$char_traits@D@std@@V?$allocator@D@2@@std@@U?$hash@V?$basic_string@DU?$char_traits@D@std@@V?$allocator@D@2@@std@@@2@U?$equal_to@V?$basic_string@DU?$char_traits@D@std@@V?$allocator@D@2@@std@@@2@@1@ABV?$allocator@U?$pair@$$CBV?$basic_string@DU?$char_traits@D@std@@V?$allocator@D@2@@std@@V?$shared_ptr@UNode@NetvarTree@@@2@@std@@@1@@Z$1 1004dbdb f   NetvarManager.obj
 0001:0004cbe6       __ehhandler$??0?$_Hash@V?$_Umap_traits@V?$basic_string@DU?$char_traits@D@std@@V?$allocator@D@2@@std@@V?$shared_ptr@UNode@NetvarTree@@@2@V?$_Uhash_compare@V?$basic_string@DU?$char_traits@D@std@@V?$allocator@D@2@@std@@U?$hash@V?$basic_string@DU?$char_traits@D@std@@V?$allocator@D@2@@std@@@2@U?$equal_to@V?$basic_string@DU?$char_traits@D@std@@V?$allocator@D@2@@std@@@2@@2@V?$allocator@U?$pair@$$CBV?$basic_string@DU?$char_traits@D@std@@V?$allocator@D@2@@std@@V?$shared_ptr@UNode@NetvarTree@@@2@@std@@@2@$0A@@std@@@std@@QAE@ABV?$_Uhash_compare@V?$basic_string@DU?$char_traits@D@std@@V?$allocator@D@2@@std@@U?$hash@V?$basic_string@DU?$char_traits@D@std@@V?$allocator@D@2@@std@@@2@U?$equal_to@V?$basic_string@DU?$char_traits@D@std@@V?$allocator@D@2@@std@@@2@@1@ABV?$allocator@U?$pair@$$CBV?$basic_string@DU?$char_traits@D@std@@V?$allocator@D@2@@std@@V?$shared_ptr@UNode@NetvarTree@@@2@@std@@@1@@Z 1004dbe6 f   NetvarManager.obj
 0001:0004cc10       __unwindfunclet$??0NetvarTree@@QAE@XZ$0 1004dc10 f   NetvarManager.obj
 0001:0004cc18       __unwindfunclet$??0NetvarTree@@QAE@XZ$1 1004dc18 f   NetvarManager.obj
 0001:0004cc20       __ehhandler$??0NetvarTree@@QAE@XZ 1004dc20 f   NetvarManager.obj
 0001:0004cc40       __unwindfunclet$?PopulateNodes@NetvarTree@@AAEXPAVRecvTable@@PAV?$unordered_map@V?$basic_string@DU?$char_traits@D@std@@V?$allocator@D@2@@std@@V?$shared_ptr@UNode@NetvarTree@@@2@U?$hash@V?$basic_string@DU?$char_traits@D@std@@V?$allocator@D@2@@std@@@2@U?$equal_to@V?$basic_string@DU?$char_traits@D@std@@V?$allocator@D@2@@std@@@2@V?$allocator@U?$pair@$$CBV?$basic_string@DU?$char_traits@D@std@@V?$allocator@D@2@@std@@V?$shared_ptr@UNode@NetvarTree@@@2@@std@@@2@@std@@@Z$0 1004dc40 f   NetvarManager.obj
 0001:0004cc48       __ehhandler$?PopulateNodes@NetvarTree@@AAEXPAVRecvTable@@PAV?$unordered_map@V?$basic_string@DU?$char_traits@D@std@@V?$allocator@D@2@@std@@V?$shared_ptr@UNode@NetvarTree@@@2@U?$hash@V?$basic_string@DU?$char_traits@D@std@@V?$allocator@D@2@@std@@@2@U?$equal_to@V?$basic_string@DU?$char_traits@D@std@@V?$allocator@D@2@@std@@@2@V?$allocator@U?$pair@$$CBV?$basic_string@DU?$char_traits@D@std@@V?$allocator@D@2@@std@@V?$shared_ptr@UNode@NetvarTree@@@2@@std@@@2@@std@@@Z 1004dc48 f   NetvarManager.obj
 0001:0004cc70       ??__Fg_Event@@YAXXZ        1004dc70 f   c_hooks.obj
 0001:0004cc80       ??__Fhooks@@YAXXZ          1004dc80 f   c_hooks.obj
 0001:0004cc90       ??__Fg_LagComp@@YAXXZ      1004dc90 f   LagComp.obj
 0001:0004cca0       ??__Fg_Legitbot@@YAXXZ     1004dca0 f   Legitbot.obj
 0001:0004ccb0       ??__FGImDefaultContext@@YAXXZ 1004dcb0 f   imgui.obj
 0001:0004ccc0       ??__FGImDefaultFontAtlas@@YAXXZ 1004dcc0 f   imgui.obj
 0001:0004ccd0       ??__Fbuf_local@?1??GetClipboardTextFn_DefaultImpl@@YAPBDPAX@Z@YAXXZ 1004dcd0 f   imgui.obj
 0001:0004cce0       ??__Fgalaxy_vars@@YAXXZ    1004dce0 f   config_system.obj
 0001:0004ccf0       ??__Fg_pNetvars@@YAXXZ     1004dcf0 f   NetvarManager.obj
 0001:0004ccff       ??__F_Fac_tidy_reg@std@@YAXXZ 1004dcff f   msvcprt:locale0_implib.obj
 0002:000002e4       ?_Fac_tidy_reg$initializer$@std@@3P6AXXZA 1004e2e4     msvcprt:locale0_implib.obj
 0002:000002e8       ?vec2_origin$initializer$@@3P6AXXZA 1004e2e8     c_hooks.obj
 0002:000002ec       ?hooks$initializer$@@3P6AXXZA 1004e2ec     c_hooks.obj
 0002:000002f0       ?g_Event$initializer$@@3P6AXXZA 1004e2f0     c_hooks.obj
 0002:000002f4       ?vec2_origin$initializer$@@3P6AXXZA 1004e2f4     dll_main.obj
 0002:000002f8       ?vec2_origin$initializer$@@3P6AXXZA 1004e2f8     Aimbot.obj
 0002:000002fc       ?g_Aimbot$initializer$@@3P6AXXZA 1004e2fc     Aimbot.obj
 0002:00000300       ?vec2_origin$initializer$@@3P6AXXZA 1004e300     Autowall.obj
 0002:00000304       ?vec2_origin$initializer$@@3P6AXXZA 1004e304     EnginePrediction.obj
 0002:00000308       ?vec2_origin$initializer$@@3P6AXXZA 1004e308     LagComp.obj
 0002:0000030c       ?g_LagComp$initializer$@@3P6AXXZA 1004e30c     LagComp.obj
 0002:00000310       ?vec2_origin$initializer$@@3P6AXXZA 1004e310     AntiAim.obj
 0002:00000314       ?vec2_origin$initializer$@@3P6AXXZA 1004e314     Legitbot.obj
 0002:00000318       ?g_Legitbot$initializer$@@3P6AXXZA 1004e318     Legitbot.obj
 0002:0000031c       ?vec2_origin$initializer$@@3P6AXXZA 1004e31c     Resolver.obj
 0002:00000320       ?g_Resolver$initializer$@@3P6AXXZA 1004e320     Resolver.obj
 0002:00000324       ?vec2_origin$initializer$@@3P6AXXZA 1004e324     c_esp.obj
 0002:00000328       ?esp$initializer$@@3P6AXXZA 1004e328     c_esp.obj
 0002:0000032c       ?GImDefaultFontAtlas$initializer$@@3P6AXXZA 1004e32c     imgui.obj
 0002:00000330       ?GImDefaultContext$initializer$@@3P6AXXZA 1004e330     imgui.obj
 0002:00000334       ?GNullClipRect$initializer$@@3P6AXXZA 1004e334     imgui_draw.obj
 0002:00000338       ?vec2_origin$initializer$@@3P6AXXZA 1004e338     bone_processing_hook.obj
 0002:0000033c       ?vec2_origin$initializer$@@3P6AXXZA 1004e33c     createmove_hook.obj
 0002:00000340       ?vec2_origin$initializer$@@3P6AXXZA 1004e340     directx_preset_hook.obj
 0002:00000344       ?vec2_origin$initializer$@@3P6AXXZA 1004e344     dme_hook.obj
 0002:00000348       ?vec2_origin$initializer$@@3P6AXXZA 1004e348     event_hook.obj
 0002:0000034c       ?vec2_origin$initializer$@@3P6AXXZA 1004e34c     fsn_hook.obj
 0002:00000350       ?vec2_origin$initializer$@@3P6AXXZA 1004e350     hooking_init.obj
 0002:00000354       ?vec2_origin$initializer$@@3P6AXXZA 1004e354     lock_cursor_hook.obj
 0002:00000358       ?vec2_origin$initializer$@@3P6AXXZA 1004e358     oview_hook.obj
 0002:0000035c       ?vec2_origin$initializer$@@3P6AXXZA 1004e35c     painttraverse_hook.obj
 0002:00000360       ?vec2_origin$initializer$@@3P6AXXZA 1004e360     sceneend_hook.obj
 0002:00000364       ?vec2_origin$initializer$@@3P6AXXZA 1004e364     wndproc_hook.obj
 0002:00000368       ?galaxy_vars$initializer$@@3P6AXXZA 1004e368     config_system.obj
 0002:0000036c       ?vec2_origin$initializer$@@3P6AXXZA 1004e36c     menu_system.obj
 0002:00000370       ?w_printf$initializer$@XorCompileTime@@3P6AXXZA 1004e370     menu_system.obj
 0002:00000374       ?w_printf_s$initializer$@XorCompileTime@@3P6AXXZA 1004e374     menu_system.obj
 0002:00000378       ?w_sprintf$initializer$@XorCompileTime@@3P6AXXZA 1004e378     menu_system.obj
 0002:0000037c       ?w_sprintf_s$initializer$@XorCompileTime@@3P6AXXZA 1004e37c     menu_system.obj
 0002:00000380       ?menu$initializer$@@3P6AXXZA 1004e380     menu_system.obj
 0002:00000384       ?vec2_origin$initializer$@@3P6AXXZA 1004e384     CEntity.obj
 0002:00000388       ?vec2_origin$initializer$@@3P6AXXZA 1004e388     GlobalVars.obj
 0002:0000038c       ?OriginalView$initializer$@g@@3P6AXXZA 1004e38c     GlobalVars.obj
 0002:00000390       ?EnemyEyeAngs$initializer$@g@@3P6AXXZA 1004e390     GlobalVars.obj
 0002:00000394       ?AimbotHitbox$initializer$@g@@3P6AXXZA 1004e394     GlobalVars.obj
 0002:00000398       ?RealAngle$initializer$@g@@3P6AXXZA 1004e398     GlobalVars.obj
 0002:0000039c       ?FakeAngle$initializer$@g@@3P6AXXZA 1004e39c     GlobalVars.obj
 0002:000003a0       ?vec2_origin$initializer$@@3P6AXXZA 1004e3a0     Interfaces.obj
 0002:000003a4       ?vec2_origin$initializer$@@3P6AXXZA 1004e3a4     Math.obj
 0002:000003a8       ?g_pNetvars$initializer$@@3P6AXXZA 1004e3a8     NetvarManager.obj
 0002:000003b4       ?__scrt_initialize_tss_var@@3P6AHXZA 1004e3b4     MSVCRT:thread_safe_statics.obj
 0002:000003e0       $SG182303                  1004e3e0     c_hooks.obj
 0002:00000404       $SG182304                  1004e404     c_hooks.obj
 0002:00000418       $SG182392                  1004e418     c_hooks.obj
 0002:0000042c       $SG182398                  1004e42c     c_hooks.obj
 0002:00000448       $SG182399                  1004e448     c_hooks.obj
 0002:000004e0       $SG159754                  1004e4e0     dll_main.obj
 0002:00000504       $SG159756                  1004e504     dll_main.obj
 0002:00000518       $SG159469                  1004e518     Aimbot.obj
 0002:0000052c       $SG160246                  1004e52c     Aimbot.obj
 0002:0000054c       $SG160247                  1004e54c     Aimbot.obj
 0002:000007a0       $SG140858                  1004e7a0     Autowall.obj
 0002:000007c0       $SG140859                  1004e7c0     Autowall.obj
 0002:000007e0       $SG140860                  1004e7e0     Autowall.obj
 0002:000007f4       $SG140947                  1004e7f4     Autowall.obj
 0002:00000814       $SG140948                  1004e814     Autowall.obj
 0002:00000898       $SG157480                  1004e898     EnginePrediction.obj
 0002:000008c8       $SG157481                  1004e8c8     EnginePrediction.obj
 0002:000008dc       $SG157482                  1004e8dc     EnginePrediction.obj
 0002:000008f8       $SG157483                  1004e8f8     EnginePrediction.obj
 0002:00000920       $SG158895                  1004e920     LagComp.obj
 0002:00000930       $SG158896                  1004e930     LagComp.obj
 0002:00000944       $SG158897                  1004e944     LagComp.obj
 0002:00000958       $SG158899                  1004e958     LagComp.obj
 0002:00000968       $SG158901                  1004e968     LagComp.obj
 0002:00000974       $SG158902                  1004e974     LagComp.obj
 0002:00000990       $SG158903                  1004e990     LagComp.obj
 0002:00000a74       $SG159274                  1004ea74     c_esp.obj
 0002:00000a7b       $SG159326                  1004ea7b     c_esp.obj
 0002:00000a7c       $SG159324                  1004ea7c     c_esp.obj
 0002:00000a90       $SG159373                  1004ea90     c_esp.obj
 0002:00000ae0       $SG131423                  1004eae0     imgui.obj
 0002:00000ae7       $SG133833                  1004eae7     imgui.obj
 0002:00000ae8       $SG131443                  1004eae8     imgui.obj
 0002:00000aeb       $SG135589                  1004eaeb     imgui.obj
 0002:00000aec       $SG131457                  1004eaec     imgui.obj
 0002:00000aef       $SG135591                  1004eaef     imgui.obj
 0002:00000af0       $SG131471                  1004eaf0     imgui.obj
 0002:00000afb       $SG128270                  1004eafb     imgui.obj
 0002:00000afc       $SG131472                  1004eafc     imgui.obj
 0002:00000b07       $SG128562                  1004eb07     imgui.obj
 0002:00000b08       $SG131473                  1004eb08     imgui.obj
 0002:00000b14       $SG131474                  1004eb14     imgui.obj
 0002:00000b25       $SG129085                  1004eb25     imgui.obj
 0002:00000b28       $SG131475                  1004eb28     imgui.obj
 0002:00000b30       $SG131570                  1004eb30     imgui.obj
 0002:00000b34       $SG131571                  1004eb34     imgui.obj
 0002:00000b38       $SG131578                  1004eb38     imgui.obj
 0002:00000b3c       $SG131837                  1004eb3c     imgui.obj
 0002:00000b40       $SG131838                  1004eb40     imgui.obj
 0002:00000b48       $SG131842                  1004eb48     imgui.obj
 0002:00000b4c       $SG131843                  1004eb4c     imgui.obj
 0002:00000b54       $SG131903                  1004eb54     imgui.obj
 0002:00000b58       $SG131908                  1004eb58     imgui.obj
 0002:00000b5c       $SG131912                  1004eb5c     imgui.obj
 0002:00000b60       $SG131916                  1004eb60     imgui.obj
 0002:00000b64       $SG131919                  1004eb64     imgui.obj
 0002:00000b68       $SG132126                  1004eb68     imgui.obj
 0002:00000b70       $SG132169                  1004eb70     imgui.obj
 0002:00000b78       $SG132186                  1004eb78     imgui.obj
 0002:00000b84       $SG132201                  1004eb84     imgui.obj
 0002:00000b8c       $SG132217                  1004eb8c     imgui.obj
 0002:00000b94       $SG132235                  1004eb94     imgui.obj
 0002:00000b98       $SG132276                  1004eb98     imgui.obj
 0002:00000b9c       $SG132376                  1004eb9c     imgui.obj
 0002:00000ba4       $SG132402                  1004eba4     imgui.obj
 0002:00000ba8       $SG132445                  1004eba8     imgui.obj
 0002:00000bb0       $SG132446                  1004ebb0     imgui.obj
 0002:00000bb8       $SG132462                  1004ebb8     imgui.obj
 0002:00000bc0       $SG132480                  1004ebc0     imgui.obj
 0002:00000bc4       $SG132519                  1004ebc4     imgui.obj
 0002:00000bcc       $SG132520                  1004ebcc     imgui.obj
 0002:00000bd4       $SG132608                  1004ebd4     imgui.obj
 0002:00000be8       $SG132610                  1004ebe8     imgui.obj
 0002:00000bf4       $SG132729                  1004ebf4     imgui.obj
 0002:00000bfc       $SG132793                  1004ebfc     imgui.obj
 0002:00000c00       $SG132794                  1004ec00     imgui.obj
 0002:00000c04       $SG132852                  1004ec04     imgui.obj
 0002:00000c08       $SG132853                  1004ec08     imgui.obj
 0002:00000c0c       $SG133639                  1004ec0c     imgui.obj
 0002:00000c18       $SG133745                  1004ec18     imgui.obj
 0002:00000c24       $SG133836                  1004ec24     imgui.obj
 0002:00000c28       $SG133838                  1004ec28     imgui.obj
 0002:00000c2c       $SG133855                  1004ec2c     imgui.obj
 0002:00000c30       $SG133856                  1004ec30     imgui.obj
 0002:00000c38       $SG133868                  1004ec38     imgui.obj
 0002:00000c40       $SG133869                  1004ec40     imgui.obj
 0002:00000c44       $SG133885                  1004ec44     imgui.obj
 0002:00000c48       $SG133918                  1004ec48     imgui.obj
 0002:00000c4c       $SG134001                  1004ec4c     imgui.obj
 0002:00000c54       $SG134005                  1004ec54     imgui.obj
 0002:00000c64       $SG134167                  1004ec64     imgui.obj
 0002:00000c74       $SG134367                  1004ec74     imgui.obj
 0002:00000c84       $SG134416                  1004ec84     imgui.obj
 0002:00000c94       $SG134430                  1004ec94     imgui.obj
 0002:00000ca0       $SG134495                  1004eca0     imgui.obj
 0002:00000ca8       $SG134536                  1004eca8     imgui.obj
 0002:00000cb4       $SG134539                  1004ecb4     imgui.obj
 0002:00000cec       $SG134682                  1004ecec     imgui.obj
 0002:00000cf4       $SG134685                  1004ecf4     imgui.obj
 0002:00000cf8       $SG134540                  1004ecf8     imgui.obj
 0002:00000d3c       $SG134687                  1004ed3c     imgui.obj
 0002:00000d40       $SG134689                  1004ed40     imgui.obj
 0002:00000d44       $SG134693                  1004ed44     imgui.obj
 0002:00000d4c       $SG134695                  1004ed4c     imgui.obj
 0002:00000d58       $SG134717                  1004ed58     imgui.obj
 0002:00000d60       $SG134723                  1004ed60     imgui.obj
 0002:00000d70       $SG134724                  1004ed70     imgui.obj
 0002:00000d80       $SG134727                  1004ed80     imgui.obj
 0002:00000d8c       $SG134791                  1004ed8c     imgui.obj
 0002:00000d94       $SG134792                  1004ed94     imgui.obj
 0002:00000d9c       $SG134793                  1004ed9c     imgui.obj
 0002:00000da0       $SG134794                  1004eda0     imgui.obj
 0002:00000da4       $SG134795                  1004eda4     imgui.obj
 0002:00000da8       $SG134796                  1004eda8     imgui.obj
 0002:00000dac       $SG134797                  1004edac     imgui.obj
 0002:00000db4       $SG134798                  1004edb4     imgui.obj
 0002:00000dbc       $SG134799                  1004edbc     imgui.obj
 0002:00000dc4       $SG134800                  1004edc4     imgui.obj
 0002:00000dcc       $SG134801                  1004edcc     imgui.obj
 0002:00000dd4       $SG134802                  1004edd4     imgui.obj
 0002:00000ddc       $SG134803                  1004eddc     imgui.obj
 0002:00000de4       $SG134804                  1004ede4     imgui.obj
 0002:00000dec       $SG134805                  1004edec     imgui.obj
 0002:00000df4       $SG134806                  1004edf4     imgui.obj
 0002:00000dfc       $SG134807                  1004edfc     imgui.obj
 0002:00000e04       $SG134808                  1004ee04     imgui.obj
 0002:00000e0c       $SG134809                  1004ee0c     imgui.obj
 0002:00000e14       $SG134810                  1004ee14     imgui.obj
 0002:00000e1c       $SG134811                  1004ee1c     imgui.obj
 0002:00000e24       $SG134812                  1004ee24     imgui.obj
 0002:00000e2c       $SG134813                  1004ee2c     imgui.obj
 0002:00000e34       $SG134814                  1004ee34     imgui.obj
 0002:00000e3c       $SG134815                  1004ee3c     imgui.obj
 0002:00000e44       $SG134816                  1004ee44     imgui.obj
 0002:00000e4c       $SG134817                  1004ee4c     imgui.obj
 0002:00000e54       $SG134818                  1004ee54     imgui.obj
 0002:00000e5c       $SG134819                  1004ee5c     imgui.obj
 0002:00000e64       $SG134820                  1004ee64     imgui.obj
 0002:00000e6c       $SG134826                  1004ee6c     imgui.obj
 0002:00000e74       $SG134830                  1004ee74     imgui.obj
 0002:00000e84       $SG134832                  1004ee84     imgui.obj
 0002:00000e8c       $SG134834                  1004ee8c     imgui.obj
 0002:00000e94       $SG134836                  1004ee94     imgui.obj
 0002:00000e9c       $SG134837                  1004ee9c     imgui.obj
 0002:00000ea8       $SG135106                  1004eea8     imgui.obj
 0002:00000eac       $SG135108                  1004eeac     imgui.obj
 0002:00000eb0       $SG135122                  1004eeb0     imgui.obj
 0002:00000eb8       $SG135142                  1004eeb8     imgui.obj
 0002:00000edc       $SG135303                  1004eedc     imgui.obj
 0002:00000ee4       $SG135366                  1004eee4     imgui.obj
 0002:00000ef0       $SG135372                  1004eef0     imgui.obj
 0002:00000efc       $SG135384                  1004eefc     imgui.obj
 0002:00000f04       $SG135385                  1004ef04     imgui.obj
 0002:00000f0c       $SG135386                  1004ef0c     imgui.obj
 0002:00000f14       $SG135391                  1004ef14     imgui.obj
 0002:00000f1c       $SG135396                  1004ef1c     imgui.obj
 0002:00000f24       $SG135406                  1004ef24     imgui.obj
 0002:00000f2c       $SG135407                  1004ef2c     imgui.obj
 0002:00000f38       ?KeyNames@@3QBQBDB         1004ef38     imgui.obj
 0002:000011d0       $SG127378                  1004f1d0     imgui.obj
 0002:000011d8       $SG127379                  1004f1d8     imgui.obj
 0002:000011e4       $SG127380                  1004f1e4     imgui.obj
 0002:000011f0       $SG127381                  1004f1f0     imgui.obj
 0002:000011fc       $SG135574                  1004f1fc     imgui.obj
 0002:0000120c       $SG127382                  1004f20c     imgui.obj
 0002:00001218       $SG135575                  1004f218     imgui.obj
 0002:00001224       $SG127383                  1004f224     imgui.obj
 0002:00001230       $SG135576                  1004f230     imgui.obj
 0002:00001260       $SG127384                  1004f260     imgui.obj
 0002:0000126c       $SG135577                  1004f26c     imgui.obj
 0002:00001294       $SG127385                  1004f294     imgui.obj
 0002:0000129c       $SG135578                  1004f29c     imgui.obj
 0002:000012ac       $SG127386                  1004f2ac     imgui.obj
 0002:000012b4       $SG135579                  1004f2b4     imgui.obj
 0002:000012e8       $SG127387                  1004f2e8     imgui.obj
 0002:000012f0       $SG135580                  1004f2f0     imgui.obj
 0002:000012f8       $SG127388                  1004f2f8     imgui.obj
 0002:00001300       $SG127389                  1004f300     imgui.obj
 0002:00001308       $SG135582                  1004f308     imgui.obj
 0002:00001320       $SG127390                  1004f320     imgui.obj
 0002:0000132c       $SG135583                  1004f32c     imgui.obj
 0002:00001338       $SG127391                  1004f338     imgui.obj
 0002:00001344       $SG135584                  1004f344     imgui.obj
 0002:00001350       $SG127392                  1004f350     imgui.obj
 0002:00001358       $SG127393                  1004f358     imgui.obj
 0002:00001360       $SG135586                  1004f360     imgui.obj
 0002:00001378       $SG127394                  1004f378     imgui.obj
 0002:00001384       $SG135587                  1004f384     imgui.obj
 0002:0000138c       $SG127395                  1004f38c     imgui.obj
 0002:00001398       $SG135588                  1004f398     imgui.obj
 0002:000013a4       $SG127396                  1004f3a4     imgui.obj
 0002:000013ac       $SG127397                  1004f3ac     imgui.obj
 0002:000013b8       $SG135590                  1004f3b8     imgui.obj
 0002:000013c8       $SG127398                  1004f3c8     imgui.obj
 0002:000013d4       $SG127399                  1004f3d4     imgui.obj
 0002:000013dc       $SG135592                  1004f3dc     imgui.obj
 0002:000013e4       $SG127400                  1004f3e4     imgui.obj
 0002:000013ec       $SG135593                  1004f3ec     imgui.obj
 0002:0000140c       $SG127401                  1004f40c     imgui.obj
 0002:00001418       $SG127402                  1004f418     imgui.obj
 0002:00001424       $SG135595                  1004f424     imgui.obj
 0002:00001430       $SG127403                  1004f430     imgui.obj
 0002:0000143c       $SG135596                  1004f43c     imgui.obj
 0002:00001444       $SG127404                  1004f444     imgui.obj
 0002:0000144c       $SG135597                  1004f44c     imgui.obj
 0002:00001460       $SG127405                  1004f460     imgui.obj
 0002:0000146c       $SG135598                  1004f46c     imgui.obj
 0002:00001474       $SG127406                  1004f474     imgui.obj
 0002:00001480       $SG135599                  1004f480     imgui.obj
 0002:00001498       $SG127407                  1004f498     imgui.obj
 0002:000014a8       $SG135600                  1004f4a8     imgui.obj
 0002:000014c4       $SG127408                  1004f4c4     imgui.obj
 0002:000014d0       $SG135601                  1004f4d0     imgui.obj
 0002:000014e8       $SG127409                  1004f4e8     imgui.obj
 0002:000014f8       $SG135602                  1004f4f8     imgui.obj
 0002:00001500       $SG127410                  1004f500     imgui.obj
 0002:0000150c       $SG135603                  1004f50c     imgui.obj
 0002:00001524       $SG127411                  1004f524     imgui.obj
 0002:00001530       $SG135604                  1004f530     imgui.obj
 0002:00001538       $SG127412                  1004f538     imgui.obj
 0002:00001540       $SG135605                  1004f540     imgui.obj
 0002:00001550       $SG127413                  1004f550     imgui.obj
 0002:00001558       $SG127414                  1004f558     imgui.obj
 0002:00001560       $SG127415                  1004f560     imgui.obj
 0002:00001568       $SG127416                  1004f568     imgui.obj
 0002:00001570       $SG127417                  1004f570     imgui.obj
 0002:0000157c       $SG127418                  1004f57c     imgui.obj
 0002:00001584       $SG127419                  1004f584     imgui.obj
 0002:00001590       $SG127420                  1004f590     imgui.obj
 0002:0000159c       $SG127421                  1004f59c     imgui.obj
 0002:000015a8       $SG127422                  1004f5a8     imgui.obj
 0002:000015b4       $SG127423                  1004f5b4     imgui.obj
 0002:000015c0       $SG127424                  1004f5c0     imgui.obj
 0002:000015cc       $SG127425                  1004f5cc     imgui.obj
 0002:000015d4       $SG127426                  1004f5d4     imgui.obj
 0002:000015d8       $SG127427                  1004f5d8     imgui.obj
 0002:000015dc       $SG127428                  1004f5dc     imgui.obj
 0002:000015e0       $SG127429                  1004f5e0     imgui.obj
 0002:000015e4       $SG127430                  1004f5e4     imgui.obj
 0002:000015e8       $SG127431                  1004f5e8     imgui.obj
 0002:000015ec       $SG127432                  1004f5ec     imgui.obj
 0002:000015f0       $SG127433                  1004f5f0     imgui.obj
 0002:000015f4       $SG127434                  1004f5f4     imgui.obj
 0002:000015f8       $SG127435                  1004f5f8     imgui.obj
 0002:000015fc       $SG127436                  1004f5fc     imgui.obj
 0002:00001604       $SG127437                  1004f604     imgui.obj
 0002:0000160c       $SG127438                  1004f60c     imgui.obj
 0002:00001614       $SG127439                  1004f614     imgui.obj
 0002:0000161c       $SG127440                  1004f61c     imgui.obj
 0002:00001624       $SG127441                  1004f624     imgui.obj
 0002:0000162c       $SG127442                  1004f62c     imgui.obj
 0002:00001634       $SG127443                  1004f634     imgui.obj
 0002:00001638       $SG127444                  1004f638     imgui.obj
 0002:0000163c       $SG127445                  1004f63c     imgui.obj
 0002:00001640       $SG127446                  1004f640     imgui.obj
 0002:00001644       $SG127447                  1004f644     imgui.obj
 0002:00001648       $SG127448                  1004f648     imgui.obj
 0002:0000164c       $SG127449                  1004f64c     imgui.obj
 0002:00001650       $SG127450                  1004f650     imgui.obj
 0002:00001654       $SG127451                  1004f654     imgui.obj
 0002:00001658       $SG127452                  1004f658     imgui.obj
 0002:0000165c       $SG127453                  1004f65c     imgui.obj
 0002:00001660       $SG127454                  1004f660     imgui.obj
 0002:00001664       $SG127455                  1004f664     imgui.obj
 0002:00001668       $SG127456                  1004f668     imgui.obj
 0002:0000166c       $SG127457                  1004f66c     imgui.obj
 0002:00001670       $SG127458                  1004f670     imgui.obj
 0002:00001674       $SG127459                  1004f674     imgui.obj
 0002:00001678       $SG127460                  1004f678     imgui.obj
 0002:0000167c       $SG127461                  1004f67c     imgui.obj
 0002:00001680       $SG127462                  1004f680     imgui.obj
 0002:00001684       $SG127463                  1004f684     imgui.obj
 0002:00001688       $SG127464                  1004f688     imgui.obj
 0002:0000168c       $SG127465                  1004f68c     imgui.obj
 0002:00001690       $SG127466                  1004f690     imgui.obj
 0002:00001694       $SG127467                  1004f694     imgui.obj
 0002:00001698       $SG127468                  1004f698     imgui.obj
 0002:0000169c       $SG127469                  1004f69c     imgui.obj
 0002:000016a4       $SG127470                  1004f6a4     imgui.obj
 0002:000016ac       $SG127471                  1004f6ac     imgui.obj
 0002:000016b4       $SG127472                  1004f6b4     imgui.obj
 0002:000016bc       $SG127473                  1004f6bc     imgui.obj
 0002:000016c8       $SG127474                  1004f6c8     imgui.obj
 0002:000016d4       $SG127475                  1004f6d4     imgui.obj
 0002:000016e0       $SG127476                  1004f6e0     imgui.obj
 0002:000016ec       $SG127477                  1004f6ec     imgui.obj
 0002:000016f8       $SG127478                  1004f6f8     imgui.obj
 0002:00001704       $SG127479                  1004f704     imgui.obj
 0002:00001710       $SG127480                  1004f710     imgui.obj
 0002:0000171c       $SG127481                  1004f71c     imgui.obj
 0002:00001728       $SG127482                  1004f728     imgui.obj
 0002:00001734       $SG127483                  1004f734     imgui.obj
 0002:00001740       $SG127484                  1004f740     imgui.obj
 0002:0000174c       $SG127485                  1004f74c     imgui.obj
 0002:00001754       $SG127486                  1004f754     imgui.obj
 0002:00001764       $SG127487                  1004f764     imgui.obj
 0002:00001770       $SG127488                  1004f770     imgui.obj
 0002:0000177c       $SG127489                  1004f77c     imgui.obj
 0002:00001788       $SG127490                  1004f788     imgui.obj
 0002:00001790       $SG127491                  1004f790     imgui.obj
 0002:00001798       $SG127492                  1004f798     imgui.obj
 0002:000017a0       $SG127493                  1004f7a0     imgui.obj
 0002:000017a8       $SG127494                  1004f7a8     imgui.obj
 0002:000017b0       $SG127495                  1004f7b0     imgui.obj
 0002:000017b8       $SG127496                  1004f7b8     imgui.obj
 0002:000017c0       $SG127497                  1004f7c0     imgui.obj
 0002:000017c8       $SG127498                  1004f7c8     imgui.obj
 0002:000017d0       $SG127499                  1004f7d0     imgui.obj
 0002:000017d8       $SG127500                  1004f7d8     imgui.obj
 0002:000017e0       $SG127501                  1004f7e0     imgui.obj
 0002:000017e8       $SG127502                  1004f7e8     imgui.obj
 0002:000017f0       $SG127503                  1004f7f0     imgui.obj
 0002:000017f8       $SG127504                  1004f7f8     imgui.obj
 0002:00001800       $SG127505                  1004f800     imgui.obj
 0002:00001808       $SG127506                  1004f808     imgui.obj
 0002:00001810       $SG127507                  1004f810     imgui.obj
 0002:00001818       $SG127508                  1004f818     imgui.obj
 0002:00001820       $SG127509                  1004f820     imgui.obj
 0002:00001828       $SG127510                  1004f828     imgui.obj
 0002:00001830       $SG127511                  1004f830     imgui.obj
 0002:00001838       $SG127512                  1004f838     imgui.obj
 0002:00001840       $SG127513                  1004f840     imgui.obj
 0002:00001848       $SG127514                  1004f848     imgui.obj
 0002:00001850       $SG127515                  1004f850     imgui.obj
 0002:00001858       $SG127516                  1004f858     imgui.obj
 0002:00001860       $SG127517                  1004f860     imgui.obj
 0002:00001868       $SG127518                  1004f868     imgui.obj
 0002:00001870       $SG127519                  1004f870     imgui.obj
 0002:00001878       $SG127520                  1004f878     imgui.obj
 0002:00001880       $SG127521                  1004f880     imgui.obj
 0002:00001888       $SG127522                  1004f888     imgui.obj
 0002:00001894       $SG127523                  1004f894     imgui.obj
 0002:000018a0       $SG127524                  1004f8a0     imgui.obj
 0002:000018b4       $SG127525                  1004f8b4     imgui.obj
 0002:000018c8       $SG127526                  1004f8c8     imgui.obj
 0002:000018dc       $SG127527                  1004f8dc     imgui.obj
 0002:000018ec       $SG127528                  1004f8ec     imgui.obj
 0002:000018fc       $SG127529                  1004f8fc     imgui.obj
 0002:00001904       $SG127530                  1004f904     imgui.obj
 0002:0000190c       $SG127531                  1004f90c     imgui.obj
 0002:00001914       $SG127532                  1004f914     imgui.obj
 0002:0000191c       $SG127533                  1004f91c     imgui.obj
 0002:00001924       $SG127534                  1004f924     imgui.obj
 0002:0000192c       $SG127535                  1004f92c     imgui.obj
 0002:00001934       $SG127536                  1004f934     imgui.obj
 0002:0000193c       $SG127537                  1004f93c     imgui.obj
 0002:00001944       $SG127538                  1004f944     imgui.obj
 0002:00001950       $SG127539                  1004f950     imgui.obj
 0002:0000195c       $SG127540                  1004f95c     imgui.obj
 0002:00001968       $SG127541                  1004f968     imgui.obj
 0002:00001974       $SG127542                  1004f974     imgui.obj
 0002:00001980       $SG127543                  1004f980     imgui.obj
 0002:0000198c       $SG127623                  1004f98c     imgui.obj
 0002:00001998       $SG127624                  1004f998     imgui.obj
 0002:000019a8       $SG128391                  1004f9a8     imgui.obj
 0002:000019b0       $SG128569                  1004f9b0     imgui.obj
 0002:000019bc       $SG128734                  1004f9bc     imgui.obj
 0002:000019c4       $SG128808                  1004f9c4     imgui.obj
 0002:000019c8       $SG128812                  1004f9c8     imgui.obj
 0002:000019d0       $SG128817                  1004f9d0     imgui.obj
 0002:000019dc       $SG128820                  1004f9dc     imgui.obj
 0002:000019e8       $SG128822                  1004f9e8     imgui.obj
 0002:000019f8       $SG128848                  1004f9f8     imgui.obj
 0002:000019fc       $SG128852                  1004f9fc     imgui.obj
 0002:00001a00       $SG128853                  1004fa00     imgui.obj
 0002:00001a08       $SG128854                  1004fa08     imgui.obj
 0002:00001a14       $SG128855                  1004fa14     imgui.obj
 0002:00001a20       $SG128856                  1004fa20     imgui.obj
 0002:00001a30       $SG128857                  1004fa30     imgui.obj
 0002:00001a34       $SG129086                  1004fa34     imgui.obj
 0002:00001a40       $SG129087                  1004fa40     imgui.obj
 0002:00001a48       $SG129473                  1004fa48     imgui.obj
 0002:00001a58       $SG129477                  1004fa58     imgui.obj
 0002:00001a68       $SG129509                  1004fa68     imgui.obj
 0002:00001a70       $SG129584                  1004fa70     imgui.obj
 0002:00001a7c       $SG129585                  1004fa7c     imgui.obj
 0002:00001a8c       $SG129632                  1004fa8c     imgui.obj
 0002:00001a9c       $SG129641                  1004fa9c     imgui.obj
 0002:00001aac       $SG129667                  1004faac     imgui.obj
 0002:00001ab8       $SG129668                  1004fab8     imgui.obj
 0002:00001ac0       $SG129888                  1004fac0     imgui.obj
 0002:00001ac4       $SG129889                  1004fac4     imgui.obj
 0002:00001ac8       $SG130283                  1004fac8     imgui.obj
 0002:00001ad0       $SG130313                  1004fad0     imgui.obj
 0002:00001ad8       $SG130382                  1004fad8     imgui.obj
 0002:00001ae4       $SG130383                  1004fae4     imgui.obj
 0002:00001af0       ?GStyleVarInfo@@3QBUImGuiStyleVarInfo@@B 1004faf0     imgui.obj
 0002:00001b50       $SG130611                  1004fb50     imgui.obj
 0002:00001b58       $SG130613                  1004fb58     imgui.obj
 0002:00001b68       $SG130615                  1004fb68     imgui.obj
 0002:00001b74       $SG130617                  1004fb74     imgui.obj
 0002:00001b84       $SG130619                  1004fb84     imgui.obj
 0002:00001b8c       $SG130621                  1004fb8c     imgui.obj
 0002:00001b94       $SG130623                  1004fb94     imgui.obj
 0002:00001ba4       $SG130625                  1004fba4     imgui.obj
 0002:00001bac       $SG130627                  1004fbac     imgui.obj
 0002:00001bbc       $SG130629                  1004fbbc     imgui.obj
 0002:00001bcc       $SG130631                  1004fbcc     imgui.obj
 0002:00001bd4       $SG130633                  1004fbd4     imgui.obj
 0002:00001be8       $SG130635                  1004fbe8     imgui.obj
 0002:00001bf8       $SG130637                  1004fbf8     imgui.obj
 0002:00001c04       $SG130639                  1004fc04     imgui.obj
 0002:00001c10       $SG130641                  1004fc10     imgui.obj
 0002:00001c20       $SG130643                  1004fc20     imgui.obj
 0002:00001c38       $SG130645                  1004fc38     imgui.obj
 0002:00001c4c       $SG130647                  1004fc4c     imgui.obj
 0002:00001c54       $SG130649                  1004fc54     imgui.obj
 0002:00001c60       $SG130651                  1004fc60     imgui.obj
 0002:00001c6c       $SG130653                  1004fc6c     imgui.obj
 0002:00001c80       $SG130655                  1004fc80     imgui.obj
 0002:00001c88       $SG130657                  1004fc88     imgui.obj
 0002:00001c98       $SG130659                  1004fc98     imgui.obj
 0002:00001ca8       $SG130661                  1004fca8     imgui.obj
 0002:00001cb0       $SG130663                  1004fcb0     imgui.obj
 0002:00001cc0       $SG130665                  1004fcc0     imgui.obj
 0002:00001cd0       $SG130667                  1004fcd0     imgui.obj
 0002:00001cdc       $SG130669                  1004fcdc     imgui.obj
 0002:00001cf0       $SG130671                  1004fcf0     imgui.obj
 0002:00001d00       $SG130673                  1004fd00     imgui.obj
 0002:00001d0c       $SG130675                  1004fd0c     imgui.obj
 0002:00001d20       $SG130677                  1004fd20     imgui.obj
 0002:00001d34       $SG130679                  1004fd34     imgui.obj
 0002:00001d40       $SG130681                  1004fd40     imgui.obj
 0002:00001d54       $SG130683                  1004fd54     imgui.obj
 0002:00001d68       $SG130685                  1004fd68     imgui.obj
 0002:00001d74       $SG130687                  1004fd74     imgui.obj
 0002:00001d88       $SG130689                  1004fd88     imgui.obj
 0002:00001d98       $SG130691                  1004fd98     imgui.obj
 0002:00001db0       $SG130693                  1004fdb0     imgui.obj
 0002:00001dc0       $SG130695                  1004fdc0     imgui.obj
 0002:00001dd8       $SG130696                  1004fdd8     imgui.obj
 0002:00001ed8       $SG16417                   1004fed8     imgui_draw.obj
 0002:00001ee0       $SG16470                   1004fee0     imgui_draw.obj
 0002:00001ee8       $SG16472                   1004fee8     imgui_draw.obj
 0002:00001ef0       ?FONT_ATLAS_DEFAULT_TEX_DATA_PIXELS@@3QBDB 1004fef0     imgui_draw.obj
 0002:00002870       $SG17489                   10050870     imgui_draw.obj
 0002:00002888       $SG17510                   10050888     imgui_draw.obj
 0002:0000288c       $SG17513                   1005088c     imgui_draw.obj
 0002:00002898       ?proggy_clean_ttf_compressed_data_base85@@3QBDB 10050898     imgui_draw.obj
 0002:00005768       $SG14521                   10053768     imgui_draw.obj
 0002:00005770       $SG14522                   10053770     imgui_draw.obj
 0002:00005778       $SG14523                   10053778     imgui_draw.obj
 0002:00005780       $SG14524                   10053780     imgui_draw.obj
 0002:00005788       $SG14526                   10053788     imgui_draw.obj
 0002:00005790       $SG14527                   10053790     imgui_draw.obj
 0002:00005798       $SG14528                   10053798     imgui_draw.obj
 0002:000057a0       $SG14529                   100537a0     imgui_draw.obj
 0002:000057a8       $SG14532                   100537a8     imgui_draw.obj
 0002:000057b0       $SG14533                   100537b0     imgui_draw.obj
 0002:000057b8       $SG14534                   100537b8     imgui_draw.obj
 0002:000057c0       $SG14535                   100537c0     imgui_draw.obj
 0002:000057c8       $SG14556                   100537c8     imgui_draw.obj
 0002:000057d0       $SG14557                   100537d0     imgui_draw.obj
 0002:000057d8       $SG14558                   100537d8     imgui_draw.obj
 0002:000057e0       $SG14559                   100537e0     imgui_draw.obj
 0002:000057e8       $SG14568                   100537e8     imgui_draw.obj
 0002:000057f0       $SG14569                   100537f0     imgui_draw.obj
 0002:000057f8       $SG14570                   100537f8     imgui_draw.obj
 0002:00005800       $SG14571                   10053800     imgui_draw.obj
 0002:00005808       $SG14629                   10053808     imgui_draw.obj
 0002:00005810       $SG14630                   10053810     imgui_draw.obj
 0002:00005818       $SG14631                   10053818     imgui_draw.obj
 0002:00005820       $SG14632                   10053820     imgui_draw.obj
 0002:00005828       $SG14633                   10053828     imgui_draw.obj
 0002:00005830       $SG14634                   10053830     imgui_draw.obj
 0002:00005838       $SG14635                   10053838     imgui_draw.obj
 0002:00005840       $SG14641                   10053840     imgui_draw.obj
 0002:00005848       $SG14647                   10053848     imgui_draw.obj
 0002:00005850       ?ranges@?1??GetGlyphRangesDefault@ImFontAtlas@@QAEPBGXZ@4QBGB 10053850     imgui_draw.obj
 0002:000058d8       $SG180365                  100538d8     event_hook.obj
 0002:000058e4       $SG180368                  100538e4     event_hook.obj
 0002:00005910       $SG182170                  10053910     hooking_init.obj
 0002:0000591c       $SG182174                  1005391c     hooking_init.obj
 0002:00005930       $SG182175                  10053930     hooking_init.obj
 0002:00005938       $SG182176                  10053938     hooking_init.obj
 0002:0000595c       $SG180377                  1005395c     painttraverse_hook.obj
 0002:00005964       $SG180382                  10053964     painttraverse_hook.obj
 0002:000059c8       $SG174177                  100539c8     config_system.obj
 0002:00005a40       $SG158148                  10053a40     menu_system.obj
 0002:00005a50       ?SmallestPixel_compressed_data@@3QBIB 10053a50     menu_system.obj
 0002:00008314       $SG177814                  10056314     menu_system.obj
 0002:00008334       $SG177827                  10056334     menu_system.obj
 0002:0000833c       $SG177828                  1005633c     menu_system.obj
 0002:00008344       $SG177829                  10056344     menu_system.obj
 0002:0000834c       $SG177830                  1005634c     menu_system.obj
 0002:00008354       $SG177843                  10056354     menu_system.obj
 0002:0000835c       $SG177844                  1005635c     menu_system.obj
 0002:00008364       $SG177845                  10056364     menu_system.obj
 0002:0000836c       $SG177846                  1005636c     menu_system.obj
 0002:00008374       $SG177861                  10056374     menu_system.obj
 0002:00008388       $SG177862                  10056388     menu_system.obj
 0002:00008398       $SG177863                  10056398     menu_system.obj
 0002:000083a8       $SG177864                  100563a8     menu_system.obj
 0002:000083b0       $SG177865                  100563b0     menu_system.obj
 0002:000083b8       $SG177866                  100563b8     menu_system.obj
 0002:000083c4       $SG177867                  100563c4     menu_system.obj
 0002:000083d4       $SG177868                  100563d4     menu_system.obj
 0002:000083e0       $SG177869                  100563e0     menu_system.obj
 0002:000083e8       $SG177878                  100563e8     menu_system.obj
 0002:000083f0       $SG177879                  100563f0     menu_system.obj
 0002:000083f8       $SG177880                  100563f8     menu_system.obj
 0002:00008400       $SG177933                  10056400     menu_system.obj
 0002:0000840c       $SG177934                  1005640c     menu_system.obj
 0002:00008418       $SG177935                  10056418     menu_system.obj
 0002:00008420       $SG177937                  10056420     menu_system.obj
 0002:00008428       $SG177939                  10056428     menu_system.obj
 0002:00008434       $SG177941                  10056434     menu_system.obj
 0002:0000843c       $SG177943                  1005643c     menu_system.obj
 0002:00008444       $SG177945                  10056444     menu_system.obj
 0002:00008454       $SG177947                  10056454     menu_system.obj
 0002:00008488       $SG138633                  10056488     CEntity.obj
 0002:00008498       $SG138634                  10056498     CEntity.obj
 0002:000084a8       $SG138635                  100564a8     CEntity.obj
 0002:000084bc       $SG138650                  100564bc     CEntity.obj
 0002:000084e4       $SG138651                  100564e4     CEntity.obj
 0002:000084f8       $SG138666                  100564f8     CEntity.obj
 0002:00008530       $SG138667                  10056530     CEntity.obj
 0002:00008544       $SG138771                  10056544     CEntity.obj
 0002:00008554       $SG138775                  10056554     CEntity.obj
 0002:00008568       $SG138779                  10056568     CEntity.obj
 0002:00008578       $SG138783                  10056578     CEntity.obj
 0002:0000858c       $SG138787                  1005658c     CEntity.obj
 0002:000085a0       $SG138791                  100565a0     CEntity.obj
 0002:000085b4       $SG138794                  100565b4     CEntity.obj
 0002:000085c4       $SG139042                  100565c4     CEntity.obj
 0002:000085d4       $SG139046                  100565d4     CEntity.obj
 0002:000085e4       $SG139050                  100565e4     CEntity.obj
 0002:000085f0       $SG139054                  100565f0     CEntity.obj
 0002:000085fc       $SG139058                  100565fc     CEntity.obj
 0002:0000860c       $SG139062                  1005660c     CEntity.obj
 0002:00008620       $SG139066                  10056620     CEntity.obj
 0002:00008630       $SG139070                  10056630     CEntity.obj
 0002:0000863c       $SG139074                  1005663c     CEntity.obj
 0002:0000864c       $SG139078                  1005664c     CEntity.obj
 0002:00008658       $SG139082                  10056658     CEntity.obj
 0002:00008668       $SG139086                  10056668     CEntity.obj
 0002:00008678       $SG139090                  10056678     CEntity.obj
 0002:00008688       $SG139094                  10056688     CEntity.obj
 0002:00008694       $SG139098                  10056694     CEntity.obj
 0002:000086a4       $SG139102                  100566a4     CEntity.obj
 0002:000086b0       $SG139106                  100566b0     CEntity.obj
 0002:000086bc       $SG139110                  100566bc     CEntity.obj
 0002:000086cc       $SG139114                  100566cc     CEntity.obj
 0002:000086d8       $SG139118                  100566d8     CEntity.obj
 0002:000086e8       $SG139122                  100566e8     CEntity.obj
 0002:000086f4       $SG139126                  100566f4     CEntity.obj
 0002:00008700       $SG139130                  10056700     CEntity.obj
 0002:0000870c       $SG139134                  1005670c     CEntity.obj
 0002:0000871c       $SG139138                  1005671c     CEntity.obj
 0002:0000872c       $SG139142                  1005672c     CEntity.obj
 0002:00008738       $SG139146                  10056738     CEntity.obj
 0002:00008748       $SG139150                  10056748     CEntity.obj
 0002:00008758       $SG139154                  10056758     CEntity.obj
 0002:00008790       ?pulCRCTable@@3QBKB        10056790     checksum_crc.obj
 0002:00008b90       $SG141792                  10056b90     Interfaces.obj
 0002:00008b98       $SG141793                  10056b98     Interfaces.obj
 0002:00008bac       $SG141794                  10056bac     Interfaces.obj
 0002:00008bc0       $SG141795                  10056bc0     Interfaces.obj
 0002:00008bd4       $SG141796                  10056bd4     Interfaces.obj
 0002:00008be4       $SG141797                  10056be4     Interfaces.obj
 0002:00008bf0       $SG141798                  10056bf0     Interfaces.obj
 0002:00008c04       $SG141799                  10056c04     Interfaces.obj
 0002:00008c18       $SG141800                  10056c18     Interfaces.obj
 0002:00008c28       $SG141801                  10056c28     Interfaces.obj
 0002:00008c3c       $SG141802                  10056c3c     Interfaces.obj
 0002:00008c58       $SG141803                  10056c58     Interfaces.obj
 0002:00008c6c       $SG141804                  10056c6c     Interfaces.obj
 0002:00008c84       $SG141805                  10056c84     Interfaces.obj
 0002:00008c90       $SG141806                  10056c90     Interfaces.obj
 0002:00008ca0       $SG141807                  10056ca0     Interfaces.obj
 0002:00008cb4       $SG141808                  10056cb4     Interfaces.obj
 0002:00008cc8       $SG141809                  10056cc8     Interfaces.obj
 0002:00008cd4       $SG141810                  10056cd4     Interfaces.obj
 0002:00008cec       $SG141811                  10056cec     Interfaces.obj
 0002:00008cfc       $SG141812                  10056cfc     Interfaces.obj
 0002:00008d08       $SG141813                  10056d08     Interfaces.obj
 0002:00008d14       $SG141814                  10056d14     Interfaces.obj
 0002:00008d20       $SG141815                  10056d20     Interfaces.obj
 0002:00008d2c       $SG141816                  10056d2c     Interfaces.obj
 0002:00008d40       $SG141817                  10056d40     Interfaces.obj
 0002:00008d4c       $SG141818                  10056d4c     Interfaces.obj
 0002:00008d5c       $SG141819                  10056d5c     Interfaces.obj
 0002:00008d68       $SG141820                  10056d68     Interfaces.obj
 0002:00008d78       $SG141821                  10056d78     Interfaces.obj
 0002:00008d8c       $SG141822                  10056d8c     Interfaces.obj
 0002:00008da0       $SG141823                  10056da0     Interfaces.obj
 0002:00008db0       $SG141824                  10056db0     Interfaces.obj
 0002:00008ed4       $SG141825                  10056ed4     Interfaces.obj
 0002:00008ef4       $SG153939                  10056ef4     Interfaces.obj
 0002:00008f04       $SG153940                  10056f04     Interfaces.obj
 0002:00008f0c       $SG153943                  10056f0c     Interfaces.obj
 0002:00008f14       $SG153963                  10056f14     Interfaces.obj
 0002:00008f24       $SG153964                  10056f24     Interfaces.obj
 0002:00008f2c       $SG153967                  10056f2c     Interfaces.obj
 0002:00008f34       $SG153987                  10056f34     Interfaces.obj
 0002:00008f44       $SG153988                  10056f44     Interfaces.obj
 0002:00008f4c       $SG153991                  10056f4c     Interfaces.obj
 0002:00008f54       $SG154011                  10056f54     Interfaces.obj
 0002:00008f64       $SG154012                  10056f64     Interfaces.obj
 0002:00008f6c       $SG154015                  10056f6c     Interfaces.obj
 0002:00008f74       $SG154035                  10056f74     Interfaces.obj
 0002:00008f84       $SG154036                  10056f84     Interfaces.obj
 0002:00008f8c       $SG154039                  10056f8c     Interfaces.obj
 0002:00008f94       $SG154048                  10056f94     Interfaces.obj
 0002:00008fa4       $SG154049                  10056fa4     Interfaces.obj
 0002:00008fc0       $SG154068                  10056fc0     Interfaces.obj
 0002:00008fd0       $SG154069                  10056fd0     Interfaces.obj
 0002:00008fd8       $SG154072                  10056fd8     Interfaces.obj
 0002:00008fe0       $SG154092                  10056fe0     Interfaces.obj
 0002:00008ff0       $SG154093                  10056ff0     Interfaces.obj
 0002:00008ff8       $SG154096                  10056ff8     Interfaces.obj
 0002:00009000       $SG154116                  10057000     Interfaces.obj
 0002:00009010       $SG154117                  10057010     Interfaces.obj
 0002:00009018       $SG154120                  10057018     Interfaces.obj
 0002:00009020       $SG154140                  10057020     Interfaces.obj
 0002:00009030       $SG154141                  10057030     Interfaces.obj
 0002:00009038       $SG154144                  10057038     Interfaces.obj
 0002:00009040       $SG154164                  10057040     Interfaces.obj
 0002:00009050       $SG154165                  10057050     Interfaces.obj
 0002:00009058       $SG154168                  10057058     Interfaces.obj
 0002:00009060       $SG154188                  10057060     Interfaces.obj
 0002:00009070       $SG154189                  10057070     Interfaces.obj
 0002:00009078       $SG154192                  10057078     Interfaces.obj
 0002:00009080       $SG154212                  10057080     Interfaces.obj
 0002:00009090       $SG154213                  10057090     Interfaces.obj
 0002:00009098       $SG154216                  10057098     Interfaces.obj
 0002:000090a0       $SG154236                  100570a0     Interfaces.obj
 0002:000090b0       $SG154237                  100570b0     Interfaces.obj
 0002:000090b8       $SG154240                  100570b8     Interfaces.obj
 0002:000090c0       $SG154260                  100570c0     Interfaces.obj
 0002:000090d0       $SG154261                  100570d0     Interfaces.obj
 0002:000090d8       $SG154264                  100570d8     Interfaces.obj
 0002:000090e0       $SG124468                  100570e0     Math.obj
 0002:000090ec       $SG124469                  100570ec     Math.obj
 0002:000090f8       $SG124483                  100570f8     Math.obj
 0002:00009104       $SG124484                  10057104     Math.obj
 0002:00009164       _GS_ExceptionPointers      10057164     MSVCRT:gs_report.obj
 0002:00009210       _Int32ToUInt32             10057210     MSVCRT:ftol3.obj
 0002:00009218       _DP2to32                   10057218     MSVCRT:ftol3.obj
 0002:00009220       _MantissaMask              10057220     MSVCRT:ftol3.obj
 0002:00009228       _IntegerBit                10057228     MSVCRT:ftol3.obj
 0002:00009230       _SignBit64                 10057230     MSVCRT:ftol3.obj
 0002:00009238       _MinFP64                   10057238     MSVCRT:ftol3.obj
 0002:00009240       _MinInt64                  10057240     MSVCRT:ftol3.obj
 0002:00009248       _MaxInt64                  10057248     MSVCRT:ftol3.obj
 0002:00009250       _MaxUInt64                 10057250     MSVCRT:ftol3.obj
 0002:00009258       _MaxFP32                   10057258     MSVCRT:ftol3.obj
 0002:00009260       _MinFP32                   10057260     MSVCRT:ftol3.obj
 0002:00009268       _MinSubInexact             10057268     MSVCRT:ftol3.obj
 0002:00009270       _FpExcptTable              10057270     MSVCRT:ftol3.obj
 0002:00009280       _i1075                     10057280     MSVCRT:ftol3.obj
 0002:00009284       _i1087                     10057284     MSVCRT:ftol3.obj
 0002:00009288       _x0800                     10057288     MSVCRT:ftol3.obj
 0002:0000928c       _x17FF                     1005728c     MSVCRT:ftol3.obj
 0002:00009290       _CWMask                    10057290     MSVCRT:ftol3.obj
 0002:00009f00       __unwindtable$??0?$basic_string@DU?$char_traits@D@std@@V?$allocator@D@2@@std@@QAE@QBD@Z 10057f00     c_hooks.obj
 0002:00009f08       __ehfuncinfo$??0?$basic_string@DU?$char_traits@D@std@@V?$allocator@D@2@@std@@QAE@QBD@Z 10057f08     c_hooks.obj
 0002:00009f2c       __ehfuncinfo$??1?$_Uninitialized_backout_al@PAV?$_List_unchecked_iterator@V?$_List_val@U?$_List_simple_types@U?$pair@$$CBV?$basic_string@DU?$char_traits@D@std@@V?$allocator@D@2@@std@@V?$shared_ptr@UNode@NetvarTree@@@2@@std@@@std@@@std@@@std@@V?$allocator@V?$_List_unchecked_iterator@V?$_List_val@U?$_List_simple_types@U?$pair@$$CBV?$basic_string@DU?$char_traits@D@std@@V?$allocator@D@2@@std@@V?$shared_ptr@UNode@NetvarTree@@@2@@std@@@std@@@std@@@std@@@2@@std@@QAE@XZ 10057f2c     Aimbot.obj
 0002:00009f2c       __ehfuncinfo$??1?$ImVector@Ustbrp_rect@@@@QAE@XZ 10057f2c     imgui_draw.obj
 0002:00009f2c       __ehfuncinfo$?find@?$basic_string@DU?$char_traits@D@std@@V?$allocator@D@2@@std@@QBEIQBDI@Z 10057f2c     c_esp.obj
 0002:00009f2c       __ehfuncinfo$?end@?$basic_string@DU?$char_traits@D@std@@V?$allocator@D@2@@std@@QAE?AV?$_String_iterator@V?$_String_val@U?$_Simple_types@D@std@@@std@@@2@XZ 10057f2c     c_esp.obj
 0002:00009f2c       __ehfuncinfo$?begin@?$basic_string@DU?$char_traits@D@std@@V?$allocator@D@2@@std@@QAE?AV?$_String_iterator@V?$_String_val@U?$_Simple_types@D@std@@@std@@@2@XZ 10057f2c     c_esp.obj
 0002:00009f2c       __ehfuncinfo$??1?$vector@HV?$allocator@H@std@@@std@@QAE@XZ 10057f2c     Aimbot.obj
 0002:00009f2c       __ehfuncinfo$??$?0V?$basic_string@DU?$char_traits@D@std@@V?$allocator@D@2@@std@@$$V$0A@@?$tuple@$$QAV?$basic_string@DU?$char_traits@D@std@@V?$allocator@D@2@@std@@@std@@QAE@$$QAV?$basic_string@DU?$char_traits@D@std@@V?$allocator@D@2@@1@@Z 10057f2c     Aimbot.obj
 0002:00009f2c       __ehfuncinfo$?begin@?$deque@UPlayerRecords@@V?$allocator@UPlayerRecords@@@std@@@std@@QAE?AV?$_Deque_iterator@V?$_Deque_val@U?$_Deque_simple_types@UPlayerRecords@@@std@@@std@@@2@XZ 10057f2c     Aimbot.obj
 0002:00009f2c       __ehfuncinfo$?_Make_iter@?$list@U?$pair@$$CBV?$basic_string@DU?$char_traits@D@std@@V?$allocator@D@2@@std@@V?$shared_ptr@UNode@NetvarTree@@@2@@std@@V?$allocator@U?$pair@$$CBV?$basic_string@DU?$char_traits@D@std@@V?$allocator@D@2@@std@@V?$shared_ptr@UNode@NetvarTree@@@2@@std@@@2@@std@@QBE?AV?$_List_iterator@V?$_List_val@U?$_List_simple_types@U?$pair@$$CBV?$basic_string@DU?$char_traits@D@std@@V?$allocator@D@2@@std@@V?$shared_ptr@UNode@NetvarTree@@@2@@std@@@std@@@std@@@2@V?$_List_const_iterator@V?$_List_val@U?$_List_simple_types@U?$pair@$$CBV?$basic_string@DU?$char_traits@D@std@@V?$allocator@D@2@@std@@V?$shared_ptr@UNode@NetvarTree@@@2@@std@@@std@@@std@@@2@@Z 10057f2c     Aimbot.obj
 0002:00009f2c       __ehfuncinfo$??$?0U?$default_delete@VShadowVTManager@@@std@@$0A@@?$unique_ptr@VShadowVTManager@@U?$default_delete@VShadowVTManager@@@std@@@std@@QAE@XZ 10057f2c     c_hooks.obj
 0002:00009f2c       __ehfuncinfo$?clear@?$list@U?$pair@$$CBV?$basic_string@DU?$char_traits@D@std@@V?$allocator@D@2@@std@@V?$shared_ptr@UNode@NetvarTree@@@2@@std@@V?$allocator@U?$pair@$$CBV?$basic_string@DU?$char_traits@D@std@@V?$allocator@D@2@@std@@V?$shared_ptr@UNode@NetvarTree@@@2@@std@@@2@@std@@QAEXXZ 10057f2c     c_hooks.obj
 0002:00009f2c       __ehfuncinfo$??1?$list@U?$pair@$$CBV?$basic_string@DU?$char_traits@D@std@@V?$allocator@D@2@@std@@V?$shared_ptr@UNode@NetvarTree@@@2@@std@@V?$allocator@U?$pair@$$CBV?$basic_string@DU?$char_traits@D@std@@V?$allocator@D@2@@std@@V?$shared_ptr@UNode@NetvarTree@@@2@@std@@@2@@std@@QAE@XZ 10057f2c     c_hooks.obj
 0002:00009f2c       __ehfuncinfo$??1?$_List_alloc@U?$_List_base_types@U?$pair@$$CBV?$basic_string@DU?$char_traits@D@std@@V?$allocator@D@2@@std@@V?$shared_ptr@UNode@NetvarTree@@@2@@std@@V?$allocator@U?$pair@$$CBV?$basic_string@DU?$char_traits@D@std@@V?$allocator@D@2@@std@@V?$shared_ptr@UNode@NetvarTree@@@2@@std@@@2@@std@@@std@@QAE@XZ 10057f2c     c_hooks.obj
 0002:00009f2c       __ehfuncinfo$??1?$basic_string@DU?$char_traits@D@std@@V?$allocator@D@2@@std@@QAE@XZ 10057f2c     c_hooks.obj
 0002:00009f2c       __ehfuncinfo$??1ImFont@@QAE@XZ 10057f2c     imgui_draw.obj
 0002:00009f2c       __ehfuncinfo$??0?$vector@HV?$allocator@H@std@@@std@@QAE@XZ 10057f2c     Aimbot.obj
 0002:00009f2c       __ehfuncinfo$??4?$basic_string@DU?$char_traits@D@std@@V?$allocator@D@2@@std@@QAEAAV01@$$QAV01@@Z 10057f2c     imgui.obj
 0002:00009f2c       __ehfuncinfo$??1ImFontAtlas@@QAE@XZ 10057f2c     imgui_draw.obj
 0002:00009f2c       __ehfuncinfo$??1?$vector@V?$_List_unchecked_iterator@V?$_List_val@U?$_List_simple_types@U?$pair@$$CBV?$basic_string@DU?$char_traits@D@std@@V?$allocator@D@2@@std@@V?$shared_ptr@UNode@NetvarTree@@@2@@std@@@std@@@std@@@std@@V?$allocator@V?$_List_unchecked_iterator@V?$_List_val@U?$_List_simple_types@U?$pair@$$CBV?$basic_string@DU?$char_traits@D@std@@V?$allocator@D@2@@std@@V?$shared_ptr@UNode@NetvarTree@@@2@@std@@@std@@@std@@@std@@@2@@std@@QAE@XZ 10057f2c     c_hooks.obj
 0002:00009f2c       __ehfuncinfo$??$?0U?$default_delete@VVMTHook@@@std@@$0A@@?$unique_ptr@VVMTHook@@U?$default_delete@VVMTHook@@@std@@@std@@QAE@XZ 10057f2c     c_hooks.obj
 0002:00009f2c       __ehfuncinfo$??1?$shared_ptr@UNode@NetvarTree@@@std@@QAE@XZ 10057f2c     c_hooks.obj
 0002:00009f2c       __ehfuncinfo$??1?$ImVector@I@@QAE@XZ 10057f2c     imgui.obj
 0002:00009f2c       __ehfuncinfo$??1?$ImVector@D@@QAE@XZ 10057f2c     imgui.obj
 0002:00009f2c       __ehfuncinfo$??1?$ImVector@UImGuiColumnData@@@@QAE@XZ 10057f2c     imgui.obj
 0002:00009f2c       __ehfuncinfo$??1?$ImVector@UImDrawVert@@@@QAE@XZ 10057f2c     imgui.obj
 0002:00009f2c       __ehfuncinfo$??1?$ImVector@UPair@ImGuiStorage@@@@QAE@XZ 10057f2c     imgui.obj
 0002:00009f2c       __ehfuncinfo$??1?$ImVector@UCustomRect@ImFontAtlas@@@@QAE@XZ 10057f2c     imgui_draw.obj
 0002:00009f2c       __ehfuncinfo$??1?$ImVector@PAUImGuiWindow@@@@QAE@XZ 10057f2c     imgui.obj
 0002:00009f2c       __ehfuncinfo$??1?$ImVector@UImDrawCmd@@@@QAE@XZ 10057f2c     imgui.obj
 0002:00009f2c       __ehfuncinfo$??1?$ImVector@G@@QAE@XZ 10057f2c     imgui.obj
 0002:00009f2c       __ehfuncinfo$??1?$ImVector@PAUImDrawList@@@@QAE@XZ 10057f2c     imgui.obj
 0002:00009f2c       __ehfuncinfo$??1?$ImVector@UImGuiIniData@@@@QAE@XZ 10057f2c     imgui.obj
 0002:00009f2c       __ehfuncinfo$??1?$ImVector@UImFontConfig@@@@QAE@XZ 10057f2c     imgui_draw.obj
 0002:00009f2c       __ehfuncinfo$??1?$ImVector@UImGuiStyleMod@@@@QAE@XZ 10057f2c     imgui.obj
 0002:00009f2c       __ehfuncinfo$??1?$ImVector@UImGuiPopupRef@@@@QAE@XZ 10057f2c     imgui.obj
 0002:00009f2c       __ehfuncinfo$??1ImGuiContext@@QAE@XZ 10057f2c     imgui.obj
 0002:00009f2c       __ehfuncinfo$??0?$basic_string@DU?$char_traits@D@std@@V?$allocator@D@2@@std@@QAE@XZ 10057f2c     config_system.obj
 0002:00009f2c       __ehfuncinfo$?end@?$list@U?$pair@$$CBV?$basic_string@DU?$char_traits@D@std@@V?$allocator@D@2@@std@@V?$shared_ptr@UNode@NetvarTree@@@2@@std@@V?$allocator@U?$pair@$$CBV?$basic_string@DU?$char_traits@D@std@@V?$allocator@D@2@@std@@V?$shared_ptr@UNode@NetvarTree@@@2@@std@@@2@@std@@QAE?AV?$_List_iterator@V?$_List_val@U?$_List_simple_types@U?$pair@$$CBV?$basic_string@DU?$char_traits@D@std@@V?$allocator@D@2@@std@@V?$shared_ptr@UNode@NetvarTree@@@2@@std@@@std@@@std@@@2@XZ 10057f2c     Aimbot.obj
 0002:00009f2c       __ehfuncinfo$?begin@?$list@U?$pair@$$CBV?$basic_string@DU?$char_traits@D@std@@V?$allocator@D@2@@std@@V?$shared_ptr@UNode@NetvarTree@@@2@@std@@V?$allocator@U?$pair@$$CBV?$basic_string@DU?$char_traits@D@std@@V?$allocator@D@2@@std@@V?$shared_ptr@UNode@NetvarTree@@@2@@std@@@2@@std@@QAE?AV?$_List_iterator@V?$_List_val@U?$_List_simple_types@U?$pair@$$CBV?$basic_string@DU?$char_traits@D@std@@V?$allocator@D@2@@std@@V?$shared_ptr@UNode@NetvarTree@@@2@@std@@@std@@@std@@@2@XZ 10057f2c     Aimbot.obj
 0002:00009f2c       __ehfuncinfo$?_Equal@?$basic_string@DU?$char_traits@D@std@@V?$allocator@D@2@@std@@QBE_NABV12@@Z 10057f2c     Aimbot.obj
 0002:00009f2c       __ehfuncinfo$??1?$_Deque_alloc@U?$_Deque_base_types@UPlayerRecords@@V?$allocator@UPlayerRecords@@@std@@@std@@@std@@QAE@XZ 10057f2c     LagComp.obj
 0002:00009f2c       __ehfuncinfo$??1?$deque@UPlayerRecords@@V?$allocator@UPlayerRecords@@@std@@@std@@QAE@XZ 10057f2c     LagComp.obj
 0002:00009f2c       __ehfuncinfo$?end@?$deque@UPlayerRecords@@V?$allocator@UPlayerRecords@@@std@@@std@@QAE?AV?$_Deque_iterator@V?$_Deque_val@U?$_Deque_simple_types@UPlayerRecords@@@std@@@std@@@2@XZ 10057f2c     LagComp.obj
 0002:00009f2c       __ehfuncinfo$??1LagComp@@QAE@XZ 10057f2c     LagComp.obj
 0002:00009f2c       __ehfuncinfo$?c_str@?$basic_string@DU?$char_traits@D@std@@V?$allocator@D@2@@std@@QBEPBDXZ 10057f2c     Aimbot.obj
 0002:00009f2c       __ehfuncinfo$?_Assign_rv_contents_with_alloc_always_equal@?$basic_string@DU?$char_traits@D@std@@V?$allocator@D@2@@std@@QAEX$$QAV12@U?$integral_constant@_N$00@2@@Z 10057f2c     Aimbot.obj
 0002:00009f2c       __ehfuncinfo$??0?$basic_string@DU?$char_traits@D@std@@V?$allocator@D@2@@std@@QAE@$$QAV01@@Z 10057f2c     Aimbot.obj
 0002:00009f2c       __ehfuncinfo$??1?$ImVector@M@@QAE@XZ 10057f2c     imgui.obj
 0002:00009f2c       __ehfuncinfo$??1?$ImVector@PAUImFont@@@@QAE@XZ 10057f2c     imgui.obj
 0002:00009f2c       __ehfuncinfo$??1ImDrawList@@QAE@XZ 10057f2c     imgui.obj
 0002:00009f2c       __ehfuncinfo$??1?$ImVector@_N@@QAE@XZ 10057f2c     imgui.obj
 0002:00009f2c       __ehfuncinfo$??1_Sentry_base@?$basic_ostream@DU?$char_traits@D@std@@@std@@QAE@XZ 10057f2c     Interfaces.obj
 0002:00009f2c       __ehfuncinfo$??1sentry@?$basic_ostream@DU?$char_traits@D@std@@@std@@QAE@XZ 10057f2c     Interfaces.obj
 0002:00009f2c       __ehfuncinfo$??1?$ImVector@UImGuiGroupData@@@@QAE@XZ 10057f2c     imgui.obj
 0002:00009f2c       __ehfuncinfo$??1?$ImVector@UImDrawChannel@@@@QAE@XZ 10057f2c     imgui.obj
 0002:00009f2c       __ehfuncinfo$??1?$ImVector@UImVec2@@@@QAE@XZ 10057f2c     imgui.obj
 0002:00009f2c       __ehfuncinfo$??1?$ImVector@PAX@@QAE@XZ 10057f2c     imgui.obj
 0002:00009f2c       __ehfuncinfo$??0?$vector@V?$_List_unchecked_iterator@V?$_List_val@U?$_List_simple_types@U?$pair@$$CBV?$basic_string@DU?$char_traits@D@std@@V?$allocator@D@2@@std@@V?$shared_ptr@UNode@NetvarTree@@@2@@std@@@std@@@std@@@std@@V?$allocator@V?$_List_unchecked_iterator@V?$_List_val@U?$_List_simple_types@U?$pair@$$CBV?$basic_string@DU?$char_traits@D@std@@V?$allocator@D@2@@std@@V?$shared_ptr@UNode@NetvarTree@@@2@@std@@@std@@@std@@@std@@@2@@std@@QAE@ABV?$allocator@V?$_List_unchecked_iterator@V?$_List_val@U?$_List_simple_types@U?$pair@$$CBV?$basic_string@DU?$char_traits@D@std@@V?$allocator@D@2@@std@@V?$shared_ptr@UNode@NetvarTree@@@2@@std@@@std@@@std@@@std@@@1@@Z 10057f2c     NetvarManager.obj
 0002:00009f2c       __ehfuncinfo$??0?$shared_ptr@UNode@NetvarTree@@@std@@QAE@ABV01@@Z 10057f2c     NetvarManager.obj
 0002:00009f2c       __ehfuncinfo$??0?$shared_ptr@UNode@NetvarTree@@@std@@QAE@$$QAV01@@Z 10057f2c     NetvarManager.obj
 0002:00009f2c       __ehfuncinfo$??$?0U?$default_delete@VNetvarTree@@@std@@$0A@@?$unique_ptr@VNetvarTree@@U?$default_delete@VNetvarTree@@@std@@@std@@QAE@XZ 10057f2c     NetvarManager.obj
 0002:00009f2c       __ehfuncinfo$?_Destroy@?$_Ref_count_obj@UNode@NetvarTree@@@std@@EAEXXZ 10057f2c     NetvarManager.obj
 0002:00009f2c       __ehfuncinfo$?data@?$basic_string@DU?$char_traits@D@std@@V?$allocator@D@2@@std@@QAEPADXZ 10057f2c     config_system.obj
 0002:00009f2c       __ehfuncinfo$?_Equal@?$basic_string@DU?$char_traits@D@std@@V?$allocator@D@2@@std@@QBE_NQBD@Z 10057f2c     config_system.obj
 0002:00009f2c       __ehfuncinfo$??1locale@std@@QAE@XZ 10057f2c     config_system.obj
 0002:00009f2c       __ehfuncinfo$??0?$basic_string@_WU?$char_traits@_W@std@@V?$allocator@_W@2@@std@@QAE@XZ 10057f2c     config_system.obj
 0002:00009f2c       __ehfuncinfo$??1?$basic_string@_WU?$char_traits@_W@std@@V?$allocator@_W@2@@std@@QAE@XZ 10057f2c     config_system.obj
 0002:00009f2c       __ehfuncinfo$??0?$vector@V?$basic_string@DU?$char_traits@D@std@@V?$allocator@D@2@@std@@V?$allocator@V?$basic_string@DU?$char_traits@D@std@@V?$allocator@D@2@@std@@@2@@std@@QAE@XZ 10057f2c     config_system.obj
 0002:00009f2c       __ehfuncinfo$??1?$vector@V?$basic_string@DU?$char_traits@D@std@@V?$allocator@D@2@@std@@V?$allocator@V?$basic_string@DU?$char_traits@D@std@@V?$allocator@D@2@@std@@@2@@std@@QAE@XZ 10057f2c     config_system.obj
 0002:00009f2c       __ehfuncinfo$??1?$ImVector@UImGuiColMod@@@@QAE@XZ 10057f2c     imgui.obj
 0002:00009f2c       __ehfuncinfo$??1?$ImVector@UImVec4@@@@QAE@XZ 10057f2c     imgui.obj
 0002:00009f2c       __ehfuncinfo$??1?$basic_filebuf@DU?$char_traits@D@std@@@std@@UAE@XZ 10057f2c     config_system.obj
 0002:00009f2c       __ehfuncinfo$??1?$ImVector@UGlyph@ImFont@@@@QAE@XZ 10057f2c     imgui_draw.obj
 0002:00009f2c       __ehfuncinfo$?__scrt_initialize_thread_safe_statics_platform_specific@@YAXXZ 10057f2c     MSVCRT:thread_safe_statics.obj
 0002:00009f2c       __ehfuncinfo$??$?0U?$default_delete@V_Facet_base@std@@@std@@$0A@@?$unique_ptr@V_Facet_base@std@@U?$default_delete@V_Facet_base@std@@@2@@std@@QAE@PAV_Facet_base@1@@Z 10057f2c     config_system.obj
 0002:00009f2c       __ehfuncinfo$?zero@?$duration@_JU?$ratio@$00$0DOI@@std@@@chrono@std@@SA?AV123@XZ 10057f2c     dll_main.obj
 0002:00009f2c       __ehfuncinfo$?now@system_clock@chrono@std@@SA?AV?$time_point@Usystem_clock@chrono@std@@V?$duration@_JU?$ratio@$00$0JIJGIA@@std@@@23@@23@XZ 10057f2c     dll_main.obj
 0002:00009f2c       __ehfuncinfo$??1_Fac_node@std@@QAE@XZ 10057f2c     msvcprt:locale0_implib.obj
 0002:00009f2c       __ehfuncinfo$??$?0U?$default_delete@VNetvarTree@@@std@@$0A@@?$unique_ptr@VNetvarTree@@U?$default_delete@VNetvarTree@@@std@@@std@@QAE@PAVNetvarTree@@@Z 10057f2c     c_hooks.obj
 0002:00009f2c       __ehfuncinfo$??$?0U?$default_delete@VVMTHook@@@std@@$0A@@?$unique_ptr@VVMTHook@@U?$default_delete@VVMTHook@@@std@@@std@@QAE@PAVVMTHook@@@Z 10057f2c     c_hooks.obj
 0002:00009f2c       __ehfuncinfo$??0c_hooks@@QAE@XZ 10057f2c     c_hooks.obj
 0002:00009f2c       __ehfuncinfo$??1c_hooks@@QAE@XZ 10057f2c     c_hooks.obj
 0002:00009f2c       __ehfuncinfo$??$?0PAIU?$default_delete@$$BY0A@I@std@@$0A@X@?$unique_ptr@$$BY0A@IU?$default_delete@$$BY0A@I@std@@@std@@QAE@PAI@Z 10057f2c     c_hooks.obj
 0002:00009f2c       __ehfuncinfo$??$_Freenode0@V?$allocator@U?$_List_node@U?$pair@$$CBV?$basic_string@DU?$char_traits@D@std@@V?$allocator@D@2@@std@@V?$shared_ptr@UNode@NetvarTree@@@2@@std@@PAX@std@@@std@@@?$_List_node@U?$pair@$$CBV?$basic_string@DU?$char_traits@D@std@@V?$allocator@D@2@@std@@V?$shared_ptr@UNode@NetvarTree@@@2@@std@@PAX@std@@SAXAAV?$allocator@U?$_List_node@U?$pair@$$CBV?$basic_string@DU?$char_traits@D@std@@V?$allocator@D@2@@std@@V?$shared_ptr@UNode@NetvarTree@@@2@@std@@PAX@std@@@1@PAU01@@Z 10057f2c     c_hooks.obj
 0002:00009f2c       __ehfuncinfo$??1ShadowVTManager@@QAE@XZ 10057f2c     c_hooks.obj
 0002:00009f2c       __ehfuncinfo$??$?0U?$default_delete@$$BY0A@I@std@@$0A@@?$unique_ptr@$$BY0A@IU?$default_delete@$$BY0A@I@std@@@std@@QAE@$$T@Z 10057f2c     c_hooks.obj
 0002:00009f2c       __ehfuncinfo$??1?$unique_ptr@$$BY0A@IU?$default_delete@$$BY0A@I@std@@@std@@QAE@XZ 10057f2c     c_hooks.obj
 0002:00009f2c       __ehfuncinfo$??1?$_Deque_alloc@U?$_Deque_base_types@ULegitPlayerRecords@@V?$allocator@ULegitPlayerRecords@@@std@@@std@@@std@@QAE@XZ 10057f2c     Legitbot.obj
 0002:00009f2c       __ehfuncinfo$??1Legitbot@@QAE@XZ 10057f2c     Legitbot.obj
 0002:00009f2c       __ehfuncinfo$??1?$deque@ULegitPlayerRecords@@V?$allocator@ULegitPlayerRecords@@@std@@@std@@QAE@XZ 10057f2c     Legitbot.obj
 0002:00009f2c       __ehfuncinfo$?begin@?$deque@ULegitPlayerRecords@@V?$allocator@ULegitPlayerRecords@@@std@@@std@@QAE?AV?$_Deque_iterator@V?$_Deque_val@U?$_Deque_simple_types@ULegitPlayerRecords@@@std@@@std@@@2@XZ 10057f2c     Legitbot.obj
 0002:00009f2c       __ehfuncinfo$?end@?$deque@ULegitPlayerRecords@@V?$allocator@ULegitPlayerRecords@@@std@@@std@@QAE?AV?$_Deque_iterator@V?$_Deque_val@U?$_Deque_simple_types@ULegitPlayerRecords@@@std@@@std@@@2@XZ 10057f2c     Legitbot.obj
 0002:00009f50       __unwindtable$?Init@c_hooks@@SAXXZ 10057f50     c_hooks.obj
 0002:00009f58       __ehfuncinfo$?Init@c_hooks@@SAXXZ 10057f58     c_hooks.obj
 0002:00009f7c       __unwindtable$?Restore@c_hooks@@SAXXZ 10057f7c     c_hooks.obj
 0002:00009f8c       __ehfuncinfo$?Restore@c_hooks@@SAXXZ 10057f8c     c_hooks.obj
 0002:00009fb0       __unwindtable$??0VMTHook@@QAE@PAX@Z 10057fb0     c_hooks.obj
 0002:00009fb8       __ehfuncinfo$??0VMTHook@@QAE@PAX@Z 10057fb8     c_hooks.obj
 0002:00009fdc       __catchsym$?RestoreTable@ShadowVTManager@@QAEXXZ$3 10057fdc     c_hooks.obj
 0002:00009fec       __unwindtable$?RestoreTable@ShadowVTManager@@QAEXXZ 10057fec     c_hooks.obj
 0002:00009ffc       __tryblocktable$?RestoreTable@ShadowVTManager@@QAEXXZ 10057ffc     c_hooks.obj
 0002:0000a010       __ehfuncinfo$?RestoreTable@ShadowVTManager@@QAEXXZ 10058010     c_hooks.obj
 0002:0000a034       __unwindtable$??$make_unique@VVMTHook@@AAPAVIClientMode@@$0A@@std@@YA?AV?$unique_ptr@VVMTHook@@U?$default_delete@VVMTHook@@@std@@@0@AAPAVIClientMode@@@Z 10058034     c_hooks.obj
 0002:0000a034       __unwindtable$??$make_unique@VVMTHook@@AAPAVIPanel@@$0A@@std@@YA?AV?$unique_ptr@VVMTHook@@U?$default_delete@VVMTHook@@@std@@@0@AAPAVIPanel@@@Z 10058034     c_hooks.obj
 0002:0000a034       __unwindtable$??$make_unique@VVMTHook@@AAPAVIBaseClientDLL@@$0A@@std@@YA?AV?$unique_ptr@VVMTHook@@U?$default_delete@VVMTHook@@@std@@@0@AAPAVIBaseClientDLL@@@Z 10058034     c_hooks.obj
 0002:0000a034       __unwindtable$??$make_unique@VVMTHook@@PAPAK$0A@@std@@YA?AV?$unique_ptr@VVMTHook@@U?$default_delete@VVMTHook@@@std@@@0@$$QAPAPAK@Z 10058034     c_hooks.obj
 0002:0000a034       __unwindtable$??$make_unique@VVMTHook@@AAPAVCModelRender@@$0A@@std@@YA?AV?$unique_ptr@VVMTHook@@U?$default_delete@VVMTHook@@@std@@@0@AAPAVCModelRender@@@Z 10058034     c_hooks.obj
 0002:0000a034       __unwindtable$??$make_unique@VVMTHook@@AAPAVIVRenderView@@$0A@@std@@YA?AV?$unique_ptr@VVMTHook@@U?$default_delete@VVMTHook@@@std@@@0@AAPAVIVRenderView@@@Z 10058034     c_hooks.obj
 0002:0000a034       __unwindtable$??$make_unique@VVMTHook@@AAPAVISurface@@$0A@@std@@YA?AV?$unique_ptr@VVMTHook@@U?$default_delete@VVMTHook@@@std@@@0@AAPAVISurface@@@Z 10058034     c_hooks.obj
 0002:0000a03c       __ehfuncinfo$??$make_unique@VVMTHook@@AAPAVCModelRender@@$0A@@std@@YA?AV?$unique_ptr@VVMTHook@@U?$default_delete@VVMTHook@@@std@@@0@AAPAVCModelRender@@@Z 1005803c     c_hooks.obj
 0002:0000a03c       __ehfuncinfo$??$make_unique@VVMTHook@@PAPAK$0A@@std@@YA?AV?$unique_ptr@VVMTHook@@U?$default_delete@VVMTHook@@@std@@@0@$$QAPAPAK@Z 1005803c     c_hooks.obj
 0002:0000a03c       __ehfuncinfo$??$make_unique@VVMTHook@@AAPAVISurface@@$0A@@std@@YA?AV?$unique_ptr@VVMTHook@@U?$default_delete@VVMTHook@@@std@@@0@AAPAVISurface@@@Z 1005803c     c_hooks.obj
 0002:0000a03c       __ehfuncinfo$??$make_unique@VVMTHook@@AAPAVIClientMode@@$0A@@std@@YA?AV?$unique_ptr@VVMTHook@@U?$default_delete@VVMTHook@@@std@@@0@AAPAVIClientMode@@@Z 1005803c     c_hooks.obj
 0002:0000a03c       __ehfuncinfo$??$make_unique@VVMTHook@@AAPAVIBaseClientDLL@@$0A@@std@@YA?AV?$unique_ptr@VVMTHook@@U?$default_delete@VVMTHook@@@std@@@0@AAPAVIBaseClientDLL@@@Z 1005803c     c_hooks.obj
 0002:0000a03c       __ehfuncinfo$??$make_unique@VVMTHook@@AAPAVIVRenderView@@$0A@@std@@YA?AV?$unique_ptr@VVMTHook@@U?$default_delete@VVMTHook@@@std@@@0@AAPAVIVRenderView@@@Z 1005803c     c_hooks.obj
 0002:0000a03c       __ehfuncinfo$??$make_unique@VVMTHook@@AAPAVIPanel@@$0A@@std@@YA?AV?$unique_ptr@VVMTHook@@U?$default_delete@VVMTHook@@@std@@@0@AAPAVIPanel@@@Z 1005803c     c_hooks.obj
 0002:0000a060       __unwindtable$??$make_unique@VNetvarTree@@$$V$0A@@std@@YA?AV?$unique_ptr@VNetvarTree@@U?$default_delete@VNetvarTree@@@std@@@0@XZ 10058060     c_hooks.obj
 0002:0000a068       __ehfuncinfo$??$make_unique@VNetvarTree@@$$V$0A@@std@@YA?AV?$unique_ptr@VNetvarTree@@U?$default_delete@VNetvarTree@@@std@@@0@XZ 10058068     c_hooks.obj
 0002:0000a0e0       __catchsym$?attach@@YGKPAX@Z$2 100580e0     dll_main.obj
 0002:0000a0f0       __unwindtable$?attach@@YGKPAX@Z 100580f0     dll_main.obj
 0002:0000a100       __tryblocktable$?attach@@YGKPAX@Z 10058100     dll_main.obj
 0002:0000a114       __ehfuncinfo$?attach@@YGKPAX@Z 10058114     dll_main.obj
 0002:0000a138       __catchsym$?_Buynode0@?$_List_alloc@U?$_List_base_types@U?$pair@$$CBV?$basic_string@DU?$char_traits@D@std@@V?$allocator@D@2@@std@@V?$shared_ptr@UNode@NetvarTree@@@2@@std@@V?$allocator@U?$pair@$$CBV?$basic_string@DU?$char_traits@D@std@@V?$allocator@D@2@@std@@V?$shared_ptr@UNode@NetvarTree@@@2@@std@@@2@@std@@@std@@QAEPAU?$_List_node@U?$pair@$$CBV?$basic_string@DU?$char_traits@D@std@@V?$allocator@D@2@@std@@V?$shared_ptr@UNode@NetvarTree@@@2@@std@@PAX@2@PAU32@0@Z$2 10058138     Aimbot.obj
 0002:0000a148       __unwindtable$?_Buynode0@?$_List_alloc@U?$_List_base_types@U?$pair@$$CBV?$basic_string@DU?$char_traits@D@std@@V?$allocator@D@2@@std@@V?$shared_ptr@UNode@NetvarTree@@@2@@std@@V?$allocator@U?$pair@$$CBV?$basic_string@DU?$char_traits@D@std@@V?$allocator@D@2@@std@@V?$shared_ptr@UNode@NetvarTree@@@2@@std@@@2@@std@@@std@@QAEPAU?$_List_node@U?$pair@$$CBV?$basic_string@DU?$char_traits@D@std@@V?$allocator@D@2@@std@@V?$shared_ptr@UNode@NetvarTree@@@2@@std@@PAX@2@PAU32@0@Z 10058148     Aimbot.obj
 0002:0000a158       __tryblocktable$?_Buynode0@?$_List_alloc@U?$_List_base_types@U?$pair@$$CBV?$basic_string@DU?$char_traits@D@std@@V?$allocator@D@2@@std@@V?$shared_ptr@UNode@NetvarTree@@@2@@std@@V?$allocator@U?$pair@$$CBV?$basic_string@DU?$char_traits@D@std@@V?$allocator@D@2@@std@@V?$shared_ptr@UNode@NetvarTree@@@2@@std@@@2@@std@@@std@@QAEPAU?$_List_node@U?$pair@$$CBV?$basic_string@DU?$char_traits@D@std@@V?$allocator@D@2@@std@@V?$shared_ptr@UNode@NetvarTree@@@2@@std@@PAX@2@PAU32@0@Z 10058158     Aimbot.obj
 0002:0000a16c       __ehfuncinfo$?_Buynode0@?$_List_alloc@U?$_List_base_types@U?$pair@$$CBV?$basic_string@DU?$char_traits@D@std@@V?$allocator@D@2@@std@@V?$shared_ptr@UNode@NetvarTree@@@2@@std@@V?$allocator@U?$pair@$$CBV?$basic_string@DU?$char_traits@D@std@@V?$allocator@D@2@@std@@V?$shared_ptr@UNode@NetvarTree@@@2@@std@@@2@@std@@@std@@QAEPAU?$_List_node@U?$pair@$$CBV?$basic_string@DU?$char_traits@D@std@@V?$allocator@D@2@@std@@V?$shared_ptr@UNode@NetvarTree@@@2@@std@@PAX@2@PAU32@0@Z 1005816c     Aimbot.obj
 0002:0000a190       __catchsym$?_Reallocate_exactly@?$vector@V?$_List_unchecked_iterator@V?$_List_val@U?$_List_simple_types@U?$pair@$$CBV?$basic_string@DU?$char_traits@D@std@@V?$allocator@D@2@@std@@V?$shared_ptr@UNode@NetvarTree@@@2@@std@@@std@@@std@@@std@@V?$allocator@V?$_List_unchecked_iterator@V?$_List_val@U?$_List_simple_types@U?$pair@$$CBV?$basic_string@DU?$char_traits@D@std@@V?$allocator@D@2@@std@@V?$shared_ptr@UNode@NetvarTree@@@2@@std@@@std@@@std@@@std@@@2@@std@@AAEXI@Z$2 10058190     Aimbot.obj
 0002:0000a1a0       __unwindtable$?_Reallocate_exactly@?$vector@V?$_List_unchecked_iterator@V?$_List_val@U?$_List_simple_types@U?$pair@$$CBV?$basic_string@DU?$char_traits@D@std@@V?$allocator@D@2@@std@@V?$shared_ptr@UNode@NetvarTree@@@2@@std@@@std@@@std@@@std@@V?$allocator@V?$_List_unchecked_iterator@V?$_List_val@U?$_List_simple_types@U?$pair@$$CBV?$basic_string@DU?$char_traits@D@std@@V?$allocator@D@2@@std@@V?$shared_ptr@UNode@NetvarTree@@@2@@std@@@std@@@std@@@std@@@2@@std@@AAEXI@Z 100581a0     Aimbot.obj
 0002:0000a1b0       __tryblocktable$?_Reallocate_exactly@?$vector@V?$_List_unchecked_iterator@V?$_List_val@U?$_List_simple_types@U?$pair@$$CBV?$basic_string@DU?$char_traits@D@std@@V?$allocator@D@2@@std@@V?$shared_ptr@UNode@NetvarTree@@@2@@std@@@std@@@std@@@std@@V?$allocator@V?$_List_unchecked_iterator@V?$_List_val@U?$_List_simple_types@U?$pair@$$CBV?$basic_string@DU?$char_traits@D@std@@V?$allocator@D@2@@std@@V?$shared_ptr@UNode@NetvarTree@@@2@@std@@@std@@@std@@@std@@@2@@std@@AAEXI@Z 100581b0     Aimbot.obj
 0002:0000a1c4       __ehfuncinfo$?_Reallocate_exactly@?$vector@V?$_List_unchecked_iterator@V?$_List_val@U?$_List_simple_types@U?$pair@$$CBV?$basic_string@DU?$char_traits@D@std@@V?$allocator@D@2@@std@@V?$shared_ptr@UNode@NetvarTree@@@2@@std@@@std@@@std@@@std@@V?$allocator@V?$_List_unchecked_iterator@V?$_List_val@U?$_List_simple_types@U?$pair@$$CBV?$basic_string@DU?$char_traits@D@std@@V?$allocator@D@2@@std@@V?$shared_ptr@UNode@NetvarTree@@@2@@std@@@std@@@std@@@std@@@2@@std@@AAEXI@Z 100581c4     Aimbot.obj
 0002:0000a1e8       __unwindtable$?GetOffsetRecursive@NetvarTree@@CAHAAV?$unordered_map@V?$basic_string@DU?$char_traits@D@std@@V?$allocator@D@2@@std@@V?$shared_ptr@UNode@NetvarTree@@@2@U?$hash@V?$basic_string@DU?$char_traits@D@std@@V?$allocator@D@2@@std@@@2@U?$equal_to@V?$basic_string@DU?$char_traits@D@std@@V?$allocator@D@2@@std@@@2@V?$allocator@U?$pair@$$CBV?$basic_string@DU?$char_traits@D@std@@V?$allocator@D@2@@std@@V?$shared_ptr@UNode@NetvarTree@@@2@@std@@@2@@std@@HPBD@Z 100581e8     Aimbot.obj
 0002:0000a1f0       __ehfuncinfo$?GetOffsetRecursive@NetvarTree@@CAHAAV?$unordered_map@V?$basic_string@DU?$char_traits@D@std@@V?$allocator@D@2@@std@@V?$shared_ptr@UNode@NetvarTree@@@2@U?$hash@V?$basic_string@DU?$char_traits@D@std@@V?$allocator@D@2@@std@@@2@U?$equal_to@V?$basic_string@DU?$char_traits@D@std@@V?$allocator@D@2@@std@@@2@V?$allocator@U?$pair@$$CBV?$basic_string@DU?$char_traits@D@std@@V?$allocator@D@2@@std@@V?$shared_ptr@UNode@NetvarTree@@@2@@std@@@2@@std@@HPBD@Z 100581f0     Aimbot.obj
 0002:0000a214       __unwindtable$?GetActiveWeapon@C_BaseEntity@@QAEPAVC_BaseCombatWeapon@@XZ 10058214     Aimbot.obj
 0002:0000a21c       __ehfuncinfo$?GetActiveWeapon@C_BaseEntity@@QAEPAVC_BaseCombatWeapon@@XZ 1005821c     Aimbot.obj
 0002:0000a240       __unwindtable$?GetTeam@C_BaseEntity@@QAEHXZ 10058240     Aimbot.obj
 0002:0000a248       __ehfuncinfo$?GetTeam@C_BaseEntity@@QAEHXZ 10058248     Aimbot.obj
 0002:0000a26c       __unwindtable$?GetFlags@C_BaseEntity@@QAE?AW4EntityFlags@@XZ 1005826c     Aimbot.obj
 0002:0000a274       __ehfuncinfo$?GetFlags@C_BaseEntity@@QAE?AW4EntityFlags@@XZ 10058274     Aimbot.obj
 0002:0000a298       __unwindtable$?GetSimulationTime@C_BaseEntity@@QAEMXZ 10058298     Aimbot.obj
 0002:0000a2a0       __ehfuncinfo$?GetSimulationTime@C_BaseEntity@@QAEMXZ 100582a0     Aimbot.obj
 0002:0000a2c4       __unwindtable$?GetLifeState@C_BaseEntity@@QAE_NXZ 100582c4     Aimbot.obj
 0002:0000a2cc       __ehfuncinfo$?GetLifeState@C_BaseEntity@@QAE_NXZ 100582cc     Aimbot.obj
 0002:0000a2f0       __unwindtable$?GetHealth@C_BaseEntity@@QAEHXZ 100582f0     Aimbot.obj
 0002:0000a2f8       __ehfuncinfo$?GetHealth@C_BaseEntity@@QAEHXZ 100582f8     Aimbot.obj
 0002:0000a31c       __unwindtable$?GetTickBase@C_BaseEntity@@QAEHXZ 1005831c     Aimbot.obj
 0002:0000a324       __ehfuncinfo$?GetTickBase@C_BaseEntity@@QAEHXZ 10058324     Aimbot.obj
 0002:0000a348       __unwindtable$?GetEyeAngles@C_BaseEntity@@QAE?AVVector@@XZ 10058348     Aimbot.obj
 0002:0000a350       __ehfuncinfo$?GetEyeAngles@C_BaseEntity@@QAE?AVVector@@XZ 10058350     Aimbot.obj
 0002:0000a374       __unwindtable$?GetOrigin@C_BaseEntity@@QAE?AVVector@@XZ 10058374     Aimbot.obj
 0002:0000a37c       __ehfuncinfo$?GetOrigin@C_BaseEntity@@QAE?AVVector@@XZ 1005837c     Aimbot.obj
 0002:0000a3a0       __unwindtable$?GetVelocity@C_BaseEntity@@QAE?AVVector@@XZ 100583a0     Aimbot.obj
 0002:0000a3a8       __ehfuncinfo$?GetVelocity@C_BaseEntity@@QAE?AVVector@@XZ 100583a8     Aimbot.obj
 0002:0000a3cc       __unwindtable$??$GetOffset@PBD@NetvarTree@@QAEHPBD0@Z 100583cc     Aimbot.obj
 0002:0000a3cc       __unwindtable$??$GetOffset@PBDPBD@NetvarTree@@QAEHPBD00@Z 100583cc     Aimbot.obj
 0002:0000a3d4       __ehfuncinfo$??$GetOffset@PBDPBD@NetvarTree@@QAEHPBD00@Z 100583d4     Aimbot.obj
 0002:0000a3d4       __ehfuncinfo$??$GetOffset@PBD@NetvarTree@@QAEHPBD0@Z 100583d4     Aimbot.obj
 0002:0000a3f8       __unwindtable$?GetAccuracyPenalty@C_BaseCombatWeapon@@QAEMXZ 100583f8     Aimbot.obj
 0002:0000a400       __ehfuncinfo$?GetAccuracyPenalty@C_BaseCombatWeapon@@QAEMXZ 10058400     Aimbot.obj
 0002:0000a424       __unwindtable$?GetLastShotTime@C_BaseCombatWeapon@@QAEMXZ 10058424     Aimbot.obj
 0002:0000a42c       __ehfuncinfo$?GetLastShotTime@C_BaseCombatWeapon@@QAEMXZ 1005842c     Aimbot.obj
 0002:0000a450       __unwindtable$?GetNextPrimaryAttack@C_BaseCombatWeapon@@QAEMXZ 10058450     Aimbot.obj
 0002:0000a458       __ehfuncinfo$?GetNextPrimaryAttack@C_BaseCombatWeapon@@QAEMXZ 10058458     Aimbot.obj
 0002:0000a47c       __unwindtable$?Hitscan@Aimbot@@AAE?AVVector@@PAVC_BaseEntity@@@Z 1005847c     Aimbot.obj
 0002:0000a484       __ehfuncinfo$?Hitscan@Aimbot@@AAE?AVVector@@PAVC_BaseEntity@@@Z 10058484     Aimbot.obj
 0002:0000a4a8       __unwindtable$?at@?$deque@ULegitPlayerRecords@@V?$allocator@ULegitPlayerRecords@@@std@@@std@@QAEAAULegitPlayerRecords@@I@Z 100584a8     Legitbot.obj
 0002:0000a4a8       __unwindtable$?at@?$deque@UPlayerRecords@@V?$allocator@UPlayerRecords@@@std@@@std@@QAEAAUPlayerRecords@@I@Z 100584a8     Aimbot.obj
 0002:0000a4b8       __ehfuncinfo$?at@?$deque@UPlayerRecords@@V?$allocator@UPlayerRecords@@@std@@@std@@QAEAAUPlayerRecords@@I@Z 100584b8     Aimbot.obj
 0002:0000a4b8       __ehfuncinfo$?at@?$deque@ULegitPlayerRecords@@V?$allocator@ULegitPlayerRecords@@@std@@@std@@QAEAAULegitPlayerRecords@@I@Z 100584b8     Legitbot.obj
 0002:0000a4dc       __catchsym$??$_Emplace_reallocate@H@?$vector@HV?$allocator@H@std@@@std@@QAEPAHQAH$$QAH@Z$2 100584dc     Aimbot.obj
 0002:0000a4ec       __unwindtable$??$_Emplace_reallocate@H@?$vector@HV?$allocator@H@std@@@std@@QAEPAHQAH$$QAH@Z 100584ec     Aimbot.obj
 0002:0000a4fc       __tryblocktable$??$_Emplace_reallocate@H@?$vector@HV?$allocator@H@std@@@std@@QAEPAHQAH$$QAH@Z 100584fc     Aimbot.obj
 0002:0000a510       __ehfuncinfo$??$_Emplace_reallocate@H@?$vector@HV?$allocator@H@std@@@std@@QAEPAHQAH$$QAH@Z 10058510     Aimbot.obj
 0002:0000a534       __unwindtable$??0?$_Deque_const_iterator@V?$_Deque_val@U?$_Deque_simple_types@ULegitPlayerRecords@@@std@@@std@@@std@@QAE@IPBU_Container_base12@1@@Z 10058534     Legitbot.obj
 0002:0000a534       __unwindtable$??0?$_Deque_const_iterator@V?$_Deque_val@U?$_Deque_simple_types@UPlayerRecords@@@std@@@std@@@std@@QAE@IPBU_Container_base12@1@@Z 10058534     Aimbot.obj
 0002:0000a53c       __ehfuncinfo$??0?$_Deque_const_iterator@V?$_Deque_val@U?$_Deque_simple_types@UPlayerRecords@@@std@@@std@@@std@@QAE@IPBU_Container_base12@1@@Z 1005853c     Aimbot.obj
 0002:0000a53c       __ehfuncinfo$??0?$_Deque_const_iterator@V?$_Deque_val@U?$_Deque_simple_types@ULegitPlayerRecords@@@std@@@std@@@std@@QAE@IPBU_Container_base12@1@@Z 1005853c     Legitbot.obj
 0002:0000a560       __unwindtable$??H?$_Deque_iterator@V?$_Deque_val@U?$_Deque_simple_types@ULegitPlayerRecords@@@std@@@std@@@std@@QBE?AV01@H@Z 10058560     Legitbot.obj
 0002:0000a560       __unwindtable$??H?$_Deque_iterator@V?$_Deque_val@U?$_Deque_simple_types@UPlayerRecords@@@std@@@std@@@std@@QBE?AV01@H@Z 10058560     Aimbot.obj
 0002:0000a568       __ehfuncinfo$??H?$_Deque_iterator@V?$_Deque_val@U?$_Deque_simple_types@UPlayerRecords@@@std@@@std@@@std@@QBE?AV01@H@Z 10058568     Aimbot.obj
 0002:0000a568       __ehfuncinfo$??H?$_Deque_iterator@V?$_Deque_val@U?$_Deque_simple_types@ULegitPlayerRecords@@@std@@@std@@@std@@QBE?AV01@H@Z 10058568     Legitbot.obj
 0002:0000a58c       __unwindtable$?IsKnifeorNade@C_BaseEntity@@QAE_NXZ 1005858c     CEntity.obj
 0002:0000a58c       __unwindtable$??$GetOffsetRecursive@PBD@NetvarTree@@AAEHAAV?$unordered_map@V?$basic_string@DU?$char_traits@D@std@@V?$allocator@D@2@@std@@V?$shared_ptr@UNode@NetvarTree@@@2@U?$hash@V?$basic_string@DU?$char_traits@D@std@@V?$allocator@D@2@@std@@@2@U?$equal_to@V?$basic_string@DU?$char_traits@D@std@@V?$allocator@D@2@@std@@@2@V?$allocator@U?$pair@$$CBV?$basic_string@DU?$char_traits@D@std@@V?$allocator@D@2@@std@@V?$shared_ptr@UNode@NetvarTree@@@2@@std@@@2@@std@@HPBD1@Z 1005858c     Aimbot.obj
 0002:0000a594       __ehfuncinfo$?IsKnifeorNade@C_BaseEntity@@QAE_NXZ 10058594     CEntity.obj
 0002:0000a594       __ehfuncinfo$??$GetOffsetRecursive@PBD@NetvarTree@@AAEHAAV?$unordered_map@V?$basic_string@DU?$char_traits@D@std@@V?$allocator@D@2@@std@@V?$shared_ptr@UNode@NetvarTree@@@2@U?$hash@V?$basic_string@DU?$char_traits@D@std@@V?$allocator@D@2@@std@@@2@U?$equal_to@V?$basic_string@DU?$char_traits@D@std@@V?$allocator@D@2@@std@@@2@V?$allocator@U?$pair@$$CBV?$basic_string@DU?$char_traits@D@std@@V?$allocator@D@2@@std@@V?$shared_ptr@UNode@NetvarTree@@@2@@std@@@2@@std@@HPBD1@Z 10058594     Aimbot.obj
 0002:0000a5b8       __unwindtable$??$_Uninitialized_move_al_unchecked@PAV?$_List_unchecked_iterator@V?$_List_val@U?$_List_simple_types@U?$pair@$$CBV?$basic_string@DU?$char_traits@D@std@@V?$allocator@D@2@@std@@V?$shared_ptr@UNode@NetvarTree@@@2@@std@@@std@@@std@@@std@@PAV12@V?$allocator@V?$_List_unchecked_iterator@V?$_List_val@U?$_List_simple_types@U?$pair@$$CBV?$basic_string@DU?$char_traits@D@std@@V?$allocator@D@2@@std@@V?$shared_ptr@UNode@NetvarTree@@@2@@std@@@std@@@std@@@std@@@2@@std@@YAPAV?$_List_unchecked_iterator@V?$_List_val@U?$_List_simple_types@U?$pair@$$CBV?$basic_string@DU?$char_traits@D@std@@V?$allocator@D@2@@std@@V?$shared_ptr@UNode@NetvarTree@@@2@@std@@@std@@@std@@@0@PAV10@QAV10@1AAV?$allocator@V?$_List_unchecked_iterator@V?$_List_val@U?$_List_simple_types@U?$pair@$$CBV?$basic_string@DU?$char_traits@D@std@@V?$allocator@D@2@@std@@V?$shared_ptr@UNode@NetvarTree@@@2@@std@@@std@@@std@@@std@@@0@U_General_ptr_iterator_tag@0@U_Unused_parameter@0@@Z 100585b8     Aimbot.obj
 0002:0000a5b8       __unwindtable$??$_Uninit_alloc_fill_n1@PAV?$_List_unchecked_iterator@V?$_List_val@U?$_List_simple_types@U?$pair@$$CBV?$basic_string@DU?$char_traits@D@std@@V?$allocator@D@2@@std@@V?$shared_ptr@UNode@NetvarTree@@@2@@std@@@std@@@std@@@std@@IV?$allocator@V?$_List_unchecked_iterator@V?$_List_val@U?$_List_simple_types@U?$pair@$$CBV?$basic_string@DU?$char_traits@D@std@@V?$allocator@D@2@@std@@V?$shared_ptr@UNode@NetvarTree@@@2@@std@@@std@@@std@@@std@@@2@@std@@YAPAV?$_List_unchecked_iterator@V?$_List_val@U?$_List_simple_types@U?$pair@$$CBV?$basic_string@DU?$char_traits@D@std@@V?$allocator@D@2@@std@@V?$shared_ptr@UNode@NetvarTree@@@2@@std@@@std@@@std@@@0@QAV10@IABV10@AAV?$allocator@V?$_List_unchecked_iterator@V?$_List_val@U?$_List_simple_types@U?$pair@$$CBV?$basic_string@DU?$char_traits@D@std@@V?$allocator@D@2@@std@@V?$shared_ptr@UNode@NetvarTree@@@2@@std@@@std@@@std@@@std@@@0@U?$integral_constant@_N$0A@@0@@Z 100585b8     Aimbot.obj
 0002:0000a5c0       __ehfuncinfo$??$_Uninitialized_move_al_unchecked@PAV?$_List_unchecked_iterator@V?$_List_val@U?$_List_simple_types@U?$pair@$$CBV?$basic_string@DU?$char_traits@D@std@@V?$allocator@D@2@@std@@V?$shared_ptr@UNode@NetvarTree@@@2@@std@@@std@@@std@@@std@@PAV12@V?$allocator@V?$_List_unchecked_iterator@V?$_List_val@U?$_List_simple_types@U?$pair@$$CBV?$basic_string@DU?$char_traits@D@std@@V?$allocator@D@2@@std@@V?$shared_ptr@UNode@NetvarTree@@@2@@std@@@std@@@std@@@std@@@2@@std@@YAPAV?$_List_unchecked_iterator@V?$_List_val@U?$_List_simple_types@U?$pair@$$CBV?$basic_string@DU?$char_traits@D@std@@V?$allocator@D@2@@std@@V?$shared_ptr@UNode@NetvarTree@@@2@@std@@@std@@@std@@@0@PAV10@QAV10@1AAV?$allocator@V?$_List_unchecked_iterator@V?$_List_val@U?$_List_simple_types@U?$pair@$$CBV?$basic_string@DU?$char_traits@D@std@@V?$allocator@D@2@@std@@V?$shared_ptr@UNode@NetvarTree@@@2@@std@@@std@@@std@@@std@@@0@U_General_ptr_iterator_tag@0@U_Unused_parameter@0@@Z 100585c0     Aimbot.obj
 0002:0000a5c0       __ehfuncinfo$??$_Uninit_alloc_fill_n1@PAV?$_List_unchecked_iterator@V?$_List_val@U?$_List_simple_types@U?$pair@$$CBV?$basic_string@DU?$char_traits@D@std@@V?$allocator@D@2@@std@@V?$shared_ptr@UNode@NetvarTree@@@2@@std@@@std@@@std@@@std@@IV?$allocator@V?$_List_unchecked_iterator@V?$_List_val@U?$_List_simple_types@U?$pair@$$CBV?$basic_string@DU?$char_traits@D@std@@V?$allocator@D@2@@std@@V?$shared_ptr@UNode@NetvarTree@@@2@@std@@@std@@@std@@@std@@@2@@std@@YAPAV?$_List_unchecked_iterator@V?$_List_val@U?$_List_simple_types@U?$pair@$$CBV?$basic_string@DU?$char_traits@D@std@@V?$allocator@D@2@@std@@V?$shared_ptr@UNode@NetvarTree@@@2@@std@@@std@@@std@@@0@QAV10@IABV10@AAV?$allocator@V?$_List_unchecked_iterator@V?$_List_val@U?$_List_simple_types@U?$pair@$$CBV?$basic_string@DU?$char_traits@D@std@@V?$allocator@D@2@@std@@V?$shared_ptr@UNode@NetvarTree@@@2@@std@@@std@@@std@@@std@@@0@U?$integral_constant@_N$0A@@0@@Z 100585c0     Aimbot.obj
 0002:0000a5e4       __catchsym$??$_Insert@AAU?$pair@$$CBV?$basic_string@DU?$char_traits@D@std@@V?$allocator@D@2@@std@@V?$shared_ptr@UNode@NetvarTree@@@2@@std@@V?$_List_unchecked_iterator@V?$_List_val@U?$_List_simple_types@U?$pair@$$CBV?$basic_string@DU?$char_traits@D@std@@V?$allocator@D@2@@std@@V?$shared_ptr@UNode@NetvarTree@@@2@@std@@@std@@@std@@@2@@?$_Hash@V?$_Umap_traits@V?$basic_string@DU?$char_traits@D@std@@V?$allocator@D@2@@std@@V?$shared_ptr@UNode@NetvarTree@@@2@V?$_Uhash_compare@V?$basic_string@DU?$char_traits@D@std@@V?$allocator@D@2@@std@@U?$hash@V?$basic_string@DU?$char_traits@D@std@@V?$allocator@D@2@@std@@@2@U?$equal_to@V?$basic_string@DU?$char_traits@D@std@@V?$allocator@D@2@@std@@@2@@2@V?$allocator@U?$pair@$$CBV?$basic_string@DU?$char_traits@D@std@@V?$allocator@D@2@@std@@V?$shared_ptr@UNode@NetvarTree@@@2@@std@@@2@$0A@@std@@@std@@IAE?AU?$pair@V?$_List_iterator@V?$_List_val@U?$_List_simple_types@U?$pair@$$CBV?$basic_string@DU?$char_traits@D@std@@V?$allocator@D@2@@std@@V?$shared_ptr@UNode@NetvarTree@@@2@@std@@@std@@@std@@@std@@_N@1@AAU?$pair@$$CBV?$basic_string@DU?$char_traits@D@std@@V?$allocator@D@2@@std@@V?$shared_ptr@UNode@NetvarTree@@@2@@1@V?$_List_unchecked_iterator@V?$_List_val@U?$_List_simple_types@U?$pair@$$CBV?$basic_string@DU?$char_traits@D@std@@V?$allocator@D@2@@std@@V?$shared_ptr@UNode@NetvarTree@@@2@@std@@@std@@@std@@@1@@Z$5 100585e4     Aimbot.obj
 0002:0000a5f4       __catchsym$??$_Insert@AAU?$pair@$$CBV?$basic_string@DU?$char_traits@D@std@@V?$allocator@D@2@@std@@V?$shared_ptr@UNode@NetvarTree@@@2@@std@@V?$_List_unchecked_iterator@V?$_List_val@U?$_List_simple_types@U?$pair@$$CBV?$basic_string@DU?$char_traits@D@std@@V?$allocator@D@2@@std@@V?$shared_ptr@UNode@NetvarTree@@@2@@std@@@std@@@std@@@2@@?$_Hash@V?$_Umap_traits@V?$basic_string@DU?$char_traits@D@std@@V?$allocator@D@2@@std@@V?$shared_ptr@UNode@NetvarTree@@@2@V?$_Uhash_compare@V?$basic_string@DU?$char_traits@D@std@@V?$allocator@D@2@@std@@U?$hash@V?$basic_string@DU?$char_traits@D@std@@V?$allocator@D@2@@std@@@2@U?$equal_to@V?$basic_string@DU?$char_traits@D@std@@V?$allocator@D@2@@std@@@2@@2@V?$allocator@U?$pair@$$CBV?$basic_string@DU?$char_traits@D@std@@V?$allocator@D@2@@std@@V?$shared_ptr@UNode@NetvarTree@@@2@@std@@@2@$0A@@std@@@std@@IAE?AU?$pair@V?$_List_iterator@V?$_List_val@U?$_List_simple_types@U?$pair@$$CBV?$basic_string@DU?$char_traits@D@std@@V?$allocator@D@2@@std@@V?$shared_ptr@UNode@NetvarTree@@@2@@std@@@std@@@std@@@std@@_N@1@AAU?$pair@$$CBV?$basic_string@DU?$char_traits@D@std@@V?$allocator@D@2@@std@@V?$shared_ptr@UNode@NetvarTree@@@2@@1@V?$_List_unchecked_iterator@V?$_List_val@U?$_List_simple_types@U?$pair@$$CBV?$basic_string@DU?$char_traits@D@std@@V?$allocator@D@2@@std@@V?$shared_ptr@UNode@NetvarTree@@@2@@std@@@std@@@std@@@1@@Z$4 100585f4     Aimbot.obj
 0002:0000a604       __unwindtable$??$_Insert@AAU?$pair@$$CBV?$basic_string@DU?$char_traits@D@std@@V?$allocator@D@2@@std@@V?$shared_ptr@UNode@NetvarTree@@@2@@std@@V?$_List_unchecked_iterator@V?$_List_val@U?$_List_simple_types@U?$pair@$$CBV?$basic_string@DU?$char_traits@D@std@@V?$allocator@D@2@@std@@V?$shared_ptr@UNode@NetvarTree@@@2@@std@@@std@@@std@@@2@@?$_Hash@V?$_Umap_traits@V?$basic_string@DU?$char_traits@D@std@@V?$allocator@D@2@@std@@V?$shared_ptr@UNode@NetvarTree@@@2@V?$_Uhash_compare@V?$basic_string@DU?$char_traits@D@std@@V?$allocator@D@2@@std@@U?$hash@V?$basic_string@DU?$char_traits@D@std@@V?$allocator@D@2@@std@@@2@U?$equal_to@V?$basic_string@DU?$char_traits@D@std@@V?$allocator@D@2@@std@@@2@@2@V?$allocator@U?$pair@$$CBV?$basic_string@DU?$char_traits@D@std@@V?$allocator@D@2@@std@@V?$shared_ptr@UNode@NetvarTree@@@2@@std@@@2@$0A@@std@@@std@@IAE?AU?$pair@V?$_List_iterator@V?$_List_val@U?$_List_simple_types@U?$pair@$$CBV?$basic_string@DU?$char_traits@D@std@@V?$allocator@D@2@@std@@V?$shared_ptr@UNode@NetvarTree@@@2@@std@@@std@@@std@@@std@@_N@1@AAU?$pair@$$CBV?$basic_string@DU?$char_traits@D@std@@V?$allocator@D@2@@std@@V?$shared_ptr@UNode@NetvarTree@@@2@@1@V?$_List_unchecked_iterator@V?$_List_val@U?$_List_simple_types@U?$pair@$$CBV?$basic_string@DU?$char_traits@D@std@@V?$allocator@D@2@@std@@V?$shared_ptr@UNode@NetvarTree@@@2@@std@@@std@@@std@@@1@@Z 10058604     Aimbot.obj
 0002:0000a624       __ehfuncinfo$??$_Insert@AAU?$pair@$$CBV?$basic_string@DU?$char_traits@D@std@@V?$allocator@D@2@@std@@V?$shared_ptr@UNode@NetvarTree@@@2@@std@@V?$_List_unchecked_iterator@V?$_List_val@U?$_List_simple_types@U?$pair@$$CBV?$basic_string@DU?$char_traits@D@std@@V?$allocator@D@2@@std@@V?$shared_ptr@UNode@NetvarTree@@@2@@std@@@std@@@std@@@2@@?$_Hash@V?$_Umap_traits@V?$basic_string@DU?$char_traits@D@std@@V?$allocator@D@2@@std@@V?$shared_ptr@UNode@NetvarTree@@@2@V?$_Uhash_compare@V?$basic_string@DU?$char_traits@D@std@@V?$allocator@D@2@@std@@U?$hash@V?$basic_string@DU?$char_traits@D@std@@V?$allocator@D@2@@std@@@2@U?$equal_to@V?$basic_string@DU?$char_traits@D@std@@V?$allocator@D@2@@std@@@2@@2@V?$allocator@U?$pair@$$CBV?$basic_string@DU?$char_traits@D@std@@V?$allocator@D@2@@std@@V?$shared_ptr@UNode@NetvarTree@@@2@@std@@@2@$0A@@std@@@std@@IAE?AU?$pair@V?$_List_iterator@V?$_List_val@U?$_List_simple_types@U?$pair@$$CBV?$basic_string@DU?$char_traits@D@std@@V?$allocator@D@2@@std@@V?$shared_ptr@UNode@NetvarTree@@@2@@std@@@std@@@std@@@std@@_N@1@AAU?$pair@$$CBV?$basic_string@DU?$char_traits@D@std@@V?$allocator@D@2@@std@@V?$shared_ptr@UNode@NetvarTree@@@2@@1@V?$_List_unchecked_iterator@V?$_List_val@U?$_List_simple_types@U?$pair@$$CBV?$basic_string@DU?$char_traits@D@std@@V?$allocator@D@2@@std@@V?$shared_ptr@UNode@NetvarTree@@@2@@std@@@std@@@std@@@1@@Z 10058624     Aimbot.obj
 0002:0000a648       __tryblocktable$??$_Insert@AAU?$pair@$$CBV?$basic_string@DU?$char_traits@D@std@@V?$allocator@D@2@@std@@V?$shared_ptr@UNode@NetvarTree@@@2@@std@@V?$_List_unchecked_iterator@V?$_List_val@U?$_List_simple_types@U?$pair@$$CBV?$basic_string@DU?$char_traits@D@std@@V?$allocator@D@2@@std@@V?$shared_ptr@UNode@NetvarTree@@@2@@std@@@std@@@std@@@2@@?$_Hash@V?$_Umap_traits@V?$basic_string@DU?$char_traits@D@std@@V?$allocator@D@2@@std@@V?$shared_ptr@UNode@NetvarTree@@@2@V?$_Uhash_compare@V?$basic_string@DU?$char_traits@D@std@@V?$allocator@D@2@@std@@U?$hash@V?$basic_string@DU?$char_traits@D@std@@V?$allocator@D@2@@std@@@2@U?$equal_to@V?$basic_string@DU?$char_traits@D@std@@V?$allocator@D@2@@std@@@2@@2@V?$allocator@U?$pair@$$CBV?$basic_string@DU?$char_traits@D@std@@V?$allocator@D@2@@std@@V?$shared_ptr@UNode@NetvarTree@@@2@@std@@@2@$0A@@std@@@std@@IAE?AU?$pair@V?$_List_iterator@V?$_List_val@U?$_List_simple_types@U?$pair@$$CBV?$basic_string@DU?$char_traits@D@std@@V?$allocator@D@2@@std@@V?$shared_ptr@UNode@NetvarTree@@@2@@std@@@std@@@std@@@std@@_N@1@AAU?$pair@$$CBV?$basic_string@DU?$char_traits@D@std@@V?$allocator@D@2@@std@@V?$shared_ptr@UNode@NetvarTree@@@2@@1@V?$_List_unchecked_iterator@V?$_List_val@U?$_List_simple_types@U?$pair@$$CBV?$basic_string@DU?$char_traits@D@std@@V?$allocator@D@2@@std@@V?$shared_ptr@UNode@NetvarTree@@@2@@std@@@std@@@std@@@1@@Z 10058648     Aimbot.obj
 0002:0000a670       __catchsym$??$_Buynode@ABUpiecewise_construct_t@std@@V?$tuple@$$QAV?$basic_string@DU?$char_traits@D@std@@V?$allocator@D@2@@std@@@2@V?$tuple@$$V@2@@?$_List_buy@U?$pair@$$CBV?$basic_string@DU?$char_traits@D@std@@V?$allocator@D@2@@std@@V?$shared_ptr@UNode@NetvarTree@@@2@@std@@V?$allocator@U?$pair@$$CBV?$basic_string@DU?$char_traits@D@std@@V?$allocator@D@2@@std@@V?$shared_ptr@UNode@NetvarTree@@@2@@std@@@2@@std@@QAEPAU?$_List_node@U?$pair@$$CBV?$basic_string@DU?$char_traits@D@std@@V?$allocator@D@2@@std@@V?$shared_ptr@UNode@NetvarTree@@@2@@std@@PAX@1@PAU21@0ABUpiecewise_construct_t@1@$$QAV?$tuple@$$QAV?$basic_string@DU?$char_traits@D@std@@V?$allocator@D@2@@std@@@1@$$QAV?$tuple@$$V@1@@Z$2 10058670     Aimbot.obj
 0002:0000a680       __unwindtable$??$_Buynode@ABUpiecewise_construct_t@std@@V?$tuple@$$QAV?$basic_string@DU?$char_traits@D@std@@V?$allocator@D@2@@std@@@2@V?$tuple@$$V@2@@?$_List_buy@U?$pair@$$CBV?$basic_string@DU?$char_traits@D@std@@V?$allocator@D@2@@std@@V?$shared_ptr@UNode@NetvarTree@@@2@@std@@V?$allocator@U?$pair@$$CBV?$basic_string@DU?$char_traits@D@std@@V?$allocator@D@2@@std@@V?$shared_ptr@UNode@NetvarTree@@@2@@std@@@2@@std@@QAEPAU?$_List_node@U?$pair@$$CBV?$basic_string@DU?$char_traits@D@std@@V?$allocator@D@2@@std@@V?$shared_ptr@UNode@NetvarTree@@@2@@std@@PAX@1@PAU21@0ABUpiecewise_construct_t@1@$$QAV?$tuple@$$QAV?$basic_string@DU?$char_traits@D@std@@V?$allocator@D@2@@std@@@1@$$QAV?$tuple@$$V@1@@Z 10058680     Aimbot.obj
 0002:0000a690       __tryblocktable$??$_Buynode@ABUpiecewise_construct_t@std@@V?$tuple@$$QAV?$basic_string@DU?$char_traits@D@std@@V?$allocator@D@2@@std@@@2@V?$tuple@$$V@2@@?$_List_buy@U?$pair@$$CBV?$basic_string@DU?$char_traits@D@std@@V?$allocator@D@2@@std@@V?$shared_ptr@UNode@NetvarTree@@@2@@std@@V?$allocator@U?$pair@$$CBV?$basic_string@DU?$char_traits@D@std@@V?$allocator@D@2@@std@@V?$shared_ptr@UNode@NetvarTree@@@2@@std@@@2@@std@@QAEPAU?$_List_node@U?$pair@$$CBV?$basic_string@DU?$char_traits@D@std@@V?$allocator@D@2@@std@@V?$shared_ptr@UNode@NetvarTree@@@2@@std@@PAX@1@PAU21@0ABUpiecewise_construct_t@1@$$QAV?$tuple@$$QAV?$basic_string@DU?$char_traits@D@std@@V?$allocator@D@2@@std@@@1@$$QAV?$tuple@$$V@1@@Z 10058690     Aimbot.obj
 0002:0000a6a4       __ehfuncinfo$??$_Buynode@ABUpiecewise_construct_t@std@@V?$tuple@$$QAV?$basic_string@DU?$char_traits@D@std@@V?$allocator@D@2@@std@@@2@V?$tuple@$$V@2@@?$_List_buy@U?$pair@$$CBV?$basic_string@DU?$char_traits@D@std@@V?$allocator@D@2@@std@@V?$shared_ptr@UNode@NetvarTree@@@2@@std@@V?$allocator@U?$pair@$$CBV?$basic_string@DU?$char_traits@D@std@@V?$allocator@D@2@@std@@V?$shared_ptr@UNode@NetvarTree@@@2@@std@@@2@@std@@QAEPAU?$_List_node@U?$pair@$$CBV?$basic_string@DU?$char_traits@D@std@@V?$allocator@D@2@@std@@V?$shared_ptr@UNode@NetvarTree@@@2@@std@@PAX@1@PAU21@0ABUpiecewise_construct_t@1@$$QAV?$tuple@$$QAV?$basic_string@DU?$char_traits@D@std@@V?$allocator@D@2@@std@@@1@$$QAV?$tuple@$$V@1@@Z 100586a4     Aimbot.obj
 0002:0000a6c8       __unwindtable$?ArmorValue@C_BaseEntity@@QAEHXZ 100586c8     Autowall.obj
 0002:0000a6d0       __ehfuncinfo$?ArmorValue@C_BaseEntity@@QAEHXZ 100586d0     Autowall.obj
 0002:0000a6f4       __unwindtable$?HasHelmet@C_BaseEntity@@QAE_NXZ 100586f4     Autowall.obj
 0002:0000a6fc       __ehfuncinfo$?HasHelmet@C_BaseEntity@@QAE_NXZ 100586fc     Autowall.obj
 0002:0000a720       __unwindtable$?UTIL_ClipTraceToPlayers@@YAXABVVector@@0IPAVITraceFilter@@PAUC_Trace@@@Z 10058720     Autowall.obj
 0002:0000a728       __ehfuncinfo$?UTIL_ClipTraceToPlayers@@YAXABVVector@@0IPAVITraceFilter@@PAUC_Trace@@@Z 10058728     Autowall.obj
 0002:0000a74c       __unwindtable$?TraceToExitalt@@YA_NAAVVector@@AAUC_Trace@@V1@2PAU2@@Z 1005874c     Autowall.obj
 0002:0000a754       __ehfuncinfo$?TraceToExitalt@@YA_NAAVVector@@AAUC_Trace@@V1@2PAU2@@Z 10058754     Autowall.obj
 0002:0000a778       __unwindtable$?SetCurrentCommand@C_BaseEntity@@QAEXPAVCUserCmd@@@Z 10058778     EnginePrediction.obj
 0002:0000a780       __ehfuncinfo$?SetCurrentCommand@C_BaseEntity@@QAEXPAVCUserCmd@@@Z 10058780     EnginePrediction.obj
 0002:0000a7a4       __unwindtable$?_Make_iter@?$deque@ULegitPlayerRecords@@V?$allocator@ULegitPlayerRecords@@@std@@@std@@QBE?AV?$_Deque_iterator@V?$_Deque_val@U?$_Deque_simple_types@ULegitPlayerRecords@@@std@@@std@@@2@V?$_Deque_const_iterator@V?$_Deque_val@U?$_Deque_simple_types@ULegitPlayerRecords@@@std@@@std@@@2@@Z 100587a4     Legitbot.obj
 0002:0000a7a4       __unwindtable$?_Make_iter@?$deque@UPlayerRecords@@V?$allocator@UPlayerRecords@@@std@@@std@@QBE?AV?$_Deque_iterator@V?$_Deque_val@U?$_Deque_simple_types@UPlayerRecords@@@std@@@std@@@2@V?$_Deque_const_iterator@V?$_Deque_val@U?$_Deque_simple_types@UPlayerRecords@@@std@@@std@@@2@@Z 100587a4     LagComp.obj
 0002:0000a7ac       __ehfuncinfo$?_Make_iter@?$deque@ULegitPlayerRecords@@V?$allocator@ULegitPlayerRecords@@@std@@@std@@QBE?AV?$_Deque_iterator@V?$_Deque_val@U?$_Deque_simple_types@ULegitPlayerRecords@@@std@@@std@@@2@V?$_Deque_const_iterator@V?$_Deque_val@U?$_Deque_simple_types@ULegitPlayerRecords@@@std@@@std@@@2@@Z 100587ac     Legitbot.obj
 0002:0000a7ac       __ehfuncinfo$?_Make_iter@?$deque@UPlayerRecords@@V?$allocator@UPlayerRecords@@@std@@@std@@QBE?AV?$_Deque_iterator@V?$_Deque_val@U?$_Deque_simple_types@UPlayerRecords@@@std@@@std@@@2@V?$_Deque_const_iterator@V?$_Deque_val@U?$_Deque_simple_types@UPlayerRecords@@@std@@@std@@@2@@Z 100587ac     LagComp.obj
 0002:0000a7d0       __unwindtable$?erase@?$deque@UPlayerRecords@@V?$allocator@UPlayerRecords@@@std@@@std@@QAE?AV?$_Deque_iterator@V?$_Deque_val@U?$_Deque_simple_types@UPlayerRecords@@@std@@@std@@@2@V?$_Deque_const_iterator@V?$_Deque_val@U?$_Deque_simple_types@UPlayerRecords@@@std@@@std@@@2@@Z 100587d0     LagComp.obj
 0002:0000a7d0       __unwindtable$?erase@?$deque@ULegitPlayerRecords@@V?$allocator@ULegitPlayerRecords@@@std@@@std@@QAE?AV?$_Deque_iterator@V?$_Deque_val@U?$_Deque_simple_types@ULegitPlayerRecords@@@std@@@std@@@2@V?$_Deque_const_iterator@V?$_Deque_val@U?$_Deque_simple_types@ULegitPlayerRecords@@@std@@@std@@@2@@Z 100587d0     Legitbot.obj
 0002:0000a7d8       __ehfuncinfo$?erase@?$deque@ULegitPlayerRecords@@V?$allocator@ULegitPlayerRecords@@@std@@@std@@QAE?AV?$_Deque_iterator@V?$_Deque_val@U?$_Deque_simple_types@ULegitPlayerRecords@@@std@@@std@@@2@V?$_Deque_const_iterator@V?$_Deque_val@U?$_Deque_simple_types@ULegitPlayerRecords@@@std@@@std@@@2@@Z 100587d8     Legitbot.obj
 0002:0000a7d8       __ehfuncinfo$?erase@?$deque@UPlayerRecords@@V?$allocator@UPlayerRecords@@@std@@@std@@QAE?AV?$_Deque_iterator@V?$_Deque_val@U?$_Deque_simple_types@UPlayerRecords@@@std@@@std@@@2@V?$_Deque_const_iterator@V?$_Deque_val@U?$_Deque_simple_types@UPlayerRecords@@@std@@@std@@@2@@Z 100587d8     LagComp.obj
 0002:0000a7fc       __ehfuncinfo$?erase@?$deque@UPlayerRecords@@V?$allocator@UPlayerRecords@@@std@@@std@@QAE?AV?$_Deque_iterator@V?$_Deque_val@U?$_Deque_simple_types@UPlayerRecords@@@std@@@std@@@2@V?$_Deque_const_iterator@V?$_Deque_val@U?$_Deque_simple_types@UPlayerRecords@@@std@@@std@@@2@0@Z 100587fc     LagComp.obj
 0002:0000a7fc       __ehfuncinfo$?erase@?$deque@ULegitPlayerRecords@@V?$allocator@ULegitPlayerRecords@@@std@@@std@@QAE?AV?$_Deque_iterator@V?$_Deque_val@U?$_Deque_simple_types@ULegitPlayerRecords@@@std@@@std@@@2@V?$_Deque_const_iterator@V?$_Deque_val@U?$_Deque_simple_types@ULegitPlayerRecords@@@std@@@std@@@2@0@Z 100587fc     Legitbot.obj
 0002:0000a820       __unwindtable$?erase@?$deque@ULegitPlayerRecords@@V?$allocator@ULegitPlayerRecords@@@std@@@std@@QAE?AV?$_Deque_iterator@V?$_Deque_val@U?$_Deque_simple_types@ULegitPlayerRecords@@@std@@@std@@@2@V?$_Deque_const_iterator@V?$_Deque_val@U?$_Deque_simple_types@ULegitPlayerRecords@@@std@@@std@@@2@0@Z 10058820     Legitbot.obj
 0002:0000a820       __unwindtable$?erase@?$deque@UPlayerRecords@@V?$allocator@UPlayerRecords@@@std@@@std@@QAE?AV?$_Deque_iterator@V?$_Deque_val@U?$_Deque_simple_types@UPlayerRecords@@@std@@@std@@@2@V?$_Deque_const_iterator@V?$_Deque_val@U?$_Deque_simple_types@UPlayerRecords@@@std@@@std@@@2@0@Z 10058820     LagComp.obj
 0002:0000a858       __unwindtable$?StoreRecord@LagComp@@QAEXPAVC_BaseEntity@@@Z 10058858     LagComp.obj
 0002:0000a868       __ehfuncinfo$?StoreRecord@LagComp@@QAEXPAVC_BaseEntity@@@Z 10058868     LagComp.obj
 0002:0000a88c       __unwindtable$?ClearRecords@LagComp@@QAEXH@Z 1005888c     LagComp.obj
 0002:0000a89c       __ehfuncinfo$?ClearRecords@LagComp@@QAEXH@Z 1005889c     LagComp.obj
 0002:0000a8c0       __unwindtable$??H?$_Deque_const_iterator@V?$_Deque_val@U?$_Deque_simple_types@ULegitPlayerRecords@@@std@@@std@@@std@@QBE?AV01@H@Z 100588c0     Legitbot.obj
 0002:0000a8c0       __unwindtable$??H?$_Deque_const_iterator@V?$_Deque_val@U?$_Deque_simple_types@UPlayerRecords@@@std@@@std@@@std@@QBE?AV01@H@Z 100588c0     LagComp.obj
 0002:0000a8c8       __ehfuncinfo$??H?$_Deque_const_iterator@V?$_Deque_val@U?$_Deque_simple_types@ULegitPlayerRecords@@@std@@@std@@@std@@QBE?AV01@H@Z 100588c8     Legitbot.obj
 0002:0000a8c8       __ehfuncinfo$??H?$_Deque_const_iterator@V?$_Deque_val@U?$_Deque_simple_types@UPlayerRecords@@@std@@@std@@@std@@QBE?AV01@H@Z 100588c8     LagComp.obj
 0002:0000a8ec       __unwindtable$??$move@V?$_Deque_iterator@V?$_Deque_val@U?$_Deque_simple_types@ULegitPlayerRecords@@@std@@@std@@@std@@V12@@std@@YA?AV?$_Deque_iterator@V?$_Deque_val@U?$_Deque_simple_types@ULegitPlayerRecords@@@std@@@std@@@0@V10@00@Z 100588ec     Legitbot.obj
 0002:0000a8ec       __unwindtable$??$move_backward@V?$_Deque_iterator@V?$_Deque_val@U?$_Deque_simple_types@UPlayerRecords@@@std@@@std@@@std@@V12@@std@@YA?AV?$_Deque_iterator@V?$_Deque_val@U?$_Deque_simple_types@UPlayerRecords@@@std@@@std@@@0@V10@00@Z 100588ec     LagComp.obj
 0002:0000a8ec       __unwindtable$??$move_backward@V?$_Deque_iterator@V?$_Deque_val@U?$_Deque_simple_types@ULegitPlayerRecords@@@std@@@std@@@std@@V12@@std@@YA?AV?$_Deque_iterator@V?$_Deque_val@U?$_Deque_simple_types@ULegitPlayerRecords@@@std@@@std@@@0@V10@00@Z 100588ec     Legitbot.obj
 0002:0000a8ec       __unwindtable$??$move@V?$_Deque_iterator@V?$_Deque_val@U?$_Deque_simple_types@UPlayerRecords@@@std@@@std@@@std@@V12@@std@@YA?AV?$_Deque_iterator@V?$_Deque_val@U?$_Deque_simple_types@UPlayerRecords@@@std@@@std@@@0@V10@00@Z 100588ec     LagComp.obj
 0002:0000a904       __ehfuncinfo$??$move_backward@V?$_Deque_iterator@V?$_Deque_val@U?$_Deque_simple_types@UPlayerRecords@@@std@@@std@@@std@@V12@@std@@YA?AV?$_Deque_iterator@V?$_Deque_val@U?$_Deque_simple_types@UPlayerRecords@@@std@@@std@@@0@V10@00@Z 10058904     LagComp.obj
 0002:0000a904       __ehfuncinfo$??$move@V?$_Deque_iterator@V?$_Deque_val@U?$_Deque_simple_types@UPlayerRecords@@@std@@@std@@@std@@V12@@std@@YA?AV?$_Deque_iterator@V?$_Deque_val@U?$_Deque_simple_types@UPlayerRecords@@@std@@@std@@@0@V10@00@Z 10058904     LagComp.obj
 0002:0000a904       __ehfuncinfo$??$move@V?$_Deque_iterator@V?$_Deque_val@U?$_Deque_simple_types@ULegitPlayerRecords@@@std@@@std@@@std@@V12@@std@@YA?AV?$_Deque_iterator@V?$_Deque_val@U?$_Deque_simple_types@ULegitPlayerRecords@@@std@@@std@@@0@V10@00@Z 10058904     Legitbot.obj
 0002:0000a904       __ehfuncinfo$??$move_backward@V?$_Deque_iterator@V?$_Deque_val@U?$_Deque_simple_types@ULegitPlayerRecords@@@std@@@std@@@std@@V12@@std@@YA?AV?$_Deque_iterator@V?$_Deque_val@U?$_Deque_simple_types@ULegitPlayerRecords@@@std@@@std@@@0@V10@00@Z 10058904     Legitbot.obj
 0002:0000a928       __unwindtable$?OnCreateMove@Legitbot@@QAEXXZ 10058928     Legitbot.obj
 0002:0000a938       __ehfuncinfo$?OnCreateMove@Legitbot@@QAEXXZ 10058938     Legitbot.obj
 0002:0000a95c       __unwindtable$?ClientAnimations@C_BaseEntity@@QAEX_N@Z 1005895c     Resolver.obj
 0002:0000a964       __ehfuncinfo$?ClientAnimations@C_BaseEntity@@QAEX_N@Z 10058964     Resolver.obj
 0002:0000a988       __unwindtable$?GetLowerBodyYaw@C_BaseEntity@@QAEMXZ 10058988     Resolver.obj
 0002:0000a990       __ehfuncinfo$?GetLowerBodyYaw@C_BaseEntity@@QAEMXZ 10058990     Resolver.obj
 0002:0000a9b4       __unwindtable$?SetLowerBodyYaw@C_BaseEntity@@QAEXM@Z 100589b4     Resolver.obj
 0002:0000a9bc       __ehfuncinfo$?SetLowerBodyYaw@C_BaseEntity@@QAEXM@Z 100589bc     Resolver.obj
 0002:0000a9e0       __unwindtable$?AnimationFix@Resolver@@AAEXPAVC_BaseEntity@@@Z 100589e0     Resolver.obj
 0002:0000a9e8       __ehfuncinfo$?AnimationFix@Resolver@@AAEXPAVC_BaseEntity@@@Z 100589e8     Resolver.obj
 0002:0000aa0c       __unwindtable$??0?$basic_string@DU?$char_traits@D@std@@V?$allocator@D@2@@std@@QAE@ABV01@@Z 10058a0c     c_esp.obj
 0002:0000aa14       __ehfuncinfo$??0?$basic_string@DU?$char_traits@D@std@@V?$allocator@D@2@@std@@QAE@ABV01@@Z 10058a14     c_esp.obj
 0002:0000aa38       __unwindtable$?GetAmmo@C_BaseCombatWeapon@@QAEHXZ 10058a38     c_esp.obj
 0002:0000aa40       __ehfuncinfo$?GetAmmo@C_BaseCombatWeapon@@QAEHXZ 10058a40     c_esp.obj
 0002:0000aa64       __unwindtable$?m_iPrimaryReserveAmmoCount@C_BaseCombatWeapon@@QAEHXZ 10058a64     c_esp.obj
 0002:0000aa6c       __ehfuncinfo$?m_iPrimaryReserveAmmoCount@C_BaseCombatWeapon@@QAEHXZ 10058a6c     c_esp.obj
 0002:0000aa90       __unwindtable$?RenderWeaponName@c_esp@@AAEXPAVC_BaseEntity@@@Z 10058a90     c_esp.obj
 0002:0000aab0       __ehfuncinfo$?RenderWeaponName@c_esp@@AAEXPAVC_BaseEntity@@@Z 10058ab0     c_esp.obj
 0002:0000aad4       __unwindtable$?RenderHealth@c_esp@@AAEXPAVC_BaseEntity@@@Z 10058ad4     c_esp.obj
 0002:0000aaec       __ehfuncinfo$?RenderHealth@c_esp@@AAEXPAVC_BaseEntity@@@Z 10058aec     c_esp.obj
 0002:0000ab10       __unwindtable$?clean_name@@YA?AV?$basic_string@DU?$char_traits@D@std@@V?$allocator@D@2@@std@@V12@@Z 10058b10     c_esp.obj
 0002:0000ab20       __ehfuncinfo$?clean_name@@YA?AV?$basic_string@DU?$char_traits@D@std@@V?$allocator@D@2@@std@@V12@@Z 10058b20     c_esp.obj
 0002:0000ab44       __unwindtable$??$?0PADX@?$basic_string@DU?$char_traits@D@std@@V?$allocator@D@2@@std@@QAE@PAD0ABV?$allocator@D@1@@Z 10058b44     c_esp.obj
 0002:0000ab4c       __ehfuncinfo$??$?0PADX@?$basic_string@DU?$char_traits@D@std@@V?$allocator@D@2@@std@@QAE@PAD0ABV?$allocator@D@1@@Z 10058b4c     c_esp.obj
 0002:0000ab70       __unwindtable$?NewFrame@ImGui@@YAXXZ 10058b70     imgui.obj
 0002:0000ab78       __ehfuncinfo$?NewFrame@ImGui@@YAXXZ 10058b78     imgui.obj
 0002:0000ab9c       __unwindtable$?EndChild@ImGui@@YAX_N@Z 10058b9c     imgui.obj
 0002:0000aba4       __ehfuncinfo$?EndChild@ImGui@@YAX_N@Z 10058ba4     imgui.obj
 0002:0000abc8       __unwindtable$?CreateContext@ImGui@@YAPAUImGuiContext@@P6APAXI@ZP6AXPAX@Z@Z 10058bc8     imgui.obj
 0002:0000abd0       __ehfuncinfo$?CreateContext@ImGui@@YAPAUImGuiContext@@P6APAXI@ZP6AXPAX@Z@Z 10058bd0     imgui.obj
 0002:0000abf4       __unwindtable$??0ImGuiTextBuffer@@QAE@XZ 10058bf4     imgui.obj
 0002:0000abfc       __ehfuncinfo$??0ImGuiTextBuffer@@QAE@XZ 10058bfc     imgui.obj
 0002:0000ac20       __ehfuncinfo$??0ImDrawList@@QAE@XZ 10058c20     imgui.obj
 0002:0000ac44       __unwindtable$??0ImDrawList@@QAE@XZ 10058c44     imgui.obj
 0002:0000ac7c       __unwindtable$?ImFileOpen@@YAPAU_iobuf@@PBD0@Z 10058c7c     imgui.obj
 0002:0000ac84       __ehfuncinfo$?ImFileOpen@@YAPAU_iobuf@@PBD0@Z 10058c84     imgui.obj
 0002:0000aca8       __unwindtable$??0ImGuiTextEditState@@QAE@XZ 10058ca8     imgui.obj
 0002:0000acb8       __ehfuncinfo$??0ImGuiTextEditState@@QAE@XZ 10058cb8     imgui.obj
 0002:0000acdc       __ehfuncinfo$??0ImGuiContext@@QAE@XZ 10058cdc     imgui.obj
 0002:0000ad00       __unwindtable$??0ImGuiContext@@QAE@XZ 10058d00     imgui.obj
 0002:0000ad70       __ehfuncinfo$??0ImGuiDrawContext@@QAE@XZ 10058d70     imgui.obj
 0002:0000ad94       __unwindtable$??0ImGuiDrawContext@@QAE@XZ 10058d94     imgui.obj
 0002:0000adcc       __unwindtable$??0ImGuiWindow@@QAE@PBD@Z 10058dcc     imgui.obj
 0002:0000adec       __ehfuncinfo$??0ImGuiWindow@@QAE@PBD@Z 10058dec     imgui.obj
 0002:0000ae10       __unwindtable$?CreateNewWindow@@YAPAUImGuiWindow@@PBDUImVec2@@H@Z 10058e10     imgui.obj
 0002:0000ae18       __ehfuncinfo$?CreateNewWindow@@YAPAUImGuiWindow@@PBDUImVec2@@H@Z 10058e18     imgui.obj
 0002:0000ae3c       __unwindtable$?GetClipboardTextFn_DefaultImpl@@YAPBDPAX@Z 10058e3c     imgui.obj
 0002:0000ae44       __ehfuncinfo$?GetClipboardTextFn_DefaultImpl@@YAPBDPAX@Z 10058e44     imgui.obj
 0002:0000ae68       __unwindtable$??0ImDrawChannel@@QAE@XZ 10058e68     imgui_draw.obj
 0002:0000ae70       __ehfuncinfo$??0ImDrawChannel@@QAE@XZ 10058e70     imgui_draw.obj
 0002:0000ae94       __unwindtable$?PathArcToFast@ImDrawList@@QAEXABUImVec2@@MHH@Z 10058e94     imgui_draw.obj
 0002:0000ae9c       __ehfuncinfo$?PathArcToFast@ImDrawList@@QAEXABUImVec2@@MHH@Z 10058e9c     imgui_draw.obj
 0002:0000aec0       __unwindtable$?ChannelsSplit@ImDrawList@@QAEXH@Z 10058ec0     imgui_draw.obj
 0002:0000aec8       __ehfuncinfo$?ChannelsSplit@ImDrawList@@QAEXH@Z 10058ec8     imgui_draw.obj
 0002:0000aeec       __unwindtable$??0ImFontAtlas@@QAE@XZ 10058eec     imgui_draw.obj
 0002:0000af04       __ehfuncinfo$??0ImFontAtlas@@QAE@XZ 10058f04     imgui_draw.obj
 0002:0000af28       __unwindtable$?AddFont@ImFontAtlas@@QAEPAUImFont@@PBUImFontConfig@@@Z 10058f28     imgui_draw.obj
 0002:0000af30       __ehfuncinfo$?AddFont@ImFontAtlas@@QAEPAUImFont@@PBUImFontConfig@@@Z 10058f30     imgui_draw.obj
 0002:0000af54       __unwindtable$??0ImFont@@QAE@XZ 10058f54     imgui_draw.obj
 0002:0000af6c       __ehfuncinfo$??0ImFont@@QAE@XZ 10058f6c     imgui_draw.obj
 0002:0000af90       __unwindtable$?ImFontAtlasBuildPackCustomRects@@YAXPAUImFontAtlas@@PAX@Z 10058f90     imgui_draw.obj
 0002:0000af98       __ehfuncinfo$?ImFontAtlasBuildPackCustomRects@@YAXPAUImFontAtlas@@PAX@Z 10058f98     imgui_draw.obj
 0002:0000afbc       __unwindtable$?CreateMove@c_hooks@@SI_NPAVIClientMode@@PAXMPAVCUserCmd@@@Z 10058fbc     createmove_hook.obj
 0002:0000afc4       __ehfuncinfo$?CreateMove@c_hooks@@SI_NPAVIClientMode@@PAXMPAVCUserCmd@@@Z 10058fc4     createmove_hook.obj
 0002:0000afe8       __unwindtable$?Hooked_EndScene@c_hooks@@SGXPAUIDirect3DDevice9@@@Z 10058fe8     directx_preset_hook.obj
 0002:0000aff0       __ehfuncinfo$?Hooked_EndScene@c_hooks@@SGXPAUIDirect3DDevice9@@@Z 10058ff0     directx_preset_hook.obj
 0002:0000b014       __unwindtable$?Hooked_EndScene_Reset@c_hooks@@SGXPAUIDirect3DDevice9@@PAU_D3DPRESENT_PARAMETERS_@@@Z 10059014     directx_preset_hook.obj
 0002:0000b01c       __ehfuncinfo$?Hooked_EndScene_Reset@c_hooks@@SGXPAUIDirect3DDevice9@@PAU_D3DPRESENT_PARAMETERS_@@@Z 1005901c     directx_preset_hook.obj
 0002:0000b040       __unwindtable$?DrawModelExecute@c_hooks@@SIXPAX0PAVIMatRenderContext@@ABUDrawModelState_t@@ABUModelRenderInfo_t@@PAVmatrix3x4_t@@@Z 10059040     dme_hook.obj
 0002:0000b048       __ehfuncinfo$?DrawModelExecute@c_hooks@@SIXPAX0PAVIMatRenderContext@@ABUDrawModelState_t@@ABUModelRenderInfo_t@@PAVmatrix3x4_t@@@Z 10059048     dme_hook.obj
 0002:0000b06c       __unwindtable$?FrameStageNotify@c_hooks@@SGXW4ClientFrameStage_t@@@Z 1005906c     fsn_hook.obj
 0002:0000b074       __ehfuncinfo$?FrameStageNotify@c_hooks@@SGXW4ClientFrameStage_t@@@Z 10059074     fsn_hook.obj
 0002:0000b098       __unwindtable$?LockCursor@c_hooks@@SIXPAVISurface@@PAX@Z 10059098     lock_cursor_hook.obj
 0002:0000b0a0       __ehfuncinfo$?LockCursor@c_hooks@@SIXPAVISurface@@PAX@Z 100590a0     lock_cursor_hook.obj
 0002:0000b0c4       __unwindtable$?IsScoped@C_BaseEntity@@QAE_NXZ 100590c4     oview_hook.obj
 0002:0000b0cc       __ehfuncinfo$?IsScoped@C_BaseEntity@@QAE_NXZ 100590cc     oview_hook.obj
 0002:0000b0f0       __unwindtable$?OverrideView@c_hooks@@SIXPAX0PAVCViewSetup@@@Z 100590f0     oview_hook.obj
 0002:0000b0f8       __ehfuncinfo$?OverrideView@c_hooks@@SIXPAX0PAVCViewSetup@@@Z 100590f8     oview_hook.obj
 0002:0000b11c       __unwindtable$?PaintTraverse@c_hooks@@SIXPAXHI_N1@Z 1005911c     painttraverse_hook.obj
 0002:0000b124       __ehfuncinfo$?PaintTraverse@c_hooks@@SIXPAXHI_N1@Z 10059124     painttraverse_hook.obj
 0002:0000b148       __unwindtable$?SceneEnd@c_hooks@@SIXPAX0@Z 10059148     sceneend_hook.obj
 0002:0000b150       __ehfuncinfo$?SceneEnd@c_hooks@@SIXPAX0@Z 10059150     sceneend_hook.obj
 0002:0000b174       __unwindtable$??0?$basic_filebuf@DU?$char_traits@D@std@@@std@@QAE@PAU_iobuf@@@Z 10059174     config_system.obj
 0002:0000b17c       __ehfuncinfo$??0?$basic_filebuf@DU?$char_traits@D@std@@@std@@QAE@PAU_iobuf@@@Z 1005917c     config_system.obj
 0002:0000b1a0       __unwindtable$?uflow@?$basic_filebuf@DU?$char_traits@D@std@@@std@@MAEHXZ 100591a0     config_system.obj
 0002:0000b1a8       __ehfuncinfo$?uflow@?$basic_filebuf@DU?$char_traits@D@std@@@std@@MAEHXZ 100591a8     config_system.obj
 0002:0000b1cc       __unwindtable$??$use_facet@V?$codecvt@DDU_Mbstatet@@@std@@@std@@YAABV?$codecvt@DDU_Mbstatet@@@0@ABVlocale@0@@Z 100591cc     config_system.obj
 0002:0000b1dc       __ehfuncinfo$??$use_facet@V?$codecvt@DDU_Mbstatet@@@std@@@std@@YAABV?$codecvt@DDU_Mbstatet@@@0@ABVlocale@0@@Z 100591dc     config_system.obj
 0002:0000b238       __unwindtable$?SetAbsAngles@C_BaseEntity@@QAEXVVector@@@Z 10059238     CEntity.obj
 0002:0000b240       __ehfuncinfo$?SetAbsAngles@C_BaseEntity@@QAEXVVector@@@Z 10059240     CEntity.obj
 0002:0000b264       __unwindtable$?SetAbsOrigin@C_BaseEntity@@QAEXVVector@@@Z 10059264     CEntity.obj
 0002:0000b26c       __ehfuncinfo$?SetAbsOrigin@C_BaseEntity@@QAEXVVector@@@Z 1005926c     CEntity.obj
 0002:0000b290       __unwindtable$?FireRate@C_BaseEntity@@QAEMXZ 10059290     CEntity.obj
 0002:0000b298       __ehfuncinfo$?FireRate@C_BaseEntity@@QAEMXZ 10059298     CEntity.obj
 0002:0000b2bc       __ehfuncinfo$?Init@interfaces@@YAXXZ 100592bc     Interfaces.obj
 0002:0000b2e0       __unwindtable$?Init@interfaces@@YAXXZ 100592e0     Interfaces.obj
 0002:0000b358       __unwindtable$??$FindClass@VIVEngineClient@@@interfaces@@YAPAVIVEngineClient@@V?$basic_string@DU?$char_traits@D@std@@V?$allocator@D@2@@std@@0_N@Z 10059358     Interfaces.obj
 0002:0000b358       __unwindtable$??$FindClass@VIVModelInfo@@@interfaces@@YAPAVIVModelInfo@@V?$basic_string@DU?$char_traits@D@std@@V?$allocator@D@2@@std@@0_N@Z 10059358     Interfaces.obj
 0002:0000b358       __unwindtable$??$FindClass@VCModelRender@@@interfaces@@YAPAVCModelRender@@V?$basic_string@DU?$char_traits@D@std@@V?$allocator@D@2@@std@@0_N@Z 10059358     Interfaces.obj
 0002:0000b358       __unwindtable$??$FindClass@VIMaterialSystem@@@interfaces@@YAPAVIMaterialSystem@@V?$basic_string@DU?$char_traits@D@std@@V?$allocator@D@2@@std@@0_N@Z 10059358     Interfaces.obj
 0002:0000b358       __unwindtable$??$FindClass@VICVar@@@interfaces@@YAPAVICVar@@V?$basic_string@DU?$char_traits@D@std@@V?$allocator@D@2@@std@@0_N@Z 10059358     Interfaces.obj
 0002:0000b358       __unwindtable$??$FindClass@VIBaseClientDLL@@@interfaces@@YAPAVIBaseClientDLL@@V?$basic_string@DU?$char_traits@D@std@@V?$allocator@D@2@@std@@0_N@Z 10059358     Interfaces.obj
 0002:0000b358       __unwindtable$??$FindClass@VIPhysicsSurfaceProps@@@interfaces@@YAPAVIPhysicsSurfaceProps@@V?$basic_string@DU?$char_traits@D@std@@V?$allocator@D@2@@std@@0_N@Z 10059358     Interfaces.obj
 0002:0000b358       __unwindtable$??$FindClass@VCPrediction@@@interfaces@@YAPAVCPrediction@@V?$basic_string@DU?$char_traits@D@std@@V?$allocator@D@2@@std@@0_N@Z 10059358     Interfaces.obj
 0002:0000b358       __unwindtable$??$FindClass@VIEngineTrace@@@interfaces@@YAPAVIEngineTrace@@V?$basic_string@DU?$char_traits@D@std@@V?$allocator@D@2@@std@@0_N@Z 10059358     Interfaces.obj
 0002:0000b358       __unwindtable$??$FindClass@VIClientEntityList@@@interfaces@@YAPAVIClientEntityList@@V?$basic_string@DU?$char_traits@D@std@@V?$allocator@D@2@@std@@0_N@Z 10059358     Interfaces.obj
 0002:0000b358       __unwindtable$??$FindClass@VISurface@@@interfaces@@YAPAVISurface@@V?$basic_string@DU?$char_traits@D@std@@V?$allocator@D@2@@std@@0_N@Z 10059358     Interfaces.obj
 0002:0000b358       __unwindtable$??$FindClass@VIGameMovement@@@interfaces@@YAPAVIGameMovement@@V?$basic_string@DU?$char_traits@D@std@@V?$allocator@D@2@@std@@0_N@Z 10059358     Interfaces.obj
 0002:0000b358       __unwindtable$??$FindClass@VIVRenderView@@@interfaces@@YAPAVIVRenderView@@V?$basic_string@DU?$char_traits@D@std@@V?$allocator@D@2@@std@@0_N@Z 10059358     Interfaces.obj
 0002:0000b358       __unwindtable$??$FindClass@VIPanel@@@interfaces@@YAPAVIPanel@@V?$basic_string@DU?$char_traits@D@std@@V?$allocator@D@2@@std@@0_N@Z 10059358     Interfaces.obj
 0002:0000b368       __ehfuncinfo$??$FindClass@VISurface@@@interfaces@@YAPAVISurface@@V?$basic_string@DU?$char_traits@D@std@@V?$allocator@D@2@@std@@0_N@Z 10059368     Interfaces.obj
 0002:0000b368       __ehfuncinfo$??$FindClass@VIGameMovement@@@interfaces@@YAPAVIGameMovement@@V?$basic_string@DU?$char_traits@D@std@@V?$allocator@D@2@@std@@0_N@Z 10059368     Interfaces.obj
 0002:0000b368       __ehfuncinfo$??$FindClass@VIPhysicsSurfaceProps@@@interfaces@@YAPAVIPhysicsSurfaceProps@@V?$basic_string@DU?$char_traits@D@std@@V?$allocator@D@2@@std@@0_N@Z 10059368     Interfaces.obj
 0002:0000b368       __ehfuncinfo$??$FindClass@VCPrediction@@@interfaces@@YAPAVCPrediction@@V?$basic_string@DU?$char_traits@D@std@@V?$allocator@D@2@@std@@0_N@Z 10059368     Interfaces.obj
 0002:0000b368       __ehfuncinfo$??$FindClass@VICVar@@@interfaces@@YAPAVICVar@@V?$basic_string@DU?$char_traits@D@std@@V?$allocator@D@2@@std@@0_N@Z 10059368     Interfaces.obj
 0002:0000b368       __ehfuncinfo$??$FindClass@VIPanel@@@interfaces@@YAPAVIPanel@@V?$basic_string@DU?$char_traits@D@std@@V?$allocator@D@2@@std@@0_N@Z 10059368     Interfaces.obj
 0002:0000b368       __ehfuncinfo$??$FindClass@VIVModelInfo@@@interfaces@@YAPAVIVModelInfo@@V?$basic_string@DU?$char_traits@D@std@@V?$allocator@D@2@@std@@0_N@Z 10059368     Interfaces.obj
 0002:0000b368       __ehfuncinfo$??$FindClass@VIVEngineClient@@@interfaces@@YAPAVIVEngineClient@@V?$basic_string@DU?$char_traits@D@std@@V?$allocator@D@2@@std@@0_N@Z 10059368     Interfaces.obj
 0002:0000b368       __ehfuncinfo$??$FindClass@VCModelRender@@@interfaces@@YAPAVCModelRender@@V?$basic_string@DU?$char_traits@D@std@@V?$allocator@D@2@@std@@0_N@Z 10059368     Interfaces.obj
 0002:0000b368       __ehfuncinfo$??$FindClass@VIMaterialSystem@@@interfaces@@YAPAVIMaterialSystem@@V?$basic_string@DU?$char_traits@D@std@@V?$allocator@D@2@@std@@0_N@Z 10059368     Interfaces.obj
 0002:0000b368       __ehfuncinfo$??$FindClass@VIBaseClientDLL@@@interfaces@@YAPAVIBaseClientDLL@@V?$basic_string@DU?$char_traits@D@std@@V?$allocator@D@2@@std@@0_N@Z 10059368     Interfaces.obj
 0002:0000b368       __ehfuncinfo$??$FindClass@VIVRenderView@@@interfaces@@YAPAVIVRenderView@@V?$basic_string@DU?$char_traits@D@std@@V?$allocator@D@2@@std@@0_N@Z 10059368     Interfaces.obj
 0002:0000b368       __ehfuncinfo$??$FindClass@VIClientEntityList@@@interfaces@@YAPAVIClientEntityList@@V?$basic_string@DU?$char_traits@D@std@@V?$allocator@D@2@@std@@0_N@Z 10059368     Interfaces.obj
 0002:0000b368       __ehfuncinfo$??$FindClass@VIEngineTrace@@@interfaces@@YAPAVIEngineTrace@@V?$basic_string@DU?$char_traits@D@std@@V?$allocator@D@2@@std@@0_N@Z 10059368     Interfaces.obj
 0002:0000b38c       __unwindtable$??$CaptureInterface@VIGameEventManager@@@interfaces@@YAPAVIGameEventManager@@PBD0@Z 1005938c     Interfaces.obj
 0002:0000b394       __ehfuncinfo$??$CaptureInterface@VIGameEventManager@@@interfaces@@YAPAVIGameEventManager@@PBD0@Z 10059394     Interfaces.obj
 0002:0000b3b8       __unwindtable$??0?$basic_ofstream@DU?$char_traits@D@std@@@std@@QAE@PBDHH@Z 100593b8     Interfaces.obj
 0002:0000b3d0       __ehfuncinfo$??0?$basic_ofstream@DU?$char_traits@D@std@@@std@@QAE@PBDHH@Z 100593d0     Interfaces.obj
 0002:0000b3f4       __unwindtable$?open@?$basic_filebuf@DU?$char_traits@D@std@@@std@@QAEPAV12@PBDHH@Z 100593f4     Interfaces.obj
 0002:0000b3fc       __ehfuncinfo$?open@?$basic_filebuf@DU?$char_traits@D@std@@@std@@QAEPAV12@PBDHH@Z 100593fc     Interfaces.obj
 0002:0000b420       __catchsym$??$?6U?$char_traits@D@std@@@std@@YAAAV?$basic_ostream@DU?$char_traits@D@std@@@0@AAV10@PBD@Z$3 10059420     Interfaces.obj
 0002:0000b430       __tryblocktable$??$?6U?$char_traits@D@std@@@std@@YAAAV?$basic_ostream@DU?$char_traits@D@std@@@0@AAV10@PBD@Z 10059430     Interfaces.obj
 0002:0000b444       __unwindtable$??$?6U?$char_traits@D@std@@@std@@YAAAV?$basic_ostream@DU?$char_traits@D@std@@@0@AAV10@PBD@Z 10059444     Interfaces.obj
 0002:0000b45c       __ehfuncinfo$??$?6U?$char_traits@D@std@@@std@@YAAAV?$basic_ostream@DU?$char_traits@D@std@@@0@AAV10@PBD@Z 1005945c     Interfaces.obj
 0002:0000b480       __unwindtable$??0sentry@?$basic_ostream@DU?$char_traits@D@std@@@std@@QAE@AAV12@@Z 10059480     Interfaces.obj
 0002:0000b488       __ehfuncinfo$??0sentry@?$basic_ostream@DU?$char_traits@D@std@@@std@@QAE@AAV12@@Z 10059488     Interfaces.obj
 0002:0000b4ac       __unwindtable$??0?$_Hash@V?$_Umap_traits@V?$basic_string@DU?$char_traits@D@std@@V?$allocator@D@2@@std@@V?$shared_ptr@UNode@NetvarTree@@@2@V?$_Uhash_compare@V?$basic_string@DU?$char_traits@D@std@@V?$allocator@D@2@@std@@U?$hash@V?$basic_string@DU?$char_traits@D@std@@V?$allocator@D@2@@std@@@2@U?$equal_to@V?$basic_string@DU?$char_traits@D@std@@V?$allocator@D@2@@std@@@2@@2@V?$allocator@U?$pair@$$CBV?$basic_string@DU?$char_traits@D@std@@V?$allocator@D@2@@std@@V?$shared_ptr@UNode@NetvarTree@@@2@@std@@@2@$0A@@std@@@std@@QAE@ABV?$_Uhash_compare@V?$basic_string@DU?$char_traits@D@std@@V?$allocator@D@2@@std@@U?$hash@V?$basic_string@DU?$char_traits@D@std@@V?$allocator@D@2@@std@@@2@U?$equal_to@V?$basic_string@DU?$char_traits@D@std@@V?$allocator@D@2@@std@@@2@@1@ABV?$allocator@U?$pair@$$CBV?$basic_string@DU?$char_traits@D@std@@V?$allocator@D@2@@std@@V?$shared_ptr@UNode@NetvarTree@@@2@@std@@@1@@Z 100594ac     NetvarManager.obj
 0002:0000b4bc       __ehfuncinfo$??0?$_Hash@V?$_Umap_traits@V?$basic_string@DU?$char_traits@D@std@@V?$allocator@D@2@@std@@V?$shared_ptr@UNode@NetvarTree@@@2@V?$_Uhash_compare@V?$basic_string@DU?$char_traits@D@std@@V?$allocator@D@2@@std@@U?$hash@V?$basic_string@DU?$char_traits@D@std@@V?$allocator@D@2@@std@@@2@U?$equal_to@V?$basic_string@DU?$char_traits@D@std@@V?$allocator@D@2@@std@@@2@@2@V?$allocator@U?$pair@$$CBV?$basic_string@DU?$char_traits@D@std@@V?$allocator@D@2@@std@@V?$shared_ptr@UNode@NetvarTree@@@2@@std@@@2@$0A@@std@@@std@@QAE@ABV?$_Uhash_compare@V?$basic_string@DU?$char_traits@D@std@@V?$allocator@D@2@@std@@U?$hash@V?$basic_string@DU?$char_traits@D@std@@V?$allocator@D@2@@std@@@2@U?$equal_to@V?$basic_string@DU?$char_traits@D@std@@V?$allocator@D@2@@std@@@2@@1@ABV?$allocator@U?$pair@$$CBV?$basic_string@DU?$char_traits@D@std@@V?$allocator@D@2@@std@@V?$shared_ptr@UNode@NetvarTree@@@2@@std@@@1@@Z 100594bc     NetvarManager.obj
 0002:0000b4e0       __unwindtable$??0NetvarTree@@QAE@XZ 100594e0     NetvarManager.obj
 0002:0000b4f0       __ehfuncinfo$??0NetvarTree@@QAE@XZ 100594f0     NetvarManager.obj
 0002:0000b514       __unwindtable$?PopulateNodes@NetvarTree@@AAEXPAVRecvTable@@PAV?$unordered_map@V?$basic_string@DU?$char_traits@D@std@@V?$allocator@D@2@@std@@V?$shared_ptr@UNode@NetvarTree@@@2@U?$hash@V?$basic_string@DU?$char_traits@D@std@@V?$allocator@D@2@@std@@@2@U?$equal_to@V?$basic_string@DU?$char_traits@D@std@@V?$allocator@D@2@@std@@@2@V?$allocator@U?$pair@$$CBV?$basic_string@DU?$char_traits@D@std@@V?$allocator@D@2@@std@@V?$shared_ptr@UNode@NetvarTree@@@2@@std@@@2@@std@@@Z 10059514     NetvarManager.obj
 0002:0000b51c       __ehfuncinfo$?PopulateNodes@NetvarTree@@AAEXPAVRecvTable@@PAV?$unordered_map@V?$basic_string@DU?$char_traits@D@std@@V?$allocator@D@2@@std@@V?$shared_ptr@UNode@NetvarTree@@@2@U?$hash@V?$basic_string@DU?$char_traits@D@std@@V?$allocator@D@2@@std@@@2@U?$equal_to@V?$basic_string@DU?$char_traits@D@std@@V?$allocator@D@2@@std@@@2@V?$allocator@U?$pair@$$CBV?$basic_string@DU?$char_traits@D@std@@V?$allocator@D@2@@std@@V?$shared_ptr@UNode@NetvarTree@@@2@@std@@@2@@std@@@Z 1005951c     NetvarManager.obj
 0002:0000b540       __unwindtable$??$make_shared@UNode@NetvarTree@@H@std@@YA?AV?$shared_ptr@UNode@NetvarTree@@@0@$$QAH@Z 10059540     NetvarManager.obj
 0002:0000b550       __ehfuncinfo$??$make_shared@UNode@NetvarTree@@H@std@@YA?AV?$shared_ptr@UNode@NetvarTree@@@0@$$QAH@Z 10059550     NetvarManager.obj
 0002:0000b574       __unwindtable$??$?0H@?$_Ref_count_obj@UNode@NetvarTree@@@std@@QAE@$$QAH@Z 10059574     NetvarManager.obj
 0002:0000b57c       __ehfuncinfo$??$?0H@?$_Ref_count_obj@UNode@NetvarTree@@@std@@QAE@$$QAH@Z 1005957c     NetvarManager.obj
 0002:0000b5a0       __catchsym$??$_Buynode@PBDABV?$shared_ptr@UNode@NetvarTree@@@std@@@?$_List_buy@U?$pair@$$CBV?$basic_string@DU?$char_traits@D@std@@V?$allocator@D@2@@std@@V?$shared_ptr@UNode@NetvarTree@@@2@@std@@V?$allocator@U?$pair@$$CBV?$basic_string@DU?$char_traits@D@std@@V?$allocator@D@2@@std@@V?$shared_ptr@UNode@NetvarTree@@@2@@std@@@2@@std@@QAEPAU?$_List_node@U?$pair@$$CBV?$basic_string@DU?$char_traits@D@std@@V?$allocator@D@2@@std@@V?$shared_ptr@UNode@NetvarTree@@@2@@std@@PAX@1@PAU21@0$$QAPBDABV?$shared_ptr@UNode@NetvarTree@@@1@@Z$2 100595a0     NetvarManager.obj
 0002:0000b5b0       __unwindtable$??$_Buynode@PBDABV?$shared_ptr@UNode@NetvarTree@@@std@@@?$_List_buy@U?$pair@$$CBV?$basic_string@DU?$char_traits@D@std@@V?$allocator@D@2@@std@@V?$shared_ptr@UNode@NetvarTree@@@2@@std@@V?$allocator@U?$pair@$$CBV?$basic_string@DU?$char_traits@D@std@@V?$allocator@D@2@@std@@V?$shared_ptr@UNode@NetvarTree@@@2@@std@@@2@@std@@QAEPAU?$_List_node@U?$pair@$$CBV?$basic_string@DU?$char_traits@D@std@@V?$allocator@D@2@@std@@V?$shared_ptr@UNode@NetvarTree@@@2@@std@@PAX@1@PAU21@0$$QAPBDABV?$shared_ptr@UNode@NetvarTree@@@1@@Z 100595b0     NetvarManager.obj
 0002:0000b5c0       __tryblocktable$??$_Buynode@PBDABV?$shared_ptr@UNode@NetvarTree@@@std@@@?$_List_buy@U?$pair@$$CBV?$basic_string@DU?$char_traits@D@std@@V?$allocator@D@2@@std@@V?$shared_ptr@UNode@NetvarTree@@@2@@std@@V?$allocator@U?$pair@$$CBV?$basic_string@DU?$char_traits@D@std@@V?$allocator@D@2@@std@@V?$shared_ptr@UNode@NetvarTree@@@2@@std@@@2@@std@@QAEPAU?$_List_node@U?$pair@$$CBV?$basic_string@DU?$char_traits@D@std@@V?$allocator@D@2@@std@@V?$shared_ptr@UNode@NetvarTree@@@2@@std@@PAX@1@PAU21@0$$QAPBDABV?$shared_ptr@UNode@NetvarTree@@@1@@Z 100595c0     NetvarManager.obj
 0002:0000b5d4       __ehfuncinfo$??$_Buynode@PBDABV?$shared_ptr@UNode@NetvarTree@@@std@@@?$_List_buy@U?$pair@$$CBV?$basic_string@DU?$char_traits@D@std@@V?$allocator@D@2@@std@@V?$shared_ptr@UNode@NetvarTree@@@2@@std@@V?$allocator@U?$pair@$$CBV?$basic_string@DU?$char_traits@D@std@@V?$allocator@D@2@@std@@V?$shared_ptr@UNode@NetvarTree@@@2@@std@@@2@@std@@QAEPAU?$_List_node@U?$pair@$$CBV?$basic_string@DU?$char_traits@D@std@@V?$allocator@D@2@@std@@V?$shared_ptr@UNode@NetvarTree@@@2@@std@@PAX@1@PAU21@0$$QAPBDABV?$shared_ptr@UNode@NetvarTree@@@1@@Z 100595d4     NetvarManager.obj
 0002:0000b5f8       __sehtable$??_L@YGXPAXIIP6EX0@Z1@Z 100595f8     MSVCRT:ehvecctr.obj
 0002:0000b618       __sehtable$??_M@YGXPAXIIP6EX0@Z@Z 10059618     MSVCRT:ehvecdtr.obj
 0002:0000b638       __sehtable$?__ArrayUnwind@@YGXPAXIIP6EX0@Z@Z 10059638     MSVCRT:ehvecdtr.obj
 0002:0000b658       __sehtable$___scrt_is_nonwritable_in_current_image 10059658     MSVCRT:utility.obj
 0002:0000b678       __sehtable$?dllmain_crt_process_attach@@YAHQAUHINSTANCE__@@QAX@Z 10059678     MSVCRT:dll_dllmain.obj
 0002:0000b698       __sehtable$?dllmain_crt_process_detach@@YAH_N@Z 10059698     MSVCRT:dll_dllmain.obj
 0002:0000b6b8       __sehtable$?dllmain_dispatch@@YAHQAUHINSTANCE__@@KQAX@Z 100596b8     MSVCRT:dll_dllmain.obj
 0002:0000bc68       .idata$6                   10059c68     kernel32:KERNEL32.dll
 0002:0000bd50       .idata$6                   10059d50     user32:USER32.dll
 0002:0000c962       .idata$6                   1005a962     msvcprt:MSVCP140.dll
 0002:0000c99a       .idata$6                   1005a99a     imm32:IMM32.dll
 0002:0000ca8e       .idata$6                   1005aa8e     vcruntime:VCRUNTIME140.dll
 0002:0000ce0e       .idata$6                   1005ae0e     ucrt:api-ms-win-crt-runtime-l1-1-0.dll
 0002:0000ce30       .idata$6                   1005ae30     ucrt:api-ms-win-crt-heap-l1-1-0.dll
 0002:0000ce50       .idata$6                   1005ae50     ucrt:api-ms-win-crt-math-l1-1-0.dll
 0002:0000ce70       .idata$6                   1005ae70     ucrt:api-ms-win-crt-utility-l1-1-0.dll
 0002:0000ce92       .idata$6                   1005ae92     ucrt:api-ms-win-crt-string-l1-1-0.dll
 0002:0000ceb4       .idata$6                   1005aeb4     ucrt:api-ms-win-crt-convert-l1-1-0.dll
 0002:0000ced6       .idata$6                   1005aed6     ucrt:api-ms-win-crt-stdio-l1-1-0.dll
 0002:0000cef6       .idata$6                   1005aef6     ucrt:api-ms-win-crt-filesystem-l1-1-0.dll
 0003:00000000       ?Speed@?1??Autostop@Aimbot@@AAEXXZ@4MA 1005c000     Aimbot.obj
 0003:00000004       ?HitboxForMuti@?1??Hitscan@Aimbot@@AAE?AVVector@@PAVC_BaseEntity@@@Z@4PAHA 1005c004     Aimbot.obj
 0003:0000001c       ?g_VertexBufferSize@@3HA   1005c01c     imgui_impl_dx9.obj
 0003:00000020       ?g_IndexBufferSize@@3HA    1005c020     imgui_impl_dx9.obj
 0003:00000028       ?STB_TEXTEDIT_NEWLINE@ImGuiStb@@3GA 1005c028     imgui.obj
 0003:00000480       ?vec2_origin@@3VVector2D@@B 1005c480     c_hooks.obj
 0003:00000494       ?vec2_origin@@3VVector2D@@B 1005c494     dll_main.obj
 0003:000004a0       ?vec2_origin@@3VVector2D@@B 1005c4a0     Aimbot.obj
 0003:00061da0       ?oldSimtime@?1??ShouldBaim@@YA_NPAVC_BaseEntity@@@Z@4PAMA 100bdda0     Aimbot.obj
 0003:00061ea8       ?storedSimtime@?1??ShouldBaim@@YA_NPAVC_BaseEntity@@@Z@4PAMA 100bdea8     Aimbot.obj
 0003:00061fb0       ?ShotTime@?1??ShouldBaim@@YA_NPAVC_BaseEntity@@@Z@4PAMA 100bdfb0     Aimbot.obj
 0003:000620b8       ?NextShotTime@?1??ShouldBaim@@YA_NPAVC_BaseEntity@@@Z@4PAMA 100be0b8     Aimbot.obj
 0003:000621c0       ?BaimShot@?1??ShouldBaim@@YA_NPAVC_BaseEntity@@@Z@4PA_NA 100be1c0     Aimbot.obj
 0003:00062201       ?shot@?1??OnCreateMove@Aimbot@@QAEXXZ@4_NA 100be201     Aimbot.obj
 0003:00062208       ?vec2_origin@@3VVector2D@@B 100be208     Autowall.obj
 0003:00062220       ?dwAddress@?1??UTIL_ClipTraceToPlayers@@YAXABVVector@@0IPAVITraceFilter@@PAUC_Trace@@@Z@4KA 100be220     Autowall.obj
 0003:00062224       ?$TSS0@?1??UTIL_ClipTraceToPlayers@@YAXABVVector@@0IPAVITraceFilter@@PAUC_Trace@@@Z@4HA 100be224     Autowall.obj
 0003:00062228       ?oTraceToExit@?1??TraceToExitalt@@YA_NAAVVector@@AAUC_Trace@@V2@2PAU3@@Z@4P6I_N01MMMMMM3@ZA 100be228     Autowall.obj
 0003:0006222c       ?$TSS0@?1??TraceToExitalt@@YA_NAAVVector@@AAUC_Trace@@V2@2PAU3@@Z@4HA 100be22c     Autowall.obj
 0003:00062240       ?vec2_origin@@3VVector2D@@B 100be240     EnginePrediction.obj
 0003:00062250       ?vec2_origin@@3VVector2D@@B 100be250     LagComp.obj
 0003:00062870       ?ShotTime@?1??StoreRecord@LagComp@@QAEXPAVC_BaseEntity@@@Z@4PAMA 100be870     LagComp.obj
 0003:00062978       ?OldSimtime@?1??StoreRecord@LagComp@@QAEXPAVC_BaseEntity@@@Z@4PAMA 100be978     LagComp.obj
 0003:00062a80       ?vec2_origin@@3VVector2D@@B 100bea80     AntiAim.obj
 0003:00062a88       ?FinalAngle@?1??FreeStanding@@YAXXZ@4MA 100bea88     AntiAim.obj
 0003:00062a8c       ?oldSwtich@?CL@??FreeStanding@@YAXXZ@4_NA 100bea8c     AntiAim.obj
 0003:00062a90       ?$TSS0@?CL@??FreeStanding@@YAXXZ@4HA 100bea90     AntiAim.obj
 0003:00062a94       ?Add@?CL@??FreeStanding@@YAXXZ@4HA 100bea94     AntiAim.obj
 0003:00062a98       ?Swtich2@?1??Real@@YAXXZ@4_NA 100bea98     AntiAim.obj
 0003:00062a9c       ?test@?1??Real@@YAXXZ@4MA  100bea9c     AntiAim.obj
 0003:00062aa0       ?vec2_origin@@3VVector2D@@B 100beaa0     Legitbot.obj
 0003:00062fc0       ?bestEntTick@?1??OnCreateMove@Legitbot@@QAEXXZ@4PAHA 100befc0     Legitbot.obj
 0003:000630c8       ?StoredSimTime@?9??OnCreateMove@Legitbot@@QAEXXZ@4PAMA 100bf0c8     Legitbot.obj
 0003:000631d0       ?vec2_origin@@3VVector2D@@B 100bf1d0     Resolver.obj
 0003:00063448       ?oldSimtime@?1??AnimationFix@Resolver@@AAEXPAVC_BaseEntity@@@Z@4PAMA 100bf448     Resolver.obj
 0003:00063550       ?storedSimtime@?1??AnimationFix@Resolver@@AAEXPAVC_BaseEntity@@@Z@4PAMA 100bf550     Resolver.obj
 0003:00063658       ?ShotTime@?1??AnimationFix@Resolver@@AAEXPAVC_BaseEntity@@@Z@4PAMA 100bf658     Resolver.obj
 0003:00063760       ?SideTime@?1??AnimationFix@Resolver@@AAEXPAVC_BaseEntity@@@Z@4PAY02MA 100bf760     Resolver.obj
 0003:00063a70       ?LastDesyncSide@?1??AnimationFix@Resolver@@AAEXPAVC_BaseEntity@@@Z@4PAHA 100bfa70     Resolver.obj
 0003:00063b78       ?Delaying@?1??AnimationFix@Resolver@@AAEXPAVC_BaseEntity@@@Z@4PA_NA 100bfb78     Resolver.obj
 0003:00063bc0       ?StoredLayers@?1??AnimationFix@Resolver@@AAEXPAVC_BaseEntity@@@Z@4PAY0P@VAnimationLayer@@A 100bfbc0     Resolver.obj
 0003:00070dc0       ?StoredAnimState@?1??AnimationFix@Resolver@@AAEXPAVC_BaseEntity@@@Z@4PAPAVC_AnimState@@A 100ccdc0     Resolver.obj
 0003:00070ec8       ?StoredPosParams@?1??AnimationFix@Resolver@@AAEXPAVC_BaseEntity@@@Z@4PAY0BI@MA 100ccec8     Resolver.obj
 0003:00072728       ?oldEyeAngles@?1??AnimationFix@Resolver@@AAEXPAVC_BaseEntity@@@Z@4PAVVector@@A 100ce728     Resolver.obj
 0003:00072a34       ?$TSS0@?1??AnimationFix@Resolver@@AAEXPAVC_BaseEntity@@@Z@4HA 100cea34     Resolver.obj
 0003:00072a38       ?oldGoalfeetYaw@?1??AnimationFix@Resolver@@AAEXPAVC_BaseEntity@@@Z@4PAMA 100cea38     Resolver.obj
 0003:00072b40       ?jittering@?1??AnimationFix@Resolver@@AAEXPAVC_BaseEntity@@@Z@4PA_NA 100ceb40     Resolver.obj
 0003:00072b88       ?predTime@?1??HandleHits@@YAXPAVC_BaseEntity@@@Z@4PAMA 100ceb88     Resolver.obj
 0003:00072c90       ?init@?1??HandleHits@@YAXPAVC_BaseEntity@@@Z@4PA_NA 100cec90     Resolver.obj
 0003:00072cd8       ?wasDormant@?1??FrameStage@Resolver@@QAEXW4ClientFrameStage_t@@@Z@4PA_NA 100cecd8     Resolver.obj
 0003:00072d70       ?vec2_origin@@3VVector2D@@B 100ced70     c_esp.obj
 0003:00072d88       ?g_hWnd@@3PAUHWND__@@A     100ced88     imgui_impl_dx9.obj
 0003:00072d8c       ?g_pd3dDevice@@3PAUIDirect3DDevice9@@A 100ced8c     imgui_impl_dx9.obj
 0003:00072d90       ?g_Time@@3_JA              100ced90     imgui_impl_dx9.obj
 0003:00072d98       ?g_TicksPerSecond@@3_JA    100ced98     imgui_impl_dx9.obj
 0003:00072da0       ?g_pVB@@3PAUIDirect3DVertexBuffer9@@A 100ceda0     imgui_impl_dx9.obj
 0003:00072da4       ?g_pIB@@3PAUIDirect3DIndexBuffer9@@A 100ceda4     imgui_impl_dx9.obj
 0003:00072da8       ?g_FontTexture@@3PAUIDirect3DTexture9@@A 100ceda8     imgui_impl_dx9.obj
 0003:00072db8       ?GImDefaultFontAtlas@@3UImFontAtlas@@A 100cedb8     imgui.obj
 0003:00072e00       ?GImDefaultContext@@3UImGuiContext@@A 100cee00     imgui.obj
 0003:000763c0       ?crc32_lut@?1??ImHash@@YAIPBXHI@Z@4PAIA 100d23c0     imgui.obj
 0003:000767c0       ?buf_local@?1??GetClipboardTextFn_DefaultImpl@@YAPBDPAX@Z@4V?$ImVector@D@@A 100d27c0     imgui.obj
 0003:000767cc       ?$TSS0@?1??GetClipboardTextFn_DefaultImpl@@YAPBDPAX@Z@4HA 100d27cc     imgui.obj
 0003:000767d0       ?GNullClipRect@@3UImVec4@@B 100d27d0     imgui_draw.obj
 0003:000767e0       ?stb__barrier@@3PAEA       100d27e0     imgui_draw.obj
 0003:000767e4       ?stb__barrier2@@3PAEA      100d27e4     imgui_draw.obj
 0003:000767e8       ?stb__barrier3@@3PAEA      100d27e8     imgui_draw.obj
 0003:000767ec       ?stb__barrier4@@3PAEA      100d27ec     imgui_draw.obj
 0003:000767f0       ?stb__dout@@3PAEA          100d27f0     imgui_draw.obj
 0003:000767f8       ?circle_vtx@?1??PathArcToFast@ImDrawList@@QAEXABUImVec2@@MHH@Z@4PAU3@A 100d27f8     imgui_draw.obj
 0003:00076858       ?$TSS0@?1??PathArcToFast@ImDrawList@@QAEXABUImVec2@@MHH@Z@4HA 100d2858     imgui_draw.obj
 0003:0007685c       ?circle_vtx_builds@?1??PathArcToFast@ImDrawList@@QAEXABUImVec2@@MHH@Z@4_NA 100d285c     imgui_draw.obj
 0003:00076860       ?vec2_origin@@3VVector2D@@B 100d2860     bone_processing_hook.obj
 0003:00076868       ?vec2_origin@@3VVector2D@@B 100d2868     createmove_hook.obj
 0003:00076874       ?oCreateMove@?1??CreateMove@c_hooks@@SI_NPAVIClientMode@@PAXMPAVCUserCmd@@@Z@4P6I_N01M2@ZA 100d2874     createmove_hook.obj
 0003:00076878       ?$TSS0@?1??CreateMove@c_hooks@@SI_NPAVIClientMode@@PAXMPAVCUserCmd@@@Z@4HA 100d2878     createmove_hook.obj
 0003:0007688c       ?vec2_origin@@3VVector2D@@B 100d288c     directx_preset_hook.obj
 0003:00076894       ?initialized@@3_NA         100d2894     directx_preset_hook.obj
 0003:00076898       ?oEndScene@?1??Hooked_EndScene@c_hooks@@SGXPAUIDirect3DDevice9@@@Z@4P6GX0@ZA 100d2898     directx_preset_hook.obj
 0003:0007689c       ?$TSS0@?1??Hooked_EndScene@c_hooks@@SGXPAUIDirect3DDevice9@@@Z@4HA 100d289c     directx_preset_hook.obj
 0003:000768a0       ?oEndSceneReset@?1??Hooked_EndScene_Reset@c_hooks@@SGXPAUIDirect3DDevice9@@PAU_D3DPRESENT_PARAMETERS_@@@Z@4P6GX01@ZA 100d28a0     directx_preset_hook.obj
 0003:000768a4       ?$TSS0@?1??Hooked_EndScene_Reset@c_hooks@@SGXPAUIDirect3DDevice9@@PAU_D3DPRESENT_PARAMETERS_@@@Z@4HA 100d28a4     directx_preset_hook.obj
 0003:000768a8       ?vec2_origin@@3VVector2D@@B 100d28a8     dme_hook.obj
 0003:000768b0       ?oDrawModelExecute@?1??DrawModelExecute@c_hooks@@SIXPAX0PAVIMatRenderContext@@ABUDrawModelState_t@@ABUModelRenderInfo_t@@PAVmatrix3x4_t@@@Z@4P6EX01234@ZA 100d28b0     dme_hook.obj
 0003:000768b4       ?$TSS0@?1??DrawModelExecute@c_hooks@@SIXPAX0PAVIMatRenderContext@@ABUDrawModelState_t@@ABUModelRenderInfo_t@@PAVmatrix3x4_t@@@Z@4HA 100d28b4     dme_hook.obj
 0003:000768b8       ?vec2_origin@@3VVector2D@@B 100d28b8     event_hook.obj
 0003:000768c0       ?vec2_origin@@3VVector2D@@B 100d28c0     fsn_hook.obj
 0003:000768cc       ?oFrameStage@?1??FrameStageNotify@c_hooks@@SGXW4ClientFrameStage_t@@@Z@4P6GX0@ZA 100d28cc     fsn_hook.obj
 0003:000768d0       ?$TSS0@?1??FrameStageNotify@c_hooks@@SGXW4ClientFrameStage_t@@@Z@4HA 100d28d0     fsn_hook.obj
 0003:000768d8       ?vec2_origin@@3VVector2D@@B 100d28d8     hooking_init.obj
 0003:000768e0       ?vec2_origin@@3VVector2D@@B 100d28e0     lock_cursor_hook.obj
 0003:000768e8       ?oLockCursor@?1??LockCursor@c_hooks@@SIXPAVISurface@@PAX@Z@4P6IX01@ZA 100d28e8     lock_cursor_hook.obj
 0003:000768ec       ?$TSS0@?1??LockCursor@c_hooks@@SIXPAVISurface@@PAX@Z@4HA 100d28ec     lock_cursor_hook.obj
 0003:000768f0       ?vec2_origin@@3VVector2D@@B 100d28f0     oview_hook.obj
 0003:00076900       ?oOverrideView@?1??OverrideView@c_hooks@@SIXPAX0PAVCViewSetup@@@Z@4P6IX001@ZA 100d2900     oview_hook.obj
 0003:00076904       ?$TSS0@?1??OverrideView@c_hooks@@SIXPAX0PAVCViewSetup@@@Z@4HA 100d2904     oview_hook.obj
 0003:00076908       ?vec2_origin@@3VVector2D@@B 100d2908     painttraverse_hook.obj
 0003:00076914       ?oPaintTraverse@?1??PaintTraverse@c_hooks@@SIXPAXHI_N1@Z@4P6EX0I11@ZA 100d2914     painttraverse_hook.obj
 0003:00076918       ?$TSS0@?1??PaintTraverse@c_hooks@@SIXPAXHI_N1@Z@4HA 100d2918     painttraverse_hook.obj
 0003:0007691c       ?panelID@?1??PaintTraverse@c_hooks@@SIXPAXHI_N1@Z@4IA 100d291c     painttraverse_hook.obj
 0003:00076920       ?panelHudID@?1??PaintTraverse@c_hooks@@SIXPAXHI_N1@Z@4IA 100d2920     painttraverse_hook.obj
 0003:00076924       ?vec2_origin@@3VVector2D@@B 100d2924     sceneend_hook.obj
 0003:0007692c       ?oSceneEnd@?1??SceneEnd@c_hooks@@SIXPAX0@Z@4P6IX00@ZA 100d292c     sceneend_hook.obj
 0003:00076930       ?$TSS0@?1??SceneEnd@c_hooks@@SIXPAX0@Z@4HA 100d2930     sceneend_hook.obj
 0003:00076934       ?vec2_origin@@3VVector2D@@B 100d2934     wndproc_hook.obj
 0003:0007693c       ?pressed@?1??WndProc@c_hooks@@SGJPAUHWND__@@IIJ@Z@4_NA 100d293c     wndproc_hook.obj
 0003:000769e8       ?vec2_origin@@3VVector2D@@B 100d29e8     menu_system.obj
 0003:000769f1       ?w_printf@XorCompileTime@@3V<lambda>@@A 100d29f1     menu_system.obj
 0003:000769f2       ?w_printf_s@XorCompileTime@@3V<lambda>@@A 100d29f2     menu_system.obj
 0003:000769f3       ?w_sprintf_s@XorCompileTime@@3V<lambda>@@A 100d29f3     menu_system.obj
 0003:000769f4       ?w_sprintf@XorCompileTime@@3V<lambda>@@A 100d29f4     menu_system.obj
 0003:000769f8       ?page@?1??Render@c_menu@@QAEXXZ@4HA 100d29f8     menu_system.obj
 0003:000769fc       ?vec2_origin@@3VVector2D@@B 100d29fc     CEntity.obj
 0003:00076a04       ?AbsAngles@?1??SetAbsAngles@C_BaseEntity@@QAEXVVector@@@Z@4P6EXPAV2@ABV3@@ZA 100d2a04     CEntity.obj
 0003:00076a08       ?$TSS0@?1??SetAbsAngles@C_BaseEntity@@QAEXVVector@@@Z@4HA 100d2a08     CEntity.obj
 0003:00076a0c       ?AbsOrigin@?1??SetAbsOrigin@C_BaseEntity@@QAEXVVector@@@Z@4P6EXPAXABV3@@ZA 100d2a0c     CEntity.obj
 0003:00076a10       ?$TSS0@?1??SetAbsOrigin@C_BaseEntity@@QAEXVVector@@@Z@4HA 100d2a10     CEntity.obj
 0003:0007c128       ?vec2_origin@@3VVector2D@@B 100d8128     GlobalVars.obj
 0003:0007c494       ?vec2_origin@@3VVector2D@@B 100d8494     Interfaces.obj
 0003:0007c4a0       ?vec2_origin@@3VVector2D@@B 100d84a0     Math.obj
 0003:0007c4a8       ?random_float@?1??RandomFloat@Math@@QAEMMM@Z@4P6AMMM@ZA 100d84a8     Math.obj
 0003:0007c4ac       ?$TSS0@?1??RandomFloat@Math@@QAEMMM@Z@4HA 100d84ac     Math.obj
 0003:0007c4b4       ?_Fac_tidy_reg@std@@3U_Fac_tidy_reg_t@1@B 100d84b4     msvcprt:locale0_implib.obj
 0003:0007c4b8       ?_Fac_head@std@@3PAU_Fac_node@1@A 100d84b8     msvcprt:locale0_implib.obj
 0003:0007c4d4       ?is_initialized_as_dll@@3_NA 100d84d4     MSVCRT:utility.obj
 0003:0007c4d5       ?module_local_atexit_table_initialized@@3_NA 100d84d5     MSVCRT:utility.obj
 0003:0007c4d8       ?module_local_atexit_table@@3U_onexit_table_t@@A 100d84d8     MSVCRT:utility.obj
 0003:0007c4e4       ?module_local_at_quick_exit_table@@3U_onexit_table_t@@A 100d84e4     MSVCRT:utility.obj
 0003:0007c4f0       _GS_ExceptionRecord        100d84f0     MSVCRT:gs_report.obj
 0003:0007c540       _GS_ContextRecord          100d8540     MSVCRT:gs_report.obj
 0003:0007c80c       ?_Tss_mutex@@3U_RTL_CRITICAL_SECTION@@A 100d880c     MSVCRT:thread_safe_statics.obj
 0003:0007c824       ?_Tss_cv@@3U_RTL_CONDITION_VARIABLE@@A 100d8824     MSVCRT:thread_safe_statics.obj
 0003:0007c828       ?_Tss_event@@3PAXA         100d8828     MSVCRT:thread_safe_statics.obj
 0003:0007c82c       ?encoded_sleep_condition_variable_cs@@3P6GHPAU_RTL_CONDITION_VARIABLE@@PAU_RTL_CRITICAL_SECTION@@K@ZA 100d882c     MSVCRT:thread_safe_statics.obj
 0003:0007c830       ?encoded_wake_all_condition_variable@@3P6GXPAU_RTL_CONDITION_VARIABLE@@@ZA 100d8830     MSVCRT:thread_safe_statics.obj
 0003:0007c838       ?__proc_attached@@3HA      100d8838     MSVCRT:dll_dllmain.obj
 0004:00000060       $R000000                   100d9060     * linker generated manifest res *

 Exports

  ordinal    name

