 hvh

 Timestamp is 5eb52036 (Fri May  8 12:02:46 2020)

 Preferred load address is 10000000

 Start         Length     Name                   Class
 0001:00000000 00000790H .text$di                CODE
 0001:00000790 00063c40H .text$mn                CODE
 0001:000643d0 00001e90H .text$x                 CODE
 0001:00066260 00000099H .text$yd                CODE
 0002:00000000 00000360H .idata$5                DATA
 0002:00000360 00000004H .00cfg                  DATA
 0002:00000364 00000004H .CRT$XCA                DATA
 0002:00000368 00000004H .CRT$XCL                DATA
 0002:0000036c 000000c8H .CRT$XCU                DATA
 0002:00000434 00000004H .CRT$XCZ                DATA
 0002:00000438 00000004H .CRT$XIA                DATA
 0002:0000043c 00000004H .CRT$XIC                DATA
 0002:00000440 00000004H .CRT$XIZ                DATA
 0002:00000444 00000004H .CRT$XLA                DATA
 0002:00000448 00000004H .CRT$XLZ                DATA
 0002:0000044c 00000004H .CRT$XPA                DATA
 0002:00000450 00000004H .CRT$XPZ                DATA
 0002:00000454 00000004H .CRT$XTA                DATA
 0002:00000458 00000008H .CRT$XTZ                DATA
 0002:0000045c 00000000H .gfids$y                DATA
 0002:00000460 000096f8H .rdata                  DATA
 0002:00009b58 00000018H .rdata$T                DATA
 0002:00009b70 00000850H .rdata$r                DATA
 0002:0000a3c0 00000248H .rdata$sxdata           DATA
 0002:0000a608 00000390H .rdata$zzzdbg           DATA
 0002:0000a998 00000004H .rtc$IAA                DATA
 0002:0000a99c 00000004H .rtc$IZZ                DATA
 0002:0000a9a0 00000004H .rtc$TAA                DATA
 0002:0000a9a4 00000004H .rtc$TZZ                DATA
 0002:0000a9a8 00000004H .tls                    DATA
 0002:0000a9ac 00000004H .tls$                   DATA
 0002:0000a9b0 00000008H .tls$ZZZ                DATA
 0002:0000a9b8 00001e78H .xdata$x                DATA
 0002:0000c830 00000000H .edata                  DATA
 0002:0000c830 00000140H .idata$2                DATA
 0002:0000c970 00000014H .idata$3                DATA
 0002:0000c984 00000360H .idata$4                DATA
 0002:0000cce4 00001912H .idata$6                DATA
 0003:00000000 00000078H .data                   DATA
 0003:00000078 00000488H .data$r                 DATA
 0003:00000500 0007c634H .bss                    DATA
 0004:00000000 00000060H .rsrc$01                DATA
 0004:00000060 00000180H .rsrc$02                DATA

  Address         Publics by Value              Rva+Base       Lib:Object

 0000:00000000       ___guard_fids_table        00000000     <absolute>
 0000:00000000       ___guard_iat_table         00000000     <absolute>
 0000:00000000       ___hybrid_code_map_count   00000000     <absolute>
 0000:00000000       ___guard_longjmp_table     00000000     <absolute>
 0000:00000000       ___guard_fids_count        00000000     <absolute>
 0000:00000000       ___hybrid_auxiliary_iat    00000000     <absolute>
 0000:00000000       ___enclave_config          00000000     <absolute>
 0000:00000000       ___volatile_metadata       00000000     <absolute>
 0000:00000000       ___guard_iat_count         00000000     <absolute>
 0000:00000000       ___dynamic_value_reloc_table 00000000     <absolute>
 0000:00000000       ___guard_longjmp_count     00000000     <absolute>
 0000:00000000       ___hybrid_code_map         00000000     <absolute>
 0000:0000002c       __tls_array                0000002c     <absolute>
 0000:00000092       ___safe_se_handler_count   00000092     <absolute>
 0000:00000100       ___guard_flags             00000100     <absolute>
 0000:00000000       ___ImageBase               10000000     <linker-defined>
 0001:00000790       ??$GetVFunc@P6EPAVIMaterial@@PAXG@Z@Utils@@SAP6EPAVIMaterial@@PAXG@Z0I@Z 10001790 f i other_esp.obj
 0001:00000790       ??$GetVFunc@P6EXPAXK@Z@Utils@@SAP6EXPAXK@Z0I@Z 10001790 f i other_esp.obj
 0001:00000790       ??$GetVFunc@P6EXPAXPAVIMaterial@@W4OverrideType_t@@H@Z@Utils@@SAP6EXPAXPAVIMaterial@@W4OverrideType_t@@H@Z0I@Z 10001790 f i dme_hook.obj
 0001:00000790       ??$GetVFunc@P6EXPAXH@Z@Utils@@SAP6EXPAXH@Z0I@Z 10001790 f i other_esp.obj
 0001:00000790       ??$GetVFunc@P6EGPAX@Z@Utils@@SAP6EGPAX@Z0I@Z 10001790 f i other_esp.obj
 0001:00000790       ??$GetVFunc@P6EXPAXKPBDHHHHHHH@Z@Utils@@SAP6EXPAXKPBDHHHHHHH@Z0I@Z 10001790 f i hooking_init.obj
 0001:00000790       ??$GetVFunc@P6EPBDPAVIPanel@@I@Z@Utils@@SAP6EPBDPAVIPanel@@I@ZPAXI@Z 10001790 f i painttraverse_hook.obj
 0001:00000790       ??$GetVFunc@P6EAAVVector@@PAX@Z@Utils@@SAP6EAAVVector@@PAX@Z0I@Z 10001790 f i CEntity.obj
 0001:00000790       ??$GetVFunc@P6EMPAX@Z@Utils@@SAP6EMPAX@Z0I@Z 10001790 f i c_ragebot.obj
 0001:00000790       ??$DUMBNIGGERSLOL@P6EPAVNetChannel@@PAX@Z@IVEngineClient@@SAP6EPAVNetChannel@@PAX@Z0I@Z 10001790 f i Resolver.obj
 0001:00000790       ??$GetVFunc@P6EXPAXPB_WHH@Z@Utils@@SAP6EXPAXPB_WHH@Z0I@Z 10001790 f i other_esp.obj
 0001:00000790       ??$GetVFunc@P6EXPAX@Z@Utils@@SAP6EXPAX@Z0I@Z 10001790 f i EnginePrediction.obj
 0001:00000790       ??$GetVFunc@P6EXPAXAAVVector@@@Z@Utils@@SAP6EXPAXAAVVector@@@Z0I@Z 10001790 f i c_ragebot.obj
 0001:00000790       ??$GetVFunc@P6EIPAX@Z@Utils@@SAP6EIPAX@Z0I@Z 10001790 f i hooking_init.obj
 0001:00000790       ??$GetVFunc@P6EXPAXHH@Z@Utils@@SAP6EXPAXHH@Z0I@Z 10001790 f i other_esp.obj
 0001:00000790       ??$GetVFunc@P6EGPAXG@Z@Utils@@SAP6EGPAXG@Z0I@Z 10001790 f i other_esp.obj
 0001:00000790       ??$GetVFunc@P6EXPAXKPB_WAAH2@Z@Utils@@SAP6EXPAXKPB_WAAH2@Z0I@Z 10001790 f i other_esp.obj
 0001:00000790       ??$GetVFunc@P6EPAVIMaterial@@PAXPBD1_N1@Z@Utils@@SAP6EPAVIMaterial@@PAXPBD1_N1@Z0I@Z 10001790 f i dme_hook.obj
 0001:00000790       ??$GetVFunc@P6EXPAXHHHH@Z@Utils@@SAP6EXPAXHHHH@Z0I@Z 10001790 f i other_esp.obj
 0001:000007a0       ??$vsprintf_s@$0IAA@@@YAHAAY0IAA@DPBDPAD@Z 100017a0 f i other_esp.obj
 0001:000007c0       ??0Color@@QAE@HHHH@Z       100017c0 f i other_esp.obj
 0001:00000800       ??0ImVec2@@QAE@MM@Z        10001800 f i imgui_impl_dx9.obj
 0001:00000800       ??0Vector2D@@QAE@MM@Z      10001800 f i other_esp.obj
 0001:00000830       ??_H@YGXPAXIIP6EPAX0@Z@Z   10001830 f i other_esp.obj
 0001:00000870       ?DrawFilledRect@ISurface@@QAEXHHHH@Z 10001870 f i other_esp.obj
 0001:000008b0       ?DrawPrintText@ISurface@@QAEXPB_WH@Z 100018b0 f i other_esp.obj
 0001:000008e0       ?DrawSetColor@ISurface@@QAEXHHHH@Z 100018e0 f i other_esp.obj
 0001:00000920       ?DrawSetTextColor@ISurface@@QAEXHHHH@Z 10001920 f i other_esp.obj
 0001:00000960       ?DrawSetTextFont@ISurface@@QAEXK@Z 10001960 f i other_esp.obj
 0001:00000990       ?DrawSetTextPos@ISurface@@QAEXHH@Z 10001990 f i other_esp.obj
 0001:000009c0       ?DrawT@ISurface@@QAAXHHUColor@@H_NPBDZZ 100019c0 f i other_esp.obj
 0001:00000bd0       ?FilledRect@ISurface@@QAEXHHHHUColor@@@Z 10001bd0 f i other_esp.obj
 0001:00000c20       ?FirstMaterial@IMaterialSystem@@QAEGXZ 10001c20 f i other_esp.obj
 0001:00000c50       ?GetMaterial@IMaterialSystem@@QAEPAVIMaterial@@G@Z 10001c50 f i other_esp.obj
 0001:00000c80       ?GetTextSize@ISurface@@QAEXKPB_WAAH1@Z 10001c80 f i other_esp.obj
 0001:00000cc0       ?GradientH@@YAXHHHHUColor@@0@Z 10001cc0 f   other_esp.obj
 0001:00000df0       ?InvalidMaterial@IMaterialSystem@@QAEGXZ 10001df0 f i other_esp.obj
 0001:00000e20       ?NextMaterial@IMaterialSystem@@QAEGG@Z 10001e20 f i other_esp.obj
 0001:00000e50       ?SetValue@ConVar@@QAEXH@Z  10001e50 f i other_esp.obj
 0001:00000e80       ?night_mode@other_esp@@QAEXXZ 10001e80 f   other_esp.obj
 0001:00001100       ?watermak@other_esp@@QAEXXZ 10002100 f   other_esp.obj
 0001:00001500       ___local_stdio_printf_options 10002500 f i other_esp.obj
 0001:00001510       __vsprintf_s_l             10002510 f i other_esp.obj
 0001:00001560       _vsprintf_s                10002560 f i other_esp.obj
 0001:00001580       _wmemcpy                   10002580 f i other_esp.obj
 0001:000015a0       ??$?0$$V@?$_Compressed_pair@V?$allocator@_W@std@@V?$_String_val@U?$_Simple_types@_W@std@@@2@$00@std@@QAE@U_Zero_then_variadic_args_t@1@@Z 100025a0 f i config_system.obj
 0001:000015a0       ??$?0$$V@?$_Compressed_pair@V?$allocator@D@std@@V?$_String_val@U?$_Simple_types@D@std@@@2@$00@std@@QAE@U_Zero_then_variadic_args_t@1@@Z 100025a0 f i c_hooks.obj
 0001:000015c0       ??$?0AAPAVVMTHook@@@?$_Compressed_pair@U?$default_delete@VVMTHook@@@std@@PAVVMTHook@@$00@std@@QAE@U_Zero_then_variadic_args_t@1@AAPAVVMTHook@@@Z 100025c0 f i c_hooks.obj
 0001:000015c0       ??$?0AAPAVNetvarTree@@@?$_Compressed_pair@U?$default_delete@VNetvarTree@@@std@@PAVNetvarTree@@$00@std@@QAE@U_Zero_then_variadic_args_t@1@AAPAVNetvarTree@@@Z 100025c0 f i c_hooks.obj
 0001:000015c0       ??$?0AAPAV_Facet_base@std@@@?$_Compressed_pair@U?$default_delete@V_Facet_base@std@@@std@@PAV_Facet_base@2@$00@std@@QAE@U_Zero_then_variadic_args_t@1@AAPAV_Facet_base@1@@Z 100025c0 f i config_system.obj
 0001:000015c0       ??$?0AAPAVShadowVTManager@@@?$_Compressed_pair@U?$default_delete@VShadowVTManager@@@std@@PAVShadowVTManager@@$00@std@@QAE@U_Zero_then_variadic_args_t@1@AAPAVShadowVTManager@@@Z 100025c0 f i c_hooks.obj
 0001:000015c0       ??$?0AAPAI@?$_Compressed_pair@U?$default_delete@$$BY0A@I@std@@PAI$00@std@@QAE@U_Zero_then_variadic_args_t@1@AAPAI@Z 100025c0 f i c_hooks.obj
 0001:000015f0       ??$?0PAVShadowVTManager@@@?$_Unique_ptr_base@VShadowVTManager@@U?$default_delete@VShadowVTManager@@@std@@@std@@QAE@PAVShadowVTManager@@@Z 100025f0 f i c_hooks.obj
 0001:000015f0       ??$?0PAI@?$_Unique_ptr_base@IU?$default_delete@$$BY0A@I@std@@@std@@QAE@PAI@Z 100025f0 f i c_hooks.obj
 0001:000015f0       ??$?0PAVVMTHook@@@?$_Unique_ptr_base@VVMTHook@@U?$default_delete@VVMTHook@@@std@@@std@@QAE@PAVVMTHook@@@Z 100025f0 f i c_hooks.obj
 0001:000015f0       ??$?0PAV_Facet_base@std@@@?$_Unique_ptr_base@V_Facet_base@std@@U?$default_delete@V_Facet_base@std@@@2@@std@@QAE@PAV_Facet_base@1@@Z 100025f0 f i config_system.obj
 0001:000015f0       ??$?0PAVNetvarTree@@@?$_Unique_ptr_base@VNetvarTree@@U?$default_delete@VNetvarTree@@@std@@@std@@QAE@PAVNetvarTree@@@Z 100025f0 f i c_hooks.obj
 0001:00001620       ??$?0U?$default_delete@V_Facet_base@std@@@std@@$0A@@?$unique_ptr@V_Facet_base@std@@U?$default_delete@V_Facet_base@std@@@2@@std@@QAE@PAV_Facet_base@1@@Z 10002620 f i config_system.obj
 0001:00001620       ??$?0U?$default_delete@VVMTHook@@@std@@$0A@@?$unique_ptr@VVMTHook@@U?$default_delete@VVMTHook@@@std@@@std@@QAE@PAVVMTHook@@@Z 10002620 f i c_hooks.obj
 0001:00001620       ??$?0U?$default_delete@VNetvarTree@@@std@@$0A@@?$unique_ptr@VNetvarTree@@U?$default_delete@VNetvarTree@@@std@@@std@@QAE@PAVNetvarTree@@@Z 10002620 f i c_hooks.obj
 0001:00001620       ??$?0PAIU?$default_delete@$$BY0A@I@std@@$0A@X@?$unique_ptr@$$BY0A@IU?$default_delete@$$BY0A@I@std@@@std@@QAE@PAI@Z 10002620 f i c_hooks.obj
 0001:00001670       ??$?0U?$default_delete@$$BY0A@I@std@@$0A@@?$unique_ptr@$$BY0A@IU?$default_delete@$$BY0A@I@std@@@std@@QAE@$$T@Z 10002670 f i c_hooks.obj
 0001:000016c0       ??$?0U?$default_delete@VShadowVTManager@@@std@@$0A@@?$unique_ptr@VShadowVTManager@@U?$default_delete@VShadowVTManager@@@std@@@std@@QAE@XZ 100026c0 f i c_hooks.obj
 0001:000016c0       ??$?0U?$default_delete@VVMTHook@@@std@@$0A@@?$unique_ptr@VVMTHook@@U?$default_delete@VVMTHook@@@std@@@std@@QAE@XZ 100026c0 f i c_hooks.obj
 0001:000016c0       ??$?0U?$default_delete@VNetvarTree@@@std@@$0A@@?$unique_ptr@VNetvarTree@@U?$default_delete@VNetvarTree@@@std@@@std@@QAE@XZ 100026c0 f i NetvarManager.obj
 0001:00001710       ??$?RI$0A@@?$default_delete@$$BY0A@I@std@@QBEXPAI@Z 10002710 f i c_hooks.obj
 0001:00001740       ??$_Allocate@$07U_Default_allocate_traits@std@@$0A@@std@@YAPAXI@Z 10002740 f i c_hooks.obj
 0001:00001780       ??$_Allocate_manually_vector_aligned@U_Default_allocate_traits@std@@@std@@YAPAXI@Z 10002780 f i c_hooks.obj
 0001:000017f0       ??$forward@PBD@std@@YA$$QAPBDAAPBD@Z 100027f0 f i NetvarManager.obj
 0001:000017f0       ??$forward@V?$_List_iterator@V?$_List_val@U?$_List_simple_types@U?$pair@$$CBV?$basic_string@DU?$char_traits@D@std@@V?$allocator@D@2@@std@@V?$shared_ptr@UNode@NetvarTree@@@2@@std@@@std@@@std@@@std@@@std@@YA$$QAV?$_List_iterator@V?$_List_val@U?$_List_simple_types@U?$pair@$$CBV?$basic_string@DU?$char_traits@D@std@@V?$allocator@D@2@@std@@V?$shared_ptr@UNode@NetvarTree@@@2@@std@@@std@@@std@@@0@AAV10@@Z 100027f0 f i c_ragebot.obj
 0001:000017f0       ??$_Get_unwrapped_unverified@_W@std@@YAPA_WQA_W@Z 100027f0 f i config_system.obj
 0001:000017f0       ??$move@AAVpath@filesystem@std@@@std@@YA$$QAVpath@filesystem@0@AAV120@@Z 100027f0 f i config_system.obj
 0001:000017f0       ??$addressof@V?$basic_string@_WU?$char_traits@_W@std@@V?$allocator@_W@2@@std@@@std@@YAPAV?$basic_string@_WU?$char_traits@_W@std@@V?$allocator@_W@2@@0@AAV10@@Z 100027f0 f i config_system.obj
 0001:000017f0       ??$forward@ABV?$allocator@D@std@@@std@@YAABV?$allocator@D@0@ABV10@@Z 100027f0 f i c_esp.obj
 0001:000017f0       ??$_Get_unwrapped_n@PAUPlayerRecords@@H$0A@@std@@YAPAPAUPlayerRecords@@QAPAU1@H@Z 100027f0 f i LagComp.obj
 0001:000017f0       ??$_Refancy@PAD$0A@@std@@YAPADPAD@Z 100027f0 f i c_esp.obj
 0001:000017f0       ??$addressof@PAULegitPlayerRecords@@@std@@YAPAPAULegitPlayerRecords@@AAPAU1@@Z 100027f0 f i Legitbot.obj
 0001:000017f0       ??$forward@V?$tuple@$$QAV?$basic_string@DU?$char_traits@D@std@@V?$allocator@D@2@@std@@@std@@@std@@YA$$QAV?$tuple@$$QAV?$basic_string@DU?$char_traits@D@std@@V?$allocator@D@2@@std@@@0@AAV10@@Z 100027f0 f i c_ragebot.obj
 0001:000017f0       ??$_Convert_size@I@std@@YAII@Z 100027f0 f i c_hooks.obj
 0001:000017f0       ??$forward@PAPAK@std@@YA$$QAPAPAKAAPAPAK@Z 100027f0 f i c_hooks.obj
 0001:000017f0       ??$forward@AAV?$_List_iterator@V?$_List_val@U?$_List_simple_types@U?$pair@$$CBV?$basic_string@DU?$char_traits@D@std@@V?$allocator@D@2@@std@@V?$shared_ptr@UNode@NetvarTree@@@2@@std@@@std@@@std@@@std@@@std@@YAAAV?$_List_iterator@V?$_List_val@U?$_List_simple_types@U?$pair@$$CBV?$basic_string@DU?$char_traits@D@std@@V?$allocator@D@2@@std@@V?$shared_ptr@UNode@NetvarTree@@@2@@std@@@std@@@std@@@0@AAV10@@Z 100027f0 f i c_ragebot.obj
 0001:000017f0       ??$addressof@V?$_Deque_val@U?$_Deque_simple_types@UPlayerRecords@@@std@@@std@@@std@@YAPAV?$_Deque_val@U?$_Deque_simple_types@UPlayerRecords@@@std@@@0@AAV10@@Z 100027f0 f i c_ragebot.obj
 0001:000017f0       ??$forward@ABV?$allocator@U?$pair@$$CBV?$basic_string@DU?$char_traits@D@std@@V?$allocator@D@2@@std@@V?$shared_ptr@UNode@NetvarTree@@@2@@std@@@std@@@std@@YAABV?$allocator@U?$pair@$$CBV?$basic_string@DU?$char_traits@D@std@@V?$allocator@D@2@@std@@V?$shared_ptr@UNode@NetvarTree@@@2@@std@@@0@ABV10@@Z 100027f0 f i NetvarManager.obj
 0001:000017f0       ??$addressof@V?$_Vector_val@U?$_Simple_types@V?$basic_string@DU?$char_traits@D@std@@V?$allocator@D@2@@std@@@std@@@std@@@std@@YAPAV?$_Vector_val@U?$_Simple_types@V?$basic_string@DU?$char_traits@D@std@@V?$allocator@D@2@@std@@@std@@@0@AAV10@@Z 100027f0 f i config_system.obj
 0001:000017f0       ??$move@AAULegitPlayerRecords@@@std@@YA$$QAULegitPlayerRecords@@AAU1@@Z 100027f0 f i Legitbot.obj
 0001:000017f0       ??$forward@U?$default_delete@VVMTHook@@@std@@@std@@YA$$QAU?$default_delete@VVMTHook@@@0@AAU10@@Z 100027f0 f i c_hooks.obj
 0001:000017f0       ??$move@AAV?$basic_ofstream@DU?$char_traits@D@std@@@std@@@std@@YA$$QAV?$basic_ofstream@DU?$char_traits@D@std@@@0@AAV10@@Z 100027f0 f i Interfaces.obj
 0001:000017f0       ??$forward@ABV?$_List_unchecked_iterator@V?$_List_val@U?$_List_simple_types@U?$pair@$$CBV?$basic_string@DU?$char_traits@D@std@@V?$allocator@D@2@@std@@V?$shared_ptr@UNode@NetvarTree@@@2@@std@@@std@@@std@@@std@@@std@@YAABV?$_List_unchecked_iterator@V?$_List_val@U?$_List_simple_types@U?$pair@$$CBV?$basic_string@DU?$char_traits@D@std@@V?$allocator@D@2@@std@@V?$shared_ptr@UNode@NetvarTree@@@2@@std@@@std@@@std@@@0@ABV10@@Z 100027f0 f i c_ragebot.obj
 0001:000017f0       ??$forward@AAU?$pair@$$CBV?$basic_string@DU?$char_traits@D@std@@V?$allocator@D@2@@std@@V?$shared_ptr@UNode@NetvarTree@@@2@@std@@@std@@YAAAU?$pair@$$CBV?$basic_string@DU?$char_traits@D@std@@V?$allocator@D@2@@std@@V?$shared_ptr@UNode@NetvarTree@@@2@@0@AAU10@@Z 100027f0 f i c_ragebot.obj
 0001:000017f0       ??$forward@M@std@@YA$$QAMAAM@Z 100027f0 f i NetvarManager.obj
 0001:000017f0       ??$addressof@V?$vector@V?$basic_string@DU?$char_traits@D@std@@V?$allocator@D@2@@std@@V?$allocator@V?$basic_string@DU?$char_traits@D@std@@V?$allocator@D@2@@std@@@2@@std@@@std@@YAPAV?$vector@V?$basic_string@DU?$char_traits@D@std@@V?$allocator@D@2@@std@@V?$allocator@V?$basic_string@DU?$char_traits@D@std@@V?$allocator@D@2@@std@@@2@@0@AAV10@@Z 100027f0 f i config_system.obj
 0001:000017f0       ??$move@AAV?$tuple@$$QAV?$basic_string@DU?$char_traits@D@std@@V?$allocator@D@2@@std@@@std@@@std@@YA$$QAV?$tuple@$$QAV?$basic_string@DU?$char_traits@D@std@@V?$allocator@D@2@@std@@@0@AAV10@@Z 100027f0 f i c_ragebot.obj
 0001:000017f0       ??$_Get_unwrapped@V?$basic_string@DU?$char_traits@D@std@@V?$allocator@D@2@@std@@@std@@YAPAV?$basic_string@DU?$char_traits@D@std@@V?$allocator@D@2@@0@QAV10@@Z 100027f0 f i config_system.obj
 0001:000017f0       ??$addressof@PAU?$_List_node@U?$pair@$$CBV?$basic_string@DU?$char_traits@D@std@@V?$allocator@D@2@@std@@V?$shared_ptr@UNode@NetvarTree@@@2@@std@@PAX@std@@@std@@YAPAPAU?$_List_node@U?$pair@$$CBV?$basic_string@DU?$char_traits@D@std@@V?$allocator@D@2@@std@@V?$shared_ptr@UNode@NetvarTree@@@2@@std@@PAX@0@AAPAU10@@Z 100027f0 f i c_hooks.obj
 0001:000017f0       ??$_Get_unwrapped@Vdirectory_iterator@filesystem@std@@$0A@@std@@YAABVdirectory_iterator@filesystem@0@ABV120@@Z 100027f0 f i config_system.obj
 0001:000017f0       ??$forward@V?$_List_unchecked_iterator@V?$_List_val@U?$_List_simple_types@U?$pair@$$CBV?$basic_string@DU?$char_traits@D@std@@V?$allocator@D@2@@std@@V?$shared_ptr@UNode@NetvarTree@@@2@@std@@@std@@@std@@@std@@@std@@YA$$QAV?$_List_unchecked_iterator@V?$_List_val@U?$_List_simple_types@U?$pair@$$CBV?$basic_string@DU?$char_traits@D@std@@V?$allocator@D@2@@std@@V?$shared_ptr@UNode@NetvarTree@@@2@@std@@@std@@@std@@@0@AAV10@@Z 100027f0 f i c_ragebot.obj
 0001:000017f0       ??$addressof@V?$unique_ptr@VVMTHook@@U?$default_delete@VVMTHook@@@std@@@std@@@std@@YAPAV?$unique_ptr@VVMTHook@@U?$default_delete@VVMTHook@@@std@@@0@AAV10@@Z 100027f0 f i c_hooks.obj
 0001:000017f0       ??$_Get_unwrapped@PAULegitPlayerRecords@@@std@@YAPAPAULegitPlayerRecords@@QAPAU1@@Z 100027f0 f i Legitbot.obj
 0001:000017f0       ??$addressof@PAD@std@@YAPAPADAAPAD@Z 100027f0 f i c_hooks.obj
 0001:000017f0       ??$forward@ABV?$allocator@_W@std@@@std@@YAABV?$allocator@_W@0@ABV10@@Z 100027f0 f i config_system.obj
 0001:000017f0       ??$_Get_unwrapped@$$CB_W@std@@YAPB_WQB_W@Z 100027f0 f i config_system.obj
 0001:000017f0       ??$move@AAUPlayerRecords@@@std@@YA$$QAUPlayerRecords@@AAU1@@Z 100027f0 f i LagComp.obj
 0001:000017f0       ??$forward@AAU?$hash@V?$basic_string@DU?$char_traits@D@std@@V?$allocator@D@2@@std@@@std@@@std@@YAAAU?$hash@V?$basic_string@DU?$char_traits@D@std@@V?$allocator@D@2@@std@@@0@AAU10@@Z 100027f0 f i NetvarManager.obj
 0001:000017f0       ??$_Get_unwrapped@D@std@@YAPADQAD@Z 100027f0 f i c_esp.obj
 0001:000017f0       ??$forward@AAPAVShadowVTManager@@@std@@YAAAPAVShadowVTManager@@AAPAV1@@Z 100027f0 f i c_hooks.obj
 0001:000017f0       ??$_Kfn@$$CBV?$basic_string@DU?$char_traits@D@std@@V?$allocator@D@2@@std@@V?$shared_ptr@UNode@NetvarTree@@@2@@?$_Umap_traits@V?$basic_string@DU?$char_traits@D@std@@V?$allocator@D@2@@std@@V?$shared_ptr@UNode@NetvarTree@@@2@V?$_Uhash_compare@V?$basic_string@DU?$char_traits@D@std@@V?$allocator@D@2@@std@@U?$hash@V?$basic_string@DU?$char_traits@D@std@@V?$allocator@D@2@@std@@@2@U?$equal_to@V?$basic_string@DU?$char_traits@D@std@@V?$allocator@D@2@@std@@@2@@2@V?$allocator@U?$pair@$$CBV?$basic_string@DU?$char_traits@D@std@@V?$allocator@D@2@@std@@V?$shared_ptr@UNode@NetvarTree@@@2@@std@@@2@$0A@@std@@SAABV?$basic_string@DU?$char_traits@D@std@@V?$allocator@D@2@@1@ABU?$pair@$$CBV?$basic_string@DU?$char_traits@D@std@@V?$allocator@D@2@@std@@V?$shared_ptr@UNode@NetvarTree@@@2@@1@@Z 100027f0 f i c_ragebot.obj
 0001:000017f0       ??$_Unfancy@UPlayerRecords@@@std@@YAPAUPlayerRecords@@PAU1@@Z 100027f0 f i LagComp.obj
 0001:000017f0       ??$move@AAW4__std_fs_dir_handle@@@std@@YA$$QAW4__std_fs_dir_handle@@AAW41@@Z 100027f0 f i config_system.obj
 0001:000017f0       ??$forward@ABQAD@std@@YAABQADABQAD@Z 100027f0 f i c_hooks.obj
 0001:000017f0       ??$forward@AAPAVIPanel@@@std@@YAAAPAVIPanel@@AAPAV1@@Z 100027f0 f i c_hooks.obj
 0001:000017f0       ??$forward@AAPAVIVRenderView@@@std@@YAAAPAVIVRenderView@@AAPAV1@@Z 100027f0 f i c_hooks.obj
 0001:000017f0       ??$_Unfancy@V?$_List_unchecked_iterator@V?$_List_val@U?$_List_simple_types@U?$pair@$$CBV?$basic_string@DU?$char_traits@D@std@@V?$allocator@D@2@@std@@V?$shared_ptr@UNode@NetvarTree@@@2@@std@@@std@@@std@@@std@@@std@@YAPAV?$_List_unchecked_iterator@V?$_List_val@U?$_List_simple_types@U?$pair@$$CBV?$basic_string@DU?$char_traits@D@std@@V?$allocator@D@2@@std@@V?$shared_ptr@UNode@NetvarTree@@@2@@std@@@std@@@std@@@0@PAV10@@Z 100027f0 f i c_ragebot.obj
 0001:000017f0       ??$_Unfancy@_W@std@@YAPA_WPA_W@Z 100027f0 f i config_system.obj
 0001:000017f0       ??$move@AAU?$default_delete@$$BY0A@I@std@@@std@@YA$$QAU?$default_delete@$$BY0A@I@0@AAU10@@Z 100027f0 f i c_hooks.obj
 0001:000017f0       ??$_Get_unwrapped_n@V?$back_insert_iterator@V?$vector@V?$basic_string@DU?$char_traits@D@std@@V?$allocator@D@2@@std@@V?$allocator@V?$basic_string@DU?$char_traits@D@std@@V?$allocator@D@2@@std@@@2@@std@@@std@@U_Distance_unknown@2@$0A@@std@@YAABV?$back_insert_iterator@V?$vector@V?$basic_string@DU?$char_traits@D@std@@V?$allocator@D@2@@std@@V?$allocator@V?$basic_string@DU?$char_traits@D@std@@V?$allocator@D@2@@std@@@2@@std@@@0@ABV10@U_Distance_unknown@0@@Z 100027f0 f i config_system.obj
 0001:000017f0       ??$addressof@V?$basic_string@DU?$char_traits@D@std@@V?$allocator@D@2@@std@@@std@@YAPAV?$basic_string@DU?$char_traits@D@std@@V?$allocator@D@2@@0@AAV10@@Z 100027f0 f i imgui.obj
 0001:000017f0       ??$addressof@V?$unique_ptr@$$BY0A@IU?$default_delete@$$BY0A@I@std@@@std@@@std@@YAPAV?$unique_ptr@$$BY0A@IU?$default_delete@$$BY0A@I@std@@@0@AAV10@@Z 100027f0 f i c_hooks.obj
 0001:000017f0       ??$_Unfancy@V?$basic_string@DU?$char_traits@D@std@@V?$allocator@D@2@@std@@@std@@YAPAV?$basic_string@DU?$char_traits@D@std@@V?$allocator@D@2@@0@PAV10@@Z 100027f0 f i config_system.obj
 0001:000017f0       ??$forward@W4__std_fs_dir_handle@@@std@@YA$$QAW4__std_fs_dir_handle@@AAW41@@Z 100027f0 f i config_system.obj
 0001:000017f0       ??$forward@ABV?$allocator@V?$_List_unchecked_iterator@V?$_List_val@U?$_List_simple_types@U?$pair@$$CBV?$basic_string@DU?$char_traits@D@std@@V?$allocator@D@2@@std@@V?$shared_ptr@UNode@NetvarTree@@@2@@std@@@std@@@std@@@std@@@std@@@std@@YAABV?$allocator@V?$_List_unchecked_iterator@V?$_List_val@U?$_List_simple_types@U?$pair@$$CBV?$basic_string@DU?$char_traits@D@std@@V?$allocator@D@2@@std@@V?$shared_ptr@UNode@NetvarTree@@@2@@std@@@std@@@std@@@std@@@0@ABV10@@Z 100027f0 f i NetvarManager.obj
 0001:000017f0       ??$addressof@$$CBV?$_Deque_val@U?$_Deque_simple_types@UPlayerRecords@@@std@@@std@@@std@@YAPBV?$_Deque_val@U?$_Deque_simple_types@UPlayerRecords@@@std@@@0@ABV10@@Z 100027f0 f i LagComp.obj
 0001:000017f0       ??$addressof@$$CBV?$_Deque_val@U?$_Deque_simple_types@ULegitPlayerRecords@@@std@@@std@@@std@@YAPBV?$_Deque_val@U?$_Deque_simple_types@ULegitPlayerRecords@@@std@@@0@ABV10@@Z 100027f0 f i Legitbot.obj
 0001:000017f0       ??$forward@AAPAI@std@@YAAAPAIAAPAI@Z 100027f0 f i c_hooks.obj
 0001:000017f0       ??$forward@ABULegitPlayerRecords@@@std@@YAABULegitPlayerRecords@@ABU1@@Z 100027f0 f i Legitbot.obj
 0001:000017f0       ??$_Const_cast@$$CBV?$basic_string@DU?$char_traits@D@std@@V?$allocator@D@2@@std@@@std@@YAPAV?$basic_string@DU?$char_traits@D@std@@V?$allocator@D@2@@0@PBV10@@Z 100027f0 f i config_system.obj
 0001:000017f0       ??$_Unfancy@D@std@@YAPADPAD@Z 100027f0 f i c_hooks.obj
 0001:000017f0       ??$addressof@V?$_Deque_val@U?$_Deque_simple_types@ULegitPlayerRecords@@@std@@@std@@@std@@YAPAV?$_Deque_val@U?$_Deque_simple_types@ULegitPlayerRecords@@@std@@@0@AAV10@@Z 100027f0 f i Legitbot.obj
 0001:000017f0       ??$move@AAV?$basic_string@DU?$char_traits@D@std@@V?$allocator@D@2@@std@@@std@@YA$$QAV?$basic_string@DU?$char_traits@D@std@@V?$allocator@D@2@@0@AAV10@@Z 100027f0 f i c_ragebot.obj
 0001:000017f0       ??$forward@U_Creator@_Dir_enum_impl@filesystem@std@@@std@@YA$$QAU_Creator@_Dir_enum_impl@filesystem@0@AAU1230@@Z 100027f0 f i config_system.obj
 0001:000017f0       ??$_Unfancy@H@std@@YAPAHPAH@Z 100027f0 f i c_ragebot.obj
 0001:000017f0       ?select_on_container_copy_construction@?$_Default_allocator_traits@V?$allocator@D@std@@@std@@SA?AV?$allocator@D@2@ABV32@@Z 100027f0 f i c_esp.obj
 0001:000017f0       ?select_on_container_copy_construction@?$_Default_allocator_traits@V?$allocator@_W@std@@@std@@SA?AV?$allocator@_W@2@ABV32@@Z 100027f0 f i config_system.obj
 0001:000017f0       ??$_Const_cast@$$CBD@std@@YAPADPBD@Z 100027f0 f i c_esp.obj
 0001:000017f0       ??$move@AAV?$allocator@_W@std@@@std@@YA$$QAV?$allocator@_W@0@AAV10@@Z 100027f0 f i config_system.obj
 0001:000017f0       ??$forward@AAPAVVMTHook@@@std@@YAAAPAVVMTHook@@AAPAV1@@Z 100027f0 f i c_hooks.obj
 0001:000017f0       ??$move@AAPAV_Ref_count_base@std@@@std@@YA$$QAPAV_Ref_count_base@0@AAPAV10@@Z 100027f0 f i config_system.obj
 0001:000017f0       ??$_Get_unwrapped@PAUPlayerRecords@@@std@@YAPAPAUPlayerRecords@@QAPAU1@@Z 100027f0 f i LagComp.obj
 0001:000017f0       ??$move@AAPAU_Dir_enum_impl@filesystem@std@@@std@@YA$$QAPAU_Dir_enum_impl@filesystem@0@AAPAU120@@Z 100027f0 f i config_system.obj
 0001:000017f0       ??$forward@H@std@@YA$$QAHAAH@Z 100027f0 f i c_ragebot.obj
 0001:000017f0       ??$forward@AAU?$equal_to@V?$basic_string@DU?$char_traits@D@std@@V?$allocator@D@2@@std@@@std@@@std@@YAAAU?$equal_to@V?$basic_string@DU?$char_traits@D@std@@V?$allocator@D@2@@std@@@0@AAU10@@Z 100027f0 f i NetvarManager.obj
 0001:000017f0       ??$move@AAU_Find_file_handle@filesystem@std@@@std@@YA$$QAU_Find_file_handle@filesystem@0@AAU120@@Z 100027f0 f i config_system.obj
 0001:000017f0       ??$forward@AAPAVIBaseClientDLL@@@std@@YAAAPAVIBaseClientDLL@@AAPAV1@@Z 100027f0 f i c_hooks.obj
 0001:000017f0       ??$addressof@$$CBV?$codecvt@DDU_Mbstatet@@@std@@@std@@YAPBV?$codecvt@DDU_Mbstatet@@@0@ABV10@@Z 100027f0 f i config_system.obj
 0001:000017f0       ??$addressof@V?$_List_val@U?$_List_simple_types@U?$pair@$$CBV?$basic_string@DU?$char_traits@D@std@@V?$allocator@D@2@@std@@V?$shared_ptr@UNode@NetvarTree@@@2@@std@@@std@@@std@@@std@@YAPAV?$_List_val@U?$_List_simple_types@U?$pair@$$CBV?$basic_string@DU?$char_traits@D@std@@V?$allocator@D@2@@std@@V?$shared_ptr@UNode@NetvarTree@@@2@@std@@@std@@@0@AAV10@@Z 100027f0 f i c_ragebot.obj
 0001:000017f0       ??$move@AAU_Creator@_Dir_enum_impl@filesystem@std@@@std@@YA$$QAU_Creator@_Dir_enum_impl@filesystem@0@AAU1230@@Z 100027f0 f i config_system.obj
 0001:000017f0       ??$addressof@$$CBV?$basic_string@_WU?$char_traits@_W@std@@V?$allocator@_W@2@@std@@@std@@YAPBV?$basic_string@_WU?$char_traits@_W@std@@V?$allocator@_W@2@@0@ABV10@@Z 100027f0 f i config_system.obj
 0001:000017f0       ??$_Get_unwrapped@H@std@@YAPAHQAH@Z 100027f0 f i c_ragebot.obj
 0001:000017f0       ??$forward@AAPAVIClientMode@@@std@@YAAAPAVIClientMode@@AAPAV1@@Z 100027f0 f i c_hooks.obj
 0001:000017f0       ??$_Get_unwrapped_unverified@$$CBD@std@@YAPBDQBD@Z 100027f0 f i config_system.obj
 0001:000017f0       ??$forward@ABUPlayerRecords@@@std@@YAABUPlayerRecords@@ABU1@@Z 100027f0 f i LagComp.obj
 0001:000017f0       ??$forward@ABQA_W@std@@YAABQA_WABQA_W@Z 100027f0 f i config_system.obj
 0001:000017f0       ??$addressof@V?$unique_ptr@VNetvarTree@@U?$default_delete@VNetvarTree@@@std@@@std@@@std@@YAPAV?$unique_ptr@VNetvarTree@@U?$default_delete@VNetvarTree@@@std@@@0@AAV10@@Z 100027f0 f i c_hooks.obj
 0001:000017f0       ??$_Unfancy@ULegitPlayerRecords@@@std@@YAPAULegitPlayerRecords@@PAU1@@Z 100027f0 f i Legitbot.obj
 0001:000017f0       ??$forward@ABUpiecewise_construct_t@std@@@std@@YAABUpiecewise_construct_t@0@ABU10@@Z 100027f0 f i c_ragebot.obj
 0001:000017f0       ??$forward@V?$tuple@$$V@std@@@std@@YA$$QAV?$tuple@$$V@0@AAV10@@Z 100027f0 f i c_ragebot.obj
 0001:000017f0       ??$forward@AAPBD@std@@YAAAPBDAAPBD@Z 100027f0 f i config_system.obj
 0001:000017f0       ??$_Get_unwrapped_n@HH$0A@@std@@YAPAHQAHH@Z 100027f0 f i c_ragebot.obj
 0001:000017f0       ??$addressof@PAUPlayerRecords@@@std@@YAPAPAUPlayerRecords@@AAPAU1@@Z 100027f0 f i LagComp.obj
 0001:000017f0       ??$move@AAV?$_List_unchecked_iterator@V?$_List_val@U?$_List_simple_types@U?$pair@$$CBV?$basic_string@DU?$char_traits@D@std@@V?$allocator@D@2@@std@@V?$shared_ptr@UNode@NetvarTree@@@2@@std@@@std@@@std@@@std@@@std@@YA$$QAV?$_List_unchecked_iterator@V?$_List_val@U?$_List_simple_types@U?$pair@$$CBV?$basic_string@DU?$char_traits@D@std@@V?$allocator@D@2@@std@@V?$shared_ptr@UNode@NetvarTree@@@2@@std@@@std@@@std@@@0@AAV10@@Z 100027f0 f i c_ragebot.obj
 0001:000017f0       ??$addressof@PA_W@std@@YAPAPA_WAAPA_W@Z 100027f0 f i config_system.obj
 0001:000017f0       ??$forward@ABW4directory_options@filesystem@std@@@std@@YAABW4directory_options@filesystem@0@ABW4120@@Z 100027f0 f i config_system.obj
 0001:000017f0       ??$forward@U_Container_proxy@std@@@std@@YA$$QAU_Container_proxy@0@AAU10@@Z 100027f0 f i LagComp.obj
 0001:000017f0       ??$_Get_unwrapped@V?$_List_unchecked_iterator@V?$_List_val@U?$_List_simple_types@U?$pair@$$CBV?$basic_string@DU?$char_traits@D@std@@V?$allocator@D@2@@std@@V?$shared_ptr@UNode@NetvarTree@@@2@@std@@@std@@@std@@@std@@@std@@YAPAV?$_List_unchecked_iterator@V?$_List_val@U?$_List_simple_types@U?$pair@$$CBV?$basic_string@DU?$char_traits@D@std@@V?$allocator@D@2@@std@@V?$shared_ptr@UNode@NetvarTree@@@2@@std@@@std@@@std@@@0@QAV10@@Z 100027f0 f i c_ragebot.obj
 0001:000017f0       ??$forward@_N@std@@YA$$QA_NAA_N@Z 100027f0 f i c_ragebot.obj
 0001:000017f0       ??$move@AAV?$allocator@D@std@@@std@@YA$$QAV?$allocator@D@0@AAV10@@Z 100027f0 f i c_ragebot.obj
 0001:000017f0       ??$forward@U_One_then_variadic_args_t@std@@@std@@YA$$QAU_One_then_variadic_args_t@0@AAU10@@Z 100027f0 f i NetvarManager.obj
 0001:000017f0       ??$_Get_unwrapped_n@V?$_List_unchecked_iterator@V?$_List_val@U?$_List_simple_types@U?$pair@$$CBV?$basic_string@DU?$char_traits@D@std@@V?$allocator@D@2@@std@@V?$shared_ptr@UNode@NetvarTree@@@2@@std@@@std@@@std@@@std@@H$0A@@std@@YAPAV?$_List_unchecked_iterator@V?$_List_val@U?$_List_simple_types@U?$pair@$$CBV?$basic_string@DU?$char_traits@D@std@@V?$allocator@D@2@@std@@V?$shared_ptr@UNode@NetvarTree@@@2@@std@@@std@@@std@@@0@QAV10@H@Z 100027f0 f i c_ragebot.obj
 0001:000017f0       ??$_Get_unwrapped_n@V?$basic_string@DU?$char_traits@D@std@@V?$allocator@D@2@@std@@H$0A@@std@@YAPAV?$basic_string@DU?$char_traits@D@std@@V?$allocator@D@2@@0@QAV10@H@Z 100027f0 f i config_system.obj
 0001:000017f0       ??$forward@AAPAU?$_List_node@U?$pair@$$CBV?$basic_string@DU?$char_traits@D@std@@V?$allocator@D@2@@std@@V?$shared_ptr@UNode@NetvarTree@@@2@@std@@PAX@std@@@std@@YAAAPAU?$_List_node@U?$pair@$$CBV?$basic_string@DU?$char_traits@D@std@@V?$allocator@D@2@@std@@V?$shared_ptr@UNode@NetvarTree@@@2@@std@@PAX@0@AAPAU10@@Z 100027f0 f i c_ragebot.obj
 0001:000017f0       ??$_Unfancy@U_Container_proxy@std@@@std@@YAPAU_Container_proxy@0@PAU10@@Z 100027f0 f i LagComp.obj
 0001:000017f0       ??$move@AAV?$shared_ptr@UNode@NetvarTree@@@std@@@std@@YA$$QAV?$shared_ptr@UNode@NetvarTree@@@0@AAV10@@Z 100027f0 f i NetvarManager.obj
 0001:000017f0       ??$forward@AAPAVNetvarTree@@@std@@YAAAPAVNetvarTree@@AAPAV1@@Z 100027f0 f i c_hooks.obj
 0001:000017f0       ??$addressof@V?$_String_val@U?$_Simple_types@D@std@@@std@@@std@@YAPAV?$_String_val@U?$_Simple_types@D@std@@@0@AAV10@@Z 100027f0 f i c_ragebot.obj
 0001:000017f0       ??$forward@U?$default_delete@VNetvarTree@@@std@@@std@@YA$$QAU?$default_delete@VNetvarTree@@@0@AAU10@@Z 100027f0 f i c_hooks.obj
 0001:000017f0       ??$move@AAH@std@@YA$$QAHAAH@Z 100027f0 f i c_ragebot.obj
 0001:000017f0       ??$forward@V?$basic_string@DU?$char_traits@D@std@@V?$allocator@D@2@@std@@@std@@YA$$QAV?$basic_string@DU?$char_traits@D@std@@V?$allocator@D@2@@0@AAV10@@Z 100027f0 f i c_ragebot.obj
 0001:000017f0       ??$addressof@U?$pair@$$CBV?$basic_string@DU?$char_traits@D@std@@V?$allocator@D@2@@std@@V?$shared_ptr@UNode@NetvarTree@@@2@@std@@@std@@YAPAU?$pair@$$CBV?$basic_string@DU?$char_traits@D@std@@V?$allocator@D@2@@std@@V?$shared_ptr@UNode@NetvarTree@@@2@@0@AAU10@@Z 100027f0 f i c_hooks.obj
 0001:000017f0       ??$forward@V?$allocator@_W@std@@@std@@YA$$QAV?$allocator@_W@0@AAV10@@Z 100027f0 f i config_system.obj
 0001:000017f0       ??$_Get_unwrapped_n@PAULegitPlayerRecords@@H$0A@@std@@YAPAPAULegitPlayerRecords@@QAPAU1@H@Z 100027f0 f i Legitbot.obj
 0001:000017f0       ??$forward@V?$allocator@D@std@@@std@@YA$$QAV?$allocator@D@0@AAV10@@Z 100027f0 f i c_ragebot.obj
 0001:000017f0       ??$addressof@$$CBV?$_List_val@U?$_List_simple_types@U?$pair@$$CBV?$basic_string@DU?$char_traits@D@std@@V?$allocator@D@2@@std@@V?$shared_ptr@UNode@NetvarTree@@@2@@std@@@std@@@std@@@std@@YAPBV?$_List_val@U?$_List_simple_types@U?$pair@$$CBV?$basic_string@DU?$char_traits@D@std@@V?$allocator@D@2@@std@@V?$shared_ptr@UNode@NetvarTree@@@2@@std@@@std@@@0@ABV10@@Z 100027f0 f i c_ragebot.obj
 0001:000017f0       ??$forward@$$QAV?$basic_string@DU?$char_traits@D@std@@V?$allocator@D@2@@std@@@std@@YA$$QAV?$basic_string@DU?$char_traits@D@std@@V?$allocator@D@2@@0@AAV10@@Z 100027f0 f i c_ragebot.obj
 0001:000017f0       ??$addressof@V?$_String_val@U?$_Simple_types@_W@std@@@std@@@std@@YAPAV?$_String_val@U?$_Simple_types@_W@std@@@0@AAV10@@Z 100027f0 f i config_system.obj
 0001:000017f0       ??$_Get_size_of_n@$00@std@@YAII@Z 100027f0 f i c_hooks.obj
 0001:000017f0       ??$forward@AAPAV_Facet_base@std@@@std@@YAAAPAV_Facet_base@0@AAPAV10@@Z 100027f0 f i config_system.obj
 0001:000017f0       ??$forward@ABV?$shared_ptr@UNode@NetvarTree@@@std@@@std@@YAABV?$shared_ptr@UNode@NetvarTree@@@0@ABV10@@Z 100027f0 f i NetvarManager.obj
 0001:000017f0       ??$addressof@$$CBV?$_Vector_val@U?$_Simple_types@V?$basic_string@DU?$char_traits@D@std@@V?$allocator@D@2@@std@@@std@@@std@@@std@@YAPBV?$_Vector_val@U?$_Simple_types@V?$basic_string@DU?$char_traits@D@std@@V?$allocator@D@2@@std@@@std@@@0@ABV10@@Z 100027f0 f i config_system.obj
 0001:000017f0       ??$move@AAV?$shared_ptr@U_Dir_enum_impl@filesystem@std@@@std@@@std@@YA$$QAV?$shared_ptr@U_Dir_enum_impl@filesystem@std@@@0@AAV10@@Z 100027f0 f i config_system.obj
 0001:000017f0       ??$forward@AAPAVISurface@@@std@@YAAAPAVISurface@@AAPAV1@@Z 100027f0 f i c_hooks.obj
 0001:000017f0       ??$move@AAV?$basic_string@_WU?$char_traits@_W@std@@V?$allocator@_W@2@@std@@@std@@YA$$QAV?$basic_string@_WU?$char_traits@_W@std@@V?$allocator@_W@2@@0@AAV10@@Z 100027f0 f i config_system.obj
 0001:000017f0       ??$forward@AAPAVCModelRender@@@std@@YAAAPAVCModelRender@@AAPAV1@@Z 100027f0 f i c_hooks.obj
 0001:00001800       ??$_Deallocate@$07$0A@@std@@YAXPAXI@Z 10002800 f i c_hooks.obj
 0001:00001830       ??$_Enable_shared_from_this1@UNode@NetvarTree@@U12@@std@@YAXABV?$shared_ptr@UNode@NetvarTree@@@0@PAUNode@NetvarTree@@U?$integral_constant@_N$0A@@0@@Z 10002830 f i NetvarManager.obj
 0001:00001830       ??$_Adl_verify_range@V?$_Deque_iterator@V?$_Deque_val@U?$_Deque_simple_types@ULegitPlayerRecords@@@std@@@std@@@std@@V12@@std@@YAXABV?$_Deque_iterator@V?$_Deque_val@U?$_Deque_simple_types@ULegitPlayerRecords@@@std@@@std@@@0@0@Z 10002830 f i Legitbot.obj
 0001:00001830       ??$_Destroy_range1@V?$allocator@H@std@@@std@@YAXPAH0AAV?$allocator@H@0@U?$integral_constant@_N$00@0@@Z 10002830 f i c_ragebot.obj
 0001:00001830       ??$destroy@UPlayerRecords@@@?$_Default_allocator_traits@V?$allocator@UPlayerRecords@@@std@@@std@@SAXAAV?$allocator@UPlayerRecords@@@1@QAUPlayerRecords@@@Z 10002830 f i LagComp.obj
 0001:00001830       ??$_Adl_verify_range@PADPAD@std@@YAXABQAD0@Z 10002830 f i c_esp.obj
 0001:00001830       ??$destroy@PAUPlayerRecords@@@?$_Default_allocator_traits@V?$allocator@PAUPlayerRecords@@@std@@@std@@SAXAAV?$allocator@PAUPlayerRecords@@@1@QAPAUPlayerRecords@@@Z 10002830 f i LagComp.obj
 0001:00001830       ??$destroy@PAD@?$_Default_allocator_traits@V?$allocator@D@std@@@std@@SAXAAV?$allocator@D@1@QAPAD@Z 10002830 f i c_hooks.obj
 0001:00001830       ??$_Adl_verify_range@V?$_Deque_iterator@V?$_Deque_val@U?$_Deque_simple_types@UPlayerRecords@@@std@@@std@@@std@@V12@@std@@YAXABV?$_Deque_iterator@V?$_Deque_val@U?$_Deque_simple_types@UPlayerRecords@@@std@@@std@@@0@0@Z 10002830 f i LagComp.obj
 0001:00001830       ??$_Adl_verify_range@V?$_Vector_const_iterator@V?$_Vector_val@U?$_Simple_types@V?$basic_string@DU?$char_traits@D@std@@V?$allocator@D@2@@std@@@std@@@std@@@std@@V12@@std@@YAXABV?$_Vector_const_iterator@V?$_Vector_val@U?$_Simple_types@V?$basic_string@DU?$char_traits@D@std@@V?$allocator@D@2@@std@@@std@@@std@@@0@0@Z 10002830 f i config_system.obj
 0001:00001830       ??$_Destroy_range1@V?$allocator@PAUPlayerRecords@@@std@@@std@@YAXPAPAUPlayerRecords@@0AAV?$allocator@PAUPlayerRecords@@@0@U?$integral_constant@_N$00@0@@Z 10002830 f i LagComp.obj
 0001:00001830       ??$destroy@U_Container_proxy@std@@@?$_Default_allocator_traits@V?$allocator@U_Container_proxy@std@@@std@@@std@@SAXAAV?$allocator@U_Container_proxy@std@@@1@QAU_Container_proxy@1@@Z 10002830 f i LagComp.obj
 0001:00001830       ??$_Enable_shared_from_this1@U_Dir_enum_impl@filesystem@std@@U123@@std@@YAXABV?$shared_ptr@U_Dir_enum_impl@filesystem@std@@@0@PAU_Dir_enum_impl@filesystem@0@U?$integral_constant@_N$0A@@0@@Z 10002830 f i config_system.obj
 0001:00001830       ?Log@Utils@@SAXABV?$basic_string@DU?$char_traits@D@std@@V?$allocator@D@2@@std@@ZZ 10002830 f i c_hooks.obj
 0001:00001830       ??$destroy@PAU?$_List_node@U?$pair@$$CBV?$basic_string@DU?$char_traits@D@std@@V?$allocator@D@2@@std@@V?$shared_ptr@UNode@NetvarTree@@@2@@std@@PAX@std@@@?$_Default_allocator_traits@V?$allocator@U?$_List_node@U?$pair@$$CBV?$basic_string@DU?$char_traits@D@std@@V?$allocator@D@2@@std@@V?$shared_ptr@UNode@NetvarTree@@@2@@std@@PAX@std@@@std@@@std@@SAXAAV?$allocator@U?$_List_node@U?$pair@$$CBV?$basic_string@DU?$char_traits@D@std@@V?$allocator@D@2@@std@@V?$shared_ptr@UNode@NetvarTree@@@2@@std@@PAX@std@@@1@QAPAU?$_List_node@U?$pair@$$CBV?$basic_string@DU?$char_traits@D@std@@V?$allocator@D@2@@std@@V?$shared_ptr@UNode@NetvarTree@@@2@@std@@PAX@1@@Z 10002830 f i c_hooks.obj
 0001:00001830       ??$_Destroy_range1@V?$allocator@PAULegitPlayerRecords@@@std@@@std@@YAXPAPAULegitPlayerRecords@@0AAV?$allocator@PAULegitPlayerRecords@@@0@U?$integral_constant@_N$00@0@@Z 10002830 f i Legitbot.obj
 0001:00001830       ??$_Adl_verify_range@Vdirectory_iterator@filesystem@std@@V123@@std@@YAXABVdirectory_iterator@filesystem@0@0@Z 10002830 f i config_system.obj
 0001:00001830       ??3@YAXPAXUImPlacementNewDummy@@0@Z 10002830 f i imgui.obj
 0001:00001830       ??$_Adl_verify_range@PB_WPB_W@std@@YAXABQB_W0@Z 10002830 f i config_system.obj
 0001:00001830       ??$destroy@PAULegitPlayerRecords@@@?$_Default_allocator_traits@V?$allocator@PAULegitPlayerRecords@@@std@@@std@@SAXAAV?$allocator@PAULegitPlayerRecords@@@1@QAPAULegitPlayerRecords@@@Z 10002830 f i Legitbot.obj
 0001:00001830       ??$_Adl_verify_range@V?$_String_const_iterator@V?$_String_val@U?$_Simple_types@D@std@@@std@@@std@@V12@@std@@YAXABV?$_String_const_iterator@V?$_String_val@U?$_Simple_types@D@std@@@std@@@0@0@Z 10002830 f i c_esp.obj
 0001:00001830       ??$destroy@ULegitPlayerRecords@@@?$_Default_allocator_traits@V?$allocator@ULegitPlayerRecords@@@std@@@std@@SAXAAV?$allocator@ULegitPlayerRecords@@@1@QAULegitPlayerRecords@@@Z 10002830 f i Legitbot.obj
 0001:00001830       ??$_Destroy_range1@V?$allocator@V?$_List_unchecked_iterator@V?$_List_val@U?$_List_simple_types@U?$pair@$$CBV?$basic_string@DU?$char_traits@D@std@@V?$allocator@D@2@@std@@V?$shared_ptr@UNode@NetvarTree@@@2@@std@@@std@@@std@@@std@@@std@@@std@@YAXPAV?$_List_unchecked_iterator@V?$_List_val@U?$_List_simple_types@U?$pair@$$CBV?$basic_string@DU?$char_traits@D@std@@V?$allocator@D@2@@std@@V?$shared_ptr@UNode@NetvarTree@@@2@@std@@@std@@@std@@@0@0AAV?$allocator@V?$_List_unchecked_iterator@V?$_List_val@U?$_List_simple_types@U?$pair@$$CBV?$basic_string@DU?$char_traits@D@std@@V?$allocator@D@2@@std@@V?$shared_ptr@UNode@NetvarTree@@@2@@std@@@std@@@std@@@std@@@0@U?$integral_constant@_N$00@0@@Z 10002830 f i c_hooks.obj
 0001:00001830       ??$_Pocca@V?$allocator@_W@std@@@std@@YAXAAV?$allocator@_W@0@ABV10@U?$integral_constant@_N$0A@@0@@Z 10002830 f i config_system.obj
 0001:00001830       ??$_Adl_verify_range@V?$_String_iterator@V?$_String_val@U?$_Simple_types@D@std@@@std@@@std@@V12@@std@@YAXABV?$_String_iterator@V?$_String_val@U?$_Simple_types@D@std@@@std@@@0@0@Z 10002830 f i c_esp.obj
 0001:00001830       ??$destroy@PA_W@?$_Default_allocator_traits@V?$allocator@_W@std@@@std@@SAXAAV?$allocator@_W@1@QAPA_W@Z 10002830 f i config_system.obj
 0001:00001840       ??$_Destroy_range@V?$allocator@H@std@@@std@@YAXPAH0AAV?$allocator@H@0@@Z 10002840 f i c_ragebot.obj
 0001:00001840       ??$_Destroy_range@V?$allocator@PAUPlayerRecords@@@std@@@std@@YAXPAPAUPlayerRecords@@0AAV?$allocator@PAUPlayerRecords@@@0@@Z 10002840 f i LagComp.obj
 0001:00001840       ??$_Destroy_range@V?$allocator@PAULegitPlayerRecords@@@std@@@std@@YAXPAPAULegitPlayerRecords@@0AAV?$allocator@PAULegitPlayerRecords@@@0@@Z 10002840 f i Legitbot.obj
 0001:00001840       ??$_Destroy_range@V?$allocator@V?$_List_unchecked_iterator@V?$_List_val@U?$_List_simple_types@U?$pair@$$CBV?$basic_string@DU?$char_traits@D@std@@V?$allocator@D@2@@std@@V?$shared_ptr@UNode@NetvarTree@@@2@@std@@@std@@@std@@@std@@@std@@@std@@YAXPAV?$_List_unchecked_iterator@V?$_List_val@U?$_List_simple_types@U?$pair@$$CBV?$basic_string@DU?$char_traits@D@std@@V?$allocator@D@2@@std@@V?$shared_ptr@UNode@NetvarTree@@@2@@std@@@std@@@std@@@0@0AAV?$allocator@V?$_List_unchecked_iterator@V?$_List_val@U?$_List_simple_types@U?$pair@$$CBV?$basic_string@DU?$char_traits@D@std@@V?$allocator@D@2@@std@@V?$shared_ptr@UNode@NetvarTree@@@2@@std@@@std@@@std@@@std@@@0@@Z 10002840 f i c_hooks.obj
 0001:00001870       ??$_Freenode0@V?$allocator@U?$_List_node@U?$pair@$$CBV?$basic_string@DU?$char_traits@D@std@@V?$allocator@D@2@@std@@V?$shared_ptr@UNode@NetvarTree@@@2@@std@@PAX@std@@@std@@@?$_List_node@U?$pair@$$CBV?$basic_string@DU?$char_traits@D@std@@V?$allocator@D@2@@std@@V?$shared_ptr@UNode@NetvarTree@@@2@@std@@PAX@std@@SAXAAV?$allocator@U?$_List_node@U?$pair@$$CBV?$basic_string@DU?$char_traits@D@std@@V?$allocator@D@2@@std@@V?$shared_ptr@UNode@NetvarTree@@@2@@std@@PAX@std@@@1@PAU01@@Z 10002870 f i c_hooks.obj
 0001:000018f0       ??$_Max_value@I@std@@YAABIABI0@Z 100028f0 f i c_hooks.obj
 0001:00001920       ??$_Min_value@I@std@@YAABIABI0@Z 10002920 f i c_hooks.obj
 0001:00001950       ??$_Reallocate_for@V<lambda_9366063389c5f42a00a5088cf24e69de>@@PBD@?$basic_string@DU?$char_traits@D@std@@V?$allocator@D@2@@std@@QAEAAV01@IV<lambda_9366063389c5f42a00a5088cf24e69de>@@PBD@Z 10002950 f i c_hooks.obj
 0001:00001a30       ??$construct@PADABQAD@?$_Default_allocator_traits@V?$allocator@D@std@@@std@@SAXAAV?$allocator@D@1@QAPADABQAD@Z 10002a30 f i c_hooks.obj
 0001:00001a30       ??$construct@HH@?$_Default_allocator_traits@V?$allocator@H@std@@@std@@SAXAAV?$allocator@H@1@QAH$$QAH@Z 10002a30 f i c_ragebot.obj
 0001:00001a30       ??$construct@PAU?$_List_node@U?$pair@$$CBV?$basic_string@DU?$char_traits@D@std@@V?$allocator@D@2@@std@@V?$shared_ptr@UNode@NetvarTree@@@2@@std@@PAX@std@@AAPAU12@@?$_Default_allocator_traits@V?$allocator@U?$_List_node@U?$pair@$$CBV?$basic_string@DU?$char_traits@D@std@@V?$allocator@D@2@@std@@V?$shared_ptr@UNode@NetvarTree@@@2@@std@@PAX@std@@@std@@@std@@SAXAAV?$allocator@U?$_List_node@U?$pair@$$CBV?$basic_string@DU?$char_traits@D@std@@V?$allocator@D@2@@std@@V?$shared_ptr@UNode@NetvarTree@@@2@@std@@PAX@std@@@1@QAPAU?$_List_node@U?$pair@$$CBV?$basic_string@DU?$char_traits@D@std@@V?$allocator@D@2@@std@@V?$shared_ptr@UNode@NetvarTree@@@2@@std@@PAX@1@AAPAU31@@Z 10002a30 f i c_ragebot.obj
 0001:00001a30       ??$construct@PA_WABQA_W@?$_Default_allocator_traits@V?$allocator@_W@std@@@std@@SAXAAV?$allocator@_W@1@QAPA_WABQA_W@Z 10002a30 f i config_system.obj
 0001:00001a60       ??$destroy@U?$pair@$$CBV?$basic_string@DU?$char_traits@D@std@@V?$allocator@D@2@@std@@V?$shared_ptr@UNode@NetvarTree@@@2@@std@@@?$_Default_allocator_traits@V?$allocator@U?$_List_node@U?$pair@$$CBV?$basic_string@DU?$char_traits@D@std@@V?$allocator@D@2@@std@@V?$shared_ptr@UNode@NetvarTree@@@2@@std@@PAX@std@@@std@@@std@@SAXAAV?$allocator@U?$_List_node@U?$pair@$$CBV?$basic_string@DU?$char_traits@D@std@@V?$allocator@D@2@@std@@V?$shared_ptr@UNode@NetvarTree@@@2@@std@@PAX@std@@@1@QAU?$pair@$$CBV?$basic_string@DU?$char_traits@D@std@@V?$allocator@D@2@@std@@V?$shared_ptr@UNode@NetvarTree@@@2@@1@@Z 10002a60 f i c_hooks.obj
 0001:00001a70       ??$make_unique@$$BY0A@I$0A@@std@@YA?AV?$unique_ptr@$$BY0A@IU?$default_delete@$$BY0A@I@std@@@0@I@Z 10002a70 f i c_hooks.obj
 0001:00001af0       ??$make_unique@VNetvarTree@@$$V$0A@@std@@YA?AV?$unique_ptr@VNetvarTree@@U?$default_delete@VNetvarTree@@@std@@@0@XZ 10002af0 f i c_hooks.obj
 0001:00001b80       ??$make_unique@VVMTHook@@AAPAVCModelRender@@$0A@@std@@YA?AV?$unique_ptr@VVMTHook@@U?$default_delete@VVMTHook@@@std@@@0@AAPAVCModelRender@@@Z 10002b80 f i c_hooks.obj
 0001:00001b80       ??$make_unique@VVMTHook@@AAPAVIBaseClientDLL@@$0A@@std@@YA?AV?$unique_ptr@VVMTHook@@U?$default_delete@VVMTHook@@@std@@@0@AAPAVIBaseClientDLL@@@Z 10002b80 f i c_hooks.obj
 0001:00001b80       ??$make_unique@VVMTHook@@AAPAVISurface@@$0A@@std@@YA?AV?$unique_ptr@VVMTHook@@U?$default_delete@VVMTHook@@@std@@@0@AAPAVISurface@@@Z 10002b80 f i c_hooks.obj
 0001:00001b80       ??$make_unique@VVMTHook@@AAPAVIPanel@@$0A@@std@@YA?AV?$unique_ptr@VVMTHook@@U?$default_delete@VVMTHook@@@std@@@0@AAPAVIPanel@@@Z 10002b80 f i c_hooks.obj
 0001:00001b80       ??$make_unique@VVMTHook@@PAPAK$0A@@std@@YA?AV?$unique_ptr@VVMTHook@@U?$default_delete@VVMTHook@@@std@@@0@$$QAPAPAK@Z 10002b80 f i c_hooks.obj
 0001:00001b80       ??$make_unique@VVMTHook@@AAPAVIClientMode@@$0A@@std@@YA?AV?$unique_ptr@VVMTHook@@U?$default_delete@VVMTHook@@@std@@@0@AAPAVIClientMode@@@Z 10002b80 f i c_hooks.obj
 0001:00001b80       ??$make_unique@VVMTHook@@AAPAVIVRenderView@@$0A@@std@@YA?AV?$unique_ptr@VVMTHook@@U?$default_delete@VVMTHook@@@std@@@0@AAPAVIVRenderView@@@Z 10002b80 f i c_hooks.obj
 0001:00001c30       ??$reset@PAIX@?$unique_ptr@$$BY0A@IU?$default_delete@$$BY0A@I@std@@@std@@QAEXPAI@Z 10002c30 f i c_hooks.obj
 0001:00001c80       ??0?$_String_alloc@U?$_String_base_types@DV?$allocator@D@std@@@std@@@std@@QAE@XZ 10002c80 f i c_hooks.obj
 0001:00001c80       ??0?$_String_alloc@U?$_String_base_types@_WV?$allocator@_W@std@@@std@@@std@@QAE@XZ 10002c80 f i config_system.obj
 0001:00001cb0       ??0?$_String_val@U?$_Simple_types@D@std@@@std@@QAE@XZ 10002cb0 f i c_hooks.obj
 0001:00001cb0       ??0?$_String_val@U?$_Simple_types@_W@std@@@std@@QAE@XZ 10002cb0 f i config_system.obj
 0001:00001ce0       ?_Get_first@?$_Compressed_pair@V?$allocator@V?$_List_unchecked_iterator@V?$_List_val@U?$_List_simple_types@U?$pair@$$CBV?$basic_string@DU?$char_traits@D@std@@V?$allocator@D@2@@std@@V?$shared_ptr@UNode@NetvarTree@@@2@@std@@@std@@@std@@@std@@@std@@V?$_Vector_val@U?$_Simple_types@V?$_List_unchecked_iterator@V?$_List_val@U?$_List_simple_types@U?$pair@$$CBV?$basic_string@DU?$char_traits@D@std@@V?$allocator@D@2@@std@@V?$shared_ptr@UNode@NetvarTree@@@2@@std@@@std@@@std@@@std@@@std@@@2@$00@std@@QAEAAV?$allocator@V?$_List_unchecked_iterator@V?$_List_val@U?$_List_simple_types@U?$pair@$$CBV?$basic_string@DU?$char_traits@D@std@@V?$allocator@D@2@@std@@V?$shared_ptr@UNode@NetvarTree@@@2@@std@@@std@@@std@@@std@@@2@XZ 10002ce0 f i c_hooks.obj
 0001:00001ce0       ?_Get_second@?$_Compressed_pair@V?$allocator@H@std@@V?$_Vector_val@U?$_Simple_types@H@std@@@2@$00@std@@QBEABV?$_Vector_val@U?$_Simple_types@H@std@@@2@XZ 10002ce0 f i c_ragebot.obj
 0001:00001ce0       ??0Vector2D@@QAE@XZ        10002ce0 f i Legitbot.obj
 0001:00001ce0       ?_Get_second@?$_Compressed_pair@U?$default_delete@$$BY0A@I@std@@PAI$00@std@@QAEAAPAIXZ 10002ce0 f i c_hooks.obj
 0001:00001ce0       ?_Get_second@?$_Compressed_pair@V?$allocator@UPlayerRecords@@@std@@V?$_Deque_val@U?$_Deque_simple_types@UPlayerRecords@@@std@@@2@$00@std@@QAEAAV?$_Deque_val@U?$_Deque_simple_types@UPlayerRecords@@@std@@@2@XZ 10002ce0 f i c_ragebot.obj
 0001:00001ce0       ?_Get_first@?$_Compressed_pair@U?$default_delete@$$BY0A@I@std@@PAI$00@std@@QAEAAU?$default_delete@$$BY0A@I@2@XZ 10002ce0 f i c_hooks.obj
 0001:00001ce0       ?_Get_second@?$_Compressed_pair@U?$hash@V?$basic_string@DU?$char_traits@D@std@@V?$allocator@D@2@@std@@@std@@V?$_Compressed_pair@U?$equal_to@V?$basic_string@DU?$char_traits@D@std@@V?$allocator@D@2@@std@@@std@@M$00@2@$00@std@@QBEABV?$_Compressed_pair@U?$equal_to@V?$basic_string@DU?$char_traits@D@std@@V?$allocator@D@2@@std@@@std@@M$00@2@XZ 10002ce0 f i c_ragebot.obj
 0001:00001ce0       ?_Get_first@?$_Compressed_pair@V?$allocator@UPlayerRecords@@@std@@V?$_Deque_val@U?$_Deque_simple_types@UPlayerRecords@@@std@@@2@$00@std@@QAEAAV?$allocator@UPlayerRecords@@@2@XZ 10002ce0 f i LagComp.obj
 0001:00001ce0       ?_Get_second@?$_Compressed_pair@V?$allocator@U?$_List_node@U?$pair@$$CBV?$basic_string@DU?$char_traits@D@std@@V?$allocator@D@2@@std@@V?$shared_ptr@UNode@NetvarTree@@@2@@std@@PAX@std@@@std@@V?$_List_val@U?$_List_simple_types@U?$pair@$$CBV?$basic_string@DU?$char_traits@D@std@@V?$allocator@D@2@@std@@V?$shared_ptr@UNode@NetvarTree@@@2@@std@@@std@@@2@$00@std@@QBEABV?$_List_val@U?$_List_simple_types@U?$pair@$$CBV?$basic_string@DU?$char_traits@D@std@@V?$allocator@D@2@@std@@V?$shared_ptr@UNode@NetvarTree@@@2@@std@@@std@@@2@XZ 10002ce0 f i c_ragebot.obj
 0001:00001ce0       ?_Get_second@?$_Compressed_pair@V?$allocator@D@std@@V?$_String_val@U?$_Simple_types@D@std@@@2@$00@std@@QAEAAV?$_String_val@U?$_Simple_types@D@std@@@2@XZ 10002ce0 f i c_hooks.obj
 0001:00001ce0       ?_Get_second@?$_Compressed_pair@U?$default_delete@VShadowVTManager@@@std@@PAVShadowVTManager@@$00@std@@QBEABQAVShadowVTManager@@XZ 10002ce0 f i c_hooks.obj
 0001:00001ce0       ?_Get_second@?$_Compressed_pair@U?$default_delete@$$BY0A@I@std@@PAI$00@std@@QBEABQAIXZ 10002ce0 f i c_hooks.obj
 0001:00001ce0       ??0?$tuple@$$V@std@@QAE@XZ 10002ce0 f i c_ragebot.obj
 0001:00001ce0       ??0?$allocator@UPlayerRecords@@@std@@QAE@XZ 10002ce0 f i LagComp.obj
 0001:00001ce0       ?_Get_first@?$_Compressed_pair@V?$allocator@U?$_List_node@U?$pair@$$CBV?$basic_string@DU?$char_traits@D@std@@V?$allocator@D@2@@std@@V?$shared_ptr@UNode@NetvarTree@@@2@@std@@PAX@std@@@std@@V?$_List_val@U?$_List_simple_types@U?$pair@$$CBV?$basic_string@DU?$char_traits@D@std@@V?$allocator@D@2@@std@@V?$shared_ptr@UNode@NetvarTree@@@2@@std@@@std@@@2@$00@std@@QAEAAV?$allocator@U?$_List_node@U?$pair@$$CBV?$basic_string@DU?$char_traits@D@std@@V?$allocator@D@2@@std@@V?$shared_ptr@UNode@NetvarTree@@@2@@std@@PAX@std@@@2@XZ 10002ce0 f i c_hooks.obj
 0001:00001ce0       ?_Get_second@?$_Compressed_pair@V?$allocator@_W@std@@V?$_String_val@U?$_Simple_types@_W@std@@@2@$00@std@@QBEABV?$_String_val@U?$_Simple_types@_W@std@@@2@XZ 10002ce0 f i config_system.obj
 0001:00001ce0       ?_Get_first@?$_Compressed_pair@V?$allocator@D@std@@V?$_String_val@U?$_Simple_types@D@std@@@2@$00@std@@QAEAAV?$allocator@D@2@XZ 10002ce0 f i c_hooks.obj
 0001:00001ce0       ??0_Bxty@?$_String_val@U?$_Simple_types@_W@std@@@std@@QAE@XZ 10002ce0 f i config_system.obj
 0001:00001ce0       ??0Vector@@QAE@XZ          10002ce0 f i c_ragebot.obj
 0001:00001ce0       ??0?$allocator@H@std@@QAE@XZ 10002ce0 f i c_ragebot.obj
 0001:00001ce0       ?_Get_first@?$_Compressed_pair@U?$default_delete@V_Facet_base@std@@@std@@PAV_Facet_base@2@$00@std@@QAEAAU?$default_delete@V_Facet_base@std@@@2@XZ 10002ce0 f i config_system.obj
 0001:00001ce0       ?_Get_second@?$_Compressed_pair@V?$allocator@H@std@@V?$_Vector_val@U?$_Simple_types@H@std@@@2@$00@std@@QAEAAV?$_Vector_val@U?$_Simple_types@H@std@@@2@XZ 10002ce0 f i c_ragebot.obj
 0001:00001ce0       ?_Get_first@?$_Compressed_pair@V?$allocator@UPlayerRecords@@@std@@V?$_Deque_val@U?$_Deque_simple_types@UPlayerRecords@@@std@@@2@$00@std@@QBEABV?$allocator@UPlayerRecords@@@2@XZ 10002ce0 f i LagComp.obj
 0001:00001ce0       ?_Get_second@?$_Compressed_pair@V?$allocator@ULegitPlayerRecords@@@std@@V?$_Deque_val@U?$_Deque_simple_types@ULegitPlayerRecords@@@std@@@2@$00@std@@QBEABV?$_Deque_val@U?$_Deque_simple_types@ULegitPlayerRecords@@@std@@@2@XZ 10002ce0 f i Legitbot.obj
 0001:00001ce0       ?_Get_second@?$_Compressed_pair@V?$allocator@ULegitPlayerRecords@@@std@@V?$_Deque_val@U?$_Deque_simple_types@ULegitPlayerRecords@@@std@@@2@$00@std@@QAEAAV?$_Deque_val@U?$_Deque_simple_types@ULegitPlayerRecords@@@std@@@2@XZ 10002ce0 f i Legitbot.obj
 0001:00001ce0       ?_Get_first@?$_Compressed_pair@V?$allocator@H@std@@V?$_Vector_val@U?$_Simple_types@H@std@@@2@$00@std@@QAEAAV?$allocator@H@2@XZ 10002ce0 f i c_ragebot.obj
 0001:00001ce0       ?_Get_first@?$_Compressed_pair@V?$allocator@V?$basic_string@DU?$char_traits@D@std@@V?$allocator@D@2@@std@@@std@@V?$_Vector_val@U?$_Simple_types@V?$basic_string@DU?$char_traits@D@std@@V?$allocator@D@2@@std@@@std@@@2@$00@std@@QAEAAV?$allocator@V?$basic_string@DU?$char_traits@D@std@@V?$allocator@D@2@@std@@@2@XZ 10002ce0 f i config_system.obj
 0001:00001ce0       ?_Get_second@?$_Compressed_pair@V?$allocator@V?$basic_string@DU?$char_traits@D@std@@V?$allocator@D@2@@std@@@std@@V?$_Vector_val@U?$_Simple_types@V?$basic_string@DU?$char_traits@D@std@@V?$allocator@D@2@@std@@@std@@@2@$00@std@@QBEABV?$_Vector_val@U?$_Simple_types@V?$basic_string@DU?$char_traits@D@std@@V?$allocator@D@2@@std@@@std@@@2@XZ 10002ce0 f i config_system.obj
 0001:00001ce0       ?_Get_second@?$_Compressed_pair@U?$default_delete@VVMTHook@@@std@@PAVVMTHook@@$00@std@@QBEABQAVVMTHook@@XZ 10002ce0 f i c_hooks.obj
 0001:00001ce0       ?_Get_first@?$_Compressed_pair@V?$allocator@H@std@@V?$_Vector_val@U?$_Simple_types@H@std@@@2@$00@std@@QBEABV?$allocator@H@2@XZ 10002ce0 f i c_ragebot.obj
 0001:00001ce0       ?_Get_first@?$_Compressed_pair@V?$allocator@U?$_List_node@U?$pair@$$CBV?$basic_string@DU?$char_traits@D@std@@V?$allocator@D@2@@std@@V?$shared_ptr@UNode@NetvarTree@@@2@@std@@PAX@std@@@std@@V?$_List_val@U?$_List_simple_types@U?$pair@$$CBV?$basic_string@DU?$char_traits@D@std@@V?$allocator@D@2@@std@@V?$shared_ptr@UNode@NetvarTree@@@2@@std@@@std@@@2@$00@std@@QBEABV?$allocator@U?$_List_node@U?$pair@$$CBV?$basic_string@DU?$char_traits@D@std@@V?$allocator@D@2@@std@@V?$shared_ptr@UNode@NetvarTree@@@2@@std@@PAX@std@@@2@XZ 10002ce0 f i c_ragebot.obj
 0001:00001ce0       ??0?$allocator@_W@std@@QAE@XZ 10002ce0 f i config_system.obj
 0001:00001ce0       ?_Get_second@?$_Compressed_pair@U?$equal_to@V?$basic_string@DU?$char_traits@D@std@@V?$allocator@D@2@@std@@@std@@M$00@std@@QAEAAMXZ 10002ce0 f i NetvarManager.obj
 0001:00001ce0       ??0?$allocator@U?$pair@$$CBV?$basic_string@DU?$char_traits@D@std@@V?$allocator@D@2@@std@@V?$shared_ptr@UNode@NetvarTree@@@2@@std@@@std@@QAE@XZ 10002ce0 f i NetvarManager.obj
 0001:00001ce0       ?_Get_second@?$_Compressed_pair@U?$default_delete@V_Facet_base@std@@@std@@PAV_Facet_base@2@$00@std@@QBEABQAV_Facet_base@2@XZ 10002ce0 f i config_system.obj
 0001:00001ce0       ?_Get_second@?$_Compressed_pair@U?$default_delete@VNetvarTree@@@std@@PAVNetvarTree@@$00@std@@QAEAAPAVNetvarTree@@XZ 10002ce0 f i c_hooks.obj
 0001:00001ce0       ?_Get_second@?$_Compressed_pair@U?$equal_to@V?$basic_string@DU?$char_traits@D@std@@V?$allocator@D@2@@std@@@std@@M$00@std@@QBEABMXZ 10002ce0 f i c_ragebot.obj
 0001:00001ce0       ?_Get_first@?$_Compressed_pair@V?$allocator@ULegitPlayerRecords@@@std@@V?$_Deque_val@U?$_Deque_simple_types@ULegitPlayerRecords@@@std@@@2@$00@std@@QAEAAV?$allocator@ULegitPlayerRecords@@@2@XZ 10002ce0 f i Legitbot.obj
 0001:00001ce0       ?_Get_second@?$_Compressed_pair@U?$default_delete@VVMTHook@@@std@@PAVVMTHook@@$00@std@@QAEAAPAVVMTHook@@XZ 10002ce0 f i c_hooks.obj
 0001:00001ce0       ?_Get_first@?$_Compressed_pair@V?$allocator@V?$_List_unchecked_iterator@V?$_List_val@U?$_List_simple_types@U?$pair@$$CBV?$basic_string@DU?$char_traits@D@std@@V?$allocator@D@2@@std@@V?$shared_ptr@UNode@NetvarTree@@@2@@std@@@std@@@std@@@std@@@std@@V?$_Vector_val@U?$_Simple_types@V?$_List_unchecked_iterator@V?$_List_val@U?$_List_simple_types@U?$pair@$$CBV?$basic_string@DU?$char_traits@D@std@@V?$allocator@D@2@@std@@V?$shared_ptr@UNode@NetvarTree@@@2@@std@@@std@@@std@@@std@@@std@@@2@$00@std@@QBEABV?$allocator@V?$_List_unchecked_iterator@V?$_List_val@U?$_List_simple_types@U?$pair@$$CBV?$basic_string@DU?$char_traits@D@std@@V?$allocator@D@2@@std@@V?$shared_ptr@UNode@NetvarTree@@@2@@std@@@std@@@std@@@std@@@2@XZ 10002ce0 f i c_ragebot.obj
 0001:00001ce0       ??0_Bxty@?$_String_val@U?$_Simple_types@D@std@@@std@@QAE@XZ 10002ce0 f i c_hooks.obj
 0001:00001ce0       ?_Get_first@?$_Compressed_pair@U?$default_delete@VNetvarTree@@@std@@PAVNetvarTree@@$00@std@@QAEAAU?$default_delete@VNetvarTree@@@2@XZ 10002ce0 f i c_hooks.obj
 0001:00001ce0       ??0?$allocator@V?$basic_string@DU?$char_traits@D@std@@V?$allocator@D@2@@std@@@std@@QAE@XZ 10002ce0 f i config_system.obj
 0001:00001ce0       ?_Get_first@?$_Compressed_pair@U?$default_delete@VShadowVTManager@@@std@@PAVShadowVTManager@@$00@std@@QAEAAU?$default_delete@VShadowVTManager@@@2@XZ 10002ce0 f i c_hooks.obj
 0001:00001ce0       ?_Get_first@?$_Compressed_pair@V?$allocator@V?$basic_string@DU?$char_traits@D@std@@V?$allocator@D@2@@std@@@std@@V?$_Vector_val@U?$_Simple_types@V?$basic_string@DU?$char_traits@D@std@@V?$allocator@D@2@@std@@@std@@@2@$00@std@@QBEABV?$allocator@V?$basic_string@DU?$char_traits@D@std@@V?$allocator@D@2@@std@@@2@XZ 10002ce0 f i config_system.obj
 0001:00001ce0       ?_Get_second@?$_Compressed_pair@V?$allocator@V?$_List_unchecked_iterator@V?$_List_val@U?$_List_simple_types@U?$pair@$$CBV?$basic_string@DU?$char_traits@D@std@@V?$allocator@D@2@@std@@V?$shared_ptr@UNode@NetvarTree@@@2@@std@@@std@@@std@@@std@@@std@@V?$_Vector_val@U?$_Simple_types@V?$_List_unchecked_iterator@V?$_List_val@U?$_List_simple_types@U?$pair@$$CBV?$basic_string@DU?$char_traits@D@std@@V?$allocator@D@2@@std@@V?$shared_ptr@UNode@NetvarTree@@@2@@std@@@std@@@std@@@std@@@std@@@2@$00@std@@QBEABV?$_Vector_val@U?$_Simple_types@V?$_List_unchecked_iterator@V?$_List_val@U?$_List_simple_types@U?$pair@$$CBV?$basic_string@DU?$char_traits@D@std@@V?$allocator@D@2@@std@@V?$shared_ptr@UNode@NetvarTree@@@2@@std@@@std@@@std@@@std@@@std@@@2@XZ 10002ce0 f i c_hooks.obj
 0001:00001ce0       ?_Get_second@?$_Compressed_pair@V?$allocator@U?$_List_node@U?$pair@$$CBV?$basic_string@DU?$char_traits@D@std@@V?$allocator@D@2@@std@@V?$shared_ptr@UNode@NetvarTree@@@2@@std@@PAX@std@@@std@@V?$_List_val@U?$_List_simple_types@U?$pair@$$CBV?$basic_string@DU?$char_traits@D@std@@V?$allocator@D@2@@std@@V?$shared_ptr@UNode@NetvarTree@@@2@@std@@@std@@@2@$00@std@@QAEAAV?$_List_val@U?$_List_simple_types@U?$pair@$$CBV?$basic_string@DU?$char_traits@D@std@@V?$allocator@D@2@@std@@V?$shared_ptr@UNode@NetvarTree@@@2@@std@@@std@@@2@XZ 10002ce0 f i c_hooks.obj
 0001:00001ce0       ??E?$back_insert_iterator@V?$vector@V?$basic_string@DU?$char_traits@D@std@@V?$allocator@D@2@@std@@V?$allocator@V?$basic_string@DU?$char_traits@D@std@@V?$allocator@D@2@@std@@@2@@std@@@std@@QAEAAV01@XZ 10002ce0 f i config_system.obj
 0001:00001ce0       ?_Get_second@?$_Compressed_pair@V?$allocator@V?$basic_string@DU?$char_traits@D@std@@V?$allocator@D@2@@std@@@std@@V?$_Vector_val@U?$_Simple_types@V?$basic_string@DU?$char_traits@D@std@@V?$allocator@D@2@@std@@@std@@@2@$00@std@@QAEAAV?$_Vector_val@U?$_Simple_types@V?$basic_string@DU?$char_traits@D@std@@V?$allocator@D@2@@std@@@std@@@2@XZ 10002ce0 f i config_system.obj
 0001:00001ce0       ?_Get_second@?$_Compressed_pair@V?$allocator@_W@std@@V?$_String_val@U?$_Simple_types@_W@std@@@2@$00@std@@QAEAAV?$_String_val@U?$_Simple_types@_W@std@@@2@XZ 10002ce0 f i config_system.obj
 0001:00001ce0       ?_Get_first@?$_Compressed_pair@U?$hash@V?$basic_string@DU?$char_traits@D@std@@V?$allocator@D@2@@std@@@std@@V?$_Compressed_pair@U?$equal_to@V?$basic_string@DU?$char_traits@D@std@@V?$allocator@D@2@@std@@@std@@M$00@2@$00@std@@QBEABU?$hash@V?$basic_string@DU?$char_traits@D@std@@V?$allocator@D@2@@std@@@2@XZ 10002ce0 f i c_ragebot.obj
 0001:00001ce0       ?_Get_second@?$_Compressed_pair@V?$allocator@D@std@@V?$_String_val@U?$_Simple_types@D@std@@@2@$00@std@@QBEABV?$_String_val@U?$_Simple_types@D@std@@@2@XZ 10002ce0 f i c_hooks.obj
 0001:00001ce0       ?_Get_second@?$_Compressed_pair@U?$hash@V?$basic_string@DU?$char_traits@D@std@@V?$allocator@D@2@@std@@@std@@V?$_Compressed_pair@U?$equal_to@V?$basic_string@DU?$char_traits@D@std@@V?$allocator@D@2@@std@@@std@@M$00@2@$00@std@@QAEAAV?$_Compressed_pair@U?$equal_to@V?$basic_string@DU?$char_traits@D@std@@V?$allocator@D@2@@std@@@std@@M$00@2@XZ 10002ce0 f i NetvarManager.obj
 0001:00001ce0       ?_Get_first@?$_Compressed_pair@U?$default_delete@VVMTHook@@@std@@PAVVMTHook@@$00@std@@QAEAAU?$default_delete@VVMTHook@@@2@XZ 10002ce0 f i c_hooks.obj
 0001:00001ce0       ?_Get_first@?$_Compressed_pair@V?$allocator@D@std@@V?$_String_val@U?$_Simple_types@D@std@@@2@$00@std@@QBEABV?$allocator@D@2@XZ 10002ce0 f i c_hooks.obj
 0001:00001ce0       ?_Get_first@?$_Compressed_pair@V?$allocator@_W@std@@V?$_String_val@U?$_Simple_types@_W@std@@@2@$00@std@@QBEABV?$allocator@_W@2@XZ 10002ce0 f i config_system.obj
 0001:00001ce0       ?_Get_second@?$_Compressed_pair@V?$allocator@V?$_List_unchecked_iterator@V?$_List_val@U?$_List_simple_types@U?$pair@$$CBV?$basic_string@DU?$char_traits@D@std@@V?$allocator@D@2@@std@@V?$shared_ptr@UNode@NetvarTree@@@2@@std@@@std@@@std@@@std@@@std@@V?$_Vector_val@U?$_Simple_types@V?$_List_unchecked_iterator@V?$_List_val@U?$_List_simple_types@U?$pair@$$CBV?$basic_string@DU?$char_traits@D@std@@V?$allocator@D@2@@std@@V?$shared_ptr@UNode@NetvarTree@@@2@@std@@@std@@@std@@@std@@@std@@@2@$00@std@@QAEAAV?$_Vector_val@U?$_Simple_types@V?$_List_unchecked_iterator@V?$_List_val@U?$_List_simple_types@U?$pair@$$CBV?$basic_string@DU?$char_traits@D@std@@V?$allocator@D@2@@std@@V?$shared_ptr@UNode@NetvarTree@@@2@@std@@@std@@@std@@@std@@@std@@@2@XZ 10002ce0 f i c_hooks.obj
 0001:00001ce0       ?_Get_first@?$_Compressed_pair@U?$equal_to@V?$basic_string@DU?$char_traits@D@std@@V?$allocator@D@2@@std@@@std@@M$00@std@@QBEABU?$equal_to@V?$basic_string@DU?$char_traits@D@std@@V?$allocator@D@2@@std@@@2@XZ 10002ce0 f i c_ragebot.obj
 0001:00001ce0       ?_Get_second@?$_Compressed_pair@U?$default_delete@V_Facet_base@std@@@std@@PAV_Facet_base@2@$00@std@@QAEAAPAV_Facet_base@2@XZ 10002ce0 f i config_system.obj
 0001:00001ce0       ?_Get_second@?$_Compressed_pair@U?$default_delete@VNetvarTree@@@std@@PAVNetvarTree@@$00@std@@QBEABQAVNetvarTree@@XZ 10002ce0 f i c_hooks.obj
 0001:00001ce0       ??D?$back_insert_iterator@V?$vector@V?$basic_string@DU?$char_traits@D@std@@V?$allocator@D@2@@std@@V?$allocator@V?$basic_string@DU?$char_traits@D@std@@V?$allocator@D@2@@std@@@2@@std@@@std@@QAEAAV01@XZ 10002ce0 f i config_system.obj
 0001:00001ce0       ??0matrix3x4_t@@QAE@XZ     10002ce0 f i c_ragebot.obj
 0001:00001ce0       ??0?$allocator@D@std@@QAE@XZ 10002ce0 f i c_hooks.obj
 0001:00001ce0       ??0?$allocator@ULegitPlayerRecords@@@std@@QAE@XZ 10002ce0 f i Legitbot.obj
 0001:00001ce0       ?_Get_first@?$_Compressed_pair@V?$allocator@ULegitPlayerRecords@@@std@@V?$_Deque_val@U?$_Deque_simple_types@ULegitPlayerRecords@@@std@@@2@$00@std@@QBEABV?$allocator@ULegitPlayerRecords@@@2@XZ 10002ce0 f i Legitbot.obj
 0001:00001ce0       ?_Get_first@?$_Compressed_pair@V?$allocator@_W@std@@V?$_String_val@U?$_Simple_types@_W@std@@@2@$00@std@@QAEAAV?$allocator@_W@2@XZ 10002ce0 f i config_system.obj
 0001:00001ce0       ?_Get_second@?$_Compressed_pair@V?$allocator@UPlayerRecords@@@std@@V?$_Deque_val@U?$_Deque_simple_types@UPlayerRecords@@@std@@@2@$00@std@@QBEABV?$_Deque_val@U?$_Deque_simple_types@UPlayerRecords@@@std@@@2@XZ 10002ce0 f i c_ragebot.obj
 0001:00001cf0       ??0?$basic_string@DU?$char_traits@D@std@@V?$allocator@D@2@@std@@QAE@QBD@Z 10002cf0 f i c_hooks.obj
 0001:00001d60       ??0Event@@QAE@XZ           10002d60 f i c_hooks.obj
 0001:00001d90       ??0IGameEventListener@@QAE@XZ 10002d90 f i c_hooks.obj
 0001:00001db0       ??0ProtectGuard@@QAE@PAXII@Z 10002db0 f i c_hooks.obj
 0001:00001e10       ??0VMTHook@@QAE@PAX@Z      10002e10 f i c_hooks.obj
 0001:00001f30       ??0c_hooks@@QAE@XZ         10002f30 f i c_hooks.obj
 0001:00002000       ??0exception@std@@QAE@ABV01@@Z 10003000 f i c_hooks.obj
 0001:00002040       ??0exception@std@@QAE@QBD@Z 10003040 f i c_hooks.obj
 0001:00002090       ??0runtime_error@std@@QAE@ABV01@@Z 10003090 f i c_hooks.obj
 0001:000020c0       ??0runtime_error@std@@QAE@PBD@Z 100030c0 f i c_hooks.obj
 0001:000020f0       ??1?$_Deque_iterator@V?$_Deque_val@U?$_Deque_simple_types@UPlayerRecords@@@std@@@std@@@std@@QAE@XZ 100030f0 f i c_ragebot.obj
 0001:000020f0       ??1?$_Deque_iterator@V?$_Deque_val@U?$_Deque_simple_types@ULegitPlayerRecords@@@std@@@std@@@std@@QAE@XZ 100030f0 f i Legitbot.obj
 0001:000020f0       ??1?$_Compressed_pair@V?$allocator@D@std@@V?$_String_val@U?$_Simple_types@D@std@@@2@$00@std@@QAE@XZ 100030f0 f i c_hooks.obj
 0001:000020f0       ??1?$_Compressed_pair@V?$allocator@_W@std@@V?$_String_val@U?$_Simple_types@_W@std@@@2@$00@std@@QAE@XZ 100030f0 f i config_system.obj
 0001:00002110       ??1?$_Hash@V?$_Umap_traits@V?$basic_string@DU?$char_traits@D@std@@V?$allocator@D@2@@std@@V?$shared_ptr@UNode@NetvarTree@@@2@V?$_Uhash_compare@V?$basic_string@DU?$char_traits@D@std@@V?$allocator@D@2@@std@@U?$hash@V?$basic_string@DU?$char_traits@D@std@@V?$allocator@D@2@@std@@@2@U?$equal_to@V?$basic_string@DU?$char_traits@D@std@@V?$allocator@D@2@@std@@@2@@2@V?$allocator@U?$pair@$$CBV?$basic_string@DU?$char_traits@D@std@@V?$allocator@D@2@@std@@V?$shared_ptr@UNode@NetvarTree@@@2@@std@@@2@$0A@@std@@@std@@QAE@XZ 10003110 f i c_hooks.obj
 0001:00002140       ??1?$_List_alloc@U?$_List_base_types@U?$pair@$$CBV?$basic_string@DU?$char_traits@D@std@@V?$allocator@D@2@@std@@V?$shared_ptr@UNode@NetvarTree@@@2@@std@@V?$allocator@U?$pair@$$CBV?$basic_string@DU?$char_traits@D@std@@V?$allocator@D@2@@std@@V?$shared_ptr@UNode@NetvarTree@@@2@@std@@@2@@std@@@std@@QAE@XZ 10003140 f i c_hooks.obj
 0001:00002190       ??1?$_List_buy@U?$pair@$$CBV?$basic_string@DU?$char_traits@D@std@@V?$allocator@D@2@@std@@V?$shared_ptr@UNode@NetvarTree@@@2@@std@@V?$allocator@U?$pair@$$CBV?$basic_string@DU?$char_traits@D@std@@V?$allocator@D@2@@std@@V?$shared_ptr@UNode@NetvarTree@@@2@@std@@@2@@std@@QAE@XZ 10003190 f i c_hooks.obj
 0001:000021b0       ??1?$_String_alloc@U?$_String_base_types@DV?$allocator@D@std@@@std@@@std@@QAE@XZ 100031b0 f i c_hooks.obj
 0001:000021b0       ??1?$_String_alloc@U?$_String_base_types@_WV?$allocator@_W@std@@@std@@@std@@QAE@XZ 100031b0 f i config_system.obj
 0001:000021d0       ??1_System_error_category@std@@UAE@XZ 100031d0 f i config_system.obj
 0001:000021d0       ??1?$_Ref_count_obj@U_Dir_enum_impl@filesystem@std@@@std@@UAE@XZ 100031d0 f i config_system.obj
 0001:000021d0       ??1?$_String_val@U?$_Simple_types@D@std@@@std@@QAE@XZ 100031d0 f i c_hooks.obj
 0001:000021d0       ??1?$_Ref_count_obj@UNode@NetvarTree@@@std@@UAE@XZ 100031d0 f i NetvarManager.obj
 0001:000021d0       ??1?$_Deque_const_iterator@V?$_Deque_val@U?$_Deque_simple_types@ULegitPlayerRecords@@@std@@@std@@@std@@QAE@XZ 100031d0 f i Legitbot.obj
 0001:000021d0       ??1?$_Deque_const_iterator@V?$_Deque_val@U?$_Deque_simple_types@UPlayerRecords@@@std@@@std@@@std@@QAE@XZ 100031d0 f i c_ragebot.obj
 0001:000021d0       ??1_Generic_error_category@std@@UAE@XZ 100031d0 f i config_system.obj
 0001:000021d0       ??1?$_String_val@U?$_Simple_types@_W@std@@@std@@QAE@XZ 100031d0 f i config_system.obj
 0001:000021f0       ??1?$basic_string@DU?$char_traits@D@std@@V?$allocator@D@2@@std@@QAE@XZ 100031f0 f i c_hooks.obj
 0001:00002240       ??1?$list@U?$pair@$$CBV?$basic_string@DU?$char_traits@D@std@@V?$allocator@D@2@@std@@V?$shared_ptr@UNode@NetvarTree@@@2@@std@@V?$allocator@U?$pair@$$CBV?$basic_string@DU?$char_traits@D@std@@V?$allocator@D@2@@std@@V?$shared_ptr@UNode@NetvarTree@@@2@@std@@@2@@std@@QAE@XZ 10003240 f i c_hooks.obj
 0001:00002290       ??1?$pair@$$CBV?$basic_string@DU?$char_traits@D@std@@V?$allocator@D@2@@std@@V?$shared_ptr@UNode@NetvarTree@@@2@@std@@QAE@XZ 10003290 f i c_hooks.obj
 0001:000022b0       ??1?$shared_ptr@UNode@NetvarTree@@@std@@QAE@XZ 100032b0 f i c_hooks.obj
 0001:000022b0       ??1?$shared_ptr@U_Dir_enum_impl@filesystem@std@@@std@@QAE@XZ 100032b0 f i config_system.obj
 0001:000022f0       ??1?$unique_ptr@$$BY0A@IU?$default_delete@$$BY0A@I@std@@@std@@QAE@XZ 100032f0 f i c_hooks.obj
 0001:00002330       ??1?$unique_ptr@VNetvarTree@@U?$default_delete@VNetvarTree@@@std@@@std@@QAE@XZ 10003330 f i c_hooks.obj
 0001:00002370       ??1?$unique_ptr@VShadowVTManager@@U?$default_delete@VShadowVTManager@@@std@@@std@@QAE@XZ 10003370 f i c_hooks.obj
 0001:000023b0       ??1?$unique_ptr@VVMTHook@@U?$default_delete@VVMTHook@@@std@@@std@@QAE@XZ 100033b0 f i c_hooks.obj
 0001:000023f0       ??1?$unordered_map@V?$basic_string@DU?$char_traits@D@std@@V?$allocator@D@2@@std@@V?$shared_ptr@UNode@NetvarTree@@@2@U?$hash@V?$basic_string@DU?$char_traits@D@std@@V?$allocator@D@2@@std@@@2@U?$equal_to@V?$basic_string@DU?$char_traits@D@std@@V?$allocator@D@2@@std@@@2@V?$allocator@U?$pair@$$CBV?$basic_string@DU?$char_traits@D@std@@V?$allocator@D@2@@std@@V?$shared_ptr@UNode@NetvarTree@@@2@@std@@@2@@std@@QAE@XZ 100033f0 f i c_hooks.obj
 0001:00002410       ??1?$vector@V?$_List_unchecked_iterator@V?$_List_val@U?$_List_simple_types@U?$pair@$$CBV?$basic_string@DU?$char_traits@D@std@@V?$allocator@D@2@@std@@V?$shared_ptr@UNode@NetvarTree@@@2@@std@@@std@@@std@@@std@@V?$allocator@V?$_List_unchecked_iterator@V?$_List_val@U?$_List_simple_types@U?$pair@$$CBV?$basic_string@DU?$char_traits@D@std@@V?$allocator@D@2@@std@@V?$shared_ptr@UNode@NetvarTree@@@2@@std@@@std@@@std@@@std@@@2@@std@@QAE@XZ 10003410 f i c_hooks.obj
 0001:00002410       ??1?$vector@HV?$allocator@H@std@@@std@@QAE@XZ 10003410 f i c_ragebot.obj
 0001:00002450       ??1Event@@UAE@XZ           10003450 f i c_hooks.obj
 0001:00002470       ??1IGameEventListener@@UAE@XZ 10003470 f i c_hooks.obj
 0001:00002490       ??1Node@NetvarTree@@QAE@XZ 10003490 f i NetvarManager.obj
 0001:00002490       ??1NetvarTree@@QAE@XZ      10003490 f i c_hooks.obj
 0001:000024b0       ??1ProtectGuard@@QAE@XZ    100034b0 f i c_hooks.obj
 0001:000024e0       ??1ShadowVTManager@@QAE@XZ 100034e0 f i c_hooks.obj
 0001:00002540       ??1VMTHook@@QAE@XZ         10003540 f i c_hooks.obj
 0001:00002570       ??1ImGuiListClipper@@QAE@XZ 10003570 f i imgui.obj
 0001:00002570       ??1_Ref_count_base@std@@UAE@XZ 10003570 f i config_system.obj
 0001:00002570       ?_Orphan_all@_Container_base12@std@@QAEXXZ 10003570 f i LagComp.obj
 0001:00002570       ??1_Iterator_base12@std@@QAE@XZ 10003570 f i c_ragebot.obj
 0001:00002570       ??1error_category@std@@UAE@XZ 10003570 f i config_system.obj
 0001:00002570       ??1_Bxty@?$_String_val@U?$_Simple_types@_W@std@@@std@@QAE@XZ 10003570 f i config_system.obj
 0001:00002570       ?_Orphan_all@_Container_base0@std@@QAEXXZ 10003570 f i c_hooks.obj
 0001:00002570       ??1_Bxty@?$_String_val@U?$_Simple_types@D@std@@@std@@QAE@XZ 10003570 f i c_hooks.obj
 0001:00002580       ??1c_hooks@@QAE@XZ         10003580 f i c_hooks.obj
 0001:00002630       ??1exception@std@@UAE@XZ   10003630 f i c_hooks.obj
 0001:00002660       ??1bad_cast@std@@UAE@XZ    10003660 f i config_system.obj
 0001:00002660       ??1runtime_error@std@@UAE@XZ 10003660 f i c_hooks.obj
 0001:00002680       ??2@YAPAXIPAX@Z            10003680 f i c_hooks.obj
 0001:00002690       ??4?$unique_ptr@$$BY0A@IU?$default_delete@$$BY0A@I@std@@@std@@QAEAAV01@$$QAV01@@Z 10003690 f i c_hooks.obj
 0001:000026e0       ??4?$unique_ptr@VNetvarTree@@U?$default_delete@VNetvarTree@@@std@@@std@@QAEAAV01@$$QAV01@@Z 100036e0 f i c_hooks.obj
 0001:00002730       ??4?$unique_ptr@VVMTHook@@U?$default_delete@VVMTHook@@@std@@@std@@QAEAAV01@$$QAV01@@Z 10003730 f i c_hooks.obj
 0001:00002780       ??A?$unique_ptr@$$BY0A@IU?$default_delete@$$BY0A@I@std@@@std@@QBEAAII@Z 10003780 f i c_hooks.obj
 0001:000027a0       ?get@?$unique_ptr@VVMTHook@@U?$default_delete@VVMTHook@@@std@@@std@@QBEPAVVMTHook@@XZ 100037a0 f i c_hooks.obj
 0001:000027a0       ?get@?$unique_ptr@V_Facet_base@std@@U?$default_delete@V_Facet_base@std@@@2@@std@@QBEPAV_Facet_base@2@XZ 100037a0 f i config_system.obj
 0001:000027a0       ?get@?$unique_ptr@VShadowVTManager@@U?$default_delete@VShadowVTManager@@@std@@@std@@QBEPAVShadowVTManager@@XZ 100037a0 f i c_hooks.obj
 0001:000027a0       ??C?$unique_ptr@VVMTHook@@U?$default_delete@VVMTHook@@@std@@@std@@QBEPAVVMTHook@@XZ 100037a0 f i c_hooks.obj
 0001:000027a0       ?get@?$unique_ptr@$$BY0A@IU?$default_delete@$$BY0A@I@std@@@std@@QBEPAIXZ 100037a0 f i c_hooks.obj
 0001:000027a0       ??C?$unique_ptr@VNetvarTree@@U?$default_delete@VNetvarTree@@@std@@@std@@QBEPAVNetvarTree@@XZ 100037a0 f i c_ragebot.obj
 0001:000027a0       ?get@?$unique_ptr@VNetvarTree@@U?$default_delete@VNetvarTree@@@std@@@std@@QBEPAVNetvarTree@@XZ 100037a0 f i c_hooks.obj
 0001:000027c0       ??R<lambda_9366063389c5f42a00a5088cf24e69de>@@QBEXQADIQBD@Z 100037c0 f i c_hooks.obj
 0001:00002800       ??R?$default_delete@VNetvarTree@@@std@@QBEXPAVNetvarTree@@@Z 10003800 f i c_hooks.obj
 0001:00002840       ??R?$default_delete@VShadowVTManager@@@std@@QBEXPAVShadowVTManager@@@Z 10003840 f i c_hooks.obj
 0001:00002880       ??R?$default_delete@VVMTHook@@@std@@QBEXPAVVMTHook@@@Z 10003880 f i c_hooks.obj
 0001:000028c0       ??_G?$pair@$$CBV?$basic_string@DU?$char_traits@D@std@@V?$allocator@D@2@@std@@V?$shared_ptr@UNode@NetvarTree@@@2@@std@@QAEPAXI@Z 100038c0 f i c_hooks.obj
 0001:000028f0       ??_GEvent@@UAEPAXI@Z       100038f0 f i c_hooks.obj
 0001:000028f0       ??_EEvent@@UAEPAXI@Z       100038f0 f i c_hooks.obj
 0001:00002920       ??_EIGameEventListener@@UAEPAXI@Z 10003920 f i c_hooks.obj
 0001:00002920       ??_GIGameEventListener@@UAEPAXI@Z 10003920 f i c_hooks.obj
 0001:00002950       ??_GNetvarTree@@QAEPAXI@Z  10003950 f i c_hooks.obj
 0001:00002980       ??_GShadowVTManager@@QAEPAXI@Z 10003980 f i c_hooks.obj
 0001:000029b0       ??_GVMTHook@@QAEPAXI@Z     100039b0 f i c_hooks.obj
 0001:000029e0       ??_Gexception@std@@UAEPAXI@Z 100039e0 f i c_hooks.obj
 0001:000029e0       ??_Eexception@std@@UAEPAXI@Z 100039e0 f i c_hooks.obj
 0001:00002a10       ??_Ebad_cast@std@@UAEPAXI@Z 10003a10 f i config_system.obj
 0001:00002a10       ??_Eruntime_error@std@@UAEPAXI@Z 10003a10 f i c_hooks.obj
 0001:00002a10       ??_Gbad_cast@std@@UAEPAXI@Z 10003a10 f i config_system.obj
 0001:00002a10       ??_Gruntime_error@std@@UAEPAXI@Z 10003a10 f i c_hooks.obj
 0001:00002a40       ?FindSignature@Utils@@SAIPBD0@Z 10003a40 f i c_hooks.obj
 0001:00002c70       ?GetEventDebugID@IGameEventListener@@UAEHXZ 10003c70 f i c_hooks.obj
 0001:00002c80       ?Hook@VMTHook@@QAEJIPAX@Z  10003c80 f i c_hooks.obj
 0001:00002cc0       ?Init@Event@@QAEXXZ        10003cc0 f i c_hooks.obj
 0001:00002cf0       ?Init@c_hooks@@SAXXZ       10003cf0 f   c_hooks.obj
 0001:00002dc0       ?Restore@c_hooks@@SAXXZ    10003dc0 f   c_hooks.obj
 0001:00002f10       ?RestoreTable@ShadowVTManager@@QAEXXZ 10003f10 f i c_hooks.obj
 0001:00002fb0       ?Unhook@VMTHook@@QAEJI@Z   10003fb0 f i c_hooks.obj
 0001:00003000       ?_Adjust_manually_vector_aligned@std@@YAXAAPAXAAI@Z 10004000 f i c_hooks.obj
 0001:00003070       ?_Allocate@_Default_allocate_traits@std@@SAPAXI@Z 10004070 f i c_hooks.obj
 0001:00003090       ?_Calculate_growth@?$basic_string@DU?$char_traits@D@std@@V?$allocator@D@2@@std@@QBEII@Z 10004090 f i c_hooks.obj
 0001:00003110       ?_Decref@?$_Ptr_base@U_Dir_enum_impl@filesystem@std@@@std@@IAEXXZ 10004110 f i config_system.obj
 0001:00003110       ?_Decref@?$_Ptr_base@UNode@NetvarTree@@@std@@IAEXXZ 10004110 f i c_hooks.obj
 0001:00003130       ?_Decref@_Ref_count_base@std@@QAEXXZ 10004130 f i c_hooks.obj
 0001:00003160       ?_Decwref@_Ref_count_base@std@@QAEXXZ 10004160 f i c_hooks.obj
 0001:00003190       ?_Delete@?$unique_ptr@$$BY0A@IU?$default_delete@$$BY0A@I@std@@@std@@AAEXXZ 10004190 f i c_hooks.obj
 0001:000031d0       ?_Destroy@?$vector@HV?$allocator@H@std@@@std@@AAEXPAH0@Z 100041d0 f i c_ragebot.obj
 0001:000031d0       ?_Destroy@?$vector@V?$_List_unchecked_iterator@V?$_List_val@U?$_List_simple_types@U?$pair@$$CBV?$basic_string@DU?$char_traits@D@std@@V?$allocator@D@2@@std@@V?$shared_ptr@UNode@NetvarTree@@@2@@std@@@std@@@std@@@std@@V?$allocator@V?$_List_unchecked_iterator@V?$_List_val@U?$_List_simple_types@U?$pair@$$CBV?$basic_string@DU?$char_traits@D@std@@V?$allocator@D@2@@std@@V?$shared_ptr@UNode@NetvarTree@@@2@@std@@@std@@@std@@@std@@@2@@std@@AAEXPAV?$_List_unchecked_iterator@V?$_List_val@U?$_List_simple_types@U?$pair@$$CBV?$basic_string@DU?$char_traits@D@std@@V?$allocator@D@2@@std@@V?$shared_ptr@UNode@NetvarTree@@@2@@std@@@std@@@std@@@2@0@Z 100041d0 f i c_hooks.obj
 0001:00003200       ?_Freeheadnode@?$_List_alloc@U?$_List_base_types@U?$pair@$$CBV?$basic_string@DU?$char_traits@D@std@@V?$allocator@D@2@@std@@V?$shared_ptr@UNode@NetvarTree@@@2@@std@@V?$allocator@U?$pair@$$CBV?$basic_string@DU?$char_traits@D@std@@V?$allocator@D@2@@std@@V?$shared_ptr@UNode@NetvarTree@@@2@@std@@@2@@std@@@std@@QAEXPAU?$_List_node@U?$pair@$$CBV?$basic_string@DU?$char_traits@D@std@@V?$allocator@D@2@@std@@V?$shared_ptr@UNode@NetvarTree@@@2@@std@@PAX@2@@Z 10004200 f i c_hooks.obj
 0001:00003230       ?_Freenode@?$_List_buy@U?$pair@$$CBV?$basic_string@DU?$char_traits@D@std@@V?$allocator@D@2@@std@@V?$shared_ptr@UNode@NetvarTree@@@2@@std@@V?$allocator@U?$pair@$$CBV?$basic_string@DU?$char_traits@D@std@@V?$allocator@D@2@@std@@V?$shared_ptr@UNode@NetvarTree@@@2@@std@@@2@@std@@QAEXPAU?$_List_node@U?$pair@$$CBV?$basic_string@DU?$char_traits@D@std@@V?$allocator@D@2@@std@@V?$shared_ptr@UNode@NetvarTree@@@2@@std@@PAX@2@@Z 10004230 f i c_hooks.obj
 0001:00003280       ?_Get_data@?$_Vector_alloc@U?$_Vec_base_types@V?$basic_string@DU?$char_traits@D@std@@V?$allocator@D@2@@std@@V?$allocator@V?$basic_string@DU?$char_traits@D@std@@V?$allocator@D@2@@std@@@2@@std@@@std@@QAEAAV?$_Vector_val@U?$_Simple_types@V?$basic_string@DU?$char_traits@D@std@@V?$allocator@D@2@@std@@@std@@@2@XZ 10004280 f i config_system.obj
 0001:00003280       ?_Myptr@?$_Unique_ptr_base@V_Facet_base@std@@U?$default_delete@V_Facet_base@std@@@2@@std@@QAEAAPAV_Facet_base@2@XZ 10004280 f i config_system.obj
 0001:00003280       ?_Getal@?$_Vector_alloc@U?$_Vec_base_types@V?$_List_unchecked_iterator@V?$_List_val@U?$_List_simple_types@U?$pair@$$CBV?$basic_string@DU?$char_traits@D@std@@V?$allocator@D@2@@std@@V?$shared_ptr@UNode@NetvarTree@@@2@@std@@@std@@@std@@@std@@V?$allocator@V?$_List_unchecked_iterator@V?$_List_val@U?$_List_simple_types@U?$pair@$$CBV?$basic_string@DU?$char_traits@D@std@@V?$allocator@D@2@@std@@V?$shared_ptr@UNode@NetvarTree@@@2@@std@@@std@@@std@@@std@@@2@@std@@@std@@QAEAAV?$allocator@V?$_List_unchecked_iterator@V?$_List_val@U?$_List_simple_types@U?$pair@$$CBV?$basic_string@DU?$char_traits@D@std@@V?$allocator@D@2@@std@@V?$shared_ptr@UNode@NetvarTree@@@2@@std@@@std@@@std@@@std@@@2@XZ 10004280 f i c_hooks.obj
 0001:00003280       ?_Getal@?$_String_alloc@U?$_String_base_types@DV?$allocator@D@std@@@std@@@std@@QAEAAV?$allocator@D@2@XZ 10004280 f i c_hooks.obj
 0001:00003280       ?get_deleter@?$_Unique_ptr_base@VNetvarTree@@U?$default_delete@VNetvarTree@@@std@@@std@@QAEAAU?$default_delete@VNetvarTree@@@2@XZ 10004280 f i c_hooks.obj
 0001:00003280       ?_Getal@?$_Vector_alloc@U?$_Vec_base_types@V?$basic_string@DU?$char_traits@D@std@@V?$allocator@D@2@@std@@V?$allocator@V?$basic_string@DU?$char_traits@D@std@@V?$allocator@D@2@@std@@@2@@std@@@std@@QAEAAV?$allocator@V?$basic_string@DU?$char_traits@D@std@@V?$allocator@D@2@@std@@@2@XZ 10004280 f i config_system.obj
 0001:00003280       ?_Myptr@?$_Unique_ptr_base@VNetvarTree@@U?$default_delete@VNetvarTree@@@std@@@std@@QBEABQAVNetvarTree@@XZ 10004280 f i c_hooks.obj
 0001:00003280       ?_Getal@?$_String_alloc@U?$_String_base_types@_WV?$allocator@_W@std@@@std@@@std@@QBEABV?$allocator@_W@2@XZ 10004280 f i config_system.obj
 0001:00003280       ?_Get_data@?$_List_alloc@U?$_List_base_types@U?$pair@$$CBV?$basic_string@DU?$char_traits@D@std@@V?$allocator@D@2@@std@@V?$shared_ptr@UNode@NetvarTree@@@2@@std@@V?$allocator@U?$pair@$$CBV?$basic_string@DU?$char_traits@D@std@@V?$allocator@D@2@@std@@V?$shared_ptr@UNode@NetvarTree@@@2@@std@@@2@@std@@@std@@QBEABV?$_List_val@U?$_List_simple_types@U?$pair@$$CBV?$basic_string@DU?$char_traits@D@std@@V?$allocator@D@2@@std@@V?$shared_ptr@UNode@NetvarTree@@@2@@std@@@std@@@2@XZ 10004280 f i c_ragebot.obj
 0001:00003280       ?_Myptr@?$_Unique_ptr_base@IU?$default_delete@$$BY0A@I@std@@@std@@QBEABQAIXZ 10004280 f i c_hooks.obj
 0001:00003280       ?_Getal@?$_String_alloc@U?$_String_base_types@DV?$allocator@D@std@@@std@@@std@@QBEABV?$allocator@D@2@XZ 10004280 f i c_hooks.obj
 0001:00003280       ?_Getal@?$_List_alloc@U?$_List_base_types@U?$pair@$$CBV?$basic_string@DU?$char_traits@D@std@@V?$allocator@D@2@@std@@V?$shared_ptr@UNode@NetvarTree@@@2@@std@@V?$allocator@U?$pair@$$CBV?$basic_string@DU?$char_traits@D@std@@V?$allocator@D@2@@std@@V?$shared_ptr@UNode@NetvarTree@@@2@@std@@@2@@std@@@std@@QBEABV?$allocator@U?$_List_node@U?$pair@$$CBV?$basic_string@DU?$char_traits@D@std@@V?$allocator@D@2@@std@@V?$shared_ptr@UNode@NetvarTree@@@2@@std@@PAX@std@@@2@XZ 10004280 f i c_ragebot.obj
 0001:00003280       ?_Get_data@?$_Deque_alloc@U?$_Deque_base_types@UPlayerRecords@@V?$allocator@UPlayerRecords@@@std@@@std@@@std@@QBEABV?$_Deque_val@U?$_Deque_simple_types@UPlayerRecords@@@std@@@2@XZ 10004280 f i c_ragebot.obj
 0001:00003280       ?_Myptr@?$_Unique_ptr_base@IU?$default_delete@$$BY0A@I@std@@@std@@QAEAAPAIXZ 10004280 f i c_hooks.obj
 0001:00003280       ?_Getal@?$_String_alloc@U?$_String_base_types@_WV?$allocator@_W@std@@@std@@@std@@QAEAAV?$allocator@_W@2@XZ 10004280 f i config_system.obj
 0001:00003280       ?_Getal@?$_Vector_alloc@U?$_Vec_base_types@HV?$allocator@H@std@@@std@@@std@@QBEABV?$allocator@H@2@XZ 10004280 f i c_ragebot.obj
 0001:00003280       ?_Getal@?$_Deque_alloc@U?$_Deque_base_types@UPlayerRecords@@V?$allocator@UPlayerRecords@@@std@@@std@@@std@@QAEAAV?$allocator@UPlayerRecords@@@2@XZ 10004280 f i LagComp.obj
 0001:00003280       ?_Get_data@?$_List_alloc@U?$_List_base_types@U?$pair@$$CBV?$basic_string@DU?$char_traits@D@std@@V?$allocator@D@2@@std@@V?$shared_ptr@UNode@NetvarTree@@@2@@std@@V?$allocator@U?$pair@$$CBV?$basic_string@DU?$char_traits@D@std@@V?$allocator@D@2@@std@@V?$shared_ptr@UNode@NetvarTree@@@2@@std@@@2@@std@@@std@@QAEAAV?$_List_val@U?$_List_simple_types@U?$pair@$$CBV?$basic_string@DU?$char_traits@D@std@@V?$allocator@D@2@@std@@V?$shared_ptr@UNode@NetvarTree@@@2@@std@@@std@@@2@XZ 10004280 f i c_hooks.obj
 0001:00003280       ?_Get_data@?$_String_alloc@U?$_String_base_types@_WV?$allocator@_W@std@@@std@@@std@@QAEAAV?$_String_val@U?$_Simple_types@_W@std@@@2@XZ 10004280 f i config_system.obj
 0001:00003280       ?_Gethash@?$_Uhash_compare@V?$basic_string@DU?$char_traits@D@std@@V?$allocator@D@2@@std@@U?$hash@V?$basic_string@DU?$char_traits@D@std@@V?$allocator@D@2@@std@@@2@U?$equal_to@V?$basic_string@DU?$char_traits@D@std@@V?$allocator@D@2@@std@@@2@@std@@QBEABU?$hash@V?$basic_string@DU?$char_traits@D@std@@V?$allocator@D@2@@std@@@2@XZ 10004280 f i c_ragebot.obj
 0001:00003280       ?get_deleter@?$_Unique_ptr_base@IU?$default_delete@$$BY0A@I@std@@@std@@QAEAAU?$default_delete@$$BY0A@I@2@XZ 10004280 f i c_hooks.obj
 0001:00003280       ?_Get_data@?$_Vector_alloc@U?$_Vec_base_types@V?$_List_unchecked_iterator@V?$_List_val@U?$_List_simple_types@U?$pair@$$CBV?$basic_string@DU?$char_traits@D@std@@V?$allocator@D@2@@std@@V?$shared_ptr@UNode@NetvarTree@@@2@@std@@@std@@@std@@@std@@V?$allocator@V?$_List_unchecked_iterator@V?$_List_val@U?$_List_simple_types@U?$pair@$$CBV?$basic_string@DU?$char_traits@D@std@@V?$allocator@D@2@@std@@V?$shared_ptr@UNode@NetvarTree@@@2@@std@@@std@@@std@@@std@@@2@@std@@@std@@QBEABV?$_Vector_val@U?$_Simple_types@V?$_List_unchecked_iterator@V?$_List_val@U?$_List_simple_types@U?$pair@$$CBV?$basic_string@DU?$char_traits@D@std@@V?$allocator@D@2@@std@@V?$shared_ptr@UNode@NetvarTree@@@2@@std@@@std@@@std@@@std@@@std@@@2@XZ 10004280 f i c_hooks.obj
 0001:00003280       ?_Get_data@?$_String_alloc@U?$_String_base_types@DV?$allocator@D@std@@@std@@@std@@QBEABV?$_String_val@U?$_Simple_types@D@std@@@2@XZ 10004280 f i c_hooks.obj
 0001:00003280       ?_Get_data@?$_Vector_alloc@U?$_Vec_base_types@HV?$allocator@H@std@@@std@@@std@@QAEAAV?$_Vector_val@U?$_Simple_types@H@std@@@2@XZ 10004280 f i c_ragebot.obj
 0001:00003280       ?_Get_data@?$_Deque_alloc@U?$_Deque_base_types@ULegitPlayerRecords@@V?$allocator@ULegitPlayerRecords@@@std@@@std@@@std@@QAEAAV?$_Deque_val@U?$_Deque_simple_types@ULegitPlayerRecords@@@std@@@2@XZ 10004280 f i Legitbot.obj
 0001:00003280       ?_Get_data@?$_Vector_alloc@U?$_Vec_base_types@HV?$allocator@H@std@@@std@@@std@@QBEABV?$_Vector_val@U?$_Simple_types@H@std@@@2@XZ 10004280 f i c_ragebot.obj
 0001:00003280       ?_Getal@?$_Vector_alloc@U?$_Vec_base_types@V?$basic_string@DU?$char_traits@D@std@@V?$allocator@D@2@@std@@V?$allocator@V?$basic_string@DU?$char_traits@D@std@@V?$allocator@D@2@@std@@@2@@std@@@std@@QBEABV?$allocator@V?$basic_string@DU?$char_traits@D@std@@V?$allocator@D@2@@std@@@2@XZ 10004280 f i config_system.obj
 0001:00003280       ?_Getal@?$_Vector_alloc@U?$_Vec_base_types@V?$_List_unchecked_iterator@V?$_List_val@U?$_List_simple_types@U?$pair@$$CBV?$basic_string@DU?$char_traits@D@std@@V?$allocator@D@2@@std@@V?$shared_ptr@UNode@NetvarTree@@@2@@std@@@std@@@std@@@std@@V?$allocator@V?$_List_unchecked_iterator@V?$_List_val@U?$_List_simple_types@U?$pair@$$CBV?$basic_string@DU?$char_traits@D@std@@V?$allocator@D@2@@std@@V?$shared_ptr@UNode@NetvarTree@@@2@@std@@@std@@@std@@@std@@@2@@std@@@std@@QBEABV?$allocator@V?$_List_unchecked_iterator@V?$_List_val@U?$_List_simple_types@U?$pair@$$CBV?$basic_string@DU?$char_traits@D@std@@V?$allocator@D@2@@std@@V?$shared_ptr@UNode@NetvarTree@@@2@@std@@@std@@@std@@@std@@@2@XZ 10004280 f i c_ragebot.obj
 0001:00003280       ?_Get_data@?$_String_alloc@U?$_String_base_types@_WV?$allocator@_W@std@@@std@@@std@@QBEABV?$_String_val@U?$_Simple_types@_W@std@@@2@XZ 10004280 f i config_system.obj
 0001:00003280       ?_Getal@?$_Deque_alloc@U?$_Deque_base_types@UPlayerRecords@@V?$allocator@UPlayerRecords@@@std@@@std@@@std@@QBEABV?$allocator@UPlayerRecords@@@2@XZ 10004280 f i LagComp.obj
 0001:00003280       ?_Myptr@?$_Unique_ptr_base@VVMTHook@@U?$default_delete@VVMTHook@@@std@@@std@@QBEABQAVVMTHook@@XZ 10004280 f i c_hooks.obj
 0001:00003280       ?_Get_data@?$_Vector_alloc@U?$_Vec_base_types@V?$basic_string@DU?$char_traits@D@std@@V?$allocator@D@2@@std@@V?$allocator@V?$basic_string@DU?$char_traits@D@std@@V?$allocator@D@2@@std@@@2@@std@@@std@@QBEABV?$_Vector_val@U?$_Simple_types@V?$basic_string@DU?$char_traits@D@std@@V?$allocator@D@2@@std@@@std@@@2@XZ 10004280 f i config_system.obj
 0001:00003280       ?get_deleter@?$_Unique_ptr_base@V_Facet_base@std@@U?$default_delete@V_Facet_base@std@@@2@@std@@QAEAAU?$default_delete@V_Facet_base@std@@@2@XZ 10004280 f i config_system.obj
 0001:00003280       ?_Myptr@?$_Unique_ptr_base@VNetvarTree@@U?$default_delete@VNetvarTree@@@std@@@std@@QAEAAPAVNetvarTree@@XZ 10004280 f i c_hooks.obj
 0001:00003280       ?_Myptr@?$_Unique_ptr_base@VShadowVTManager@@U?$default_delete@VShadowVTManager@@@std@@@std@@QBEABQAVShadowVTManager@@XZ 10004280 f i c_hooks.obj
 0001:00003280       ?get_deleter@?$_Unique_ptr_base@VShadowVTManager@@U?$default_delete@VShadowVTManager@@@std@@@std@@QAEAAU?$default_delete@VShadowVTManager@@@2@XZ 10004280 f i c_hooks.obj
 0001:00003280       ?_Myptr@?$_Unique_ptr_base@V_Facet_base@std@@U?$default_delete@V_Facet_base@std@@@2@@std@@QBEABQAV_Facet_base@2@XZ 10004280 f i config_system.obj
 0001:00003280       ?_Get_data@?$_Vector_alloc@U?$_Vec_base_types@V?$_List_unchecked_iterator@V?$_List_val@U?$_List_simple_types@U?$pair@$$CBV?$basic_string@DU?$char_traits@D@std@@V?$allocator@D@2@@std@@V?$shared_ptr@UNode@NetvarTree@@@2@@std@@@std@@@std@@@std@@V?$allocator@V?$_List_unchecked_iterator@V?$_List_val@U?$_List_simple_types@U?$pair@$$CBV?$basic_string@DU?$char_traits@D@std@@V?$allocator@D@2@@std@@V?$shared_ptr@UNode@NetvarTree@@@2@@std@@@std@@@std@@@std@@@2@@std@@@std@@QAEAAV?$_Vector_val@U?$_Simple_types@V?$_List_unchecked_iterator@V?$_List_val@U?$_List_simple_types@U?$pair@$$CBV?$basic_string@DU?$char_traits@D@std@@V?$allocator@D@2@@std@@V?$shared_ptr@UNode@NetvarTree@@@2@@std@@@std@@@std@@@std@@@std@@@2@XZ 10004280 f i c_hooks.obj
 0001:00003280       ?_Getal@?$_Deque_alloc@U?$_Deque_base_types@ULegitPlayerRecords@@V?$allocator@ULegitPlayerRecords@@@std@@@std@@@std@@QAEAAV?$allocator@ULegitPlayerRecords@@@2@XZ 10004280 f i Legitbot.obj
 0001:00003280       ?_Getal@?$_Vector_alloc@U?$_Vec_base_types@HV?$allocator@H@std@@@std@@@std@@QAEAAV?$allocator@H@2@XZ 10004280 f i c_ragebot.obj
 0001:00003280       ?_Getal@?$_List_alloc@U?$_List_base_types@U?$pair@$$CBV?$basic_string@DU?$char_traits@D@std@@V?$allocator@D@2@@std@@V?$shared_ptr@UNode@NetvarTree@@@2@@std@@V?$allocator@U?$pair@$$CBV?$basic_string@DU?$char_traits@D@std@@V?$allocator@D@2@@std@@V?$shared_ptr@UNode@NetvarTree@@@2@@std@@@2@@std@@@std@@QAEAAV?$allocator@U?$_List_node@U?$pair@$$CBV?$basic_string@DU?$char_traits@D@std@@V?$allocator@D@2@@std@@V?$shared_ptr@UNode@NetvarTree@@@2@@std@@PAX@std@@@2@XZ 10004280 f i c_hooks.obj
 0001:00003280       ?_Myptr@?$_Unique_ptr_base@VVMTHook@@U?$default_delete@VVMTHook@@@std@@@std@@QAEAAPAVVMTHook@@XZ 10004280 f i c_hooks.obj
 0001:00003280       ?_Get_data@?$_Deque_alloc@U?$_Deque_base_types@ULegitPlayerRecords@@V?$allocator@ULegitPlayerRecords@@@std@@@std@@@std@@QBEABV?$_Deque_val@U?$_Deque_simple_types@ULegitPlayerRecords@@@std@@@2@XZ 10004280 f i Legitbot.obj
 0001:00003280       ?get_deleter@?$_Unique_ptr_base@VVMTHook@@U?$default_delete@VVMTHook@@@std@@@std@@QAEAAU?$default_delete@VVMTHook@@@2@XZ 10004280 f i c_hooks.obj
 0001:00003280       ?_Get_data@?$_String_alloc@U?$_String_base_types@DV?$allocator@D@std@@@std@@@std@@QAEAAV?$_String_val@U?$_Simple_types@D@std@@@2@XZ 10004280 f i c_hooks.obj
 0001:00003280       ?_Getal@?$_Deque_alloc@U?$_Deque_base_types@ULegitPlayerRecords@@V?$allocator@ULegitPlayerRecords@@@std@@@std@@@std@@QBEABV?$allocator@ULegitPlayerRecords@@@2@XZ 10004280 f i Legitbot.obj
 0001:00003280       ?_Get_data@?$_Deque_alloc@U?$_Deque_base_types@UPlayerRecords@@V?$allocator@UPlayerRecords@@@std@@@std@@@std@@QAEAAV?$_Deque_val@U?$_Deque_simple_types@UPlayerRecords@@@std@@@2@XZ 10004280 f i c_ragebot.obj
 0001:000032a0       ?_Large_string_engaged@?$_String_val@U?$_Simple_types@D@std@@@std@@QBE_NXZ 100042a0 f i c_hooks.obj
 0001:000032d0       ?_Mapsize@?$_Deque_alloc@U?$_Deque_base_types@UPlayerRecords@@V?$allocator@UPlayerRecords@@@std@@@std@@@std@@QAEAAIXZ 100042d0 f i LagComp.obj
 0001:000032d0       ?_Myend@?$_Vector_alloc@U?$_Vec_base_types@HV?$allocator@H@std@@@std@@@std@@QAEAAPAHXZ 100042d0 f i c_ragebot.obj
 0001:000032d0       ?_Myend@?$_Vector_alloc@U?$_Vec_base_types@V?$basic_string@DU?$char_traits@D@std@@V?$allocator@D@2@@std@@V?$allocator@V?$basic_string@DU?$char_traits@D@std@@V?$allocator@D@2@@std@@@2@@std@@@std@@QAEAAPAV?$basic_string@DU?$char_traits@D@std@@V?$allocator@D@2@@2@XZ 100042d0 f i config_system.obj
 0001:000032d0       ?_Myend@?$_Vector_alloc@U?$_Vec_base_types@HV?$allocator@H@std@@@std@@@std@@QBEABQAHXZ 100042d0 f i c_ragebot.obj
 0001:000032d0       ?_Myend@?$_Vector_alloc@U?$_Vec_base_types@V?$_List_unchecked_iterator@V?$_List_val@U?$_List_simple_types@U?$pair@$$CBV?$basic_string@DU?$char_traits@D@std@@V?$allocator@D@2@@std@@V?$shared_ptr@UNode@NetvarTree@@@2@@std@@@std@@@std@@@std@@V?$allocator@V?$_List_unchecked_iterator@V?$_List_val@U?$_List_simple_types@U?$pair@$$CBV?$basic_string@DU?$char_traits@D@std@@V?$allocator@D@2@@std@@V?$shared_ptr@UNode@NetvarTree@@@2@@std@@@std@@@std@@@std@@@2@@std@@@std@@QAEAAPAV?$_List_unchecked_iterator@V?$_List_val@U?$_List_simple_types@U?$pair@$$CBV?$basic_string@DU?$char_traits@D@std@@V?$allocator@D@2@@std@@V?$shared_ptr@UNode@NetvarTree@@@2@@std@@@std@@@std@@@2@XZ 100042d0 f i c_hooks.obj
 0001:000032d0       ?_Myend@?$_Vector_alloc@U?$_Vec_base_types@V?$basic_string@DU?$char_traits@D@std@@V?$allocator@D@2@@std@@V?$allocator@V?$basic_string@DU?$char_traits@D@std@@V?$allocator@D@2@@std@@@2@@std@@@std@@QBEABQAV?$basic_string@DU?$char_traits@D@std@@V?$allocator@D@2@@2@XZ 100042d0 f i config_system.obj
 0001:000032d0       ?_Mapsize@?$_Deque_alloc@U?$_Deque_base_types@ULegitPlayerRecords@@V?$allocator@ULegitPlayerRecords@@@std@@@std@@@std@@QAEAAIXZ 100042d0 f i Legitbot.obj
 0001:000032d0       ?_Myend@?$_Vector_alloc@U?$_Vec_base_types@V?$_List_unchecked_iterator@V?$_List_val@U?$_List_simple_types@U?$pair@$$CBV?$basic_string@DU?$char_traits@D@std@@V?$allocator@D@2@@std@@V?$shared_ptr@UNode@NetvarTree@@@2@@std@@@std@@@std@@@std@@V?$allocator@V?$_List_unchecked_iterator@V?$_List_val@U?$_List_simple_types@U?$pair@$$CBV?$basic_string@DU?$char_traits@D@std@@V?$allocator@D@2@@std@@V?$shared_ptr@UNode@NetvarTree@@@2@@std@@@std@@@std@@@std@@@2@@std@@@std@@QBEABQAV?$_List_unchecked_iterator@V?$_List_val@U?$_List_simple_types@U?$pair@$$CBV?$basic_string@DU?$char_traits@D@std@@V?$allocator@D@2@@std@@V?$shared_ptr@UNode@NetvarTree@@@2@@std@@@std@@@std@@@2@XZ 100042d0 f i c_hooks.obj
 0001:000032f0       ?_Myfirst@?$_Vector_alloc@U?$_Vec_base_types@HV?$allocator@H@std@@@std@@@std@@QAEAAPAHXZ 100042f0 f i c_ragebot.obj
 0001:000032f0       ?_Myfirst@?$_Vector_alloc@U?$_Vec_base_types@V?$_List_unchecked_iterator@V?$_List_val@U?$_List_simple_types@U?$pair@$$CBV?$basic_string@DU?$char_traits@D@std@@V?$allocator@D@2@@std@@V?$shared_ptr@UNode@NetvarTree@@@2@@std@@@std@@@std@@@std@@V?$allocator@V?$_List_unchecked_iterator@V?$_List_val@U?$_List_simple_types@U?$pair@$$CBV?$basic_string@DU?$char_traits@D@std@@V?$allocator@D@2@@std@@V?$shared_ptr@UNode@NetvarTree@@@2@@std@@@std@@@std@@@std@@@2@@std@@@std@@QBEABQAV?$_List_unchecked_iterator@V?$_List_val@U?$_List_simple_types@U?$pair@$$CBV?$basic_string@DU?$char_traits@D@std@@V?$allocator@D@2@@std@@V?$shared_ptr@UNode@NetvarTree@@@2@@std@@@std@@@std@@@2@XZ 100042f0 f i c_hooks.obj
 0001:000032f0       ?_Myfirst@?$_Vector_alloc@U?$_Vec_base_types@HV?$allocator@H@std@@@std@@@std@@QBEABQAHXZ 100042f0 f i c_ragebot.obj
 0001:000032f0       ?_Myproxy@?$_Deque_alloc@U?$_Deque_base_types@ULegitPlayerRecords@@V?$allocator@ULegitPlayerRecords@@@std@@@std@@@std@@QAEAAPAU_Container_proxy@2@XZ 100042f0 f i Legitbot.obj
 0001:000032f0       ?_Myfirst@?$_Vector_alloc@U?$_Vec_base_types@V?$_List_unchecked_iterator@V?$_List_val@U?$_List_simple_types@U?$pair@$$CBV?$basic_string@DU?$char_traits@D@std@@V?$allocator@D@2@@std@@V?$shared_ptr@UNode@NetvarTree@@@2@@std@@@std@@@std@@@std@@V?$allocator@V?$_List_unchecked_iterator@V?$_List_val@U?$_List_simple_types@U?$pair@$$CBV?$basic_string@DU?$char_traits@D@std@@V?$allocator@D@2@@std@@V?$shared_ptr@UNode@NetvarTree@@@2@@std@@@std@@@std@@@std@@@2@@std@@@std@@QAEAAPAV?$_List_unchecked_iterator@V?$_List_val@U?$_List_simple_types@U?$pair@$$CBV?$basic_string@DU?$char_traits@D@std@@V?$allocator@D@2@@std@@V?$shared_ptr@UNode@NetvarTree@@@2@@std@@@std@@@std@@@2@XZ 100042f0 f i c_hooks.obj
 0001:000032f0       ?_Myproxy@?$_Deque_alloc@U?$_Deque_base_types@UPlayerRecords@@V?$allocator@UPlayerRecords@@@std@@@std@@@std@@QAEAAPAU_Container_proxy@2@XZ 100042f0 f i LagComp.obj
 0001:000032f0       ?_Myfirst@?$_Vector_alloc@U?$_Vec_base_types@V?$basic_string@DU?$char_traits@D@std@@V?$allocator@D@2@@std@@V?$allocator@V?$basic_string@DU?$char_traits@D@std@@V?$allocator@D@2@@std@@@2@@std@@@std@@QBEABQAV?$basic_string@DU?$char_traits@D@std@@V?$allocator@D@2@@2@XZ 100042f0 f i config_system.obj
 0001:000032f0       ?_Myhead@?$_List_alloc@U?$_List_base_types@U?$pair@$$CBV?$basic_string@DU?$char_traits@D@std@@V?$allocator@D@2@@std@@V?$shared_ptr@UNode@NetvarTree@@@2@@std@@V?$allocator@U?$pair@$$CBV?$basic_string@DU?$char_traits@D@std@@V?$allocator@D@2@@std@@V?$shared_ptr@UNode@NetvarTree@@@2@@std@@@2@@std@@@std@@QAEAAPAU?$_List_node@U?$pair@$$CBV?$basic_string@DU?$char_traits@D@std@@V?$allocator@D@2@@std@@V?$shared_ptr@UNode@NetvarTree@@@2@@std@@PAX@2@XZ 100042f0 f i c_hooks.obj
 0001:000032f0       ?_Myfirst@?$_Vector_alloc@U?$_Vec_base_types@V?$basic_string@DU?$char_traits@D@std@@V?$allocator@D@2@@std@@V?$allocator@V?$basic_string@DU?$char_traits@D@std@@V?$allocator@D@2@@std@@@2@@std@@@std@@QAEAAPAV?$basic_string@DU?$char_traits@D@std@@V?$allocator@D@2@@2@XZ 100042f0 f i config_system.obj
 0001:00003310       ?_Mysize@?$_List_alloc@U?$_List_base_types@U?$pair@$$CBV?$basic_string@DU?$char_traits@D@std@@V?$allocator@D@2@@std@@V?$shared_ptr@UNode@NetvarTree@@@2@@std@@V?$allocator@U?$pair@$$CBV?$basic_string@DU?$char_traits@D@std@@V?$allocator@D@2@@std@@V?$shared_ptr@UNode@NetvarTree@@@2@@std@@@2@@std@@@std@@QAEAAIXZ 10004310 f i c_hooks.obj
 0001:00003310       ?_Map@?$_Deque_alloc@U?$_Deque_base_types@UPlayerRecords@@V?$allocator@UPlayerRecords@@@std@@@std@@@std@@QAEAAPAPAUPlayerRecords@@XZ 10004310 f i LagComp.obj
 0001:00003310       ?_Mylast@?$_Vector_alloc@U?$_Vec_base_types@V?$_List_unchecked_iterator@V?$_List_val@U?$_List_simple_types@U?$pair@$$CBV?$basic_string@DU?$char_traits@D@std@@V?$allocator@D@2@@std@@V?$shared_ptr@UNode@NetvarTree@@@2@@std@@@std@@@std@@@std@@V?$allocator@V?$_List_unchecked_iterator@V?$_List_val@U?$_List_simple_types@U?$pair@$$CBV?$basic_string@DU?$char_traits@D@std@@V?$allocator@D@2@@std@@V?$shared_ptr@UNode@NetvarTree@@@2@@std@@@std@@@std@@@std@@@2@@std@@@std@@QBEABQAV?$_List_unchecked_iterator@V?$_List_val@U?$_List_simple_types@U?$pair@$$CBV?$basic_string@DU?$char_traits@D@std@@V?$allocator@D@2@@std@@V?$shared_ptr@UNode@NetvarTree@@@2@@std@@@std@@@std@@@2@XZ 10004310 f i c_ragebot.obj
 0001:00003310       ?_Mylast@?$_Vector_alloc@U?$_Vec_base_types@HV?$allocator@H@std@@@std@@@std@@QAEAAPAHXZ 10004310 f i c_ragebot.obj
 0001:00003310       ?_Mysize@?$_List_alloc@U?$_List_base_types@U?$pair@$$CBV?$basic_string@DU?$char_traits@D@std@@V?$allocator@D@2@@std@@V?$shared_ptr@UNode@NetvarTree@@@2@@std@@V?$allocator@U?$pair@$$CBV?$basic_string@DU?$char_traits@D@std@@V?$allocator@D@2@@std@@V?$shared_ptr@UNode@NetvarTree@@@2@@std@@@2@@std@@@std@@QBEABIXZ 10004310 f i c_ragebot.obj
 0001:00003310       ?_Mylast@?$_Vector_alloc@U?$_Vec_base_types@HV?$allocator@H@std@@@std@@@std@@QBEABQAHXZ 10004310 f i c_ragebot.obj
 0001:00003310       ?_Mylast@?$_Vector_alloc@U?$_Vec_base_types@V?$basic_string@DU?$char_traits@D@std@@V?$allocator@D@2@@std@@V?$allocator@V?$basic_string@DU?$char_traits@D@std@@V?$allocator@D@2@@std@@@2@@std@@@std@@QBEABQAV?$basic_string@DU?$char_traits@D@std@@V?$allocator@D@2@@2@XZ 10004310 f i config_system.obj
 0001:00003310       ?_Mylast@?$_Vector_alloc@U?$_Vec_base_types@V?$basic_string@DU?$char_traits@D@std@@V?$allocator@D@2@@std@@V?$allocator@V?$basic_string@DU?$char_traits@D@std@@V?$allocator@D@2@@std@@@2@@std@@@std@@QAEAAPAV?$basic_string@DU?$char_traits@D@std@@V?$allocator@D@2@@2@XZ 10004310 f i config_system.obj
 0001:00003310       ?_Map@?$_Deque_alloc@U?$_Deque_base_types@ULegitPlayerRecords@@V?$allocator@ULegitPlayerRecords@@@std@@@std@@@std@@QAEAAPAPAULegitPlayerRecords@@XZ 10004310 f i Legitbot.obj
 0001:00003310       ?_Mylast@?$_Vector_alloc@U?$_Vec_base_types@V?$_List_unchecked_iterator@V?$_List_val@U?$_List_simple_types@U?$pair@$$CBV?$basic_string@DU?$char_traits@D@std@@V?$allocator@D@2@@std@@V?$shared_ptr@UNode@NetvarTree@@@2@@std@@@std@@@std@@@std@@V?$allocator@V?$_List_unchecked_iterator@V?$_List_val@U?$_List_simple_types@U?$pair@$$CBV?$basic_string@DU?$char_traits@D@std@@V?$allocator@D@2@@std@@V?$shared_ptr@UNode@NetvarTree@@@2@@std@@@std@@@std@@@std@@@2@@std@@@std@@QAEAAPAV?$_List_unchecked_iterator@V?$_List_val@U?$_List_simple_types@U?$pair@$$CBV?$basic_string@DU?$char_traits@D@std@@V?$allocator@D@2@@std@@V?$shared_ptr@UNode@NetvarTree@@@2@@std@@@std@@@std@@@2@XZ 10004310 f i c_hooks.obj
 0001:00003330       ?_Myptr@?$_String_val@U?$_Simple_types@D@std@@@std@@QBEPBDXZ 10004330 f i c_ragebot.obj
 0001:00003330       ?_Myptr@?$_String_val@U?$_Simple_types@D@std@@@std@@QAEPADXZ 10004330 f i c_hooks.obj
 0001:00003370       ?_Orphan_all@?$_Vector_alloc@U?$_Vec_base_types@V?$basic_string@DU?$char_traits@D@std@@V?$allocator@D@2@@std@@V?$allocator@V?$basic_string@DU?$char_traits@D@std@@V?$allocator@D@2@@std@@@2@@std@@@std@@QAEXXZ 10004370 f i config_system.obj
 0001:00003370       ?_Orphan_all@?$_String_alloc@U?$_String_base_types@DV?$allocator@D@std@@@std@@@std@@QAEXXZ 10004370 f i c_hooks.obj
 0001:00003370       ?_Orphan_all@?$_Vector_alloc@U?$_Vec_base_types@HV?$allocator@H@std@@@std@@@std@@QAEXXZ 10004370 f i c_ragebot.obj
 0001:00003370       ?_Orphan_all@?$_Deque_alloc@U?$_Deque_base_types@UPlayerRecords@@V?$allocator@UPlayerRecords@@@std@@@std@@@std@@QAEXXZ 10004370 f i LagComp.obj
 0001:00003370       ?_Orphan_all@?$_Vector_alloc@U?$_Vec_base_types@V?$_List_unchecked_iterator@V?$_List_val@U?$_List_simple_types@U?$pair@$$CBV?$basic_string@DU?$char_traits@D@std@@V?$allocator@D@2@@std@@V?$shared_ptr@UNode@NetvarTree@@@2@@std@@@std@@@std@@@std@@V?$allocator@V?$_List_unchecked_iterator@V?$_List_val@U?$_List_simple_types@U?$pair@$$CBV?$basic_string@DU?$char_traits@D@std@@V?$allocator@D@2@@std@@V?$shared_ptr@UNode@NetvarTree@@@2@@std@@@std@@@std@@@std@@@2@@std@@@std@@QAEXXZ 10004370 f i c_hooks.obj
 0001:00003370       ?_Orphan_all@?$_Deque_alloc@U?$_Deque_base_types@ULegitPlayerRecords@@V?$allocator@ULegitPlayerRecords@@@std@@@std@@@std@@QAEXXZ 10004370 f i Legitbot.obj
 0001:00003370       ?_Orphan_all@?$_String_alloc@U?$_String_base_types@_WV?$allocator@_W@std@@@std@@@std@@QAEXXZ 10004370 f i config_system.obj
 0001:00003390       ?_Tidy@?$list@U?$pair@$$CBV?$basic_string@DU?$char_traits@D@std@@V?$allocator@D@2@@std@@V?$shared_ptr@UNode@NetvarTree@@@2@@std@@V?$allocator@U?$pair@$$CBV?$basic_string@DU?$char_traits@D@std@@V?$allocator@D@2@@std@@V?$shared_ptr@UNode@NetvarTree@@@2@@std@@@2@@std@@QAEXXZ 10004390 f i c_hooks.obj
 0001:000033b0       ?_Tidy@?$vector@HV?$allocator@H@std@@@std@@AAEXXZ 100043b0 f i c_ragebot.obj
 0001:000033b0       ?_Tidy@?$vector@V?$_List_unchecked_iterator@V?$_List_val@U?$_List_simple_types@U?$pair@$$CBV?$basic_string@DU?$char_traits@D@std@@V?$allocator@D@2@@std@@V?$shared_ptr@UNode@NetvarTree@@@2@@std@@@std@@@std@@@std@@V?$allocator@V?$_List_unchecked_iterator@V?$_List_val@U?$_List_simple_types@U?$pair@$$CBV?$basic_string@DU?$char_traits@D@std@@V?$allocator@D@2@@std@@V?$shared_ptr@UNode@NetvarTree@@@2@@std@@@std@@@std@@@std@@@2@@std@@AAEXXZ 100043b0 f i c_hooks.obj
 0001:00003460       ?_Tidy_deallocate@?$basic_string@DU?$char_traits@D@std@@V?$allocator@D@2@@std@@QAEXXZ 10004460 f i c_hooks.obj
 0001:00003510       ?_Tidy_init@?$basic_string@DU?$char_traits@D@std@@V?$allocator@D@2@@std@@QAEXXZ 10004510 f i c_hooks.obj
 0001:00003560       ?_Xlen@?$basic_string@DU?$char_traits@D@std@@V?$allocator@D@2@@std@@SAXXZ 10004560 f i c_hooks.obj
 0001:00003560       ?_Xlen@?$basic_string@_WU?$char_traits@_W@std@@V?$allocator@_W@2@@std@@SAXXZ 10004560 f i config_system.obj
 0001:00003570       ?allocate@?$allocator@D@std@@QAEPADI@Z 10004570 f i c_hooks.obj
 0001:000035a0       ?assign@?$basic_string@DU?$char_traits@D@std@@V?$allocator@D@2@@std@@QAEAAV12@QBD@Z 100045a0 f i c_hooks.obj
 0001:000035d0       ?assign@?$basic_string@DU?$char_traits@D@std@@V?$allocator@D@2@@std@@QAEAAV12@QBDI@Z 100045d0 f i c_hooks.obj
 0001:00003660       ?assign@?$char_traits@D@std@@SAXAADABD@Z 10004660 f i c_hooks.obj
 0001:00003670       ?capacity@?$vector@HV?$allocator@H@std@@@std@@QBEIXZ 10004670 f i c_ragebot.obj
 0001:00003670       ?capacity@?$vector@V?$_List_unchecked_iterator@V?$_List_val@U?$_List_simple_types@U?$pair@$$CBV?$basic_string@DU?$char_traits@D@std@@V?$allocator@D@2@@std@@V?$shared_ptr@UNode@NetvarTree@@@2@@std@@@std@@@std@@@std@@V?$allocator@V?$_List_unchecked_iterator@V?$_List_val@U?$_List_simple_types@U?$pair@$$CBV?$basic_string@DU?$char_traits@D@std@@V?$allocator@D@2@@std@@V?$shared_ptr@UNode@NetvarTree@@@2@@std@@@std@@@std@@@std@@@2@@std@@QBEIXZ 10004670 f i c_hooks.obj
 0001:000036a0       ?clear@?$list@U?$pair@$$CBV?$basic_string@DU?$char_traits@D@std@@V?$allocator@D@2@@std@@V?$shared_ptr@UNode@NetvarTree@@@2@@std@@V?$allocator@U?$pair@$$CBV?$basic_string@DU?$char_traits@D@std@@V?$allocator@D@2@@std@@V?$shared_ptr@UNode@NetvarTree@@@2@@std@@@2@@std@@QAEXXZ 100046a0 f i c_hooks.obj
 0001:00003760       ?copy@?$char_traits@D@std@@SAPADQADQBDI@Z 10004760 f i c_hooks.obj
 0001:00003780       ?deallocate@?$_Default_allocator_traits@V?$allocator@U?$_List_node@U?$pair@$$CBV?$basic_string@DU?$char_traits@D@std@@V?$allocator@D@2@@std@@V?$shared_ptr@UNode@NetvarTree@@@2@@std@@PAX@std@@@std@@@std@@SAXAAV?$allocator@U?$_List_node@U?$pair@$$CBV?$basic_string@DU?$char_traits@D@std@@V?$allocator@D@2@@std@@V?$shared_ptr@UNode@NetvarTree@@@2@@std@@PAX@std@@@2@QAU?$_List_node@U?$pair@$$CBV?$basic_string@DU?$char_traits@D@std@@V?$allocator@D@2@@std@@V?$shared_ptr@UNode@NetvarTree@@@2@@std@@PAX@2@I@Z 10004780 f i c_hooks.obj
 0001:000037a0       ?deallocate@?$allocator@D@std@@QAEXQADI@Z 100047a0 f i c_hooks.obj
 0001:000037c0       ?deallocate@?$allocator@V?$_List_unchecked_iterator@V?$_List_val@U?$_List_simple_types@U?$pair@$$CBV?$basic_string@DU?$char_traits@D@std@@V?$allocator@D@2@@std@@V?$shared_ptr@UNode@NetvarTree@@@2@@std@@@std@@@std@@@std@@@std@@QAEXQAV?$_List_unchecked_iterator@V?$_List_val@U?$_List_simple_types@U?$pair@$$CBV?$basic_string@DU?$char_traits@D@std@@V?$allocator@D@2@@std@@V?$shared_ptr@UNode@NetvarTree@@@2@@std@@@std@@@std@@@2@I@Z 100047c0 f i c_hooks.obj
 0001:000037c0       ?deallocate@?$allocator@PAUPlayerRecords@@@std@@QAEXQAPAUPlayerRecords@@I@Z 100047c0 f i LagComp.obj
 0001:000037c0       ?deallocate@?$allocator@H@std@@QAEXQAHI@Z 100047c0 f i c_ragebot.obj
 0001:000037c0       ?deallocate@?$allocator@PAULegitPlayerRecords@@@std@@QAEXQAPAULegitPlayerRecords@@I@Z 100047c0 f i Legitbot.obj
 0001:000037e0       ?length@?$char_traits@D@std@@SAIQBD@Z 100047e0 f i c_hooks.obj
 0001:00003820       ?max_size@?$_Default_allocator_traits@V?$allocator@_W@std@@@std@@SAIABV?$allocator@_W@2@@Z 10004820 f i config_system.obj
 0001:00003820       ?max@?$numeric_limits@H@std@@SAHXZ 10004820 f i c_hooks.obj
 0001:00003830       ?max_size@?$_Default_allocator_traits@V?$allocator@D@std@@@std@@SAIABV?$allocator@D@2@@Z 10004830 f i c_hooks.obj
 0001:00003830       ?eof@?$char_traits@D@std@@SAHXZ 10004830 f i config_system.obj
 0001:00003840       ?max_size@?$basic_string@DU?$char_traits@D@std@@V?$allocator@D@2@@std@@QBEIXZ 10004840 f i c_hooks.obj
 0001:000038a0       ?move@?$char_traits@D@std@@SAPADQADQBDI@Z 100048a0 f i c_hooks.obj
 0001:000038c0       ?release@?$unique_ptr@VNetvarTree@@U?$default_delete@VNetvarTree@@@std@@@std@@QAEPAVNetvarTree@@XZ 100048c0 f i c_hooks.obj
 0001:000038c0       ?release@?$unique_ptr@$$BY0A@IU?$default_delete@$$BY0A@I@std@@@std@@QAEPAIXZ 100048c0 f i c_hooks.obj
 0001:000038c0       ?release@?$unique_ptr@VVMTHook@@U?$default_delete@VVMTHook@@@std@@@std@@QAEPAVVMTHook@@XZ 100048c0 f i c_hooks.obj
 0001:000038c0       ?release@?$unique_ptr@V_Facet_base@std@@U?$default_delete@V_Facet_base@std@@@2@@std@@QAEPAV_Facet_base@2@XZ 100048c0 f i config_system.obj
 0001:000038f0       ?reset@?$unique_ptr@VNetvarTree@@U?$default_delete@VNetvarTree@@@std@@@std@@QAEXPAVNetvarTree@@@Z 100048f0 f i c_hooks.obj
 0001:00003940       ?reset@?$unique_ptr@VVMTHook@@U?$default_delete@VVMTHook@@@std@@@std@@QAEXPAVVMTHook@@@Z 10004940 f i c_hooks.obj
 0001:00003990       ?table_functions@c_hooks@@SAXXZ 10004990 f   c_hooks.obj
 0001:00003aa0       ?vmt_hooks@c_hooks@@SAXXZ  10004aa0 f   c_hooks.obj
 0001:00003bf0       ?what@exception@std@@UBEPBDXZ 10004bf0 f i c_hooks.obj
 0001:00003c20       ?wnd_hook@c_hooks@@SAXXZ   10004c20 f   c_hooks.obj
 0001:00003c50       ??$?0HX@?$duration@_JU?$ratio@$00$0DOI@@std@@@chrono@std@@QAE@ABH@Z 10004c50 f i dll_main.obj
 0001:00003c70       ??$?0_JU?$ratio@$00$00@std@@X@?$duration@_JU?$ratio@$00$0DLJKMKAA@@std@@@chrono@std@@QAE@ABV?$duration@_JU?$ratio@$00$00@std@@@12@@Z 10004c70 f i dll_main.obj
 0001:00003cb0       ??$?0_JU?$ratio@$00$0JIJGIA@@std@@X@?$duration@_JU?$ratio@$00$0DLJKMKAA@@std@@@chrono@std@@QAE@ABV?$duration@_JU?$ratio@$00$0JIJGIA@@std@@@12@@Z 10004cb0 f i dll_main.obj
 0001:00003cf0       ??$?0_JX@?$duration@_JU?$ratio@$00$0DLJKMKAA@@std@@@chrono@std@@QAE@AB_J@Z 10004cf0 f i dll_main.obj
 0001:00003cf0       ??$?0_JX@?$duration@_JU?$ratio@$00$00@std@@@chrono@std@@QAE@AB_J@Z 10004cf0 f i dll_main.obj
 0001:00003cf0       ??$?0_KX@?$duration@_JU?$ratio@$00$0DOI@@std@@@chrono@std@@QAE@AB_K@Z 10004cf0 f i hooking_init.obj
 0001:00003cf0       ??$?0_JX@?$duration@_JU?$ratio@$00$0JIJGIA@@std@@@chrono@std@@QAE@AB_J@Z 10004cf0 f i dll_main.obj
 0001:00003cf0       ??$?0_JX@?$duration@_JU?$ratio@$00$0DOI@@std@@@chrono@std@@QAE@AB_J@Z 10004cf0 f i dll_main.obj
 0001:00003d10       ??$?M_JU?$ratio@$00$0DOI@@std@@_JU01@@chrono@std@@YA_NABV?$duration@_JU?$ratio@$00$0DOI@@std@@@01@0@Z 10004d10 f i dll_main.obj
 0001:00003d80       ??$?N_JU?$ratio@$00$0DOI@@std@@_JU01@@chrono@std@@YA_NABV?$duration@_JU?$ratio@$00$0DOI@@std@@@01@0@Z 10004d80 f i dll_main.obj
 0001:00003dc0       ??$_To_xtime@_JU?$ratio@$00$0DOI@@std@@@std@@YA?AUxtime@@ABV?$duration@_JU?$ratio@$00$0DOI@@std@@@chrono@0@@Z 10004dc0 f i dll_main.obj
 0001:00003ec0       ??$duration_cast@V?$duration@_JU?$ratio@$00$00@std@@@chrono@std@@_JU?$ratio@$00$0DLJKMKAA@@3@X@chrono@std@@YA?AV?$duration@_JU?$ratio@$00$00@std@@@01@ABV?$duration@_JU?$ratio@$00$0DLJKMKAA@@std@@@01@@Z 10004ec0 f i dll_main.obj
 0001:00003fd0       ??$duration_cast@V?$duration@_JU?$ratio@$00$0DLJKMKAA@@std@@@chrono@std@@_JU?$ratio@$00$00@3@X@chrono@std@@YA?AV?$duration@_JU?$ratio@$00$0DLJKMKAA@@std@@@01@ABV?$duration@_JU?$ratio@$00$00@std@@@01@@Z 10004fd0 f i dll_main.obj
 0001:000040e0       ??$duration_cast@V?$duration@_JU?$ratio@$00$0DLJKMKAA@@std@@@chrono@std@@_JU?$ratio@$00$0DOI@@3@X@chrono@std@@YA?AV?$duration@_JU?$ratio@$00$0DLJKMKAA@@std@@@01@ABV?$duration@_JU?$ratio@$00$0DOI@@std@@@01@@Z 100050e0 f i dll_main.obj
 0001:000041f0       ??$duration_cast@V?$duration@_JU?$ratio@$00$0DLJKMKAA@@std@@@chrono@std@@_JU?$ratio@$00$0JIJGIA@@3@X@chrono@std@@YA?AV?$duration@_JU?$ratio@$00$0DLJKMKAA@@std@@@01@ABV?$duration@_JU?$ratio@$00$0JIJGIA@@std@@@01@@Z 100051f0 f i dll_main.obj
 0001:000042f0       ??$sleep_for@_JU?$ratio@$00$0DOI@@std@@@this_thread@std@@YAXABV?$duration@_JU?$ratio@$00$0DOI@@std@@@chrono@1@@Z 100052f0 f i dll_main.obj
 0001:00004360       ??0?$time_point@Usystem_clock@chrono@std@@V?$duration@_JU?$ratio@$00$0JIJGIA@@std@@@23@@chrono@std@@QAE@ABV?$duration@_JU?$ratio@$00$0JIJGIA@@std@@@12@@Z 10005360 f i dll_main.obj
 0001:00004380       ??Y?$duration@_JU?$ratio@$00$0DLJKMKAA@@std@@@chrono@std@@QAEAAV012@ABV012@@Z 10005380 f i dll_main.obj
 0001:000043b0       ??Z?$duration@_JU?$ratio@$00$0DLJKMKAA@@std@@@chrono@std@@QAEAAV012@ABV012@@Z 100053b0 f i dll_main.obj
 0001:000043e0       ?attach@@YGKPAX@Z          100053e0 f   dll_main.obj
 0001:000044e0       ?count@?$duration@_JU?$ratio@$00$0JIJGIA@@std@@@chrono@std@@QBE_JXZ 100054e0 f i dll_main.obj
 0001:000044e0       ?count@?$duration@_JU?$ratio@$00$0DOI@@std@@@chrono@std@@QBE_JXZ 100054e0 f i dll_main.obj
 0001:000044e0       ?count@?$duration@_JU?$ratio@$00$0DLJKMKAA@@std@@@chrono@std@@QBE_JXZ 100054e0 f i dll_main.obj
 0001:000044e0       ?count@?$duration@_JU?$ratio@$00$00@std@@@chrono@std@@QBE_JXZ 100054e0 f i dll_main.obj
 0001:00004500       ?detach@@YGHXZ             10005500 f   dll_main.obj
 0001:00004510       ?now@system_clock@chrono@std@@SA?AV?$time_point@Usystem_clock@chrono@std@@V?$duration@_JU?$ratio@$00$0JIJGIA@@std@@@23@@23@XZ 10005510 f i dll_main.obj
 0001:00004570       ?sleep_until@this_thread@std@@YAXPBUxtime@@@Z 10005570 f i dll_main.obj
 0001:00004590       ?GetTL@ImRect@@QBE?AUImVec2@@XZ 10005590 f i imgui.obj
 0001:00004590       ?time_since_epoch@?$time_point@Usystem_clock@chrono@std@@V?$duration@_JU?$ratio@$00$0JIJGIA@@std@@@23@@chrono@std@@QBE?AV?$duration@_JU?$ratio@$00$0JIJGIA@@std@@@23@XZ 10005590 f i dll_main.obj
 0001:000045b0       ?zero@?$duration@_JU?$ratio@$00$0DOI@@std@@@chrono@std@@SA?AV123@XZ 100055b0 f i dll_main.obj
 0001:00004600       ?zero@?$duration_values@_J@chrono@std@@SA_JXZ 10005600 f i dll_main.obj
 0001:00004610       _DllMain@12                10005610 f   dll_main.obj
 0001:00004660       ??$?0$$QAV?$basic_string@DU?$char_traits@D@std@@V?$allocator@D@2@@std@@$$Z$$V@?$pair@$$CBV?$basic_string@DU?$char_traits@D@std@@V?$allocator@D@2@@std@@V?$shared_ptr@UNode@NetvarTree@@@2@@std@@QAE@Upiecewise_construct_t@1@V?$tuple@$$QAV?$basic_string@DU?$char_traits@D@std@@V?$allocator@D@2@@std@@@1@V?$tuple@$$V@1@@Z 10005660 f i c_ragebot.obj
 0001:00004690       ??$?0$$V@?$_Compressed_pair@V?$allocator@H@std@@V?$_Vector_val@U?$_Simple_types@H@std@@@2@$00@std@@QAE@U_Zero_then_variadic_args_t@1@@Z 10005690 f i c_ragebot.obj
 0001:00004690       ??$?0$$V@?$_Compressed_pair@V?$allocator@V?$basic_string@DU?$char_traits@D@std@@V?$allocator@D@2@@std@@@std@@V?$_Vector_val@U?$_Simple_types@V?$basic_string@DU?$char_traits@D@std@@V?$allocator@D@2@@std@@@std@@@2@$00@std@@QAE@U_Zero_then_variadic_args_t@1@@Z 10005690 f i config_system.obj
 0001:000046b0       ??$?0AAV?$_List_iterator@V?$_List_val@U?$_List_simple_types@U?$pair@$$CBV?$basic_string@DU?$char_traits@D@std@@V?$allocator@D@2@@std@@V?$shared_ptr@UNode@NetvarTree@@@2@@std@@@std@@@std@@@std@@_N$0A@@?$pair@V?$_List_iterator@V?$_List_val@U?$_List_simple_types@U?$pair@$$CBV?$basic_string@DU?$char_traits@D@std@@V?$allocator@D@2@@std@@V?$shared_ptr@UNode@NetvarTree@@@2@@std@@@std@@@std@@@std@@_N@std@@QAE@AAV?$_List_iterator@V?$_List_val@U?$_List_simple_types@U?$pair@$$CBV?$basic_string@DU?$char_traits@D@std@@V?$allocator@D@2@@std@@V?$shared_ptr@UNode@NetvarTree@@@2@@std@@@std@@@std@@@1@$$QA_N@Z 100056b0 f i c_ragebot.obj
 0001:000046b0       ??$?0V?$_List_iterator@V?$_List_val@U?$_List_simple_types@U?$pair@$$CBV?$basic_string@DU?$char_traits@D@std@@V?$allocator@D@2@@std@@V?$shared_ptr@UNode@NetvarTree@@@2@@std@@@std@@@std@@@std@@_N$0A@@?$pair@V?$_List_iterator@V?$_List_val@U?$_List_simple_types@U?$pair@$$CBV?$basic_string@DU?$char_traits@D@std@@V?$allocator@D@2@@std@@V?$shared_ptr@UNode@NetvarTree@@@2@@std@@@std@@@std@@@std@@_N@std@@QAE@$$QAV?$_List_iterator@V?$_List_val@U?$_List_simple_types@U?$pair@$$CBV?$basic_string@DU?$char_traits@D@std@@V?$allocator@D@2@@std@@V?$shared_ptr@UNode@NetvarTree@@@2@@std@@@std@@@std@@@1@$$QA_N@Z 100056b0 f i c_ragebot.obj
 0001:000046f0       ??$?0U?$pair@$$CBV?$basic_string@DU?$char_traits@D@std@@V?$allocator@D@2@@std@@V?$shared_ptr@UNode@NetvarTree@@@2@@std@@@?$allocator@V?$_List_unchecked_iterator@V?$_List_val@U?$_List_simple_types@U?$pair@$$CBV?$basic_string@DU?$char_traits@D@std@@V?$allocator@D@2@@std@@V?$shared_ptr@UNode@NetvarTree@@@2@@std@@@std@@@std@@@std@@@std@@QAE@ABV?$allocator@U?$pair@$$CBV?$basic_string@DU?$char_traits@D@std@@V?$allocator@D@2@@std@@V?$shared_ptr@UNode@NetvarTree@@@2@@std@@@1@@Z 100056f0 f i NetvarManager.obj
 0001:000046f0       ??$?0U?$pair@$$CBV?$basic_string@DU?$char_traits@D@std@@V?$allocator@D@2@@std@@V?$shared_ptr@UNode@NetvarTree@@@2@@std@@@?$allocator@U?$_List_node@U?$pair@$$CBV?$basic_string@DU?$char_traits@D@std@@V?$allocator@D@2@@std@@V?$shared_ptr@UNode@NetvarTree@@@2@@std@@PAX@std@@@std@@QAE@ABV?$allocator@U?$pair@$$CBV?$basic_string@DU?$char_traits@D@std@@V?$allocator@D@2@@std@@V?$shared_ptr@UNode@NetvarTree@@@2@@std@@@1@@Z 100056f0 f i NetvarManager.obj
 0001:000046f0       ??0?$tuple@$$V@std@@QAE@ABV01@@Z 100056f0 f i c_ragebot.obj
 0001:000046f0       ??$?0ULegitPlayerRecords@@@?$allocator@PAULegitPlayerRecords@@@std@@QAE@ABV?$allocator@ULegitPlayerRecords@@@1@@Z 100056f0 f i Legitbot.obj
 0001:000046f0       ??$?0ULegitPlayerRecords@@@?$allocator@U_Container_proxy@std@@@std@@QAE@ABV?$allocator@ULegitPlayerRecords@@@1@@Z 100056f0 f i Legitbot.obj
 0001:000046f0       ??$?0UPlayerRecords@@@?$allocator@PAUPlayerRecords@@@std@@QAE@ABV?$allocator@UPlayerRecords@@@1@@Z 100056f0 f i LagComp.obj
 0001:000046f0       ??$?0U_Exact_args_t@std@@$0A@@?$tuple@$$V@std@@QAE@U_Exact_args_t@1@@Z 100056f0 f i c_ragebot.obj
 0001:000046f0       ??$?0UPlayerRecords@@@?$allocator@U_Container_proxy@std@@@std@@QAE@ABV?$allocator@UPlayerRecords@@@1@@Z 100056f0 f i LagComp.obj
 0001:000046f0       ??$?0U?$integral_constant@_N$00@std@@@_Unused_parameter@std@@QAE@$$QAU?$integral_constant@_N$00@1@@Z 100056f0 f i c_ragebot.obj
 0001:00004700       ??$?0U_Exact_args_t@std@@V?$basic_string@DU?$char_traits@D@std@@V?$allocator@D@2@@1@$$V$0A@@?$tuple@$$QAV?$basic_string@DU?$char_traits@D@std@@V?$allocator@D@2@@std@@@std@@QAE@U_Exact_args_t@1@$$QAV?$basic_string@DU?$char_traits@D@std@@V?$allocator@D@2@@1@@Z 10005700 f i c_ragebot.obj
 0001:00004740       ??$?0V?$allocator@D@std@@$$V@?$_Compressed_pair@V?$allocator@D@std@@V?$_String_val@U?$_Simple_types@D@std@@@2@$00@std@@QAE@U_One_then_variadic_args_t@1@$$QAV?$allocator@D@1@@Z 10005740 f i c_ragebot.obj
 0001:00004740       ??$?0V?$allocator@_W@std@@$$V@?$_Compressed_pair@V?$allocator@_W@std@@V?$_String_val@U?$_Simple_types@_W@std@@@2@$00@std@@QAE@U_One_then_variadic_args_t@1@$$QAV?$allocator@_W@1@@Z 10005740 f i config_system.obj
 0001:00004740       ??$?0ABV?$allocator@_W@std@@$$V@?$_Compressed_pair@V?$allocator@_W@std@@V?$_String_val@U?$_Simple_types@_W@std@@@2@$00@std@@QAE@U_One_then_variadic_args_t@1@ABV?$allocator@_W@1@@Z 10005740 f i config_system.obj
 0001:00004740       ??$?0ABV?$allocator@D@std@@$$V@?$_Compressed_pair@V?$allocator@D@std@@V?$_String_val@U?$_Simple_types@D@std@@@2@$00@std@@QAE@U_One_then_variadic_args_t@1@ABV?$allocator@D@1@@Z 10005740 f i c_esp.obj
 0001:00004770       ??$?0V?$allocator@_W@std@@X@?$_String_alloc@U?$_String_base_types@_WV?$allocator@_W@std@@@std@@@std@@QAE@$$QAV?$allocator@_W@1@@Z 10005770 f i config_system.obj
 0001:00004770       ??$?0ABV?$allocator@_W@std@@X@?$_String_alloc@U?$_String_base_types@_WV?$allocator@_W@std@@@std@@@std@@QAE@ABV?$allocator@_W@1@@Z 10005770 f i config_system.obj
 0001:00004770       ??$?0ABV?$allocator@D@std@@X@?$_String_alloc@U?$_String_base_types@DV?$allocator@D@std@@@std@@@std@@QAE@ABV?$allocator@D@1@@Z 10005770 f i c_esp.obj
 0001:00004770       ??$?0V?$allocator@D@std@@X@?$_String_alloc@U?$_String_base_types@DV?$allocator@D@std@@@std@@@std@@QAE@$$QAV?$allocator@D@1@@Z 10005770 f i c_ragebot.obj
 0001:000047b0       ??$?0V?$basic_string@DU?$char_traits@D@std@@V?$allocator@D@2@@std@@$$V$0A@@?$tuple@$$QAV?$basic_string@DU?$char_traits@D@std@@V?$allocator@D@2@@std@@@std@@QAE@$$QAV?$basic_string@DU?$char_traits@D@std@@V?$allocator@D@2@@1@@Z 100057b0 f i c_ragebot.obj
 0001:00004820       ??0?$back_insert_iterator@V?$vector@V?$basic_string@DU?$char_traits@D@std@@V?$allocator@D@2@@std@@V?$allocator@V?$basic_string@DU?$char_traits@D@std@@V?$allocator@D@2@@std@@@2@@std@@@std@@QAE@AAV?$vector@V?$basic_string@DU?$char_traits@D@std@@V?$allocator@D@2@@std@@V?$allocator@V?$basic_string@DU?$char_traits@D@std@@V?$allocator@D@2@@std@@@2@@1@@Z 10005820 f i config_system.obj
 0001:00004820       ??$?0V?$basic_string@DU?$char_traits@D@std@@V?$allocator@D@2@@std@@@?$_Tuple_val@$$QAV?$basic_string@DU?$char_traits@D@std@@V?$allocator@D@2@@std@@@std@@QAE@$$QAV?$basic_string@DU?$char_traits@D@std@@V?$allocator@D@2@@1@@Z 10005820 f i c_ragebot.obj
 0001:00004850       ??$?0V?$tuple@$$QAV?$basic_string@DU?$char_traits@D@std@@V?$allocator@D@2@@std@@@std@@V?$tuple@$$V@1@$0A@$$Z$S@?$pair@$$CBV?$basic_string@DU?$char_traits@D@std@@V?$allocator@D@2@@std@@V?$shared_ptr@UNode@NetvarTree@@@2@@std@@QAE@AAV?$tuple@$$QAV?$basic_string@DU?$char_traits@D@std@@V?$allocator@D@2@@std@@@1@AAV?$tuple@$$V@1@U?$integer_sequence@I$0A@@1@U?$integer_sequence@I$S@1@@Z 10005850 f i c_ragebot.obj
 0001:000048a0       ??$?8DU?$char_traits@D@std@@V?$allocator@D@1@@std@@YA_NABV?$basic_string@DU?$char_traits@D@std@@V?$allocator@D@2@@0@0@Z 100058a0 f i c_ragebot.obj
 0001:000048c0       ??D?$_String_iterator@V?$_String_val@U?$_Simple_types@D@std@@@std@@@std@@QBEAADXZ 100058c0 f i config_system.obj
 0001:000048c0       ??$?DU_Dir_enum_impl@filesystem@std@@$0A@@?$shared_ptr@U_Dir_enum_impl@filesystem@std@@@std@@QBEAAU_Dir_enum_impl@filesystem@1@XZ 100058c0 f i config_system.obj
 0001:000048c0       ??$?CU_Dir_enum_impl@filesystem@std@@$0A@@?$shared_ptr@U_Dir_enum_impl@filesystem@std@@@std@@QBEPAU_Dir_enum_impl@filesystem@1@XZ 100058c0 f i config_system.obj
 0001:000048c0       ??$?CUNode@NetvarTree@@$0A@@?$shared_ptr@UNode@NetvarTree@@@std@@QBEPAUNode@NetvarTree@@XZ 100058c0 f i c_ragebot.obj
 0001:000048e0       ??$CallVFunc@$0BMM@PAVWeaponInfo_t@@$$V@Utils@@SAPAVWeaponInfo_t@@PAX@Z 100058e0 f i c_ragebot.obj
 0001:000048e0       ??$CallVFunc@$0BMM@PAVweapon_info_t@@$$V@Utils@@SAPAVweapon_info_t@@PAX@Z 100058e0 f i c_esp.obj
 0001:00004910       ??$GetOffset@PBD@NetvarTree@@QAEHPBD0@Z 10005910 f i c_ragebot.obj
 0001:000049c0       ??$GetOffset@PBDPBD@NetvarTree@@QAEHPBD00@Z 100059c0 f i c_ragebot.obj
 0001:00004a70       ??$GetOffsetRecursive@PBD@NetvarTree@@AAEHAAV?$unordered_map@V?$basic_string@DU?$char_traits@D@std@@V?$allocator@D@2@@std@@V?$shared_ptr@UNode@NetvarTree@@@2@U?$hash@V?$basic_string@DU?$char_traits@D@std@@V?$allocator@D@2@@std@@@2@U?$equal_to@V?$basic_string@DU?$char_traits@D@std@@V?$allocator@D@2@@std@@@2@V?$allocator@U?$pair@$$CBV?$basic_string@DU?$char_traits@D@std@@V?$allocator@D@2@@std@@V?$shared_ptr@UNode@NetvarTree@@@2@@std@@@2@@std@@HPBD1@Z 10005a70 f i c_ragebot.obj
 0001:00004b20       ??$GetValue@W4EntityFlags@@@C_BaseEntity@@AAE?AW4EntityFlags@@H@Z 10005b20 f i c_ragebot.obj
 0001:00004b20       ??$GetValue@H@C_BaseEntity@@AAEHH@Z 10005b20 f i c_ragebot.obj
 0001:00004b20       ??$GetValue@H@C_BaseCombatWeapon@@AAEHH@Z 10005b20 f i c_esp.obj
 0001:00004b40       ??$GetValue@M@C_BaseCombatWeapon@@AAEMH@Z 10005b40 f i c_ragebot.obj
 0001:00004b40       ??$GetValue@M@C_BaseEntity@@AAEMH@Z 10005b40 f i c_ragebot.obj
 0001:00004b60       ??$GetValue@VCBaseHandle@@@C_BaseEntity@@AAE?AVCBaseHandle@@H@Z 10005b60 f i c_ragebot.obj
 0001:00004b80       ??$GetValue@VVector@@@C_BaseEntity@@AAE?AVVector@@H@Z 10005b80 f i c_ragebot.obj
 0001:00004bb0       ??$GetValue@_N@C_BaseEntity@@AAE_NH@Z 10005bb0 f i c_ragebot.obj
 0001:00004bd0       ??$_Buy_if_not_node@AAU?$pair@$$CBV?$basic_string@DU?$char_traits@D@std@@V?$allocator@D@2@@std@@V?$shared_ptr@UNode@NetvarTree@@@2@@std@@@?$_Hash@V?$_Umap_traits@V?$basic_string@DU?$char_traits@D@std@@V?$allocator@D@2@@std@@V?$shared_ptr@UNode@NetvarTree@@@2@V?$_Uhash_compare@V?$basic_string@DU?$char_traits@D@std@@V?$allocator@D@2@@std@@U?$hash@V?$basic_string@DU?$char_traits@D@std@@V?$allocator@D@2@@std@@@2@U?$equal_to@V?$basic_string@DU?$char_traits@D@std@@V?$allocator@D@2@@std@@@2@@2@V?$allocator@U?$pair@$$CBV?$basic_string@DU?$char_traits@D@std@@V?$allocator@D@2@@std@@V?$shared_ptr@UNode@NetvarTree@@@2@@std@@@2@$0A@@std@@@std@@IAE?AV?$_List_unchecked_iterator@V?$_List_val@U?$_List_simple_types@U?$pair@$$CBV?$basic_string@DU?$char_traits@D@std@@V?$allocator@D@2@@std@@V?$shared_ptr@UNode@NetvarTree@@@2@@std@@@std@@@std@@@1@AAU?$pair@$$CBV?$basic_string@DU?$char_traits@D@std@@V?$allocator@D@2@@std@@V?$shared_ptr@UNode@NetvarTree@@@2@@1@V21@@Z 10005bd0 f i c_ragebot.obj
 0001:00004bf0       ??$_Buynode@ABUpiecewise_construct_t@std@@V?$tuple@$$QAV?$basic_string@DU?$char_traits@D@std@@V?$allocator@D@2@@std@@@2@V?$tuple@$$V@2@@?$_List_buy@U?$pair@$$CBV?$basic_string@DU?$char_traits@D@std@@V?$allocator@D@2@@std@@V?$shared_ptr@UNode@NetvarTree@@@2@@std@@V?$allocator@U?$pair@$$CBV?$basic_string@DU?$char_traits@D@std@@V?$allocator@D@2@@std@@V?$shared_ptr@UNode@NetvarTree@@@2@@std@@@2@@std@@QAEPAU?$_List_node@U?$pair@$$CBV?$basic_string@DU?$char_traits@D@std@@V?$allocator@D@2@@std@@V?$shared_ptr@UNode@NetvarTree@@@2@@std@@PAX@1@PAU21@0ABUpiecewise_construct_t@1@$$QAV?$tuple@$$QAV?$basic_string@DU?$char_traits@D@std@@V?$allocator@D@2@@std@@@1@$$QAV?$tuple@$$V@1@@Z 10005bf0 f i c_ragebot.obj
 0001:00004cf0       ??$_Copy_memmove@PAPAULegitPlayerRecords@@PAPAU1@@std@@YAPAPAULegitPlayerRecords@@PAPAU1@00@Z 10005cf0 f i Legitbot.obj
 0001:00004cf0       ??$_Copy_memmove@PAHPAH@std@@YAPAHPAH00@Z 10005cf0 f i c_ragebot.obj
 0001:00004cf0       ??$_Copy_memmove@PAPAUPlayerRecords@@PAPAU1@@std@@YAPAPAUPlayerRecords@@PAPAU1@00@Z 10005cf0 f i LagComp.obj
 0001:00004d30       ??$_Emplace_back@V?$_List_unchecked_iterator@V?$_List_val@U?$_List_simple_types@U?$pair@$$CBV?$basic_string@DU?$char_traits@D@std@@V?$allocator@D@2@@std@@V?$shared_ptr@UNode@NetvarTree@@@2@@std@@@std@@@std@@@std@@@?$_Uninitialized_backout_al@PAV?$_List_unchecked_iterator@V?$_List_val@U?$_List_simple_types@U?$pair@$$CBV?$basic_string@DU?$char_traits@D@std@@V?$allocator@D@2@@std@@V?$shared_ptr@UNode@NetvarTree@@@2@@std@@@std@@@std@@@std@@V?$allocator@V?$_List_unchecked_iterator@V?$_List_val@U?$_List_simple_types@U?$pair@$$CBV?$basic_string@DU?$char_traits@D@std@@V?$allocator@D@2@@std@@V?$shared_ptr@UNode@NetvarTree@@@2@@std@@@std@@@std@@@std@@@2@@std@@QAEX$$QAV?$_List_unchecked_iterator@V?$_List_val@U?$_List_simple_types@U?$pair@$$CBV?$basic_string@DU?$char_traits@D@std@@V?$allocator@D@2@@std@@V?$shared_ptr@UNode@NetvarTree@@@2@@std@@@std@@@std@@@1@@Z 10005d30 f i c_ragebot.obj
 0001:00004d30       ??$_Emplace_back@ABV?$_List_unchecked_iterator@V?$_List_val@U?$_List_simple_types@U?$pair@$$CBV?$basic_string@DU?$char_traits@D@std@@V?$allocator@D@2@@std@@V?$shared_ptr@UNode@NetvarTree@@@2@@std@@@std@@@std@@@std@@@?$_Uninitialized_backout_al@PAV?$_List_unchecked_iterator@V?$_List_val@U?$_List_simple_types@U?$pair@$$CBV?$basic_string@DU?$char_traits@D@std@@V?$allocator@D@2@@std@@V?$shared_ptr@UNode@NetvarTree@@@2@@std@@@std@@@std@@@std@@V?$allocator@V?$_List_unchecked_iterator@V?$_List_val@U?$_List_simple_types@U?$pair@$$CBV?$basic_string@DU?$char_traits@D@std@@V?$allocator@D@2@@std@@V?$shared_ptr@UNode@NetvarTree@@@2@@std@@@std@@@std@@@std@@@2@@std@@QAEXABV?$_List_unchecked_iterator@V?$_List_val@U?$_List_simple_types@U?$pair@$$CBV?$basic_string@DU?$char_traits@D@std@@V?$allocator@D@2@@std@@V?$shared_ptr@UNode@NetvarTree@@@2@@std@@@std@@@std@@@1@@Z 10005d30 f i c_ragebot.obj
 0001:00004d90       ??$_Emplace_back_with_unused_capacity@H@?$vector@HV?$allocator@H@std@@@std@@AAEAAH$$QAH@Z 10005d90 f i c_ragebot.obj
 0001:00004e40       ??$_Emplace_reallocate@H@?$vector@HV?$allocator@H@std@@@std@@QAEPAHQAH$$QAH@Z 10005e40 f i c_ragebot.obj
 0001:00005030       ??$_Ptr_move_cat@V?$_Deque_unchecked_iterator@V?$_Deque_val@U?$_Deque_simple_types@UPlayerRecords@@@std@@@std@@@std@@V12@@std@@YA?AU_General_ptr_iterator_tag@0@ABV?$_Deque_unchecked_iterator@V?$_Deque_val@U?$_Deque_simple_types@UPlayerRecords@@@std@@@std@@@0@0@Z 10006030 f i LagComp.obj
 0001:00005030       ??$_Ptr_move_cat@V?$_Deque_unchecked_iterator@V?$_Deque_val@U?$_Deque_simple_types@ULegitPlayerRecords@@@std@@@std@@@std@@V12@@std@@YA?AU_General_ptr_iterator_tag@0@ABV?$_Deque_unchecked_iterator@V?$_Deque_val@U?$_Deque_simple_types@ULegitPlayerRecords@@@std@@@std@@@0@0@Z 10006030 f i Legitbot.obj
 0001:00005030       ??$_Idl_distance@Vdirectory_iterator@filesystem@std@@V123@@std@@YA?AU_Distance_unknown@0@ABVdirectory_iterator@filesystem@0@0@Z 10006030 f i config_system.obj
 0001:00005030       ??$_Fill_memset_is_safe@PAV?$_List_unchecked_iterator@V?$_List_val@U?$_List_simple_types@U?$pair@$$CBV?$basic_string@DU?$char_traits@D@std@@V?$allocator@D@2@@std@@V?$shared_ptr@UNode@NetvarTree@@@2@@std@@@std@@@std@@@std@@V12@@std@@YA?AU?$integral_constant@_N$0A@@0@ABQAV?$_List_unchecked_iterator@V?$_List_val@U?$_List_simple_types@U?$pair@$$CBV?$basic_string@DU?$char_traits@D@std@@V?$allocator@D@2@@std@@V?$shared_ptr@UNode@NetvarTree@@@2@@std@@@std@@@std@@@0@ABV20@@Z 10006030 f i c_ragebot.obj
 0001:00005030       ??$_Ptr_move_cat@V?$basic_string@DU?$char_traits@D@std@@V?$allocator@D@2@@std@@V12@@std@@YA?AU_General_ptr_iterator_tag@0@ABQAV?$basic_string@DU?$char_traits@D@std@@V?$allocator@D@2@@0@0@Z 10006030 f i config_system.obj
 0001:00005040       ??$_Fill_unchecked1@PAV?$_List_unchecked_iterator@V?$_List_val@U?$_List_simple_types@U?$pair@$$CBV?$basic_string@DU?$char_traits@D@std@@V?$allocator@D@2@@std@@V?$shared_ptr@UNode@NetvarTree@@@2@@std@@@std@@@std@@@std@@V12@@std@@YAXPAV?$_List_unchecked_iterator@V?$_List_val@U?$_List_simple_types@U?$pair@$$CBV?$basic_string@DU?$char_traits@D@std@@V?$allocator@D@2@@std@@V?$shared_ptr@UNode@NetvarTree@@@2@@std@@@std@@@std@@@0@0ABV10@U?$integral_constant@_N$0A@@0@@Z 10006040 f i c_ragebot.obj
 0001:00005070       ??$_Fill_unchecked@PAV?$_List_unchecked_iterator@V?$_List_val@U?$_List_simple_types@U?$pair@$$CBV?$basic_string@DU?$char_traits@D@std@@V?$allocator@D@2@@std@@V?$shared_ptr@UNode@NetvarTree@@@2@@std@@@std@@@std@@@std@@V12@@std@@YAXPAV?$_List_unchecked_iterator@V?$_List_val@U?$_List_simple_types@U?$pair@$$CBV?$basic_string@DU?$char_traits@D@std@@V?$allocator@D@2@@std@@V?$shared_ptr@UNode@NetvarTree@@@2@@std@@@std@@@std@@@0@0ABV10@@Z 10006070 f i c_ragebot.obj
 0001:000050b0       ??$_Get_size_of_n@$03@std@@YAII@Z 100060b0 f i c_ragebot.obj
 0001:000050e0       ??$_Get_size_of_n@$0CI@@std@@YAII@Z 100060e0 f i c_ragebot.obj
 0001:00005110       ??$_Hash_array_representation@D@std@@YAIQBDI@Z 10006110 f i c_ragebot.obj
 0001:00005130       ??$_Idl_distance@PAPAUPlayerRecords@@PAPAU1@@std@@YAHABQAPAUPlayerRecords@@0@Z 10006130 f i LagComp.obj
 0001:00005130       ??$_Idl_distance@PAHPAH@std@@YAHABQAH0@Z 10006130 f i c_ragebot.obj
 0001:00005130       ??$_Idl_distance@PAPAULegitPlayerRecords@@PAPAU1@@std@@YAHABQAPAULegitPlayerRecords@@0@Z 10006130 f i Legitbot.obj
 0001:00005130       ??$_Idl_distance@PAV?$_List_unchecked_iterator@V?$_List_val@U?$_List_simple_types@U?$pair@$$CBV?$basic_string@DU?$char_traits@D@std@@V?$allocator@D@2@@std@@V?$shared_ptr@UNode@NetvarTree@@@2@@std@@@std@@@std@@@std@@PAV12@@std@@YAHABQAV?$_List_unchecked_iterator@V?$_List_val@U?$_List_simple_types@U?$pair@$$CBV?$basic_string@DU?$char_traits@D@std@@V?$allocator@D@2@@std@@V?$shared_ptr@UNode@NetvarTree@@@2@@std@@@std@@@std@@@0@0@Z 10006130 f i c_ragebot.obj
 0001:00005150       ??$_Insert@AAU?$pair@$$CBV?$basic_string@DU?$char_traits@D@std@@V?$allocator@D@2@@std@@V?$shared_ptr@UNode@NetvarTree@@@2@@std@@V?$_List_unchecked_iterator@V?$_List_val@U?$_List_simple_types@U?$pair@$$CBV?$basic_string@DU?$char_traits@D@std@@V?$allocator@D@2@@std@@V?$shared_ptr@UNode@NetvarTree@@@2@@std@@@std@@@std@@@2@@?$_Hash@V?$_Umap_traits@V?$basic_string@DU?$char_traits@D@std@@V?$allocator@D@2@@std@@V?$shared_ptr@UNode@NetvarTree@@@2@V?$_Uhash_compare@V?$basic_string@DU?$char_traits@D@std@@V?$allocator@D@2@@std@@U?$hash@V?$basic_string@DU?$char_traits@D@std@@V?$allocator@D@2@@std@@@2@U?$equal_to@V?$basic_string@DU?$char_traits@D@std@@V?$allocator@D@2@@std@@@2@@2@V?$allocator@U?$pair@$$CBV?$basic_string@DU?$char_traits@D@std@@V?$allocator@D@2@@std@@V?$shared_ptr@UNode@NetvarTree@@@2@@std@@@2@$0A@@std@@@std@@IAE?AU?$pair@V?$_List_iterator@V?$_List_val@U?$_List_simple_types@U?$pair@$$CBV?$basic_string@DU?$char_traits@D@std@@V?$allocator@D@2@@std@@V?$shared_ptr@UNode@NetvarTree@@@2@@std@@@std@@@std@@@std@@_N@1@AAU?$pair@$$CBV?$basic_string@DU?$char_traits@D@std@@V?$allocator@D@2@@std@@V?$shared_ptr@UNode@NetvarTree@@@2@@1@V?$_List_unchecked_iterator@V?$_List_val@U?$_List_simple_types@U?$pair@$$CBV?$basic_string@DU?$char_traits@D@std@@V?$allocator@D@2@@std@@V?$shared_ptr@UNode@NetvarTree@@@2@@std@@@std@@@std@@@1@@Z 10006150 f i c_ragebot.obj
 0001:00005400       ??$_Insert@ABUpiecewise_construct_t@std@@V?$tuple@$$QAV?$basic_string@DU?$char_traits@D@std@@V?$allocator@D@2@@std@@@2@V?$tuple@$$V@2@@?$list@U?$pair@$$CBV?$basic_string@DU?$char_traits@D@std@@V?$allocator@D@2@@std@@V?$shared_ptr@UNode@NetvarTree@@@2@@std@@V?$allocator@U?$pair@$$CBV?$basic_string@DU?$char_traits@D@std@@V?$allocator@D@2@@std@@V?$shared_ptr@UNode@NetvarTree@@@2@@std@@@2@@std@@QAEXV?$_List_unchecked_const_iterator@V?$_List_val@U?$_List_simple_types@U?$pair@$$CBV?$basic_string@DU?$char_traits@D@std@@V?$allocator@D@2@@std@@V?$shared_ptr@UNode@NetvarTree@@@2@@std@@@std@@@std@@U_Iterator_base0@2@@1@ABUpiecewise_construct_t@1@$$QAV?$tuple@$$QAV?$basic_string@DU?$char_traits@D@std@@V?$allocator@D@2@@std@@@1@$$QAV?$tuple@$$V@1@@Z 10006400 f i c_ragebot.obj
 0001:00005490       ??$_Ptr_move_cat@HH@std@@YA?AU_Really_trivial_ptr_iterator_tag@0@ABQAH0@Z 10006490 f i c_ragebot.obj
 0001:00005490       ??$_Ptr_copy_cat@PAUPlayerRecords@@PAU1@@std@@YA?AU_Really_trivial_ptr_iterator_tag@0@ABQAPAUPlayerRecords@@0@Z 10006490 f i LagComp.obj
 0001:00005490       ??$_Ptr_move_cat@V?$_List_unchecked_iterator@V?$_List_val@U?$_List_simple_types@U?$pair@$$CBV?$basic_string@DU?$char_traits@D@std@@V?$allocator@D@2@@std@@V?$shared_ptr@UNode@NetvarTree@@@2@@std@@@std@@@std@@@std@@V12@@std@@YA?AU_Trivially_copyable_ptr_iterator_tag@0@ABQAV?$_List_unchecked_iterator@V?$_List_val@U?$_List_simple_types@U?$pair@$$CBV?$basic_string@DU?$char_traits@D@std@@V?$allocator@D@2@@std@@V?$shared_ptr@UNode@NetvarTree@@@2@@std@@@std@@@std@@@0@0@Z 10006490 f i c_ragebot.obj
 0001:00005490       ??$_Ptr_copy_cat@PAULegitPlayerRecords@@PAU1@@std@@YA?AU_Really_trivial_ptr_iterator_tag@0@ABQAPAULegitPlayerRecords@@0@Z 10006490 f i Legitbot.obj
 0001:000054a0       ??$_Seek_wrapped@PAULegitPlayerRecords@@@std@@YAXAAPAPAULegitPlayerRecords@@QAPAU1@@Z 100064a0 f i Legitbot.obj
 0001:000054a0       ??$_Seek_wrapped@V?$_List_unchecked_iterator@V?$_List_val@U?$_List_simple_types@U?$pair@$$CBV?$basic_string@DU?$char_traits@D@std@@V?$allocator@D@2@@std@@V?$shared_ptr@UNode@NetvarTree@@@2@@std@@@std@@@std@@@std@@@std@@YAXAAPAV?$_List_unchecked_iterator@V?$_List_val@U?$_List_simple_types@U?$pair@$$CBV?$basic_string@DU?$char_traits@D@std@@V?$allocator@D@2@@std@@V?$shared_ptr@UNode@NetvarTree@@@2@@std@@@std@@@std@@@0@QAV10@@Z 100064a0 f i c_ragebot.obj
 0001:000054a0       ??$_Seek_wrapped@PAUPlayerRecords@@@std@@YAXAAPAPAUPlayerRecords@@QAPAU1@@Z 100064a0 f i LagComp.obj
 0001:000054a0       ??$_Seek_wrapped@H@std@@YAXAAPAHQAH@Z 100064a0 f i c_ragebot.obj
 0001:000054a0       ??$_Seek_wrapped@V?$basic_string@DU?$char_traits@D@std@@V?$allocator@D@2@@std@@@std@@YAXAAPAV?$basic_string@DU?$char_traits@D@std@@V?$allocator@D@2@@0@QAV10@@Z 100064a0 f i config_system.obj
 0001:000054a0       ??$_Seek_wrapped@$$CB_W@std@@YAXAAPB_WQB_W@Z 100064a0 f i config_system.obj
 0001:000054b0       ??$_Traits_equal@U?$char_traits@D@std@@@std@@YA_NQBDI0I@Z 100064b0 f i c_ragebot.obj
 0001:000054f0       ??$_Try_emplace@V?$basic_string@DU?$char_traits@D@std@@V?$allocator@D@2@@std@@$$V@?$unordered_map@V?$basic_string@DU?$char_traits@D@std@@V?$allocator@D@2@@std@@V?$shared_ptr@UNode@NetvarTree@@@2@U?$hash@V?$basic_string@DU?$char_traits@D@std@@V?$allocator@D@2@@std@@@2@U?$equal_to@V?$basic_string@DU?$char_traits@D@std@@V?$allocator@D@2@@std@@@2@V?$allocator@U?$pair@$$CBV?$basic_string@DU?$char_traits@D@std@@V?$allocator@D@2@@std@@V?$shared_ptr@UNode@NetvarTree@@@2@@std@@@2@@std@@QAE?AU?$pair@V?$_List_iterator@V?$_List_val@U?$_List_simple_types@U?$pair@$$CBV?$basic_string@DU?$char_traits@D@std@@V?$allocator@D@2@@std@@V?$shared_ptr@UNode@NetvarTree@@@2@@std@@@std@@@std@@@std@@_N@1@$$QAV?$basic_string@DU?$char_traits@D@std@@V?$allocator@D@2@@1@@Z 100064f0 f i c_ragebot.obj
 0001:00005590       ??$_Uninit_alloc_fill_n1@PAV?$_List_unchecked_iterator@V?$_List_val@U?$_List_simple_types@U?$pair@$$CBV?$basic_string@DU?$char_traits@D@std@@V?$allocator@D@2@@std@@V?$shared_ptr@UNode@NetvarTree@@@2@@std@@@std@@@std@@@std@@IV?$allocator@V?$_List_unchecked_iterator@V?$_List_val@U?$_List_simple_types@U?$pair@$$CBV?$basic_string@DU?$char_traits@D@std@@V?$allocator@D@2@@std@@V?$shared_ptr@UNode@NetvarTree@@@2@@std@@@std@@@std@@@std@@@2@@std@@YAPAV?$_List_unchecked_iterator@V?$_List_val@U?$_List_simple_types@U?$pair@$$CBV?$basic_string@DU?$char_traits@D@std@@V?$allocator@D@2@@std@@V?$shared_ptr@UNode@NetvarTree@@@2@@std@@@std@@@std@@@0@QAV10@IABV10@AAV?$allocator@V?$_List_unchecked_iterator@V?$_List_val@U?$_List_simple_types@U?$pair@$$CBV?$basic_string@DU?$char_traits@D@std@@V?$allocator@D@2@@std@@V?$shared_ptr@UNode@NetvarTree@@@2@@std@@@std@@@std@@@std@@@0@U?$integral_constant@_N$0A@@0@@Z 10006590 f i c_ragebot.obj
 0001:00005620       ??$_Uninitialized_fill_n@PAV?$_List_unchecked_iterator@V?$_List_val@U?$_List_simple_types@U?$pair@$$CBV?$basic_string@DU?$char_traits@D@std@@V?$allocator@D@2@@std@@V?$shared_ptr@UNode@NetvarTree@@@2@@std@@@std@@@std@@@std@@IV?$allocator@V?$_List_unchecked_iterator@V?$_List_val@U?$_List_simple_types@U?$pair@$$CBV?$basic_string@DU?$char_traits@D@std@@V?$allocator@D@2@@std@@V?$shared_ptr@UNode@NetvarTree@@@2@@std@@@std@@@std@@@std@@@2@@std@@YAPAV?$_List_unchecked_iterator@V?$_List_val@U?$_List_simple_types@U?$pair@$$CBV?$basic_string@DU?$char_traits@D@std@@V?$allocator@D@2@@std@@V?$shared_ptr@UNode@NetvarTree@@@2@@std@@@std@@@std@@@0@QAV10@IABV10@AAV?$allocator@V?$_List_unchecked_iterator@V?$_List_val@U?$_List_simple_types@U?$pair@$$CBV?$basic_string@DU?$char_traits@D@std@@V?$allocator@D@2@@std@@V?$shared_ptr@UNode@NetvarTree@@@2@@std@@@std@@@std@@@std@@@0@@Z 10006620 f i c_ragebot.obj
 0001:00005650       ??$_Uninitialized_copy@PAPAULegitPlayerRecords@@PAPAU1@V?$allocator@PAULegitPlayerRecords@@@std@@@std@@YAPAPAULegitPlayerRecords@@QAPAU1@0PAPAU1@AAV?$allocator@PAULegitPlayerRecords@@@0@@Z 10006650 f i Legitbot.obj
 0001:00005650       ??$_Uninitialized_copy@PAPAUPlayerRecords@@PAPAU1@V?$allocator@PAUPlayerRecords@@@std@@@std@@YAPAPAUPlayerRecords@@QAPAU1@0PAPAU1@AAV?$allocator@PAUPlayerRecords@@@0@@Z 10006650 f i LagComp.obj
 0001:00005650       ??$_Uninitialized_move@PAHPAHV?$allocator@H@std@@@std@@YAPAHQAH0PAHAAV?$allocator@H@0@@Z 10006650 f i c_ragebot.obj
 0001:00005720       ??$_Uninitialized_move@PAV?$_List_unchecked_iterator@V?$_List_val@U?$_List_simple_types@U?$pair@$$CBV?$basic_string@DU?$char_traits@D@std@@V?$allocator@D@2@@std@@V?$shared_ptr@UNode@NetvarTree@@@2@@std@@@std@@@std@@@std@@PAV12@V?$allocator@V?$_List_unchecked_iterator@V?$_List_val@U?$_List_simple_types@U?$pair@$$CBV?$basic_string@DU?$char_traits@D@std@@V?$allocator@D@2@@std@@V?$shared_ptr@UNode@NetvarTree@@@2@@std@@@std@@@std@@@std@@@2@@std@@YAPAV?$_List_unchecked_iterator@V?$_List_val@U?$_List_simple_types@U?$pair@$$CBV?$basic_string@DU?$char_traits@D@std@@V?$allocator@D@2@@std@@V?$shared_ptr@UNode@NetvarTree@@@2@@std@@@std@@@std@@@0@QAV10@0PAV10@AAV?$allocator@V?$_List_unchecked_iterator@V?$_List_val@U?$_List_simple_types@U?$pair@$$CBV?$basic_string@DU?$char_traits@D@std@@V?$allocator@D@2@@std@@V?$shared_ptr@UNode@NetvarTree@@@2@@std@@@std@@@std@@@std@@@0@@Z 10006720 f i c_ragebot.obj
 0001:000057e0       ??$_Uninitialized_move_al_unchecked@HHV?$allocator@H@std@@@std@@YAPAHQAH00AAV?$allocator@H@0@U_Really_trivial_ptr_iterator_tag@0@U?$integral_constant@_N$00@0@@Z 100067e0 f i c_ragebot.obj
 0001:000057e0       ??$_Uninitialized_copy_al_unchecked@PAULegitPlayerRecords@@PAU1@V?$allocator@PAULegitPlayerRecords@@@std@@@std@@YAPAPAULegitPlayerRecords@@QAPAU1@00AAV?$allocator@PAULegitPlayerRecords@@@0@U_Really_trivial_ptr_iterator_tag@0@U?$integral_constant@_N$00@0@@Z 100067e0 f i Legitbot.obj
 0001:000057e0       ??$_Uninitialized_copy_al_unchecked@PAUPlayerRecords@@PAU1@V?$allocator@PAUPlayerRecords@@@std@@@std@@YAPAPAUPlayerRecords@@QAPAU1@00AAV?$allocator@PAUPlayerRecords@@@0@U_Really_trivial_ptr_iterator_tag@0@U?$integral_constant@_N$00@0@@Z 100067e0 f i LagComp.obj
 0001:00005800       ??$_Uninitialized_move_al_unchecked@PAV?$_List_unchecked_iterator@V?$_List_val@U?$_List_simple_types@U?$pair@$$CBV?$basic_string@DU?$char_traits@D@std@@V?$allocator@D@2@@std@@V?$shared_ptr@UNode@NetvarTree@@@2@@std@@@std@@@std@@@std@@PAV12@V?$allocator@V?$_List_unchecked_iterator@V?$_List_val@U?$_List_simple_types@U?$pair@$$CBV?$basic_string@DU?$char_traits@D@std@@V?$allocator@D@2@@std@@V?$shared_ptr@UNode@NetvarTree@@@2@@std@@@std@@@std@@@std@@@2@@std@@YAPAV?$_List_unchecked_iterator@V?$_List_val@U?$_List_simple_types@U?$pair@$$CBV?$basic_string@DU?$char_traits@D@std@@V?$allocator@D@2@@std@@V?$shared_ptr@UNode@NetvarTree@@@2@@std@@@std@@@std@@@0@PAV10@QAV10@1AAV?$allocator@V?$_List_unchecked_iterator@V?$_List_val@U?$_List_simple_types@U?$pair@$$CBV?$basic_string@DU?$char_traits@D@std@@V?$allocator@D@2@@std@@V?$shared_ptr@UNode@NetvarTree@@@2@@std@@@std@@@std@@@std@@@0@U_General_ptr_iterator_tag@0@U_Unused_parameter@0@@Z 10006800 f i c_ragebot.obj
 0001:000058a0       ??$construct@U?$pair@$$CBV?$basic_string@DU?$char_traits@D@std@@V?$allocator@D@2@@std@@V?$shared_ptr@UNode@NetvarTree@@@2@@std@@ABUpiecewise_construct_t@2@V?$tuple@$$QAV?$basic_string@DU?$char_traits@D@std@@V?$allocator@D@2@@std@@@2@V?$tuple@$$V@2@@?$_Default_allocator_traits@V?$allocator@U?$_List_node@U?$pair@$$CBV?$basic_string@DU?$char_traits@D@std@@V?$allocator@D@2@@std@@V?$shared_ptr@UNode@NetvarTree@@@2@@std@@PAX@std@@@std@@@std@@SAXAAV?$allocator@U?$_List_node@U?$pair@$$CBV?$basic_string@DU?$char_traits@D@std@@V?$allocator@D@2@@std@@V?$shared_ptr@UNode@NetvarTree@@@2@@std@@PAX@std@@@1@QAU?$pair@$$CBV?$basic_string@DU?$char_traits@D@std@@V?$allocator@D@2@@std@@V?$shared_ptr@UNode@NetvarTree@@@2@@1@ABUpiecewise_construct_t@1@$$QAV?$tuple@$$QAV?$basic_string@DU?$char_traits@D@std@@V?$allocator@D@2@@std@@@1@$$QAV?$tuple@$$V@1@@Z 100068a0 f i c_ragebot.obj
 0001:00005920       ??$construct@V?$_List_unchecked_iterator@V?$_List_val@U?$_List_simple_types@U?$pair@$$CBV?$basic_string@DU?$char_traits@D@std@@V?$allocator@D@2@@std@@V?$shared_ptr@UNode@NetvarTree@@@2@@std@@@std@@@std@@@std@@V12@@?$_Default_allocator_traits@V?$allocator@V?$_List_unchecked_iterator@V?$_List_val@U?$_List_simple_types@U?$pair@$$CBV?$basic_string@DU?$char_traits@D@std@@V?$allocator@D@2@@std@@V?$shared_ptr@UNode@NetvarTree@@@2@@std@@@std@@@std@@@std@@@std@@@std@@SAXAAV?$allocator@V?$_List_unchecked_iterator@V?$_List_val@U?$_List_simple_types@U?$pair@$$CBV?$basic_string@DU?$char_traits@D@std@@V?$allocator@D@2@@std@@V?$shared_ptr@UNode@NetvarTree@@@2@@std@@@std@@@std@@@std@@@1@QAV?$_List_unchecked_iterator@V?$_List_val@U?$_List_simple_types@U?$pair@$$CBV?$basic_string@DU?$char_traits@D@std@@V?$allocator@D@2@@std@@V?$shared_ptr@UNode@NetvarTree@@@2@@std@@@std@@@std@@@1@$$QAV31@@Z 10006920 f i c_ragebot.obj
 0001:00005920       ??$construct@V?$_List_unchecked_iterator@V?$_List_val@U?$_List_simple_types@U?$pair@$$CBV?$basic_string@DU?$char_traits@D@std@@V?$allocator@D@2@@std@@V?$shared_ptr@UNode@NetvarTree@@@2@@std@@@std@@@std@@@std@@ABV12@@?$_Default_allocator_traits@V?$allocator@V?$_List_unchecked_iterator@V?$_List_val@U?$_List_simple_types@U?$pair@$$CBV?$basic_string@DU?$char_traits@D@std@@V?$allocator@D@2@@std@@V?$shared_ptr@UNode@NetvarTree@@@2@@std@@@std@@@std@@@std@@@std@@@std@@SAXAAV?$allocator@V?$_List_unchecked_iterator@V?$_List_val@U?$_List_simple_types@U?$pair@$$CBV?$basic_string@DU?$char_traits@D@std@@V?$allocator@D@2@@std@@V?$shared_ptr@UNode@NetvarTree@@@2@@std@@@std@@@std@@@std@@@1@QAV?$_List_unchecked_iterator@V?$_List_val@U?$_List_simple_types@U?$pair@$$CBV?$basic_string@DU?$char_traits@D@std@@V?$allocator@D@2@@std@@V?$shared_ptr@UNode@NetvarTree@@@2@@std@@@std@@@std@@@1@ABV31@@Z 10006920 f i c_ragebot.obj
 0001:00005950       ??$emplace@ABUpiecewise_construct_t@std@@V?$tuple@$$QAV?$basic_string@DU?$char_traits@D@std@@V?$allocator@D@2@@std@@@2@V?$tuple@$$V@2@@?$_Hash@V?$_Umap_traits@V?$basic_string@DU?$char_traits@D@std@@V?$allocator@D@2@@std@@V?$shared_ptr@UNode@NetvarTree@@@2@V?$_Uhash_compare@V?$basic_string@DU?$char_traits@D@std@@V?$allocator@D@2@@std@@U?$hash@V?$basic_string@DU?$char_traits@D@std@@V?$allocator@D@2@@std@@@2@U?$equal_to@V?$basic_string@DU?$char_traits@D@std@@V?$allocator@D@2@@std@@@2@@2@V?$allocator@U?$pair@$$CBV?$basic_string@DU?$char_traits@D@std@@V?$allocator@D@2@@std@@V?$shared_ptr@UNode@NetvarTree@@@2@@std@@@2@$0A@@std@@@std@@QAE?AU?$pair@V?$_List_iterator@V?$_List_val@U?$_List_simple_types@U?$pair@$$CBV?$basic_string@DU?$char_traits@D@std@@V?$allocator@D@2@@std@@V?$shared_ptr@UNode@NetvarTree@@@2@@std@@@std@@@std@@@std@@_N@1@ABUpiecewise_construct_t@1@$$QAV?$tuple@$$QAV?$basic_string@DU?$char_traits@D@std@@V?$allocator@D@2@@std@@@1@$$QAV?$tuple@$$V@1@@Z 10006950 f i c_ragebot.obj
 0001:000059e0       ??$emplace_back@H@?$vector@HV?$allocator@H@std@@@std@@QAEAAH$$QAH@Z 100069e0 f i c_ragebot.obj
 0001:00005a50       ??$emplace_front@ABUpiecewise_construct_t@std@@V?$tuple@$$QAV?$basic_string@DU?$char_traits@D@std@@V?$allocator@D@2@@std@@@2@V?$tuple@$$V@2@@?$list@U?$pair@$$CBV?$basic_string@DU?$char_traits@D@std@@V?$allocator@D@2@@std@@V?$shared_ptr@UNode@NetvarTree@@@2@@std@@V?$allocator@U?$pair@$$CBV?$basic_string@DU?$char_traits@D@std@@V?$allocator@D@2@@std@@V?$shared_ptr@UNode@NetvarTree@@@2@@std@@@2@@std@@QAEAAU?$pair@$$CBV?$basic_string@DU?$char_traits@D@std@@V?$allocator@D@2@@std@@V?$shared_ptr@UNode@NetvarTree@@@2@@1@ABUpiecewise_construct_t@1@$$QAV?$tuple@$$QAV?$basic_string@DU?$char_traits@D@std@@V?$allocator@D@2@@std@@@1@$$QAV?$tuple@$$V@1@@Z 10006a50 f i c_ragebot.obj
 0001:00005ad0       ??$erase@V?$_List_iterator@V?$_List_val@U?$_List_simple_types@U?$pair@$$CBV?$basic_string@DU?$char_traits@D@std@@V?$allocator@D@2@@std@@V?$shared_ptr@UNode@NetvarTree@@@2@@std@@@std@@@std@@@std@@X@?$_Hash@V?$_Umap_traits@V?$basic_string@DU?$char_traits@D@std@@V?$allocator@D@2@@std@@V?$shared_ptr@UNode@NetvarTree@@@2@V?$_Uhash_compare@V?$basic_string@DU?$char_traits@D@std@@V?$allocator@D@2@@std@@U?$hash@V?$basic_string@DU?$char_traits@D@std@@V?$allocator@D@2@@std@@@2@U?$equal_to@V?$basic_string@DU?$char_traits@D@std@@V?$allocator@D@2@@std@@@2@@2@V?$allocator@U?$pair@$$CBV?$basic_string@DU?$char_traits@D@std@@V?$allocator@D@2@@std@@V?$shared_ptr@UNode@NetvarTree@@@2@@std@@@2@$0A@@std@@@std@@QAE?AV?$_List_iterator@V?$_List_val@U?$_List_simple_types@U?$pair@$$CBV?$basic_string@DU?$char_traits@D@std@@V?$allocator@D@2@@std@@V?$shared_ptr@UNode@NetvarTree@@@2@@std@@@std@@@std@@@1@V21@@Z 10006ad0 f i c_ragebot.obj
 0001:00005b00       ??$forward_as_tuple@$$V@std@@YA?AV?$tuple@$$V@0@XZ 10006b00 f i c_ragebot.obj
 0001:00005b10       ??$forward_as_tuple@V?$basic_string@DU?$char_traits@D@std@@V?$allocator@D@2@@std@@@std@@YA?AV?$tuple@$$QAV?$basic_string@DU?$char_traits@D@std@@V?$allocator@D@2@@std@@@0@$$QAV?$basic_string@DU?$char_traits@D@std@@V?$allocator@D@2@@0@@Z 10006b10 f i c_ragebot.obj
 0001:00005b30       ??$get@$0A@$$QAV?$basic_string@DU?$char_traits@D@std@@V?$allocator@D@2@@std@@@std@@YA$$QAV?$basic_string@DU?$char_traits@D@std@@V?$allocator@D@2@@0@$$QAV?$tuple@$$QAV?$basic_string@DU?$char_traits@D@std@@V?$allocator@D@2@@std@@@0@@Z 10006b30 f i c_ragebot.obj
 0001:00005b50       ??$try_emplace@$$V@?$unordered_map@V?$basic_string@DU?$char_traits@D@std@@V?$allocator@D@2@@std@@V?$shared_ptr@UNode@NetvarTree@@@2@U?$hash@V?$basic_string@DU?$char_traits@D@std@@V?$allocator@D@2@@std@@@2@U?$equal_to@V?$basic_string@DU?$char_traits@D@std@@V?$allocator@D@2@@std@@@2@V?$allocator@U?$pair@$$CBV?$basic_string@DU?$char_traits@D@std@@V?$allocator@D@2@@std@@V?$shared_ptr@UNode@NetvarTree@@@2@@std@@@2@@std@@QAE?AU?$pair@V?$_List_iterator@V?$_List_val@U?$_List_simple_types@U?$pair@$$CBV?$basic_string@DU?$char_traits@D@std@@V?$allocator@D@2@@std@@V?$shared_ptr@UNode@NetvarTree@@@2@@std@@@std@@@std@@@std@@_N@1@$$QAV?$basic_string@DU?$char_traits@D@std@@V?$allocator@D@2@@1@@Z 10006b50 f i c_ragebot.obj
 0001:00005b80       ??0?$_Deque_const_iterator@V?$_Deque_val@U?$_Deque_simple_types@ULegitPlayerRecords@@@std@@@std@@@std@@QAE@ABV01@@Z 10006b80 f i Legitbot.obj
 0001:00005b80       ??0?$_Deque_const_iterator@V?$_Deque_val@U?$_Deque_simple_types@UPlayerRecords@@@std@@@std@@@std@@QAE@ABV01@@Z 10006b80 f i c_ragebot.obj
 0001:00005b80       ??0?$_Deque_const_iterator@V?$_Deque_val@U?$_Deque_simple_types@ULegitPlayerRecords@@@std@@@std@@@std@@QAE@$$QAV01@@Z 10006b80 f i Legitbot.obj
 0001:00005b80       ??0?$_Deque_const_iterator@V?$_Deque_val@U?$_Deque_simple_types@UPlayerRecords@@@std@@@std@@@std@@QAE@$$QAV01@@Z 10006b80 f i LagComp.obj
 0001:00005bb0       ??0?$_Deque_const_iterator@V?$_Deque_val@U?$_Deque_simple_types@UPlayerRecords@@@std@@@std@@@std@@QAE@IPBU_Container_base12@1@@Z 10006bb0 f i c_ragebot.obj
 0001:00005bb0       ??0?$_Deque_const_iterator@V?$_Deque_val@U?$_Deque_simple_types@ULegitPlayerRecords@@@std@@@std@@@std@@QAE@IPBU_Container_base12@1@@Z 10006bb0 f i Legitbot.obj
 0001:00005c20       ??0?$_Deque_iterator@V?$_Deque_val@U?$_Deque_simple_types@ULegitPlayerRecords@@@std@@@std@@@std@@QAE@ABV01@@Z 10006c20 f i Legitbot.obj
 0001:00005c20       ??0?$_Deque_iterator@V?$_Deque_val@U?$_Deque_simple_types@ULegitPlayerRecords@@@std@@@std@@@std@@QAE@$$QAV01@@Z 10006c20 f i Legitbot.obj
 0001:00005c20       ??0?$_Deque_iterator@V?$_Deque_val@U?$_Deque_simple_types@UPlayerRecords@@@std@@@std@@@std@@QAE@ABV01@@Z 10006c20 f i c_ragebot.obj
 0001:00005c20       ??0?$_Deque_iterator@V?$_Deque_val@U?$_Deque_simple_types@UPlayerRecords@@@std@@@std@@@std@@QAE@$$QAV01@@Z 10006c20 f i LagComp.obj
 0001:00005c40       ??0?$_Deque_iterator@V?$_Deque_val@U?$_Deque_simple_types@ULegitPlayerRecords@@@std@@@std@@@std@@QAE@IPBU_Container_base12@1@@Z 10006c40 f i Legitbot.obj
 0001:00005c40       ??0?$_Deque_iterator@V?$_Deque_val@U?$_Deque_simple_types@UPlayerRecords@@@std@@@std@@@std@@QAE@IPBU_Container_base12@1@@Z 10006c40 f i c_ragebot.obj
 0001:00005c60       ??0?$_List_const_iterator@V?$_List_val@U?$_List_simple_types@U?$pair@$$CBV?$basic_string@DU?$char_traits@D@std@@V?$allocator@D@2@@std@@V?$shared_ptr@UNode@NetvarTree@@@2@@std@@@std@@@std@@@std@@QAE@PAU?$_List_node@U?$pair@$$CBV?$basic_string@DU?$char_traits@D@std@@V?$allocator@D@2@@std@@V?$shared_ptr@UNode@NetvarTree@@@2@@std@@PAX@1@PBV?$_List_val@U?$_List_simple_types@U?$pair@$$CBV?$basic_string@DU?$char_traits@D@std@@V?$allocator@D@2@@std@@V?$shared_ptr@UNode@NetvarTree@@@2@@std@@@std@@@1@@Z 10006c60 f i c_ragebot.obj
 0001:00005c60       ??0?$_String_iterator@V?$_String_val@U?$_Simple_types@D@std@@@std@@@std@@QAE@PADPBU_Container_base0@1@@Z 10006c60 f i c_esp.obj
 0001:00005c60       ??0?$_List_unchecked_iterator@V?$_List_val@U?$_List_simple_types@U?$pair@$$CBV?$basic_string@DU?$char_traits@D@std@@V?$allocator@D@2@@std@@V?$shared_ptr@UNode@NetvarTree@@@2@@std@@@std@@@std@@@std@@QAE@PAU?$_List_node@U?$pair@$$CBV?$basic_string@DU?$char_traits@D@std@@V?$allocator@D@2@@std@@V?$shared_ptr@UNode@NetvarTree@@@2@@std@@PAX@1@PBV?$_List_val@U?$_List_simple_types@U?$pair@$$CBV?$basic_string@DU?$char_traits@D@std@@V?$allocator@D@2@@std@@V?$shared_ptr@UNode@NetvarTree@@@2@@std@@@std@@@1@@Z 10006c60 f i c_ragebot.obj
 0001:00005c60       ??0?$_Vector_iterator@V?$_Vector_val@U?$_Simple_types@V?$basic_string@DU?$char_traits@D@std@@V?$allocator@D@2@@std@@@std@@@std@@@std@@QAE@PAV?$basic_string@DU?$char_traits@D@std@@V?$allocator@D@2@@1@PBU_Container_base0@1@@Z 10006c60 f i config_system.obj
 0001:00005c80       ??0?$_List_iterator@V?$_List_val@U?$_List_simple_types@U?$pair@$$CBV?$basic_string@DU?$char_traits@D@std@@V?$allocator@D@2@@std@@V?$shared_ptr@UNode@NetvarTree@@@2@@std@@@std@@@std@@@std@@QAE@PAU?$_List_node@U?$pair@$$CBV?$basic_string@DU?$char_traits@D@std@@V?$allocator@D@2@@std@@V?$shared_ptr@UNode@NetvarTree@@@2@@std@@PAX@1@PBV?$_List_val@U?$_List_simple_types@U?$pair@$$CBV?$basic_string@DU?$char_traits@D@std@@V?$allocator@D@2@@std@@V?$shared_ptr@UNode@NetvarTree@@@2@@std@@@std@@@1@@Z 10006c80 f i c_ragebot.obj
 0001:00005ca0       ??0?$_String_const_iterator@V?$_String_val@U?$_Simple_types@D@std@@@std@@@std@@QAE@PBDPBU_Container_base0@1@@Z 10006ca0 f i c_esp.obj
 0001:00005ca0       ??0?$_List_unchecked_const_iterator@V?$_List_val@U?$_List_simple_types@U?$pair@$$CBV?$basic_string@DU?$char_traits@D@std@@V?$allocator@D@2@@std@@V?$shared_ptr@UNode@NetvarTree@@@2@@std@@@std@@@std@@U_Iterator_base0@2@@std@@QAE@PAU?$_List_node@U?$pair@$$CBV?$basic_string@DU?$char_traits@D@std@@V?$allocator@D@2@@std@@V?$shared_ptr@UNode@NetvarTree@@@2@@std@@PAX@1@PBV?$_List_val@U?$_List_simple_types@U?$pair@$$CBV?$basic_string@DU?$char_traits@D@std@@V?$allocator@D@2@@std@@V?$shared_ptr@UNode@NetvarTree@@@2@@std@@@std@@@1@@Z 10006ca0 f i c_ragebot.obj
 0001:00005ca0       ??0?$_Vector_const_iterator@V?$_Vector_val@U?$_Simple_types@V?$basic_string@DU?$char_traits@D@std@@V?$allocator@D@2@@std@@@std@@@std@@@std@@QAE@PAV?$basic_string@DU?$char_traits@D@std@@V?$allocator@D@2@@1@PBU_Container_base0@1@@Z 10006ca0 f i config_system.obj
 0001:00005cd0       ??0_Container_base12@std@@QAE@XZ 10006cd0 f i LagComp.obj
 0001:00005cd0       ??0?$_List_unchecked_const_iterator@V?$_List_val@U?$_List_simple_types@U?$pair@$$CBV?$basic_string@DU?$char_traits@D@std@@V?$allocator@D@2@@std@@V?$shared_ptr@UNode@NetvarTree@@@2@@std@@@std@@@std@@U_Iterator_base0@2@@std@@QAE@XZ 10006cd0 f i c_ragebot.obj
 0001:00005cf0       ??0?$_List_unchecked_iterator@V?$_List_val@U?$_List_simple_types@U?$pair@$$CBV?$basic_string@DU?$char_traits@D@std@@V?$allocator@D@2@@std@@V?$shared_ptr@UNode@NetvarTree@@@2@@std@@@std@@@std@@@std@@QAE@XZ 10006cf0 f i c_ragebot.obj
 0001:00005d10       ??0_Container_proxy@std@@QAE@XZ 10006d10 f i LagComp.obj
 0001:00005d10       ??0?$_Ptr_base@U_Dir_enum_impl@filesystem@std@@@std@@IAE@XZ 10006d10 f i config_system.obj
 0001:00005d10       ??0_Iterator_base12@std@@QAE@XZ 10006d10 f i c_ragebot.obj
 0001:00005d10       ??0?$_List_val@U?$_List_simple_types@U?$pair@$$CBV?$basic_string@DU?$char_traits@D@std@@V?$allocator@D@2@@std@@V?$shared_ptr@UNode@NetvarTree@@@2@@std@@@std@@@std@@QAE@XZ 10006d10 f i NetvarManager.obj
 0001:00005d10       ??0?$_Ptr_base@UNode@NetvarTree@@@std@@IAE@XZ 10006d10 f i c_ragebot.obj
 0001:00005d40       ??0?$_Uninitialized_backout_al@PAV?$basic_string@DU?$char_traits@D@std@@V?$allocator@D@2@@std@@V?$allocator@V?$basic_string@DU?$char_traits@D@std@@V?$allocator@D@2@@std@@@2@@std@@QAE@PAV?$basic_string@DU?$char_traits@D@std@@V?$allocator@D@2@@1@AAV?$allocator@V?$basic_string@DU?$char_traits@D@std@@V?$allocator@D@2@@std@@@1@@Z 10006d40 f i config_system.obj
 0001:00005d40       ??0?$_Uninitialized_backout_al@PAV?$_List_unchecked_iterator@V?$_List_val@U?$_List_simple_types@U?$pair@$$CBV?$basic_string@DU?$char_traits@D@std@@V?$allocator@D@2@@std@@V?$shared_ptr@UNode@NetvarTree@@@2@@std@@@std@@@std@@@std@@V?$allocator@V?$_List_unchecked_iterator@V?$_List_val@U?$_List_simple_types@U?$pair@$$CBV?$basic_string@DU?$char_traits@D@std@@V?$allocator@D@2@@std@@V?$shared_ptr@UNode@NetvarTree@@@2@@std@@@std@@@std@@@std@@@2@@std@@QAE@PAV?$_List_unchecked_iterator@V?$_List_val@U?$_List_simple_types@U?$pair@$$CBV?$basic_string@DU?$char_traits@D@std@@V?$allocator@D@2@@std@@V?$shared_ptr@UNode@NetvarTree@@@2@@std@@@std@@@std@@@1@AAV?$allocator@V?$_List_unchecked_iterator@V?$_List_val@U?$_List_simple_types@U?$pair@$$CBV?$basic_string@DU?$char_traits@D@std@@V?$allocator@D@2@@std@@V?$shared_ptr@UNode@NetvarTree@@@2@@std@@@std@@@std@@@std@@@1@@Z 10006d40 f i c_ragebot.obj
 0001:00005d70       ??0?$_Vector_alloc@U?$_Vec_base_types@HV?$allocator@H@std@@@std@@@std@@QAE@XZ 10006d70 f i c_ragebot.obj
 0001:00005d70       ??0?$_Vector_alloc@U?$_Vec_base_types@V?$basic_string@DU?$char_traits@D@std@@V?$allocator@D@2@@std@@V?$allocator@V?$basic_string@DU?$char_traits@D@std@@V?$allocator@D@2@@std@@@2@@std@@@std@@QAE@XZ 10006d70 f i config_system.obj
 0001:00005da0       ??0?$_Vector_val@U?$_Simple_types@V?$basic_string@DU?$char_traits@D@std@@V?$allocator@D@2@@std@@@std@@@std@@QAE@XZ 10006da0 f i config_system.obj
 0001:00005da0       ??0?$_Vector_val@U?$_Simple_types@V?$_List_unchecked_iterator@V?$_List_val@U?$_List_simple_types@U?$pair@$$CBV?$basic_string@DU?$char_traits@D@std@@V?$allocator@D@2@@std@@V?$shared_ptr@UNode@NetvarTree@@@2@@std@@@std@@@std@@@std@@@std@@@std@@QAE@XZ 10006da0 f i NetvarManager.obj
 0001:00005da0       ??0?$_Vector_val@U?$_Simple_types@H@std@@@std@@QAE@XZ 10006da0 f i c_ragebot.obj
 0001:00005dd0       ??0?$basic_string@DU?$char_traits@D@std@@V?$allocator@D@2@@std@@QAE@$$QAV01@@Z 10006dd0 f i c_ragebot.obj
 0001:00005e60       ??0?$shared_ptr@UNode@NetvarTree@@@std@@QAE@XZ 10006e60 f i c_ragebot.obj
 0001:00005e60       ??0?$shared_ptr@U_Dir_enum_impl@filesystem@std@@@std@@QAE@XZ 10006e60 f i config_system.obj
 0001:00005e80       ??0?$tuple@$$QAV?$basic_string@DU?$char_traits@D@std@@V?$allocator@D@2@@std@@@std@@QAE@$$QAV01@@Z 10006e80 f i c_ragebot.obj
 0001:00005eb0       ??0?$vector@HV?$allocator@H@std@@@std@@QAE@XZ 10006eb0 f i c_ragebot.obj
 0001:00005eb0       ??0?$vector@V?$basic_string@DU?$char_traits@D@std@@V?$allocator@D@2@@std@@V?$allocator@V?$basic_string@DU?$char_traits@D@std@@V?$allocator@D@2@@std@@@2@@std@@QAE@XZ 10006eb0 f i config_system.obj
 0001:00005ef0       ??0CBaseHandle@@QAE@ABV0@@Z 10006ef0 f i c_ragebot.obj
 0001:00005f10       ??0C_Ray@@QAE@VVector@@0@Z 10006f10 f i c_ragebot.obj
 0001:00005f60       ??0C_Trace@@QAE@XZ         10006f60 f i c_ragebot.obj
 0001:00005f90       ??0Vector@@QAE@MMM@Z       10006f90 f i c_ragebot.obj
 0001:00005fd0       ??0VectorAligned@@QAE@XZ   10006fd0 f i c_ragebot.obj
 0001:00005fd0       ??0cplane_t@@QAE@XZ        10006fd0 f i c_ragebot.obj
 0001:00005ff0       ??0_Iterator_base12@std@@QAE@ABU01@@Z 10006ff0 f i c_ragebot.obj
 0001:00006020       ??0c_aimbot@@QAE@XZ        10007020 f i c_ragebot.obj
 0001:00006050       ??1?$_Uninitialized_backout_al@PAV?$_List_unchecked_iterator@V?$_List_val@U?$_List_simple_types@U?$pair@$$CBV?$basic_string@DU?$char_traits@D@std@@V?$allocator@D@2@@std@@V?$shared_ptr@UNode@NetvarTree@@@2@@std@@@std@@@std@@@std@@V?$allocator@V?$_List_unchecked_iterator@V?$_List_val@U?$_List_simple_types@U?$pair@$$CBV?$basic_string@DU?$char_traits@D@std@@V?$allocator@D@2@@std@@V?$shared_ptr@UNode@NetvarTree@@@2@@std@@@std@@@std@@@std@@@2@@std@@QAE@XZ 10007050 f i c_ragebot.obj
 0001:000060b0       ??4Vector@@QAEAAV0@ABV0@@Z 100070b0 f i c_ragebot.obj
 0001:000060f0       ??4VectorAligned@@QAEAAV0@ABVVector@@@Z 100070f0 f i c_ragebot.obj
 0001:00006140       ??4_Iterator_base12@std@@QAEAAU01@ABU01@@Z 10007140 f i c_ragebot.obj
 0001:00006180       ??8?$_List_const_iterator@V?$_List_val@U?$_List_simple_types@U?$pair@$$CBV?$basic_string@DU?$char_traits@D@std@@V?$allocator@D@2@@std@@V?$shared_ptr@UNode@NetvarTree@@@2@@std@@@std@@@std@@@std@@QBE_NABV01@@Z 10007180 f i c_ragebot.obj
 0001:00006180       ??8?$_List_unchecked_const_iterator@V?$_List_val@U?$_List_simple_types@U?$pair@$$CBV?$basic_string@DU?$char_traits@D@std@@V?$allocator@D@2@@std@@V?$shared_ptr@UNode@NetvarTree@@@2@@std@@@std@@@std@@U_Iterator_base0@2@@std@@QBE_NABV01@@Z 10007180 f i c_ragebot.obj
 0001:000061b0       ??9?$_List_unchecked_const_iterator@V?$_List_val@U?$_List_simple_types@U?$pair@$$CBV?$basic_string@DU?$char_traits@D@std@@V?$allocator@D@2@@std@@V?$shared_ptr@UNode@NetvarTree@@@2@@std@@@std@@@std@@U_Iterator_base0@2@@std@@QBE_NABV01@@Z 100071b0 f i c_ragebot.obj
 0001:000061f0       ??9Vector@@QBE_NABV0@@Z    100071f0 f i c_ragebot.obj
 0001:00006250       ??A?$unordered_map@V?$basic_string@DU?$char_traits@D@std@@V?$allocator@D@2@@std@@V?$shared_ptr@UNode@NetvarTree@@@2@U?$hash@V?$basic_string@DU?$char_traits@D@std@@V?$allocator@D@2@@std@@@2@U?$equal_to@V?$basic_string@DU?$char_traits@D@std@@V?$allocator@D@2@@std@@@2@V?$allocator@U?$pair@$$CBV?$basic_string@DU?$char_traits@D@std@@V?$allocator@D@2@@std@@V?$shared_ptr@UNode@NetvarTree@@@2@@std@@@2@@std@@QAEAAV?$shared_ptr@UNode@NetvarTree@@@1@$$QAV?$basic_string@DU?$char_traits@D@std@@V?$allocator@D@2@@1@@Z 10007250 f i c_ragebot.obj
 0001:00006290       ??A?$vector@V?$_List_unchecked_iterator@V?$_List_val@U?$_List_simple_types@U?$pair@$$CBV?$basic_string@DU?$char_traits@D@std@@V?$allocator@D@2@@std@@V?$shared_ptr@UNode@NetvarTree@@@2@@std@@@std@@@std@@@std@@V?$allocator@V?$_List_unchecked_iterator@V?$_List_val@U?$_List_simple_types@U?$pair@$$CBV?$basic_string@DU?$char_traits@D@std@@V?$allocator@D@2@@std@@V?$shared_ptr@UNode@NetvarTree@@@2@@std@@@std@@@std@@@std@@@2@@std@@QAEAAV?$_List_unchecked_iterator@V?$_List_val@U?$_List_simple_types@U?$pair@$$CBV?$basic_string@DU?$char_traits@D@std@@V?$allocator@D@2@@std@@V?$shared_ptr@UNode@NetvarTree@@@2@@std@@@std@@@std@@@1@I@Z 10007290 f i c_ragebot.obj
 0001:000062b0       ??C?$_List_iterator@V?$_List_val@U?$_List_simple_types@U?$pair@$$CBV?$basic_string@DU?$char_traits@D@std@@V?$allocator@D@2@@std@@V?$shared_ptr@UNode@NetvarTree@@@2@@std@@@std@@@std@@@std@@QBEPAU?$pair@$$CBV?$basic_string@DU?$char_traits@D@std@@V?$allocator@D@2@@std@@V?$shared_ptr@UNode@NetvarTree@@@2@@1@XZ 100072b0 f i c_ragebot.obj
 0001:000062d0       ??D?$_Deque_const_iterator@V?$_Deque_val@U?$_Deque_simple_types@UPlayerRecords@@@std@@@std@@@std@@QBEABUPlayerRecords@@XZ 100072d0 f i c_ragebot.obj
 0001:00006330       ??D?$_Deque_iterator@V?$_Deque_val@U?$_Deque_simple_types@UPlayerRecords@@@std@@@std@@@std@@QBEAAUPlayerRecords@@XZ 10007330 f i c_ragebot.obj
 0001:00006350       ??D?$_List_const_iterator@V?$_List_val@U?$_List_simple_types@U?$pair@$$CBV?$basic_string@DU?$char_traits@D@std@@V?$allocator@D@2@@std@@V?$shared_ptr@UNode@NetvarTree@@@2@@std@@@std@@@std@@@std@@QBEABU?$pair@$$CBV?$basic_string@DU?$char_traits@D@std@@V?$allocator@D@2@@std@@V?$shared_ptr@UNode@NetvarTree@@@2@@1@XZ 10007350 f i c_ragebot.obj
 0001:00006350       ??D?$_List_unchecked_const_iterator@V?$_List_val@U?$_List_simple_types@U?$pair@$$CBV?$basic_string@DU?$char_traits@D@std@@V?$allocator@D@2@@std@@V?$shared_ptr@UNode@NetvarTree@@@2@@std@@@std@@@std@@U_Iterator_base0@2@@std@@QBEABU?$pair@$$CBV?$basic_string@DU?$char_traits@D@std@@V?$allocator@D@2@@std@@V?$shared_ptr@UNode@NetvarTree@@@2@@1@XZ 10007350 f i c_ragebot.obj
 0001:00006370       ??D?$_List_iterator@V?$_List_val@U?$_List_simple_types@U?$pair@$$CBV?$basic_string@DU?$char_traits@D@std@@V?$allocator@D@2@@std@@V?$shared_ptr@UNode@NetvarTree@@@2@@std@@@std@@@std@@@std@@QBEAAU?$pair@$$CBV?$basic_string@DU?$char_traits@D@std@@V?$allocator@D@2@@std@@V?$shared_ptr@UNode@NetvarTree@@@2@@1@XZ 10007370 f i c_ragebot.obj
 0001:00006370       ??D?$_List_unchecked_iterator@V?$_List_val@U?$_List_simple_types@U?$pair@$$CBV?$basic_string@DU?$char_traits@D@std@@V?$allocator@D@2@@std@@V?$shared_ptr@UNode@NetvarTree@@@2@@std@@@std@@@std@@@std@@QBEAAU?$pair@$$CBV?$basic_string@DU?$char_traits@D@std@@V?$allocator@D@2@@std@@V?$shared_ptr@UNode@NetvarTree@@@2@@1@XZ 10007370 f i c_ragebot.obj
 0001:00006390       ??DVector@@QBE?AV0@M@Z     10007390 f i c_ragebot.obj
 0001:00006400       ??E?$_List_const_iterator@V?$_List_val@U?$_List_simple_types@U?$pair@$$CBV?$basic_string@DU?$char_traits@D@std@@V?$allocator@D@2@@std@@V?$shared_ptr@UNode@NetvarTree@@@2@@std@@@std@@@std@@@std@@QAE?AV01@H@Z 10007400 f i c_ragebot.obj
 0001:00006430       ??E?$_List_const_iterator@V?$_List_val@U?$_List_simple_types@U?$pair@$$CBV?$basic_string@DU?$char_traits@D@std@@V?$allocator@D@2@@std@@V?$shared_ptr@UNode@NetvarTree@@@2@@std@@@std@@@std@@@std@@QAEAAV01@XZ 10007430 f i c_ragebot.obj
 0001:00006430       ??E?$_List_unchecked_const_iterator@V?$_List_val@U?$_List_simple_types@U?$pair@$$CBV?$basic_string@DU?$char_traits@D@std@@V?$allocator@D@2@@std@@V?$shared_ptr@UNode@NetvarTree@@@2@@std@@@std@@@std@@U_Iterator_base0@2@@std@@QAEAAV01@XZ 10007430 f i c_ragebot.obj
 0001:00006450       ??E?$_List_unchecked_iterator@V?$_List_val@U?$_List_simple_types@U?$pair@$$CBV?$basic_string@DU?$char_traits@D@std@@V?$allocator@D@2@@std@@V?$shared_ptr@UNode@NetvarTree@@@2@@std@@@std@@@std@@@std@@QAEAAV01@XZ 10007450 f i c_ragebot.obj
 0001:00006470       ??F?$_List_unchecked_const_iterator@V?$_List_val@U?$_List_simple_types@U?$pair@$$CBV?$basic_string@DU?$char_traits@D@std@@V?$allocator@D@2@@std@@V?$shared_ptr@UNode@NetvarTree@@@2@@std@@@std@@@std@@U_Iterator_base0@2@@std@@QAEAAV01@XZ 10007470 f i c_ragebot.obj
 0001:00006490       ??F?$_List_unchecked_iterator@V?$_List_val@U?$_List_simple_types@U?$pair@$$CBV?$basic_string@DU?$char_traits@D@std@@V?$allocator@D@2@@std@@V?$shared_ptr@UNode@NetvarTree@@@2@@std@@@std@@@std@@@std@@QAEAAV01@XZ 10007490 f i c_ragebot.obj
 0001:000064b0       ??GVector@@QBE?AV0@ABV0@@Z 100074b0 f i c_ragebot.obj
 0001:00006520       ??H?$_Deque_iterator@V?$_Deque_val@U?$_Deque_simple_types@UPlayerRecords@@@std@@@std@@@std@@QBE?AV01@H@Z 10007520 f i c_ragebot.obj
 0001:00006520       ??H?$_Deque_iterator@V?$_Deque_val@U?$_Deque_simple_types@ULegitPlayerRecords@@@std@@@std@@@std@@QBE?AV01@H@Z 10007520 f i Legitbot.obj
 0001:000065b0       ??HVector@@QBE?AV0@ABV0@@Z 100075b0 f i c_ragebot.obj
 0001:00006620       ??R?$_Uhash_compare@V?$basic_string@DU?$char_traits@D@std@@V?$allocator@D@2@@std@@U?$hash@V?$basic_string@DU?$char_traits@D@std@@V?$allocator@D@2@@std@@@2@U?$equal_to@V?$basic_string@DU?$char_traits@D@std@@V?$allocator@D@2@@std@@@2@@std@@QBEIABV?$basic_string@DU?$char_traits@D@std@@V?$allocator@D@2@@1@@Z 10007620 f i c_ragebot.obj
 0001:00006650       ??R?$_Uhash_compare@V?$basic_string@DU?$char_traits@D@std@@V?$allocator@D@2@@std@@U?$hash@V?$basic_string@DU?$char_traits@D@std@@V?$allocator@D@2@@std@@@2@U?$equal_to@V?$basic_string@DU?$char_traits@D@std@@V?$allocator@D@2@@std@@@2@@std@@QBE_NABV?$basic_string@DU?$char_traits@D@std@@V?$allocator@D@2@@1@0@Z 10007650 f i c_ragebot.obj
 0001:000066a0       ??R?$equal_to@V?$basic_string@DU?$char_traits@D@std@@V?$allocator@D@2@@std@@@std@@QBE_NABV?$basic_string@DU?$char_traits@D@std@@V?$allocator@D@2@@1@0@Z 100076a0 f i c_ragebot.obj
 0001:000066c0       ??R?$hash@V?$basic_string@DU?$char_traits@D@std@@V?$allocator@D@2@@std@@@std@@QBEIABV?$basic_string@DU?$char_traits@D@std@@V?$allocator@D@2@@1@@Z 100076c0 f i c_ragebot.obj
 0001:00006700       ??Y?$_Deque_const_iterator@V?$_Deque_val@U?$_Deque_simple_types@ULegitPlayerRecords@@@std@@@std@@@std@@QAEAAV01@H@Z 10007700 f i Legitbot.obj
 0001:00006700       ??Y?$_Deque_const_iterator@V?$_Deque_val@U?$_Deque_simple_types@UPlayerRecords@@@std@@@std@@@std@@QAEAAV01@H@Z 10007700 f i LagComp.obj
 0001:00006700       ??Y?$_Deque_iterator@V?$_Deque_val@U?$_Deque_simple_types@UPlayerRecords@@@std@@@std@@@std@@QAEAAV01@H@Z 10007700 f i c_ragebot.obj
 0001:00006700       ??Y?$_Deque_iterator@V?$_Deque_val@U?$_Deque_simple_types@ULegitPlayerRecords@@@std@@@std@@@std@@QAEAAV01@H@Z 10007700 f i Legitbot.obj
 0001:00006720       ??YVector@@QAEAAV0@ABV0@@Z 10007720 f i c_ragebot.obj
 0001:00006780       ??ZVector@@QAEAAV0@ABV0@@Z 10007780 f i c_ragebot.obj
 0001:000067e0       ?Autostop@c_aimbot@@QAEXXZ 100077e0 f   c_ragebot.obj
 0001:000068c0       ?GetActiveWeapon@C_BaseEntity@@QAEPAVC_BaseCombatWeapon@@XZ 100078c0 f i c_ragebot.obj
 0001:000069a0       ?GetAimPunchAngle@C_BaseEntity@@QAE?AVVector@@XZ 100079a0 f i c_ragebot.obj
 0001:000069d0       ?GetCSWpnData@C_BaseCombatWeapon@@QAEPAVWeaponInfo_t@@XZ 100079d0 f i c_ragebot.obj
 0001:000069f0       ?GetEyeAngles@C_BaseEntity@@QAE?AVVector@@XZ 100079f0 f i c_ragebot.obj
 0001:00006ab0       ?GetEyePosition@C_BaseEntity@@QAE?AVVector@@XZ 10007ab0 f i c_ragebot.obj
 0001:00006b00       ?GetFlags@C_BaseEntity@@QAE?AW4EntityFlags@@XZ 10007b00 f i c_ragebot.obj
 0001:00006bc0       ?GetFloat@ConVar@@QAEMXZ   10007bc0 f i c_ragebot.obj
 0001:00006bf0       ?GetHealth@C_BaseEntity@@QAEHXZ 10007bf0 f i c_ragebot.obj
 0001:00006cb0       ?GetInaccuracy@C_BaseCombatWeapon@@QAEMXZ 10007cb0 f i c_ragebot.obj
 0001:00006ce0       ?GetLastShotTime@C_BaseCombatWeapon@@QAEMXZ 10007ce0 f i c_ragebot.obj
 0001:00006da0       ?GetLifeState@C_BaseEntity@@QAE_NXZ 10007da0 f i c_ragebot.obj
 0001:00006e60       ?GetNextPrimaryAttack@C_BaseCombatWeapon@@QAEMXZ 10007e60 f i c_ragebot.obj
 0001:00006f20       ?GetOffsetRecursive@NetvarTree@@CAHAAV?$unordered_map@V?$basic_string@DU?$char_traits@D@std@@V?$allocator@D@2@@std@@V?$shared_ptr@UNode@NetvarTree@@@2@U?$hash@V?$basic_string@DU?$char_traits@D@std@@V?$allocator@D@2@@std@@@2@U?$equal_to@V?$basic_string@DU?$char_traits@D@std@@V?$allocator@D@2@@std@@@2@V?$allocator@U?$pair@$$CBV?$basic_string@DU?$char_traits@D@std@@V?$allocator@D@2@@std@@V?$shared_ptr@UNode@NetvarTree@@@2@@std@@@2@@std@@HPBD@Z 10007f20 f i c_ragebot.obj
 0001:00006fb0       ?GetOrigin@C_BaseEntity@@QAE?AVVector@@XZ 10007fb0 f i c_ragebot.obj
 0001:00007070       ?GetSimulationTime@C_BaseEntity@@QAEMXZ 10008070 f i c_ragebot.obj
 0001:00007130       ?GetSpread@C_BaseCombatWeapon@@QAEMXZ 10008130 f i c_ragebot.obj
 0001:00007160       ?GetTeam@C_BaseEntity@@QAEHXZ 10008160 f i c_ragebot.obj
 0001:00007220       ?GetTickBase@C_BaseEntity@@QAEHXZ 10008220 f i c_ragebot.obj
 0001:000072e0       ?GetVelocity@C_BaseEntity@@QAE?AVVector@@XZ 100082e0 f i c_ragebot.obj
 0001:000073b0       ?HitChance@c_aimbot@@QAE_NPAVC_BaseEntity@@PAVC_BaseCombatWeapon@@VVector@@2H@Z 100083b0 f   c_ragebot.obj
 0001:000079f0       ?Hitscan@c_aimbot@@QAE?AVVector@@PAVC_BaseEntity@@@Z 100089f0 f   c_ragebot.obj
 0001:00008bf0       ?Init@C_Ray@@QAEXABVVector@@0@Z 10009bf0 f i c_ragebot.obj
 0001:00008cb0       ?Init@Vector@@QAEXMMM@Z    10009cb0 f i c_ragebot.obj
 0001:00008cf0       ?IsAlive@C_BaseEntity@@QAE_NXZ 10009cf0 f i c_ragebot.obj
 0001:00008d30       ?Length2D@Vector@@QBEMXZ   10009d30 f i c_ragebot.obj
 0001:00008d90       ?Length@Vector@@QBEMXZ     10009d90 f i c_ragebot.obj
 0001:00008e00       ?LengthSqr@Vector@@QBEMXZ  10009e00 f i c_ragebot.obj
 0001:00008e50       ?Normalize@Vector@@QAE?AV1@XZ 10009e50 f i c_ragebot.obj
 0001:00008f00       ?NormalizeInPlace@Vector@@QAEMXZ 10009f00 f i c_ragebot.obj
 0001:00008fc0       ?OnCreateMove@c_aimbot@@QAEXXZ 10009fc0 f   c_ragebot.obj
 0001:00009620       ?ShouldBaim@@YA_NPAVC_BaseEntity@@@Z 1000a620 f   c_ragebot.obj
 0001:00009940       ?_Compat@?$_String_const_iterator@V?$_String_val@U?$_Simple_types@D@std@@@std@@@std@@QBEXABV12@@Z 1000a940 f i c_esp.obj
 0001:00009940       ?_Compat@?$_Vector_const_iterator@V?$_Vector_val@U?$_Simple_types@V?$basic_string@DU?$char_traits@D@std@@V?$allocator@D@2@@std@@@std@@@std@@@std@@QBEXABV12@@Z 1000a940 f i config_system.obj
 0001:00009940       ?_Compat@?$_Deque_const_iterator@V?$_Deque_val@U?$_Deque_simple_types@UPlayerRecords@@@std@@@std@@@std@@QBEXABV12@@Z 1000a940 f i LagComp.obj
 0001:00009940       ?_Verify_offset@?$_Deque_const_iterator@V?$_Deque_val@U?$_Deque_simple_types@UPlayerRecords@@@std@@@std@@@std@@QBEXH@Z 1000a940 f i LagComp.obj
 0001:00009940       ?_Verify_offset@?$_Vector_const_iterator@V?$_Vector_val@U?$_Simple_types@V?$basic_string@DU?$char_traits@D@std@@V?$allocator@D@2@@std@@@std@@@std@@@std@@QBEXH@Z 1000a940 f i config_system.obj
 0001:00009940       ?_Adopt@_Iterator_base0@std@@QAEXPBX@Z 1000a940 f i c_ragebot.obj
 0001:00009940       ?_Verify_offset@?$_String_const_iterator@V?$_String_val@U?$_Simple_types@D@std@@@std@@@std@@QBEXH@Z 1000a940 f i c_esp.obj
 0001:00009940       ?_Verify_offset@?$_Deque_const_iterator@V?$_Deque_val@U?$_Deque_simple_types@ULegitPlayerRecords@@@std@@@std@@@std@@QBEXH@Z 1000a940 f i Legitbot.obj
 0001:00009940       ?_Compat@?$_Deque_const_iterator@V?$_Deque_val@U?$_Deque_simple_types@ULegitPlayerRecords@@@std@@@std@@@std@@QBEXABV12@@Z 1000a940 f i Legitbot.obj
 0001:00009950       ?_Adopt@_Iterator_base12@std@@QAEXPBU_Container_base12@2@@Z 1000a950 f i c_ragebot.obj
 0001:00009980       ?_Assign_rv_contents_with_alloc_always_equal@?$basic_string@DU?$char_traits@D@std@@V?$allocator@D@2@@std@@QAEX$$QAV12@U?$integral_constant@_N$00@2@@Z 1000a980 f i c_ragebot.obj
 0001:00009a20       ?_Begin@?$_Hash@V?$_Umap_traits@V?$basic_string@DU?$char_traits@D@std@@V?$allocator@D@2@@std@@V?$shared_ptr@UNode@NetvarTree@@@2@V?$_Uhash_compare@V?$basic_string@DU?$char_traits@D@std@@V?$allocator@D@2@@std@@U?$hash@V?$basic_string@DU?$char_traits@D@std@@V?$allocator@D@2@@std@@@2@U?$equal_to@V?$basic_string@DU?$char_traits@D@std@@V?$allocator@D@2@@std@@@2@@2@V?$allocator@U?$pair@$$CBV?$basic_string@DU?$char_traits@D@std@@V?$allocator@D@2@@std@@V?$shared_ptr@UNode@NetvarTree@@@2@@std@@@2@$0A@@std@@@std@@IAE?AV?$_List_unchecked_iterator@V?$_List_val@U?$_List_simple_types@U?$pair@$$CBV?$basic_string@DU?$char_traits@D@std@@V?$allocator@D@2@@std@@V?$shared_ptr@UNode@NetvarTree@@@2@@std@@@std@@@std@@@2@I@Z 1000aa20 f i c_ragebot.obj
 0001:00009a50       ?_Buy@?$vector@V?$_List_unchecked_iterator@V?$_List_val@U?$_List_simple_types@U?$pair@$$CBV?$basic_string@DU?$char_traits@D@std@@V?$allocator@D@2@@std@@V?$shared_ptr@UNode@NetvarTree@@@2@@std@@@std@@@std@@@std@@V?$allocator@V?$_List_unchecked_iterator@V?$_List_val@U?$_List_simple_types@U?$pair@$$CBV?$basic_string@DU?$char_traits@D@std@@V?$allocator@D@2@@std@@V?$shared_ptr@UNode@NetvarTree@@@2@@std@@@std@@@std@@@std@@@2@@std@@AAE_NI@Z 1000aa50 f i c_ragebot.obj
 0001:00009b10       ?_Buynode0@?$_List_alloc@U?$_List_base_types@U?$pair@$$CBV?$basic_string@DU?$char_traits@D@std@@V?$allocator@D@2@@std@@V?$shared_ptr@UNode@NetvarTree@@@2@@std@@V?$allocator@U?$pair@$$CBV?$basic_string@DU?$char_traits@D@std@@V?$allocator@D@2@@std@@V?$shared_ptr@UNode@NetvarTree@@@2@@std@@@2@@std@@@std@@QAEPAU?$_List_node@U?$pair@$$CBV?$basic_string@DU?$char_traits@D@std@@V?$allocator@D@2@@std@@V?$shared_ptr@UNode@NetvarTree@@@2@@std@@PAX@2@PAU32@0@Z 1000ab10 f i c_ragebot.obj
 0001:00009c00       ?_Calculate_growth@?$vector@HV?$allocator@H@std@@@std@@ABEII@Z 1000ac00 f i c_ragebot.obj
 0001:00009c00       ?_Calculate_growth@?$vector@V?$_List_unchecked_iterator@V?$_List_val@U?$_List_simple_types@U?$pair@$$CBV?$basic_string@DU?$char_traits@D@std@@V?$allocator@D@2@@std@@V?$shared_ptr@UNode@NetvarTree@@@2@@std@@@std@@@std@@@std@@V?$allocator@V?$_List_unchecked_iterator@V?$_List_val@U?$_List_simple_types@U?$pair@$$CBV?$basic_string@DU?$char_traits@D@std@@V?$allocator@D@2@@std@@V?$shared_ptr@UNode@NetvarTree@@@2@@std@@@std@@@std@@@std@@@2@@std@@ABEII@Z 1000ac00 f i c_ragebot.obj
 0001:00009c50       ?_Change_array@?$vector@HV?$allocator@H@std@@@std@@AAEXQAHII@Z 1000ac50 f i c_ragebot.obj
 0001:00009c50       ?_Change_array@?$vector@V?$_List_unchecked_iterator@V?$_List_val@U?$_List_simple_types@U?$pair@$$CBV?$basic_string@DU?$char_traits@D@std@@V?$allocator@D@2@@std@@V?$shared_ptr@UNode@NetvarTree@@@2@@std@@@std@@@std@@@std@@V?$allocator@V?$_List_unchecked_iterator@V?$_List_val@U?$_List_simple_types@U?$pair@$$CBV?$basic_string@DU?$char_traits@D@std@@V?$allocator@D@2@@std@@V?$shared_ptr@UNode@NetvarTree@@@2@@std@@@std@@@std@@@std@@@2@@std@@AAEXQAV?$_List_unchecked_iterator@V?$_List_val@U?$_List_simple_types@U?$pair@$$CBV?$basic_string@DU?$char_traits@D@std@@V?$allocator@D@2@@std@@V?$shared_ptr@UNode@NetvarTree@@@2@@std@@@std@@@std@@@2@II@Z 1000ac50 f i c_ragebot.obj
 0001:00009d10       ?_Check_size@?$_Hash@V?$_Umap_traits@V?$basic_string@DU?$char_traits@D@std@@V?$allocator@D@2@@std@@V?$shared_ptr@UNode@NetvarTree@@@2@V?$_Uhash_compare@V?$basic_string@DU?$char_traits@D@std@@V?$allocator@D@2@@std@@U?$hash@V?$basic_string@DU?$char_traits@D@std@@V?$allocator@D@2@@std@@@2@U?$equal_to@V?$basic_string@DU?$char_traits@D@std@@V?$allocator@D@2@@std@@@2@@2@V?$allocator@U?$pair@$$CBV?$basic_string@DU?$char_traits@D@std@@V?$allocator@D@2@@std@@V?$shared_ptr@UNode@NetvarTree@@@2@@std@@@2@$0A@@std@@@std@@IAEXXZ 1000ad10 f i c_ragebot.obj
 0001:00009da0       ?_Destroy_if_node@?$_Hash@V?$_Umap_traits@V?$basic_string@DU?$char_traits@D@std@@V?$allocator@D@2@@std@@V?$shared_ptr@UNode@NetvarTree@@@2@V?$_Uhash_compare@V?$basic_string@DU?$char_traits@D@std@@V?$allocator@D@2@@std@@U?$hash@V?$basic_string@DU?$char_traits@D@std@@V?$allocator@D@2@@std@@@2@U?$equal_to@V?$basic_string@DU?$char_traits@D@std@@V?$allocator@D@2@@std@@@2@@2@V?$allocator@U?$pair@$$CBV?$basic_string@DU?$char_traits@D@std@@V?$allocator@D@2@@std@@V?$shared_ptr@UNode@NetvarTree@@@2@@std@@@2@$0A@@std@@@std@@IAEXV?$_List_unchecked_iterator@V?$_List_val@U?$_List_simple_types@U?$pair@$$CBV?$basic_string@DU?$char_traits@D@std@@V?$allocator@D@2@@std@@V?$shared_ptr@UNode@NetvarTree@@@2@@std@@@std@@@std@@@2@@Z 1000ada0 f i c_ragebot.obj
 0001:00009df0       ?_End@?$_Hash@V?$_Umap_traits@V?$basic_string@DU?$char_traits@D@std@@V?$allocator@D@2@@std@@V?$shared_ptr@UNode@NetvarTree@@@2@V?$_Uhash_compare@V?$basic_string@DU?$char_traits@D@std@@V?$allocator@D@2@@std@@U?$hash@V?$basic_string@DU?$char_traits@D@std@@V?$allocator@D@2@@std@@@2@U?$equal_to@V?$basic_string@DU?$char_traits@D@std@@V?$allocator@D@2@@std@@@2@@2@V?$allocator@U?$pair@$$CBV?$basic_string@DU?$char_traits@D@std@@V?$allocator@D@2@@std@@V?$shared_ptr@UNode@NetvarTree@@@2@@std@@@2@$0A@@std@@@std@@IAE?AV?$_List_unchecked_iterator@V?$_List_val@U?$_List_simple_types@U?$pair@$$CBV?$basic_string@DU?$char_traits@D@std@@V?$allocator@D@2@@std@@V?$shared_ptr@UNode@NetvarTree@@@2@@std@@@std@@@std@@@2@I@Z 1000adf0 f i c_ragebot.obj
 0001:00009e70       ?_Equal@?$basic_string@DU?$char_traits@D@std@@V?$allocator@D@2@@std@@QBE_NABV12@@Z 1000ae70 f i c_ragebot.obj
 0001:00009f00       ?_Erase_bucket@?$_Hash@V?$_Umap_traits@V?$basic_string@DU?$char_traits@D@std@@V?$allocator@D@2@@std@@V?$shared_ptr@UNode@NetvarTree@@@2@V?$_Uhash_compare@V?$basic_string@DU?$char_traits@D@std@@V?$allocator@D@2@@std@@U?$hash@V?$basic_string@DU?$char_traits@D@std@@V?$allocator@D@2@@std@@@2@U?$equal_to@V?$basic_string@DU?$char_traits@D@std@@V?$allocator@D@2@@std@@@2@@2@V?$allocator@U?$pair@$$CBV?$basic_string@DU?$char_traits@D@std@@V?$allocator@D@2@@std@@V?$shared_ptr@UNode@NetvarTree@@@2@@std@@@2@$0A@@std@@@std@@IAEXV?$_List_iterator@V?$_List_val@U?$_List_simple_types@U?$pair@$$CBV?$basic_string@DU?$char_traits@D@std@@V?$allocator@D@2@@std@@V?$shared_ptr@UNode@NetvarTree@@@2@@std@@@std@@@std@@@2@I@Z 1000af00 f i c_ragebot.obj
 0001:0000a010       ?_Fnv1a_append_bytes@std@@YAIIQBEI@Z 1000b010 f i c_ragebot.obj
 0001:0000a050       ?_Getkeyeq@?$_Uhash_compare@V?$basic_string@DU?$char_traits@D@std@@V?$allocator@D@2@@std@@U?$hash@V?$basic_string@DU?$char_traits@D@std@@V?$allocator@D@2@@std@@@2@U?$equal_to@V?$basic_string@DU?$char_traits@D@std@@V?$allocator@D@2@@std@@@2@@std@@QBEABU?$equal_to@V?$basic_string@DU?$char_traits@D@std@@V?$allocator@D@2@@std@@@2@XZ 1000b050 f i c_ragebot.obj
 0001:0000a050       ?_Get_max_bucket_size@?$_Uhash_compare@V?$basic_string@DU?$char_traits@D@std@@V?$allocator@D@2@@std@@U?$hash@V?$basic_string@DU?$char_traits@D@std@@V?$allocator@D@2@@std@@@2@U?$equal_to@V?$basic_string@DU?$char_traits@D@std@@V?$allocator@D@2@@std@@@2@@std@@QBEABMXZ 1000b050 f i c_ragebot.obj
 0001:0000a050       ?_Get_max_bucket_size@?$_Uhash_compare@V?$basic_string@DU?$char_traits@D@std@@V?$allocator@D@2@@std@@U?$hash@V?$basic_string@DU?$char_traits@D@std@@V?$allocator@D@2@@std@@@2@U?$equal_to@V?$basic_string@DU?$char_traits@D@std@@V?$allocator@D@2@@std@@@2@@std@@QAEAAMXZ 1000b050 f i NetvarManager.obj
 0001:0000a070       ?_Getblock@?$_Deque_val@U?$_Deque_simple_types@ULegitPlayerRecords@@@std@@@std@@QBEII@Z 1000b070 f i Legitbot.obj
 0001:0000a070       ?_Getblock@?$_Deque_val@U?$_Deque_simple_types@UPlayerRecords@@@std@@@std@@QBEII@Z 1000b070 f i c_ragebot.obj
 0001:0000a090       ?GetTraceType@C_TraceFilter@@UBE?AW4TraceType_t@@XZ 1000b090 f i Autowall.obj
 0001:0000a090       ?_Getcont@_Iterator_base0@std@@QBEPBU_Container_base0@2@XZ 1000b090 f i c_ragebot.obj
 0001:0000a0a0       ?_Getcont@_Iterator_base12@std@@QBEPBU_Container_base12@2@XZ 1000b0a0 f i c_ragebot.obj
 0001:0000a0d0       ?_Has_unused_capacity@?$vector@HV?$allocator@H@std@@@std@@ABE_NXZ 1000b0d0 f i c_ragebot.obj
 0001:0000a0d0       ?_Has_unused_capacity@?$vector@V?$basic_string@DU?$char_traits@D@std@@V?$allocator@D@2@@std@@V?$allocator@V?$basic_string@DU?$char_traits@D@std@@V?$allocator@D@2@@std@@@2@@std@@ABE_NXZ 1000b0d0 f i config_system.obj
 0001:0000a110       ?_Hashval@?$_Hash@V?$_Umap_traits@V?$basic_string@DU?$char_traits@D@std@@V?$allocator@D@2@@std@@V?$shared_ptr@UNode@NetvarTree@@@2@V?$_Uhash_compare@V?$basic_string@DU?$char_traits@D@std@@V?$allocator@D@2@@std@@U?$hash@V?$basic_string@DU?$char_traits@D@std@@V?$allocator@D@2@@std@@@2@U?$equal_to@V?$basic_string@DU?$char_traits@D@std@@V?$allocator@D@2@@std@@@2@@2@V?$allocator@U?$pair@$$CBV?$basic_string@DU?$char_traits@D@std@@V?$allocator@D@2@@std@@V?$shared_ptr@UNode@NetvarTree@@@2@@std@@@2@$0A@@std@@@std@@IBEIABV?$basic_string@DU?$char_traits@D@std@@V?$allocator@D@2@@2@@Z 1000b110 f i c_ragebot.obj
 0001:0000a140       ?_Incsize@?$list@U?$pair@$$CBV?$basic_string@DU?$char_traits@D@std@@V?$allocator@D@2@@std@@V?$shared_ptr@UNode@NetvarTree@@@2@@std@@V?$allocator@U?$pair@$$CBV?$basic_string@DU?$char_traits@D@std@@V?$allocator@D@2@@std@@V?$shared_ptr@UNode@NetvarTree@@@2@@std@@@2@@std@@QAEXI@Z 1000b140 f i c_ragebot.obj
 0001:0000a190       ?_Init@?$_Hash@V?$_Umap_traits@V?$basic_string@DU?$char_traits@D@std@@V?$allocator@D@2@@std@@V?$shared_ptr@UNode@NetvarTree@@@2@V?$_Uhash_compare@V?$basic_string@DU?$char_traits@D@std@@V?$allocator@D@2@@std@@U?$hash@V?$basic_string@DU?$char_traits@D@std@@V?$allocator@D@2@@std@@@2@U?$equal_to@V?$basic_string@DU?$char_traits@D@std@@V?$allocator@D@2@@std@@@2@@2@V?$allocator@U?$pair@$$CBV?$basic_string@DU?$char_traits@D@std@@V?$allocator@D@2@@std@@V?$shared_ptr@UNode@NetvarTree@@@2@@std@@@2@$0A@@std@@@std@@IAEXI@Z 1000b190 f i c_ragebot.obj
 0001:0000a1f0       ?_Insert_bucket@?$_Hash@V?$_Umap_traits@V?$basic_string@DU?$char_traits@D@std@@V?$allocator@D@2@@std@@V?$shared_ptr@UNode@NetvarTree@@@2@V?$_Uhash_compare@V?$basic_string@DU?$char_traits@D@std@@V?$allocator@D@2@@std@@U?$hash@V?$basic_string@DU?$char_traits@D@std@@V?$allocator@D@2@@std@@@2@U?$equal_to@V?$basic_string@DU?$char_traits@D@std@@V?$allocator@D@2@@std@@@2@@2@V?$allocator@U?$pair@$$CBV?$basic_string@DU?$char_traits@D@std@@V?$allocator@D@2@@std@@V?$shared_ptr@UNode@NetvarTree@@@2@@std@@@2@$0A@@std@@@std@@IAEXV?$_List_unchecked_iterator@V?$_List_val@U?$_List_simple_types@U?$pair@$$CBV?$basic_string@DU?$char_traits@D@std@@V?$allocator@D@2@@std@@V?$shared_ptr@UNode@NetvarTree@@@2@@std@@@std@@@std@@@2@0I@Z 1000b1f0 f i c_ragebot.obj
 0001:0000a2e0       ?_Make_iter@?$_Hash@V?$_Umap_traits@V?$basic_string@DU?$char_traits@D@std@@V?$allocator@D@2@@std@@V?$shared_ptr@UNode@NetvarTree@@@2@V?$_Uhash_compare@V?$basic_string@DU?$char_traits@D@std@@V?$allocator@D@2@@std@@U?$hash@V?$basic_string@DU?$char_traits@D@std@@V?$allocator@D@2@@std@@@2@U?$equal_to@V?$basic_string@DU?$char_traits@D@std@@V?$allocator@D@2@@std@@@2@@2@V?$allocator@U?$pair@$$CBV?$basic_string@DU?$char_traits@D@std@@V?$allocator@D@2@@std@@V?$shared_ptr@UNode@NetvarTree@@@2@@std@@@2@$0A@@std@@@std@@QBE?AV?$_List_iterator@V?$_List_val@U?$_List_simple_types@U?$pair@$$CBV?$basic_string@DU?$char_traits@D@std@@V?$allocator@D@2@@std@@V?$shared_ptr@UNode@NetvarTree@@@2@@std@@@std@@@std@@@2@V?$_List_const_iterator@V?$_List_val@U?$_List_simple_types@U?$pair@$$CBV?$basic_string@DU?$char_traits@D@std@@V?$allocator@D@2@@std@@V?$shared_ptr@UNode@NetvarTree@@@2@@std@@@std@@@std@@@2@@Z 1000b2e0 f i c_ragebot.obj
 0001:0000a310       ?_Make_iter@?$_Hash@V?$_Umap_traits@V?$basic_string@DU?$char_traits@D@std@@V?$allocator@D@2@@std@@V?$shared_ptr@UNode@NetvarTree@@@2@V?$_Uhash_compare@V?$basic_string@DU?$char_traits@D@std@@V?$allocator@D@2@@std@@U?$hash@V?$basic_string@DU?$char_traits@D@std@@V?$allocator@D@2@@std@@@2@U?$equal_to@V?$basic_string@DU?$char_traits@D@std@@V?$allocator@D@2@@std@@@2@@2@V?$allocator@U?$pair@$$CBV?$basic_string@DU?$char_traits@D@std@@V?$allocator@D@2@@std@@V?$shared_ptr@UNode@NetvarTree@@@2@@std@@@2@$0A@@std@@@std@@QBE?AV?$_List_iterator@V?$_List_val@U?$_List_simple_types@U?$pair@$$CBV?$basic_string@DU?$char_traits@D@std@@V?$allocator@D@2@@std@@V?$shared_ptr@UNode@NetvarTree@@@2@@std@@@std@@@std@@@2@V?$_List_unchecked_const_iterator@V?$_List_val@U?$_List_simple_types@U?$pair@$$CBV?$basic_string@DU?$char_traits@D@std@@V?$allocator@D@2@@std@@V?$shared_ptr@UNode@NetvarTree@@@2@@std@@@std@@@std@@U_Iterator_base0@2@@2@@Z 1000b310 f i c_ragebot.obj
 0001:0000a340       ?_Make_iter@?$list@U?$pair@$$CBV?$basic_string@DU?$char_traits@D@std@@V?$allocator@D@2@@std@@V?$shared_ptr@UNode@NetvarTree@@@2@@std@@V?$allocator@U?$pair@$$CBV?$basic_string@DU?$char_traits@D@std@@V?$allocator@D@2@@std@@V?$shared_ptr@UNode@NetvarTree@@@2@@std@@@2@@std@@QBE?AV?$_List_iterator@V?$_List_val@U?$_List_simple_types@U?$pair@$$CBV?$basic_string@DU?$char_traits@D@std@@V?$allocator@D@2@@std@@V?$shared_ptr@UNode@NetvarTree@@@2@@std@@@std@@@std@@@2@V?$_List_const_iterator@V?$_List_val@U?$_List_simple_types@U?$pair@$$CBV?$basic_string@DU?$char_traits@D@std@@V?$allocator@D@2@@std@@V?$shared_ptr@UNode@NetvarTree@@@2@@std@@@std@@@std@@@2@@Z 1000b340 f i c_ragebot.obj
 0001:0000a3b0       ?_Make_iter@?$list@U?$pair@$$CBV?$basic_string@DU?$char_traits@D@std@@V?$allocator@D@2@@std@@V?$shared_ptr@UNode@NetvarTree@@@2@@std@@V?$allocator@U?$pair@$$CBV?$basic_string@DU?$char_traits@D@std@@V?$allocator@D@2@@std@@V?$shared_ptr@UNode@NetvarTree@@@2@@std@@@2@@std@@QBE?AV?$_List_iterator@V?$_List_val@U?$_List_simple_types@U?$pair@$$CBV?$basic_string@DU?$char_traits@D@std@@V?$allocator@D@2@@std@@V?$shared_ptr@UNode@NetvarTree@@@2@@std@@@std@@@std@@@2@V?$_List_unchecked_const_iterator@V?$_List_val@U?$_List_simple_types@U?$pair@$$CBV?$basic_string@DU?$char_traits@D@std@@V?$allocator@D@2@@std@@V?$shared_ptr@UNode@NetvarTree@@@2@@std@@@std@@@std@@U_Iterator_base0@2@@2@@Z 1000b3b0 f i c_ragebot.obj
 0001:0000a3e0       ?_Max_bucket_size@?$_Hash@V?$_Umap_traits@V?$basic_string@DU?$char_traits@D@std@@V?$allocator@D@2@@std@@V?$shared_ptr@UNode@NetvarTree@@@2@V?$_Uhash_compare@V?$basic_string@DU?$char_traits@D@std@@V?$allocator@D@2@@std@@U?$hash@V?$basic_string@DU?$char_traits@D@std@@V?$allocator@D@2@@std@@@2@U?$equal_to@V?$basic_string@DU?$char_traits@D@std@@V?$allocator@D@2@@std@@@2@@2@V?$allocator@U?$pair@$$CBV?$basic_string@DU?$char_traits@D@std@@V?$allocator@D@2@@std@@V?$shared_ptr@UNode@NetvarTree@@@2@@std@@@2@$0A@@std@@@std@@IBEABMXZ 1000b3e0 f i c_ragebot.obj
 0001:0000a3e0       ?_Max_bucket_size@?$_Hash@V?$_Umap_traits@V?$basic_string@DU?$char_traits@D@std@@V?$allocator@D@2@@std@@V?$shared_ptr@UNode@NetvarTree@@@2@V?$_Uhash_compare@V?$basic_string@DU?$char_traits@D@std@@V?$allocator@D@2@@std@@U?$hash@V?$basic_string@DU?$char_traits@D@std@@V?$allocator@D@2@@std@@@2@U?$equal_to@V?$basic_string@DU?$char_traits@D@std@@V?$allocator@D@2@@std@@@2@@2@V?$allocator@U?$pair@$$CBV?$basic_string@DU?$char_traits@D@std@@V?$allocator@D@2@@std@@V?$shared_ptr@UNode@NetvarTree@@@2@@std@@@2@$0A@@std@@@std@@IAEAAMXZ 1000b3e0 f i NetvarManager.obj
 0001:0000a400       ?_Myoff@?$_Deque_alloc@U?$_Deque_base_types@ULegitPlayerRecords@@V?$allocator@ULegitPlayerRecords@@@std@@@std@@@std@@QAEAAIXZ 1000b400 f i Legitbot.obj
 0001:0000a400       ?_Myoff@?$_Deque_alloc@U?$_Deque_base_types@UPlayerRecords@@V?$allocator@UPlayerRecords@@@std@@@std@@@std@@QAEAAIXZ 1000b400 f i c_ragebot.obj
 0001:0000a420       ?_Mysize@?$_Deque_alloc@U?$_Deque_base_types@ULegitPlayerRecords@@V?$allocator@ULegitPlayerRecords@@@std@@@std@@@std@@QAEAAIXZ 1000b420 f i Legitbot.obj
 0001:0000a420       ?_Mysize@?$_Deque_alloc@U?$_Deque_base_types@ULegitPlayerRecords@@V?$allocator@ULegitPlayerRecords@@@std@@@std@@@std@@QBEABIXZ 1000b420 f i Legitbot.obj
 0001:0000a420       ?_Mysize@?$_Deque_alloc@U?$_Deque_base_types@UPlayerRecords@@V?$allocator@UPlayerRecords@@@std@@@std@@@std@@QBEABIXZ 1000b420 f i c_ragebot.obj
 0001:0000a420       ?_Mysize@?$_Deque_alloc@U?$_Deque_base_types@UPlayerRecords@@V?$allocator@UPlayerRecords@@@std@@@std@@@std@@QAEAAIXZ 1000b420 f i c_ragebot.obj
 0001:0000a440       ?_Orphan_range@?$vector@HV?$allocator@H@std@@@std@@ABEXPAH0@Z 1000b440 f i c_ragebot.obj
 0001:0000a440       ?_Orphan_range@?$vector@V?$basic_string@DU?$char_traits@D@std@@V?$allocator@D@2@@std@@V?$allocator@V?$basic_string@DU?$char_traits@D@std@@V?$allocator@D@2@@std@@@2@@std@@ABEXPAV?$basic_string@DU?$char_traits@D@std@@V?$allocator@D@2@@2@0@Z 1000b440 f i config_system.obj
 0001:0000a450       ?_Reallocate_exactly@?$vector@V?$_List_unchecked_iterator@V?$_List_val@U?$_List_simple_types@U?$pair@$$CBV?$basic_string@DU?$char_traits@D@std@@V?$allocator@D@2@@std@@V?$shared_ptr@UNode@NetvarTree@@@2@@std@@@std@@@std@@@std@@V?$allocator@V?$_List_unchecked_iterator@V?$_List_val@U?$_List_simple_types@U?$pair@$$CBV?$basic_string@DU?$char_traits@D@std@@V?$allocator@D@2@@std@@V?$shared_ptr@UNode@NetvarTree@@@2@@std@@@std@@@std@@@std@@@2@@std@@AAEXI@Z 1000b450 f i c_ragebot.obj
 0001:0000a540       ?_Reinsert@?$_Hash@V?$_Umap_traits@V?$basic_string@DU?$char_traits@D@std@@V?$allocator@D@2@@std@@V?$shared_ptr@UNode@NetvarTree@@@2@V?$_Uhash_compare@V?$basic_string@DU?$char_traits@D@std@@V?$allocator@D@2@@std@@U?$hash@V?$basic_string@DU?$char_traits@D@std@@V?$allocator@D@2@@std@@@2@U?$equal_to@V?$basic_string@DU?$char_traits@D@std@@V?$allocator@D@2@@std@@@2@@2@V?$allocator@U?$pair@$$CBV?$basic_string@DU?$char_traits@D@std@@V?$allocator@D@2@@std@@V?$shared_ptr@UNode@NetvarTree@@@2@@std@@@2@$0A@@std@@@std@@IAEXXZ 1000b540 f i c_ragebot.obj
 0001:0000a5d0       ?_Release@?$_Uninitialized_backout_al@PAV?$_List_unchecked_iterator@V?$_List_val@U?$_List_simple_types@U?$pair@$$CBV?$basic_string@DU?$char_traits@D@std@@V?$allocator@D@2@@std@@V?$shared_ptr@UNode@NetvarTree@@@2@@std@@@std@@@std@@@std@@V?$allocator@V?$_List_unchecked_iterator@V?$_List_val@U?$_List_simple_types@U?$pair@$$CBV?$basic_string@DU?$char_traits@D@std@@V?$allocator@D@2@@std@@V?$shared_ptr@UNode@NetvarTree@@@2@@std@@@std@@@std@@@std@@@2@@std@@QAEPAV?$_List_unchecked_iterator@V?$_List_val@U?$_List_simple_types@U?$pair@$$CBV?$basic_string@DU?$char_traits@D@std@@V?$allocator@D@2@@std@@V?$shared_ptr@UNode@NetvarTree@@@2@@std@@@std@@@std@@@2@XZ 1000b5d0 f i c_ragebot.obj
 0001:0000a5d0       ?_Release@?$_Uninitialized_backout_al@PAV?$basic_string@DU?$char_traits@D@std@@V?$allocator@D@2@@std@@V?$allocator@V?$basic_string@DU?$char_traits@D@std@@V?$allocator@D@2@@std@@@2@@std@@QAEPAV?$basic_string@DU?$char_traits@D@std@@V?$allocator@D@2@@2@XZ 1000b5d0 f i config_system.obj
 0001:0000a5f0       ?_Setcont@?$_Deque_const_iterator@V?$_Deque_val@U?$_Deque_simple_types@UPlayerRecords@@@std@@@std@@@std@@QAEXPBV?$_Deque_val@U?$_Deque_simple_types@UPlayerRecords@@@std@@@2@@Z 1000b5f0 f i c_ragebot.obj
 0001:0000a5f0       ?_Setcont@?$_Deque_const_iterator@V?$_Deque_val@U?$_Deque_simple_types@ULegitPlayerRecords@@@std@@@std@@@std@@QAEXPBV?$_Deque_val@U?$_Deque_simple_types@ULegitPlayerRecords@@@std@@@2@@Z 1000b5f0 f i Legitbot.obj
 0001:0000a610       ?_Ufill@?$vector@V?$_List_unchecked_iterator@V?$_List_val@U?$_List_simple_types@U?$pair@$$CBV?$basic_string@DU?$char_traits@D@std@@V?$allocator@D@2@@std@@V?$shared_ptr@UNode@NetvarTree@@@2@@std@@@std@@@std@@@std@@V?$allocator@V?$_List_unchecked_iterator@V?$_List_val@U?$_List_simple_types@U?$pair@$$CBV?$basic_string@DU?$char_traits@D@std@@V?$allocator@D@2@@std@@V?$shared_ptr@UNode@NetvarTree@@@2@@std@@@std@@@std@@@std@@@2@@std@@AAEPAV?$_List_unchecked_iterator@V?$_List_val@U?$_List_simple_types@U?$pair@$$CBV?$basic_string@DU?$char_traits@D@std@@V?$allocator@D@2@@std@@V?$shared_ptr@UNode@NetvarTree@@@2@@std@@@std@@@std@@@2@PAV32@IABV32@@Z 1000b610 f i c_ragebot.obj
 0001:0000a640       ?_Umove@?$vector@HV?$allocator@H@std@@@std@@AAEPAHPAH00@Z 1000b640 f i c_ragebot.obj
 0001:0000a670       ?_Umove_if_noexcept1@?$vector@HV?$allocator@H@std@@@std@@AAEXPAH00U?$integral_constant@_N$00@2@@Z 1000b670 f i c_ragebot.obj
 0001:0000a6a0       ?_Umove_if_noexcept1@?$vector@V?$_List_unchecked_iterator@V?$_List_val@U?$_List_simple_types@U?$pair@$$CBV?$basic_string@DU?$char_traits@D@std@@V?$allocator@D@2@@std@@V?$shared_ptr@UNode@NetvarTree@@@2@@std@@@std@@@std@@@std@@V?$allocator@V?$_List_unchecked_iterator@V?$_List_val@U?$_List_simple_types@U?$pair@$$CBV?$basic_string@DU?$char_traits@D@std@@V?$allocator@D@2@@std@@V?$shared_ptr@UNode@NetvarTree@@@2@@std@@@std@@@std@@@std@@@2@@std@@AAEXPAV?$_List_unchecked_iterator@V?$_List_val@U?$_List_simple_types@U?$pair@$$CBV?$basic_string@DU?$char_traits@D@std@@V?$allocator@D@2@@std@@V?$shared_ptr@UNode@NetvarTree@@@2@@std@@@std@@@std@@@2@00U?$integral_constant@_N$00@2@@Z 1000b6a0 f i c_ragebot.obj
 0001:0000a6d0       ?_Umove_if_noexcept@?$vector@HV?$allocator@H@std@@@std@@AAEXPAH00@Z 1000b6d0 f i c_ragebot.obj
 0001:0000a700       ?_Umove_if_noexcept@?$vector@V?$_List_unchecked_iterator@V?$_List_val@U?$_List_simple_types@U?$pair@$$CBV?$basic_string@DU?$char_traits@D@std@@V?$allocator@D@2@@std@@V?$shared_ptr@UNode@NetvarTree@@@2@@std@@@std@@@std@@@std@@V?$allocator@V?$_List_unchecked_iterator@V?$_List_val@U?$_List_simple_types@U?$pair@$$CBV?$basic_string@DU?$char_traits@D@std@@V?$allocator@D@2@@std@@V?$shared_ptr@UNode@NetvarTree@@@2@@std@@@std@@@std@@@std@@@2@@std@@AAEXPAV?$_List_unchecked_iterator@V?$_List_val@U?$_List_simple_types@U?$pair@$$CBV?$basic_string@DU?$char_traits@D@std@@V?$allocator@D@2@@std@@V?$shared_ptr@UNode@NetvarTree@@@2@@std@@@std@@@std@@@2@00@Z 1000b700 f i c_ragebot.obj
 0001:0000a730       ?_Unchecked_begin@?$_Hash@V?$_Umap_traits@V?$basic_string@DU?$char_traits@D@std@@V?$allocator@D@2@@std@@V?$shared_ptr@UNode@NetvarTree@@@2@V?$_Uhash_compare@V?$basic_string@DU?$char_traits@D@std@@V?$allocator@D@2@@std@@U?$hash@V?$basic_string@DU?$char_traits@D@std@@V?$allocator@D@2@@std@@@2@U?$equal_to@V?$basic_string@DU?$char_traits@D@std@@V?$allocator@D@2@@std@@@2@@2@V?$allocator@U?$pair@$$CBV?$basic_string@DU?$char_traits@D@std@@V?$allocator@D@2@@std@@V?$shared_ptr@UNode@NetvarTree@@@2@@std@@@2@$0A@@std@@@std@@QAE?AV?$_List_unchecked_iterator@V?$_List_val@U?$_List_simple_types@U?$pair@$$CBV?$basic_string@DU?$char_traits@D@std@@V?$allocator@D@2@@std@@V?$shared_ptr@UNode@NetvarTree@@@2@@std@@@std@@@std@@@2@XZ 1000b730 f i c_ragebot.obj
 0001:0000a760       ?_Unchecked_begin@?$list@U?$pair@$$CBV?$basic_string@DU?$char_traits@D@std@@V?$allocator@D@2@@std@@V?$shared_ptr@UNode@NetvarTree@@@2@@std@@V?$allocator@U?$pair@$$CBV?$basic_string@DU?$char_traits@D@std@@V?$allocator@D@2@@std@@V?$shared_ptr@UNode@NetvarTree@@@2@@std@@@2@@std@@QAE?AV?$_List_unchecked_iterator@V?$_List_val@U?$_List_simple_types@U?$pair@$$CBV?$basic_string@DU?$char_traits@D@std@@V?$allocator@D@2@@std@@V?$shared_ptr@UNode@NetvarTree@@@2@@std@@@std@@@std@@@2@XZ 1000b760 f i c_ragebot.obj
 0001:0000a790       ?_Unchecked_begin@?$vector@HV?$allocator@H@std@@@std@@QAEPAHXZ 1000b790 f i c_ragebot.obj
 0001:0000a7b0       ?_Unchecked_end@?$_Hash@V?$_Umap_traits@V?$basic_string@DU?$char_traits@D@std@@V?$allocator@D@2@@std@@V?$shared_ptr@UNode@NetvarTree@@@2@V?$_Uhash_compare@V?$basic_string@DU?$char_traits@D@std@@V?$allocator@D@2@@std@@U?$hash@V?$basic_string@DU?$char_traits@D@std@@V?$allocator@D@2@@std@@@2@U?$equal_to@V?$basic_string@DU?$char_traits@D@std@@V?$allocator@D@2@@std@@@2@@2@V?$allocator@U?$pair@$$CBV?$basic_string@DU?$char_traits@D@std@@V?$allocator@D@2@@std@@V?$shared_ptr@UNode@NetvarTree@@@2@@std@@@2@$0A@@std@@@std@@QAE?AV?$_List_unchecked_iterator@V?$_List_val@U?$_List_simple_types@U?$pair@$$CBV?$basic_string@DU?$char_traits@D@std@@V?$allocator@D@2@@std@@V?$shared_ptr@UNode@NetvarTree@@@2@@std@@@std@@@std@@@2@XZ 1000b7b0 f i c_ragebot.obj
 0001:0000a7e0       ?_Unchecked_end@?$list@U?$pair@$$CBV?$basic_string@DU?$char_traits@D@std@@V?$allocator@D@2@@std@@V?$shared_ptr@UNode@NetvarTree@@@2@@std@@V?$allocator@U?$pair@$$CBV?$basic_string@DU?$char_traits@D@std@@V?$allocator@D@2@@std@@V?$shared_ptr@UNode@NetvarTree@@@2@@std@@@2@@std@@QAE?AV?$_List_unchecked_iterator@V?$_List_val@U?$_List_simple_types@U?$pair@$$CBV?$basic_string@DU?$char_traits@D@std@@V?$allocator@D@2@@std@@V?$shared_ptr@UNode@NetvarTree@@@2@@std@@@std@@@std@@@2@XZ 1000b7e0 f i c_ragebot.obj
 0001:0000a810       ?_Unchecked_end@?$vector@HV?$allocator@H@std@@@std@@QAEPAHXZ 1000b810 f i c_ragebot.obj
 0001:0000a810       ?size@?$list@U?$pair@$$CBV?$basic_string@DU?$char_traits@D@std@@V?$allocator@D@2@@std@@V?$shared_ptr@UNode@NetvarTree@@@2@@std@@V?$allocator@U?$pair@$$CBV?$basic_string@DU?$char_traits@D@std@@V?$allocator@D@2@@std@@V?$shared_ptr@UNode@NetvarTree@@@2@@std@@@2@@std@@QBEIXZ 1000b810 f i c_ragebot.obj
 0001:0000a830       ?_Unchecked_splice@?$list@U?$pair@$$CBV?$basic_string@DU?$char_traits@D@std@@V?$allocator@D@2@@std@@V?$shared_ptr@UNode@NetvarTree@@@2@@std@@V?$allocator@U?$pair@$$CBV?$basic_string@DU?$char_traits@D@std@@V?$allocator@D@2@@std@@V?$shared_ptr@UNode@NetvarTree@@@2@@std@@@2@@std@@QAEXV?$_List_unchecked_const_iterator@V?$_List_val@U?$_List_simple_types@U?$pair@$$CBV?$basic_string@DU?$char_traits@D@std@@V?$allocator@D@2@@std@@V?$shared_ptr@UNode@NetvarTree@@@2@@std@@@std@@@std@@U_Iterator_base0@2@@2@00@Z 1000b830 f i c_ragebot.obj
 0001:0000a890       ?_Unlinknode@?$list@U?$pair@$$CBV?$basic_string@DU?$char_traits@D@std@@V?$allocator@D@2@@std@@V?$shared_ptr@UNode@NetvarTree@@@2@@std@@V?$allocator@U?$pair@$$CBV?$basic_string@DU?$char_traits@D@std@@V?$allocator@D@2@@std@@V?$shared_ptr@UNode@NetvarTree@@@2@@std@@@2@@std@@QAEPAU?$_List_node@U?$pair@$$CBV?$basic_string@DU?$char_traits@D@std@@V?$allocator@D@2@@std@@V?$shared_ptr@UNode@NetvarTree@@@2@@std@@PAX@2@V?$_List_const_iterator@V?$_List_val@U?$_List_simple_types@U?$pair@$$CBV?$basic_string@DU?$char_traits@D@std@@V?$allocator@D@2@@std@@V?$shared_ptr@UNode@NetvarTree@@@2@@std@@@std@@@std@@@2@@Z 1000b890 f i c_ragebot.obj
 0001:0000a8e0       ?_Unwrapped@?$_List_iterator@V?$_List_val@U?$_List_simple_types@U?$pair@$$CBV?$basic_string@DU?$char_traits@D@std@@V?$allocator@D@2@@std@@V?$shared_ptr@UNode@NetvarTree@@@2@@std@@@std@@@std@@@std@@QBE?AV?$_List_unchecked_iterator@V?$_List_val@U?$_List_simple_types@U?$pair@$$CBV?$basic_string@DU?$char_traits@D@std@@V?$allocator@D@2@@std@@V?$shared_ptr@UNode@NetvarTree@@@2@@std@@@std@@@std@@@2@XZ 1000b8e0 f i c_ragebot.obj
 0001:0000a920       ?_Vec_hi@?$_Hash@V?$_Umap_traits@V?$basic_string@DU?$char_traits@D@std@@V?$allocator@D@2@@std@@V?$shared_ptr@UNode@NetvarTree@@@2@V?$_Uhash_compare@V?$basic_string@DU?$char_traits@D@std@@V?$allocator@D@2@@std@@U?$hash@V?$basic_string@DU?$char_traits@D@std@@V?$allocator@D@2@@std@@@2@U?$equal_to@V?$basic_string@DU?$char_traits@D@std@@V?$allocator@D@2@@std@@@2@@2@V?$allocator@U?$pair@$$CBV?$basic_string@DU?$char_traits@D@std@@V?$allocator@D@2@@std@@V?$shared_ptr@UNode@NetvarTree@@@2@@std@@@2@$0A@@std@@@std@@IAEAAV?$_List_unchecked_iterator@V?$_List_val@U?$_List_simple_types@U?$pair@$$CBV?$basic_string@DU?$char_traits@D@std@@V?$allocator@D@2@@std@@V?$shared_ptr@UNode@NetvarTree@@@2@@std@@@std@@@std@@@2@I@Z 1000b920 f i c_ragebot.obj
 0001:0000a950       ?_Vec_lo@?$_Hash@V?$_Umap_traits@V?$basic_string@DU?$char_traits@D@std@@V?$allocator@D@2@@std@@V?$shared_ptr@UNode@NetvarTree@@@2@V?$_Uhash_compare@V?$basic_string@DU?$char_traits@D@std@@V?$allocator@D@2@@std@@U?$hash@V?$basic_string@DU?$char_traits@D@std@@V?$allocator@D@2@@std@@@2@U?$equal_to@V?$basic_string@DU?$char_traits@D@std@@V?$allocator@D@2@@std@@@2@@2@V?$allocator@U?$pair@$$CBV?$basic_string@DU?$char_traits@D@std@@V?$allocator@D@2@@std@@V?$shared_ptr@UNode@NetvarTree@@@2@@std@@@2@$0A@@std@@@std@@IAEAAV?$_List_unchecked_iterator@V?$_List_val@U?$_List_simple_types@U?$pair@$$CBV?$basic_string@DU?$char_traits@D@std@@V?$allocator@D@2@@std@@V?$shared_ptr@UNode@NetvarTree@@@2@@std@@@std@@@std@@@2@I@Z 1000b950 f i c_ragebot.obj
 0001:0000a980       ?_Xlength@?$vector@HV?$allocator@H@std@@@std@@CAXXZ 1000b980 f i c_ragebot.obj
 0001:0000a980       ?_Xlength@?$vector@V?$_List_unchecked_iterator@V?$_List_val@U?$_List_simple_types@U?$pair@$$CBV?$basic_string@DU?$char_traits@D@std@@V?$allocator@D@2@@std@@V?$shared_ptr@UNode@NetvarTree@@@2@@std@@@std@@@std@@@std@@V?$allocator@V?$_List_unchecked_iterator@V?$_List_val@U?$_List_simple_types@U?$pair@$$CBV?$basic_string@DU?$char_traits@D@std@@V?$allocator@D@2@@std@@V?$shared_ptr@UNode@NetvarTree@@@2@@std@@@std@@@std@@@std@@@2@@std@@CAXXZ 1000b980 f i c_ragebot.obj
 0001:0000a980       ?_Xlength@?$vector@V?$basic_string@DU?$char_traits@D@std@@V?$allocator@D@2@@std@@V?$allocator@V?$basic_string@DU?$char_traits@D@std@@V?$allocator@D@2@@std@@@2@@std@@CAXXZ 1000b980 f i config_system.obj
 0001:0000a990       ?_Xran@?$deque@ULegitPlayerRecords@@V?$allocator@ULegitPlayerRecords@@@std@@@std@@IBEXXZ 1000b990 f i Legitbot.obj
 0001:0000a990       ?_Xran@?$deque@UPlayerRecords@@V?$allocator@UPlayerRecords@@@std@@@std@@IBEXXZ 1000b990 f i c_ragebot.obj
 0001:0000a9b0       ?abs@@YAMM@Z               1000b9b0 f i c_ragebot.obj
 0001:0000a9b0       ?fabs@@YAMM@Z              1000b9b0 f i c_ragebot.obj
 0001:0000a9d0       ?allocate@?$allocator@V?$_List_unchecked_iterator@V?$_List_val@U?$_List_simple_types@U?$pair@$$CBV?$basic_string@DU?$char_traits@D@std@@V?$allocator@D@2@@std@@V?$shared_ptr@UNode@NetvarTree@@@2@@std@@@std@@@std@@@std@@@std@@QAEPAV?$_List_unchecked_iterator@V?$_List_val@U?$_List_simple_types@U?$pair@$$CBV?$basic_string@DU?$char_traits@D@std@@V?$allocator@D@2@@std@@V?$shared_ptr@UNode@NetvarTree@@@2@@std@@@std@@@std@@@2@I@Z 1000b9d0 f i c_ragebot.obj
 0001:0000a9d0       ?allocate@?$allocator@PAUPlayerRecords@@@std@@QAEPAPAUPlayerRecords@@I@Z 1000b9d0 f i LagComp.obj
 0001:0000a9d0       ?allocate@?$allocator@PAULegitPlayerRecords@@@std@@QAEPAPAULegitPlayerRecords@@I@Z 1000b9d0 f i Legitbot.obj
 0001:0000a9d0       ?allocate@?$allocator@H@std@@QAEPAHI@Z 1000b9d0 f i c_ragebot.obj
 0001:0000aa00       ?allocate@?$allocator@U?$_List_node@U?$pair@$$CBV?$basic_string@DU?$char_traits@D@std@@V?$allocator@D@2@@std@@V?$shared_ptr@UNode@NetvarTree@@@2@@std@@PAX@std@@@std@@QAEPAU?$_List_node@U?$pair@$$CBV?$basic_string@DU?$char_traits@D@std@@V?$allocator@D@2@@std@@V?$shared_ptr@UNode@NetvarTree@@@2@@std@@PAX@2@I@Z 1000ba00 f i c_ragebot.obj
 0001:0000aa30       ?assign@?$vector@V?$_List_unchecked_iterator@V?$_List_val@U?$_List_simple_types@U?$pair@$$CBV?$basic_string@DU?$char_traits@D@std@@V?$allocator@D@2@@std@@V?$shared_ptr@UNode@NetvarTree@@@2@@std@@@std@@@std@@@std@@V?$allocator@V?$_List_unchecked_iterator@V?$_List_val@U?$_List_simple_types@U?$pair@$$CBV?$basic_string@DU?$char_traits@D@std@@V?$allocator@D@2@@std@@V?$shared_ptr@UNode@NetvarTree@@@2@@std@@@std@@@std@@@std@@@2@@std@@QAEXIABV?$_List_unchecked_iterator@V?$_List_val@U?$_List_simple_types@U?$pair@$$CBV?$basic_string@DU?$char_traits@D@std@@V?$allocator@D@2@@std@@V?$shared_ptr@UNode@NetvarTree@@@2@@std@@@std@@@std@@@2@@Z 1000ba30 f i c_ragebot.obj
 0001:0000abe0       ?at@?$deque@UPlayerRecords@@V?$allocator@UPlayerRecords@@@std@@@std@@QAEAAUPlayerRecords@@I@Z 1000bbe0 f i c_ragebot.obj
 0001:0000aca0       ?begin@?$deque@UPlayerRecords@@V?$allocator@UPlayerRecords@@@std@@@std@@QAE?AV?$_Deque_iterator@V?$_Deque_val@U?$_Deque_simple_types@UPlayerRecords@@@std@@@std@@@2@XZ 1000bca0 f i c_ragebot.obj
 0001:0000aca0       ?begin@?$deque@ULegitPlayerRecords@@V?$allocator@ULegitPlayerRecords@@@std@@@std@@QAE?AV?$_Deque_iterator@V?$_Deque_val@U?$_Deque_simple_types@ULegitPlayerRecords@@@std@@@std@@@2@XZ 1000bca0 f i Legitbot.obj
 0001:0000ad10       ?begin@?$list@U?$pair@$$CBV?$basic_string@DU?$char_traits@D@std@@V?$allocator@D@2@@std@@V?$shared_ptr@UNode@NetvarTree@@@2@@std@@V?$allocator@U?$pair@$$CBV?$basic_string@DU?$char_traits@D@std@@V?$allocator@D@2@@std@@V?$shared_ptr@UNode@NetvarTree@@@2@@std@@@2@@std@@QAE?AV?$_List_iterator@V?$_List_val@U?$_List_simple_types@U?$pair@$$CBV?$basic_string@DU?$char_traits@D@std@@V?$allocator@D@2@@std@@V?$shared_ptr@UNode@NetvarTree@@@2@@std@@@std@@@std@@@2@XZ 1000bd10 f i c_ragebot.obj
 0001:0000ad80       ?bucket_count@?$_Hash@V?$_Umap_traits@V?$basic_string@DU?$char_traits@D@std@@V?$allocator@D@2@@std@@V?$shared_ptr@UNode@NetvarTree@@@2@V?$_Uhash_compare@V?$basic_string@DU?$char_traits@D@std@@V?$allocator@D@2@@std@@U?$hash@V?$basic_string@DU?$char_traits@D@std@@V?$allocator@D@2@@std@@@2@U?$equal_to@V?$basic_string@DU?$char_traits@D@std@@V?$allocator@D@2@@std@@@2@@2@V?$allocator@U?$pair@$$CBV?$basic_string@DU?$char_traits@D@std@@V?$allocator@D@2@@std@@V?$shared_ptr@UNode@NetvarTree@@@2@@std@@@2@$0A@@std@@@std@@QBEIXZ 1000bd80 f i c_ragebot.obj
 0001:0000ada0       ?c_str@?$basic_string@DU?$char_traits@D@std@@V?$allocator@D@2@@std@@QBEPBDXZ 1000bda0 f i c_ragebot.obj
 0001:0000ada0       ?data@?$basic_string@DU?$char_traits@D@std@@V?$allocator@D@2@@std@@QBEPBDXZ 1000bda0 f i config_system.obj
 0001:0000ada0       ?data@?$basic_string@DU?$char_traits@D@std@@V?$allocator@D@2@@std@@QAEPADXZ 1000bda0 f i config_system.obj
 0001:0000adf0       ?compare@?$char_traits@D@std@@SAHQBD0I@Z 1000bdf0 f i c_ragebot.obj
 0001:0000ae20       ?cos@@YAMM@Z               1000be20 f i c_ragebot.obj
 0001:0000ae40       ?deallocate@?$allocator@U?$_List_node@U?$pair@$$CBV?$basic_string@DU?$char_traits@D@std@@V?$allocator@D@2@@std@@V?$shared_ptr@UNode@NetvarTree@@@2@@std@@PAX@std@@@std@@QAEXQAU?$_List_node@U?$pair@$$CBV?$basic_string@DU?$char_traits@D@std@@V?$allocator@D@2@@std@@V?$shared_ptr@UNode@NetvarTree@@@2@@std@@PAX@2@I@Z 1000be40 f i c_ragebot.obj
 0001:0000ae60       ?end@?$_Hash@V?$_Umap_traits@V?$basic_string@DU?$char_traits@D@std@@V?$allocator@D@2@@std@@V?$shared_ptr@UNode@NetvarTree@@@2@V?$_Uhash_compare@V?$basic_string@DU?$char_traits@D@std@@V?$allocator@D@2@@std@@U?$hash@V?$basic_string@DU?$char_traits@D@std@@V?$allocator@D@2@@std@@@2@U?$equal_to@V?$basic_string@DU?$char_traits@D@std@@V?$allocator@D@2@@std@@@2@@2@V?$allocator@U?$pair@$$CBV?$basic_string@DU?$char_traits@D@std@@V?$allocator@D@2@@std@@V?$shared_ptr@UNode@NetvarTree@@@2@@std@@@2@$0A@@std@@@std@@QAE?AV?$_List_iterator@V?$_List_val@U?$_List_simple_types@U?$pair@$$CBV?$basic_string@DU?$char_traits@D@std@@V?$allocator@D@2@@std@@V?$shared_ptr@UNode@NetvarTree@@@2@@std@@@std@@@std@@@2@XZ 1000be60 f i c_ragebot.obj
 0001:0000ae90       ?end@?$list@U?$pair@$$CBV?$basic_string@DU?$char_traits@D@std@@V?$allocator@D@2@@std@@V?$shared_ptr@UNode@NetvarTree@@@2@@std@@V?$allocator@U?$pair@$$CBV?$basic_string@DU?$char_traits@D@std@@V?$allocator@D@2@@std@@V?$shared_ptr@UNode@NetvarTree@@@2@@std@@@2@@std@@QAE?AV?$_List_iterator@V?$_List_val@U?$_List_simple_types@U?$pair@$$CBV?$basic_string@DU?$char_traits@D@std@@V?$allocator@D@2@@std@@V?$shared_ptr@UNode@NetvarTree@@@2@@std@@@std@@@std@@@2@XZ 1000be90 f i c_ragebot.obj
 0001:0000af00       ?erase@?$_Hash@V?$_Umap_traits@V?$basic_string@DU?$char_traits@D@std@@V?$allocator@D@2@@std@@V?$shared_ptr@UNode@NetvarTree@@@2@V?$_Uhash_compare@V?$basic_string@DU?$char_traits@D@std@@V?$allocator@D@2@@std@@U?$hash@V?$basic_string@DU?$char_traits@D@std@@V?$allocator@D@2@@std@@@2@U?$equal_to@V?$basic_string@DU?$char_traits@D@std@@V?$allocator@D@2@@std@@@2@@2@V?$allocator@U?$pair@$$CBV?$basic_string@DU?$char_traits@D@std@@V?$allocator@D@2@@std@@V?$shared_ptr@UNode@NetvarTree@@@2@@std@@@2@$0A@@std@@@std@@QAE?AV?$_List_iterator@V?$_List_val@U?$_List_simple_types@U?$pair@$$CBV?$basic_string@DU?$char_traits@D@std@@V?$allocator@D@2@@std@@V?$shared_ptr@UNode@NetvarTree@@@2@@std@@@std@@@std@@@2@V?$_List_const_iterator@V?$_List_val@U?$_List_simple_types@U?$pair@$$CBV?$basic_string@DU?$char_traits@D@std@@V?$allocator@D@2@@std@@V?$shared_ptr@UNode@NetvarTree@@@2@@std@@@std@@@std@@@2@@Z 1000bf00 f i c_ragebot.obj
 0001:0000af70       ?erase@?$list@U?$pair@$$CBV?$basic_string@DU?$char_traits@D@std@@V?$allocator@D@2@@std@@V?$shared_ptr@UNode@NetvarTree@@@2@@std@@V?$allocator@U?$pair@$$CBV?$basic_string@DU?$char_traits@D@std@@V?$allocator@D@2@@std@@V?$shared_ptr@UNode@NetvarTree@@@2@@std@@@2@@std@@QAE?AV?$_List_iterator@V?$_List_val@U?$_List_simple_types@U?$pair@$$CBV?$basic_string@DU?$char_traits@D@std@@V?$allocator@D@2@@std@@V?$shared_ptr@UNode@NetvarTree@@@2@@std@@@std@@@std@@@2@V?$_List_const_iterator@V?$_List_val@U?$_List_simple_types@U?$pair@$$CBV?$basic_string@DU?$char_traits@D@std@@V?$allocator@D@2@@std@@V?$shared_ptr@UNode@NetvarTree@@@2@@std@@@std@@@std@@@2@@Z 1000bf70 f i c_ragebot.obj
 0001:0000afc0       ?find@?$_Hash@V?$_Umap_traits@V?$basic_string@DU?$char_traits@D@std@@V?$allocator@D@2@@std@@V?$shared_ptr@UNode@NetvarTree@@@2@V?$_Uhash_compare@V?$basic_string@DU?$char_traits@D@std@@V?$allocator@D@2@@std@@U?$hash@V?$basic_string@DU?$char_traits@D@std@@V?$allocator@D@2@@std@@@2@U?$equal_to@V?$basic_string@DU?$char_traits@D@std@@V?$allocator@D@2@@std@@@2@@2@V?$allocator@U?$pair@$$CBV?$basic_string@DU?$char_traits@D@std@@V?$allocator@D@2@@std@@V?$shared_ptr@UNode@NetvarTree@@@2@@std@@@2@$0A@@std@@@std@@QAE?AV?$_List_iterator@V?$_List_val@U?$_List_simple_types@U?$pair@$$CBV?$basic_string@DU?$char_traits@D@std@@V?$allocator@D@2@@std@@V?$shared_ptr@UNode@NetvarTree@@@2@@std@@@std@@@std@@@2@ABV?$basic_string@DU?$char_traits@D@std@@V?$allocator@D@2@@2@@Z 1000bfc0 f i c_ragebot.obj
 0001:0000afe0       ?front@?$list@U?$pair@$$CBV?$basic_string@DU?$char_traits@D@std@@V?$allocator@D@2@@std@@V?$shared_ptr@UNode@NetvarTree@@@2@@std@@V?$allocator@U?$pair@$$CBV?$basic_string@DU?$char_traits@D@std@@V?$allocator@D@2@@std@@V?$shared_ptr@UNode@NetvarTree@@@2@@std@@@2@@std@@QAEAAU?$pair@$$CBV?$basic_string@DU?$char_traits@D@std@@V?$allocator@D@2@@std@@V?$shared_ptr@UNode@NetvarTree@@@2@@2@XZ 1000bfe0 f i c_ragebot.obj
 0001:0000b000       ??D?$_String_const_iterator@V?$_String_val@U?$_Simple_types@D@std@@@std@@@std@@QBEABDXZ 1000c000 f i config_system.obj
 0001:0000b000       ?value@error_condition@std@@QBEHXZ 1000c000 f i config_system.obj
 0001:0000b000       ?value@error_code@std@@QBEHXZ 1000c000 f i config_system.obj
 0001:0000b000       ?_Unwrapped@?$_Vector_const_iterator@V?$_Vector_val@U?$_Simple_types@V?$basic_string@DU?$char_traits@D@std@@V?$allocator@D@2@@std@@@std@@@std@@@std@@QBEPBV?$basic_string@DU?$char_traits@D@std@@V?$allocator@D@2@@2@XZ 1000c000 f i config_system.obj
 0001:0000b000       ?type@file_status@filesystem@std@@QBE?AW4file_type@23@XZ 1000c000 f i config_system.obj
 0001:0000b000       ?data@?$basic_string_view@DU?$char_traits@D@std@@@std@@QBEPBDXZ 1000c000 f i config_system.obj
 0001:0000b000       ?get@?$_Ptr_base@UNode@NetvarTree@@@std@@IBEPAUNode@NetvarTree@@XZ 1000c000 f i c_ragebot.obj
 0001:0000b000       ?data@?$basic_string_view@_WU?$char_traits@_W@std@@@std@@QBEPB_WXZ 1000c000 f i config_system.obj
 0001:0000b000       ?GetName@RecvProp@@QBEPBDXZ 1000c000 f i NetvarManager.obj
 0001:0000b000       ?get@?$_Ptr_base@U_Dir_enum_impl@filesystem@std@@@std@@IBEPAU_Dir_enum_impl@filesystem@2@XZ 1000c000 f i config_system.obj
 0001:0000b010       ?load_factor@?$_Hash@V?$_Umap_traits@V?$basic_string@DU?$char_traits@D@std@@V?$allocator@D@2@@std@@V?$shared_ptr@UNode@NetvarTree@@@2@V?$_Uhash_compare@V?$basic_string@DU?$char_traits@D@std@@V?$allocator@D@2@@std@@U?$hash@V?$basic_string@DU?$char_traits@D@std@@V?$allocator@D@2@@std@@@2@U?$equal_to@V?$basic_string@DU?$char_traits@D@std@@V?$allocator@D@2@@std@@@2@@2@V?$allocator@U?$pair@$$CBV?$basic_string@DU?$char_traits@D@std@@V?$allocator@D@2@@std@@V?$shared_ptr@UNode@NetvarTree@@@2@@std@@@2@$0A@@std@@@std@@QBEMXZ 1000c010 f i c_ragebot.obj
 0001:0000b090       ?lower_bound@?$_Hash@V?$_Umap_traits@V?$basic_string@DU?$char_traits@D@std@@V?$allocator@D@2@@std@@V?$shared_ptr@UNode@NetvarTree@@@2@V?$_Uhash_compare@V?$basic_string@DU?$char_traits@D@std@@V?$allocator@D@2@@std@@U?$hash@V?$basic_string@DU?$char_traits@D@std@@V?$allocator@D@2@@std@@@2@U?$equal_to@V?$basic_string@DU?$char_traits@D@std@@V?$allocator@D@2@@std@@@2@@2@V?$allocator@U?$pair@$$CBV?$basic_string@DU?$char_traits@D@std@@V?$allocator@D@2@@std@@V?$shared_ptr@UNode@NetvarTree@@@2@@std@@@2@$0A@@std@@@std@@QAE?AV?$_List_iterator@V?$_List_val@U?$_List_simple_types@U?$pair@$$CBV?$basic_string@DU?$char_traits@D@std@@V?$allocator@D@2@@std@@V?$shared_ptr@UNode@NetvarTree@@@2@@std@@@std@@@std@@@2@ABV?$basic_string@DU?$char_traits@D@std@@V?$allocator@D@2@@2@@Z 1000c090 f i c_ragebot.obj
 0001:0000b1a0       ?max_load_factor@?$_Hash@V?$_Umap_traits@V?$basic_string@DU?$char_traits@D@std@@V?$allocator@D@2@@std@@V?$shared_ptr@UNode@NetvarTree@@@2@V?$_Uhash_compare@V?$basic_string@DU?$char_traits@D@std@@V?$allocator@D@2@@std@@U?$hash@V?$basic_string@DU?$char_traits@D@std@@V?$allocator@D@2@@std@@@2@U?$equal_to@V?$basic_string@DU?$char_traits@D@std@@V?$allocator@D@2@@std@@@2@@2@V?$allocator@U?$pair@$$CBV?$basic_string@DU?$char_traits@D@std@@V?$allocator@D@2@@std@@V?$shared_ptr@UNode@NetvarTree@@@2@@std@@@2@$0A@@std@@@std@@QBEMXZ 1000c1a0 f i c_ragebot.obj
 0001:0000b1d0       ?max_size@?$_Default_allocator_traits@V?$allocator@V?$_List_unchecked_iterator@V?$_List_val@U?$_List_simple_types@U?$pair@$$CBV?$basic_string@DU?$char_traits@D@std@@V?$allocator@D@2@@std@@V?$shared_ptr@UNode@NetvarTree@@@2@@std@@@std@@@std@@@std@@@std@@@std@@SAIABV?$allocator@V?$_List_unchecked_iterator@V?$_List_val@U?$_List_simple_types@U?$pair@$$CBV?$basic_string@DU?$char_traits@D@std@@V?$allocator@D@2@@std@@V?$shared_ptr@UNode@NetvarTree@@@2@@std@@@std@@@std@@@std@@@2@@Z 1000c1d0 f i c_ragebot.obj
 0001:0000b1d0       ?max_size@?$_Default_allocator_traits@V?$allocator@H@std@@@std@@SAIABV?$allocator@H@2@@Z 1000c1d0 f i c_ragebot.obj
 0001:0000b1e0       ?max_size@?$_Default_allocator_traits@V?$allocator@U?$_List_node@U?$pair@$$CBV?$basic_string@DU?$char_traits@D@std@@V?$allocator@D@2@@std@@V?$shared_ptr@UNode@NetvarTree@@@2@@std@@PAX@std@@@std@@@std@@SAIABV?$allocator@U?$_List_node@U?$pair@$$CBV?$basic_string@DU?$char_traits@D@std@@V?$allocator@D@2@@std@@V?$shared_ptr@UNode@NetvarTree@@@2@@std@@PAX@std@@@2@@Z 1000c1e0 f i c_ragebot.obj
 0001:0000b1f0       ?max_size@?$list@U?$pair@$$CBV?$basic_string@DU?$char_traits@D@std@@V?$allocator@D@2@@std@@V?$shared_ptr@UNode@NetvarTree@@@2@@std@@V?$allocator@U?$pair@$$CBV?$basic_string@DU?$char_traits@D@std@@V?$allocator@D@2@@std@@V?$shared_ptr@UNode@NetvarTree@@@2@@std@@@2@@std@@QBEIXZ 1000c1f0 f i c_ragebot.obj
 0001:0000b210       ?max_size@?$vector@HV?$allocator@H@std@@@std@@QBEIXZ 1000c210 f i c_ragebot.obj
 0001:0000b210       ?max_size@?$vector@V?$_List_unchecked_iterator@V?$_List_val@U?$_List_simple_types@U?$pair@$$CBV?$basic_string@DU?$char_traits@D@std@@V?$allocator@D@2@@std@@V?$shared_ptr@UNode@NetvarTree@@@2@@std@@@std@@@std@@@std@@V?$allocator@V?$_List_unchecked_iterator@V?$_List_val@U?$_List_simple_types@U?$pair@$$CBV?$basic_string@DU?$char_traits@D@std@@V?$allocator@D@2@@std@@V?$shared_ptr@UNode@NetvarTree@@@2@@std@@@std@@@std@@@std@@@2@@std@@QBEIXZ 1000c210 f i c_ragebot.obj
 0001:0000b250       ?pointer_to@?$pointer_traits@PAU?$pair@$$CBV?$basic_string@DU?$char_traits@D@std@@V?$allocator@D@2@@std@@V?$shared_ptr@UNode@NetvarTree@@@2@@std@@@std@@SAPAU?$pair@$$CBV?$basic_string@DU?$char_traits@D@std@@V?$allocator@D@2@@std@@V?$shared_ptr@UNode@NetvarTree@@@2@@2@AAU32@@Z 1000c250 f i c_ragebot.obj
 0001:0000b270       ?push_back@?$vector@HV?$allocator@H@std@@@std@@QAEX$$QAH@Z 1000c270 f i c_ragebot.obj
 0001:0000b2a0       ?reserve@?$vector@V?$_List_unchecked_iterator@V?$_List_val@U?$_List_simple_types@U?$pair@$$CBV?$basic_string@DU?$char_traits@D@std@@V?$allocator@D@2@@std@@V?$shared_ptr@UNode@NetvarTree@@@2@@std@@@std@@@std@@@std@@V?$allocator@V?$_List_unchecked_iterator@V?$_List_val@U?$_List_simple_types@U?$pair@$$CBV?$basic_string@DU?$char_traits@D@std@@V?$allocator@D@2@@std@@V?$shared_ptr@UNode@NetvarTree@@@2@@std@@@std@@@std@@@std@@@2@@std@@QAEXI@Z 1000c2a0 f i c_ragebot.obj
 0001:0000b2e0       ?sin@@YAMM@Z               1000c2e0 f i c_ragebot.obj
 0001:0000b300       ?size@?$_Hash@V?$_Umap_traits@V?$basic_string@DU?$char_traits@D@std@@V?$allocator@D@2@@std@@V?$shared_ptr@UNode@NetvarTree@@@2@V?$_Uhash_compare@V?$basic_string@DU?$char_traits@D@std@@V?$allocator@D@2@@std@@U?$hash@V?$basic_string@DU?$char_traits@D@std@@V?$allocator@D@2@@std@@@2@U?$equal_to@V?$basic_string@DU?$char_traits@D@std@@V?$allocator@D@2@@std@@@2@@2@V?$allocator@U?$pair@$$CBV?$basic_string@DU?$char_traits@D@std@@V?$allocator@D@2@@std@@V?$shared_ptr@UNode@NetvarTree@@@2@@std@@@2@$0A@@std@@@std@@QBEIXZ 1000c300 f i c_ragebot.obj
 0001:0000b320       ?size@?$basic_string@DU?$char_traits@D@std@@V?$allocator@D@2@@std@@QBEIXZ 1000c320 f i c_ragebot.obj
 0001:0000b320       ?size@?$basic_string@_WU?$char_traits@_W@std@@V?$allocator@_W@2@@std@@QBEIXZ 1000c320 f i config_system.obj
 0001:0000b340       ?size@?$deque@UPlayerRecords@@V?$allocator@UPlayerRecords@@@std@@@std@@QBEIXZ 1000c340 f i c_ragebot.obj
 0001:0000b340       ?size@?$deque@ULegitPlayerRecords@@V?$allocator@ULegitPlayerRecords@@@std@@@std@@QBEIXZ 1000c340 f i Legitbot.obj
 0001:0000b360       ?size@?$vector@HV?$allocator@H@std@@@std@@QBEIXZ 1000c360 f i c_ragebot.obj
 0001:0000b360       ?size@?$vector@V?$_List_unchecked_iterator@V?$_List_val@U?$_List_simple_types@U?$pair@$$CBV?$basic_string@DU?$char_traits@D@std@@V?$allocator@D@2@@std@@V?$shared_ptr@UNode@NetvarTree@@@2@@std@@@std@@@std@@@std@@V?$allocator@V?$_List_unchecked_iterator@V?$_List_val@U?$_List_simple_types@U?$pair@$$CBV?$basic_string@DU?$char_traits@D@std@@V?$allocator@D@2@@std@@V?$shared_ptr@UNode@NetvarTree@@@2@@std@@@std@@@std@@@std@@@2@@std@@QBEIXZ 1000c360 f i c_ragebot.obj
 0001:0000b390       ?sqrt@@YAMM@Z              1000c390 f i c_ragebot.obj
 0001:0000b3b0       _cosf                      1000c3b0 f i c_ragebot.obj
 0001:0000b3d0       _fabsf                     1000c3d0 f i c_ragebot.obj
 0001:0000b3f0       _sinf                      1000c3f0 f i c_ragebot.obj
 0001:0000b410       _sqrtf                     1000c410 f i c_ragebot.obj
 0001:0000b430       ??$pow@MNX@@YANMN@Z        1000c430 f i Autowall.obj
 0001:0000b460       ??0C_TraceFilter@@QAE@PAVC_BaseEntity@@W4TraceType_t@@@Z 1000c460 f i Autowall.obj
 0001:0000b490       ??0FireBulletData@@QAE@ABVVector@@PAVC_BaseEntity@@@Z 1000c490 f i Autowall.obj
 0001:0000b4f0       ??0ITraceFilter@@QAE@XZ    1000c4f0 f i Autowall.obj
 0001:0000b510       ??R<lambda_8306b9bf967b1dc2e3a7715b585f0ae0>@@QBE_NPBE0PBD@Z 1000c510 f i Autowall.obj
 0001:0000b590       ??_0Vector@@QAEAAV0@M@Z    1000c590 f i Autowall.obj
 0001:0000b600       ?ArmorValue@C_BaseEntity@@QAEHXZ 1000c600 f i Autowall.obj
 0001:0000b6c0       ?CanHitFloatingPoint@Autowall@@QAE_NABVVector@@0@Z 1000c6c0 f   Autowall.obj
 0001:0000b8a0       ?Damage@Autowall@@QAEMABVVector@@@Z 1000c8a0 f   Autowall.obj
 0001:0000b9b0       ?FindPattern@Utils@@SAKPBDPBE0@Z 1000c9b0 f i Autowall.obj
 0001:0000ba30       ?GetHitgroupDamageMult@@YAMH@Z 1000ca30 f   Autowall.obj
 0001:0000ba90       ?HandleBulletPenetration@@YA_NPAVWeaponInfo_t@@AAUFireBulletData@@_NVVector@@@Z 1000ca90 f   Autowall.obj
 0001:0000bee0       ?HasHelmet@C_BaseEntity@@QAE_NXZ 1000cee0 f i Autowall.obj
 0001:0000bfa0       ?ScaleDamage@@YAXHPAVC_BaseEntity@@MAAM@Z 1000cfa0 f   Autowall.obj
 0001:0000c090       ?ShouldHitEntity@C_TraceFilter@@UAE_NPAXH@Z 1000d090 f i Autowall.obj
 0001:0000c0c0       ?SimulateFireBullet@@YA_NPAVC_BaseEntity@@PAVC_BaseCombatWeapon@@AAUFireBulletData@@@Z 1000d0c0 f   Autowall.obj
 0001:0000c330       ?TraceLine@@YAXAAVVector@@0IPAVC_BaseEntity@@PAUC_Trace@@@Z 1000d330 f   Autowall.obj
 0001:0000c3c0       ?TraceToExitalt@@YA_NAAVVector@@AAUC_Trace@@V1@2PAU2@@Z 1000d3c0 f   Autowall.obj
 0001:0000c4c0       ?UTIL_ClipTraceToPlayers@@YAXABVVector@@0IPAVITraceFilter@@PAUC_Trace@@@Z 1000d4c0 f   Autowall.obj
 0001:0000c580       ?VectorLength@@YAMABVVector@@@Z 1000d580 f i Autowall.obj
 0001:0000c5d0       ?VectorNormalize@@YAMAAVVector@@@Z 1000d5d0 f i Autowall.obj
 0001:0000c640       ?VectortoVectorVisible@@YA_NVVector@@0@Z 1000d640 f   Autowall.obj
 0001:0000c6e0       ??$CallVFunc@$00XPAVC_BaseEntity@@@Utils@@SAXPAXPAVC_BaseEntity@@@Z 1000d6e0 f i EnginePrediction.obj
 0001:0000c710       ?AccuracyPenalty@C_BaseCombatWeapon@@QAEXXZ 1000d710 f i EnginePrediction.obj
 0001:0000c740       ?EndEnginePred@engine_prediction@@YAXXZ 1000d740 f   EnginePrediction.obj
 0001:0000c810       ?RunEnginePred@engine_prediction@@YAXXZ 1000d810 f   EnginePrediction.obj
 0001:0000ca80       ?SetCurrentCommand@C_BaseEntity@@QAEXPAVCUserCmd@@@Z 1000da80 f i EnginePrediction.obj
 0001:0000cb40       ?SetHost@IMoveHelper@@QAEXPAVC_BaseEntity@@@Z 1000db40 f i EnginePrediction.obj
 0001:0000cb60       ??$?0$$V@?$_Compressed_pair@V?$allocator@UPlayerRecords@@@std@@V?$_Deque_val@U?$_Deque_simple_types@UPlayerRecords@@@std@@@2@$00@std@@QAE@U_Zero_then_variadic_args_t@1@@Z 1000db60 f i LagComp.obj
 0001:0000cb60       ??$?0$$V@?$_Compressed_pair@V?$allocator@ULegitPlayerRecords@@@std@@V?$_Deque_val@U?$_Deque_simple_types@ULegitPlayerRecords@@@std@@@2@$00@std@@QAE@U_Zero_then_variadic_args_t@1@@Z 1000db60 f i Legitbot.obj
 0001:0000cb80       ??$_Deallocate_plain@V?$allocator@U_Container_proxy@std@@@std@@$0A@@std@@YAXAAV?$allocator@U_Container_proxy@std@@@0@QAU_Container_proxy@0@@Z 1000db80 f i LagComp.obj
 0001:0000cba0       ??$_Get_size_of_n@$07@std@@YAII@Z 1000dba0 f i LagComp.obj
 0001:0000cbd0       ??$_Get_size_of_n@$0BIAM@@std@@YAII@Z 1000dbd0 f i LagComp.obj
 0001:0000cc00       ??$_Get_unwrapped@V?$_Deque_iterator@V?$_Deque_val@U?$_Deque_simple_types@UPlayerRecords@@@std@@@std@@@std@@$0A@@std@@YA?AV?$_Deque_unchecked_iterator@V?$_Deque_val@U?$_Deque_simple_types@UPlayerRecords@@@std@@@std@@@0@ABV?$_Deque_iterator@V?$_Deque_val@U?$_Deque_simple_types@UPlayerRecords@@@std@@@std@@@0@@Z 1000dc00 f i LagComp.obj
 0001:0000cc00       ??$_Get_unwrapped@V?$_Deque_iterator@V?$_Deque_val@U?$_Deque_simple_types@ULegitPlayerRecords@@@std@@@std@@@std@@$0A@@std@@YA?AV?$_Deque_unchecked_iterator@V?$_Deque_val@U?$_Deque_simple_types@ULegitPlayerRecords@@@std@@@std@@@0@ABV?$_Deque_iterator@V?$_Deque_val@U?$_Deque_simple_types@ULegitPlayerRecords@@@std@@@std@@@0@@Z 1000dc00 f i Legitbot.obj
 0001:0000cc20       ??$_Get_unwrapped_n@V?$_Deque_iterator@V?$_Deque_val@U?$_Deque_simple_types@UPlayerRecords@@@std@@@std@@@std@@H$0A@@std@@YA?AV?$_Deque_unchecked_iterator@V?$_Deque_val@U?$_Deque_simple_types@UPlayerRecords@@@std@@@std@@@0@ABV?$_Deque_iterator@V?$_Deque_val@U?$_Deque_simple_types@UPlayerRecords@@@std@@@std@@@0@H@Z 1000dc20 f i LagComp.obj
 0001:0000cc20       ??$_Get_unwrapped_n@V?$_Deque_iterator@V?$_Deque_val@U?$_Deque_simple_types@ULegitPlayerRecords@@@std@@@std@@@std@@H$0A@@std@@YA?AV?$_Deque_unchecked_iterator@V?$_Deque_val@U?$_Deque_simple_types@ULegitPlayerRecords@@@std@@@std@@@0@ABV?$_Deque_iterator@V?$_Deque_val@U?$_Deque_simple_types@ULegitPlayerRecords@@@std@@@std@@@0@H@Z 1000dc20 f i Legitbot.obj
 0001:0000cc50       ??$_Idl_distance@V?$_Deque_iterator@V?$_Deque_val@U?$_Deque_simple_types@ULegitPlayerRecords@@@std@@@std@@@std@@V?$_Deque_unchecked_iterator@V?$_Deque_val@U?$_Deque_simple_types@ULegitPlayerRecords@@@std@@@std@@@2@@std@@YAHABV?$_Deque_unchecked_iterator@V?$_Deque_val@U?$_Deque_simple_types@ULegitPlayerRecords@@@std@@@std@@@0@0@Z 1000dc50 f i Legitbot.obj
 0001:0000cc50       ??$_Idl_distance@V?$_Deque_iterator@V?$_Deque_val@U?$_Deque_simple_types@UPlayerRecords@@@std@@@std@@@std@@V?$_Deque_unchecked_iterator@V?$_Deque_val@U?$_Deque_simple_types@UPlayerRecords@@@std@@@std@@@2@@std@@YAHABV?$_Deque_unchecked_iterator@V?$_Deque_val@U?$_Deque_simple_types@UPlayerRecords@@@std@@@std@@@0@0@Z 1000dc50 f i LagComp.obj
 0001:0000cc70       ??$_Move_backward_unchecked1@V?$_Deque_unchecked_iterator@V?$_Deque_val@U?$_Deque_simple_types@UPlayerRecords@@@std@@@std@@@std@@V12@@std@@YA?AV?$_Deque_unchecked_iterator@V?$_Deque_val@U?$_Deque_simple_types@UPlayerRecords@@@std@@@std@@@0@V10@00U_General_ptr_iterator_tag@0@@Z 1000dc70 f i LagComp.obj
 0001:0000cce0       ??$_Move_backward_unchecked@V?$_Deque_unchecked_iterator@V?$_Deque_val@U?$_Deque_simple_types@UPlayerRecords@@@std@@@std@@@std@@V12@@std@@YA?AV?$_Deque_unchecked_iterator@V?$_Deque_val@U?$_Deque_simple_types@UPlayerRecords@@@std@@@std@@@0@V10@00@Z 1000dce0 f i LagComp.obj
 0001:0000cd30       ??$_Move_unchecked1@V?$_Deque_unchecked_iterator@V?$_Deque_val@U?$_Deque_simple_types@UPlayerRecords@@@std@@@std@@@std@@V12@@std@@YA?AV?$_Deque_unchecked_iterator@V?$_Deque_val@U?$_Deque_simple_types@UPlayerRecords@@@std@@@std@@@0@V10@00U_General_ptr_iterator_tag@0@@Z 1000dd30 f i LagComp.obj
 0001:0000cda0       ??$_Move_unchecked@V?$_Deque_unchecked_iterator@V?$_Deque_val@U?$_Deque_simple_types@UPlayerRecords@@@std@@@std@@@std@@V12@@std@@YA?AV?$_Deque_unchecked_iterator@V?$_Deque_val@U?$_Deque_simple_types@UPlayerRecords@@@std@@@std@@@0@V10@00@Z 1000dda0 f i LagComp.obj
 0001:0000cdf0       ??$_Seek_wrapped@V?$_Deque_iterator@V?$_Deque_val@U?$_Deque_simple_types@UPlayerRecords@@@std@@@std@@@std@@V?$_Deque_unchecked_iterator@V?$_Deque_val@U?$_Deque_simple_types@UPlayerRecords@@@std@@@std@@@2@@std@@YAXAAV?$_Deque_iterator@V?$_Deque_val@U?$_Deque_simple_types@UPlayerRecords@@@std@@@std@@@0@ABV?$_Deque_unchecked_iterator@V?$_Deque_val@U?$_Deque_simple_types@UPlayerRecords@@@std@@@std@@@0@@Z 1000ddf0 f i LagComp.obj
 0001:0000cdf0       ??$_Seek_wrapped@V?$_Deque_iterator@V?$_Deque_val@U?$_Deque_simple_types@ULegitPlayerRecords@@@std@@@std@@@std@@V?$_Deque_unchecked_iterator@V?$_Deque_val@U?$_Deque_simple_types@ULegitPlayerRecords@@@std@@@std@@@2@@std@@YAXAAV?$_Deque_iterator@V?$_Deque_val@U?$_Deque_simple_types@ULegitPlayerRecords@@@std@@@std@@@0@ABV?$_Deque_unchecked_iterator@V?$_Deque_val@U?$_Deque_simple_types@ULegitPlayerRecords@@@std@@@std@@@0@@Z 1000ddf0 f i Legitbot.obj
 0001:0000ce10       ??$_Uninitialized_value_construct_n1@PAPAULegitPlayerRecords@@IV?$allocator@PAULegitPlayerRecords@@@std@@@std@@YAPAPAULegitPlayerRecords@@PAPAU1@IAAV?$allocator@PAULegitPlayerRecords@@@0@U?$integral_constant@_N$00@0@@Z 1000de10 f i Legitbot.obj
 0001:0000ce10       ??$_Uninitialized_value_construct_n1@PAPAUPlayerRecords@@IV?$allocator@PAUPlayerRecords@@@std@@@std@@YAPAPAUPlayerRecords@@PAPAU1@IAAV?$allocator@PAUPlayerRecords@@@0@U?$integral_constant@_N$00@0@@Z 1000de10 f i LagComp.obj
 0001:0000ce30       ??$_Uninitialized_value_construct_n@PAPAULegitPlayerRecords@@IV?$allocator@PAULegitPlayerRecords@@@std@@@std@@YAPAPAULegitPlayerRecords@@PAPAU1@IAAV?$allocator@PAULegitPlayerRecords@@@0@@Z 1000de30 f i Legitbot.obj
 0001:0000ce30       ??$_Uninitialized_value_construct_n@PAPAUPlayerRecords@@IV?$allocator@PAUPlayerRecords@@@std@@@std@@YAPAPAUPlayerRecords@@PAPAU1@IAAV?$allocator@PAUPlayerRecords@@@0@@Z 1000de30 f i LagComp.obj
 0001:0000ce60       ??$_Zero_range@PAPAUPlayerRecords@@@std@@YAPAPAUPlayerRecords@@QAPAU1@0@Z 1000de60 f i LagComp.obj
 0001:0000ce60       ??$_Zero_range@PAPAULegitPlayerRecords@@@std@@YAPAPAULegitPlayerRecords@@QAPAU1@0@Z 1000de60 f i Legitbot.obj
 0001:0000ce90       ??$clamp@MM@LagComp@@QAEMMMM@Z 1000de90 f i LagComp.obj
 0001:0000cec0       ??$construct@UPlayerRecords@@ABU1@@?$_Default_allocator_traits@V?$allocator@UPlayerRecords@@@std@@@std@@SAXAAV?$allocator@UPlayerRecords@@@1@QAUPlayerRecords@@ABU3@@Z 1000dec0 f i LagComp.obj
 0001:0000cf00       ??$construct@U_Container_proxy@std@@U12@@?$_Default_allocator_traits@V?$allocator@U_Container_proxy@std@@@std@@@std@@SAXAAV?$allocator@U_Container_proxy@std@@@1@QAU_Container_proxy@1@$$QAU31@@Z 1000df00 f i LagComp.obj
 0001:0000cf40       ??$move@V?$_Deque_iterator@V?$_Deque_val@U?$_Deque_simple_types@UPlayerRecords@@@std@@@std@@@std@@V12@@std@@YA?AV?$_Deque_iterator@V?$_Deque_val@U?$_Deque_simple_types@UPlayerRecords@@@std@@@std@@@0@V10@00@Z 1000df40 f i LagComp.obj
 0001:0000d050       ??$move_backward@V?$_Deque_iterator@V?$_Deque_val@U?$_Deque_simple_types@UPlayerRecords@@@std@@@std@@@std@@V12@@std@@YA?AV?$_Deque_iterator@V?$_Deque_val@U?$_Deque_simple_types@UPlayerRecords@@@std@@@std@@@0@V10@00@Z 1000e050 f i LagComp.obj
 0001:0000d160       ??0?$_Deque_alloc@U?$_Deque_base_types@UPlayerRecords@@V?$allocator@UPlayerRecords@@@std@@@std@@@std@@QAE@XZ 1000e160 f i LagComp.obj
 0001:0000d160       ??0?$_Deque_alloc@U?$_Deque_base_types@ULegitPlayerRecords@@V?$allocator@ULegitPlayerRecords@@@std@@@std@@@std@@QAE@XZ 1000e160 f i Legitbot.obj
 0001:0000d190       ??0?$_Deque_unchecked_const_iterator@V?$_Deque_val@U?$_Deque_simple_types@UPlayerRecords@@@std@@@std@@@std@@QAE@IPBU_Container_base12@1@@Z 1000e190 f i LagComp.obj
 0001:0000d190       ??0?$_Deque_unchecked_const_iterator@V?$_Deque_val@U?$_Deque_simple_types@ULegitPlayerRecords@@@std@@@std@@@std@@QAE@IPBU_Container_base12@1@@Z 1000e190 f i Legitbot.obj
 0001:0000d1c0       ??0?$_Deque_unchecked_iterator@V?$_Deque_val@U?$_Deque_simple_types@UPlayerRecords@@@std@@@std@@@std@@QAE@IPBU_Container_base12@1@@Z 1000e1c0 f i LagComp.obj
 0001:0000d1c0       ??0?$_Deque_unchecked_iterator@V?$_Deque_val@U?$_Deque_simple_types@ULegitPlayerRecords@@@std@@@std@@@std@@QAE@IPBU_Container_base12@1@@Z 1000e1c0 f i Legitbot.obj
 0001:0000d1e0       ??0?$_Deque_val@U?$_Deque_simple_types@UPlayerRecords@@@std@@@std@@QAE@XZ 1000e1e0 f i LagComp.obj
 0001:0000d1e0       ??0?$_Deque_val@U?$_Deque_simple_types@ULegitPlayerRecords@@@std@@@std@@QAE@XZ 1000e1e0 f i Legitbot.obj
 0001:0000d220       ??0?$deque@UPlayerRecords@@V?$allocator@UPlayerRecords@@@std@@@std@@QAE@XZ 1000e220 f i LagComp.obj
 0001:0000d220       ??0?$deque@ULegitPlayerRecords@@V?$allocator@ULegitPlayerRecords@@@std@@@std@@QAE@XZ 1000e220 f i Legitbot.obj
 0001:0000d240       ??0LagComp@@QAE@XZ         1000e240 f i LagComp.obj
 0001:0000d270       ??0PlayerRecords@@QAE@XZ   1000e270 f i LagComp.obj
 0001:0000d2a0       ??1?$_Deque_alloc@U?$_Deque_base_types@UPlayerRecords@@V?$allocator@UPlayerRecords@@@std@@@std@@@std@@QAE@XZ 1000e2a0 f i LagComp.obj
 0001:0000d2a0       ??1?$_Deque_alloc@U?$_Deque_base_types@ULegitPlayerRecords@@V?$allocator@ULegitPlayerRecords@@@std@@@std@@@std@@QAE@XZ 1000e2a0 f i Legitbot.obj
 0001:0000d2e0       ??1?$deque@UPlayerRecords@@V?$allocator@UPlayerRecords@@@std@@@std@@QAE@XZ 1000e2e0 f i LagComp.obj
 0001:0000d330       ??1LagComp@@QAE@XZ         1000e330 f i LagComp.obj
 0001:0000d380       ??8?$_Deque_unchecked_const_iterator@V?$_Deque_val@U?$_Deque_simple_types@ULegitPlayerRecords@@@std@@@std@@@std@@QBE_NABV01@@Z 1000e380 f i Legitbot.obj
 0001:0000d380       ??8error_category@std@@QBE_NABV01@@Z 1000e380 f i config_system.obj
 0001:0000d380       ??8?$_Deque_unchecked_const_iterator@V?$_Deque_val@U?$_Deque_simple_types@UPlayerRecords@@@std@@@std@@@std@@QBE_NABV01@@Z 1000e380 f i LagComp.obj
 0001:0000d3b0       ??9?$_Deque_unchecked_const_iterator@V?$_Deque_val@U?$_Deque_simple_types@UPlayerRecords@@@std@@@std@@@std@@QBE_NABV01@@Z 1000e3b0 f i LagComp.obj
 0001:0000d3b0       ??9?$_Deque_unchecked_const_iterator@V?$_Deque_val@U?$_Deque_simple_types@ULegitPlayerRecords@@@std@@@std@@@std@@QBE_NABV01@@Z 1000e3b0 f i Legitbot.obj
 0001:0000d3f0       ??D?$_Deque_unchecked_const_iterator@V?$_Deque_val@U?$_Deque_simple_types@UPlayerRecords@@@std@@@std@@@std@@QBEABUPlayerRecords@@XZ 1000e3f0 f i LagComp.obj
 0001:0000d440       ??D?$_Deque_unchecked_iterator@V?$_Deque_val@U?$_Deque_simple_types@UPlayerRecords@@@std@@@std@@@std@@QBEAAUPlayerRecords@@XZ 1000e440 f i LagComp.obj
 0001:0000d460       ??E?$_Deque_unchecked_const_iterator@V?$_Deque_val@U?$_Deque_simple_types@UPlayerRecords@@@std@@@std@@@std@@QAEAAV01@XZ 1000e460 f i LagComp.obj
 0001:0000d460       ??E?$_Deque_unchecked_const_iterator@V?$_Deque_val@U?$_Deque_simple_types@ULegitPlayerRecords@@@std@@@std@@@std@@QAEAAV01@XZ 1000e460 f i Legitbot.obj
 0001:0000d480       ??E?$_Deque_unchecked_iterator@V?$_Deque_val@U?$_Deque_simple_types@UPlayerRecords@@@std@@@std@@@std@@QAEAAV01@XZ 1000e480 f i LagComp.obj
 0001:0000d480       ??E?$_Deque_unchecked_iterator@V?$_Deque_val@U?$_Deque_simple_types@ULegitPlayerRecords@@@std@@@std@@@std@@QAEAAV01@XZ 1000e480 f i Legitbot.obj
 0001:0000d4a0       ??F?$_Deque_unchecked_const_iterator@V?$_Deque_val@U?$_Deque_simple_types@ULegitPlayerRecords@@@std@@@std@@@std@@QAEAAV01@XZ 1000e4a0 f i Legitbot.obj
 0001:0000d4a0       ??F?$_Deque_unchecked_const_iterator@V?$_Deque_val@U?$_Deque_simple_types@UPlayerRecords@@@std@@@std@@@std@@QAEAAV01@XZ 1000e4a0 f i LagComp.obj
 0001:0000d4c0       ??F?$_Deque_unchecked_iterator@V?$_Deque_val@U?$_Deque_simple_types@ULegitPlayerRecords@@@std@@@std@@@std@@QAEAAV01@XZ 1000e4c0 f i Legitbot.obj
 0001:0000d4c0       ??F?$_Deque_unchecked_iterator@V?$_Deque_val@U?$_Deque_simple_types@UPlayerRecords@@@std@@@std@@@std@@QAEAAV01@XZ 1000e4c0 f i LagComp.obj
 0001:0000d4e0       ??G?$_Deque_const_iterator@V?$_Deque_val@U?$_Deque_simple_types@ULegitPlayerRecords@@@std@@@std@@@std@@QBEHABV01@@Z 1000e4e0 f i Legitbot.obj
 0001:0000d4e0       ??G?$_Deque_const_iterator@V?$_Deque_val@U?$_Deque_simple_types@UPlayerRecords@@@std@@@std@@@std@@QBEHABV01@@Z 1000e4e0 f i LagComp.obj
 0001:0000d510       ??G?$_Deque_iterator@V?$_Deque_val@U?$_Deque_simple_types@UPlayerRecords@@@std@@@std@@@std@@QBEHABV?$_Deque_const_iterator@V?$_Deque_val@U?$_Deque_simple_types@UPlayerRecords@@@std@@@std@@@1@@Z 1000e510 f i LagComp.obj
 0001:0000d510       ??G?$_Deque_iterator@V?$_Deque_val@U?$_Deque_simple_types@ULegitPlayerRecords@@@std@@@std@@@std@@QBEHABV?$_Deque_const_iterator@V?$_Deque_val@U?$_Deque_simple_types@ULegitPlayerRecords@@@std@@@std@@@1@@Z 1000e510 f i Legitbot.obj
 0001:0000d530       ??G?$_Deque_unchecked_const_iterator@V?$_Deque_val@U?$_Deque_simple_types@ULegitPlayerRecords@@@std@@@std@@@std@@QBEHABV01@@Z 1000e530 f i Legitbot.obj
 0001:0000d530       ??G?$_Deque_unchecked_const_iterator@V?$_Deque_val@U?$_Deque_simple_types@UPlayerRecords@@@std@@@std@@@std@@QBEHABV01@@Z 1000e530 f i LagComp.obj
 0001:0000d550       ??G?$_Deque_unchecked_iterator@V?$_Deque_val@U?$_Deque_simple_types@ULegitPlayerRecords@@@std@@@std@@@std@@QBEHABV?$_Deque_unchecked_const_iterator@V?$_Deque_val@U?$_Deque_simple_types@ULegitPlayerRecords@@@std@@@std@@@1@@Z 1000e550 f i Legitbot.obj
 0001:0000d550       ??G?$_Deque_unchecked_iterator@V?$_Deque_val@U?$_Deque_simple_types@UPlayerRecords@@@std@@@std@@@std@@QBEHABV?$_Deque_unchecked_const_iterator@V?$_Deque_val@U?$_Deque_simple_types@UPlayerRecords@@@std@@@std@@@1@@Z 1000e550 f i LagComp.obj
 0001:0000d570       ??H?$_Deque_const_iterator@V?$_Deque_val@U?$_Deque_simple_types@UPlayerRecords@@@std@@@std@@@std@@QBE?AV01@H@Z 1000e570 f i LagComp.obj
 0001:0000d570       ??H?$_Deque_const_iterator@V?$_Deque_val@U?$_Deque_simple_types@ULegitPlayerRecords@@@std@@@std@@@std@@QBE?AV01@H@Z 1000e570 f i Legitbot.obj
 0001:0000d600       ?ClearRecords@LagComp@@QAEXH@Z 1000e600 f   LagComp.obj
 0001:0000d730       ?GetInt@ConVar@@QBEHXZ     1000e730 f i LagComp.obj
 0001:0000d750       ?LerpTime@LagComp@@QAEMXZ  1000e750 f   LagComp.obj
 0001:0000d920       ?StoreRecord@LagComp@@QAEXPAVC_BaseEntity@@@Z 1000e920 f   LagComp.obj
 0001:0000df00       ?ValidTick@LagComp@@QAE_NH@Z 1000ef00 f   LagComp.obj
 0001:0000e0c0       ?_Alloc_proxy@?$_Deque_alloc@U?$_Deque_base_types@ULegitPlayerRecords@@V?$allocator@ULegitPlayerRecords@@@std@@@std@@@std@@QAEXXZ 1000f0c0 f i Legitbot.obj
 0001:0000e0c0       ?_Alloc_proxy@?$_Deque_alloc@U?$_Deque_base_types@UPlayerRecords@@V?$allocator@UPlayerRecords@@@std@@@std@@@std@@QAEXXZ 1000f0c0 f i LagComp.obj
 0001:0000e150       ?_Free_proxy@?$_Deque_alloc@U?$_Deque_base_types@UPlayerRecords@@V?$allocator@UPlayerRecords@@@std@@@std@@@std@@QAEXXZ 1000f150 f i LagComp.obj
 0001:0000e150       ?_Free_proxy@?$_Deque_alloc@U?$_Deque_base_types@ULegitPlayerRecords@@V?$allocator@ULegitPlayerRecords@@@std@@@std@@@std@@QAEXXZ 1000f150 f i Legitbot.obj
 0001:0000e1c0       ?_Getblock@?$_Deque_alloc@U?$_Deque_base_types@UPlayerRecords@@V?$allocator@UPlayerRecords@@@std@@@std@@@std@@QBEII@Z 1000f1c0 f i LagComp.obj
 0001:0000e1c0       ?_Getblock@?$_Deque_alloc@U?$_Deque_base_types@ULegitPlayerRecords@@V?$allocator@ULegitPlayerRecords@@@std@@@std@@@std@@QBEII@Z 1000f1c0 f i Legitbot.obj
 0001:0000e1f0       ?_Growmap@?$deque@UPlayerRecords@@V?$allocator@UPlayerRecords@@@std@@@std@@IAEXI@Z 1000f1f0 f i LagComp.obj
 0001:0000e4a0       ?_Make_iter@?$deque@UPlayerRecords@@V?$allocator@UPlayerRecords@@@std@@@std@@QBE?AV?$_Deque_iterator@V?$_Deque_val@U?$_Deque_simple_types@UPlayerRecords@@@std@@@std@@@2@V?$_Deque_const_iterator@V?$_Deque_val@U?$_Deque_simple_types@UPlayerRecords@@@std@@@std@@@2@@Z 1000f4a0 f i LagComp.obj
 0001:0000e4a0       ?_Make_iter@?$deque@ULegitPlayerRecords@@V?$allocator@ULegitPlayerRecords@@@std@@@std@@QBE?AV?$_Deque_iterator@V?$_Deque_val@U?$_Deque_simple_types@ULegitPlayerRecords@@@std@@@std@@@2@V?$_Deque_const_iterator@V?$_Deque_val@U?$_Deque_simple_types@ULegitPlayerRecords@@@std@@@std@@@2@@Z 1000f4a0 f i Legitbot.obj
 0001:0000e520       ?_Seek_to@?$_Deque_const_iterator@V?$_Deque_val@U?$_Deque_simple_types@UPlayerRecords@@@std@@@std@@@std@@QAEXABV?$_Deque_unchecked_const_iterator@V?$_Deque_val@U?$_Deque_simple_types@UPlayerRecords@@@std@@@std@@@2@@Z 1000f520 f i LagComp.obj
 0001:0000e520       ?_Seek_to@?$_Deque_const_iterator@V?$_Deque_val@U?$_Deque_simple_types@ULegitPlayerRecords@@@std@@@std@@@std@@QAEXABV?$_Deque_unchecked_const_iterator@V?$_Deque_val@U?$_Deque_simple_types@ULegitPlayerRecords@@@std@@@std@@@2@@Z 1000f520 f i Legitbot.obj
 0001:0000e540       ?_Tidy@?$deque@UPlayerRecords@@V?$allocator@UPlayerRecords@@@std@@@std@@IAEXXZ 1000f540 f i LagComp.obj
 0001:0000e650       ?_Unwrapped@?$_Deque_iterator@V?$_Deque_val@U?$_Deque_simple_types@UPlayerRecords@@@std@@@std@@@std@@QBE?AV?$_Deque_unchecked_iterator@V?$_Deque_val@U?$_Deque_simple_types@UPlayerRecords@@@std@@@std@@@2@XZ 1000f650 f i LagComp.obj
 0001:0000e650       ?_Unwrapped@?$_Deque_iterator@V?$_Deque_val@U?$_Deque_simple_types@ULegitPlayerRecords@@@std@@@std@@@std@@QBE?AV?$_Deque_unchecked_iterator@V?$_Deque_val@U?$_Deque_simple_types@ULegitPlayerRecords@@@std@@@std@@@2@XZ 1000f650 f i Legitbot.obj
 0001:0000e690       ?_Xlen@?$deque@ULegitPlayerRecords@@V?$allocator@ULegitPlayerRecords@@@std@@@std@@IBEXXZ 1000f690 f i Legitbot.obj
 0001:0000e690       ?_Xlen@?$deque@UPlayerRecords@@V?$allocator@UPlayerRecords@@@std@@@std@@IBEXXZ 1000f690 f i LagComp.obj
 0001:0000e6b0       ?allocate@?$allocator@UPlayerRecords@@@std@@QAEPAUPlayerRecords@@I@Z 1000f6b0 f i LagComp.obj
 0001:0000e6e0       ?allocate@?$allocator@U_Container_proxy@std@@@std@@QAEPAU_Container_proxy@2@I@Z 1000f6e0 f i LagComp.obj
 0001:0000e710       ?deallocate@?$_Default_allocator_traits@V?$allocator@U_Container_proxy@std@@@std@@@std@@SAXAAV?$allocator@U_Container_proxy@std@@@2@QAU_Container_proxy@2@I@Z 1000f710 f i LagComp.obj
 0001:0000e730       ?deallocate@?$allocator@UPlayerRecords@@@std@@QAEXQAUPlayerRecords@@I@Z 1000f730 f i LagComp.obj
 0001:0000e760       ?empty@?$deque@ULegitPlayerRecords@@V?$allocator@ULegitPlayerRecords@@@std@@@std@@QBE_NXZ 1000f760 f i Legitbot.obj
 0001:0000e760       ?empty@?$deque@UPlayerRecords@@V?$allocator@UPlayerRecords@@@std@@@std@@QBE_NXZ 1000f760 f i LagComp.obj
 0001:0000e790       ?end@?$deque@UPlayerRecords@@V?$allocator@UPlayerRecords@@@std@@@std@@QAE?AV?$_Deque_iterator@V?$_Deque_val@U?$_Deque_simple_types@UPlayerRecords@@@std@@@std@@@2@XZ 1000f790 f i LagComp.obj
 0001:0000e790       ?end@?$deque@ULegitPlayerRecords@@V?$allocator@ULegitPlayerRecords@@@std@@@std@@QAE?AV?$_Deque_iterator@V?$_Deque_val@U?$_Deque_simple_types@ULegitPlayerRecords@@@std@@@std@@@2@XZ 1000f790 f i Legitbot.obj
 0001:0000e810       ?erase@?$deque@UPlayerRecords@@V?$allocator@UPlayerRecords@@@std@@@std@@QAE?AV?$_Deque_iterator@V?$_Deque_val@U?$_Deque_simple_types@UPlayerRecords@@@std@@@std@@@2@V?$_Deque_const_iterator@V?$_Deque_val@U?$_Deque_simple_types@UPlayerRecords@@@std@@@std@@@2@0@Z 1000f810 f i LagComp.obj
 0001:0000eab0       ?erase@?$deque@UPlayerRecords@@V?$allocator@UPlayerRecords@@@std@@@std@@QAE?AV?$_Deque_iterator@V?$_Deque_val@U?$_Deque_simple_types@UPlayerRecords@@@std@@@std@@@2@V?$_Deque_const_iterator@V?$_Deque_val@U?$_Deque_simple_types@UPlayerRecords@@@std@@@std@@@2@@Z 1000fab0 f i LagComp.obj
 0001:0000eb50       ?max_size@?$_Default_allocator_traits@V?$allocator@UPlayerRecords@@@std@@@std@@SAIABV?$allocator@UPlayerRecords@@@2@@Z 1000fb50 f i LagComp.obj
 0001:0000eb60       ?max_size@?$deque@UPlayerRecords@@V?$allocator@UPlayerRecords@@@std@@@std@@QBEIXZ 1000fb60 f i LagComp.obj
 0001:0000eb80       ?pop_back@?$deque@UPlayerRecords@@V?$allocator@UPlayerRecords@@@std@@@std@@QAEXXZ 1000fb80 f i LagComp.obj
 0001:0000ec40       ?pop_front@?$deque@UPlayerRecords@@V?$allocator@UPlayerRecords@@@std@@@std@@QAEXXZ 1000fc40 f i LagComp.obj
 0001:0000ed00       ?push_back@?$deque@UPlayerRecords@@V?$allocator@UPlayerRecords@@@std@@@std@@QAEXABUPlayerRecords@@@Z 1000fd00 f i LagComp.obj
 0001:0000ee60       ?AnimState@C_BaseEntity@@QAEPAVC_AnimState@@XZ 1000fe60 f i AntiAim.obj
 0001:0000ee80       ?FreeStanding@@YAXXZ       1000fe80 f   AntiAim.obj
 0001:0000f680       ?OnCreateMove@AntiAim@@QAEXXZ 10010680 f   AntiAim.obj
 0001:0000f7b0       ?Real@@YAXXZ               100107b0 f   AntiAim.obj
 0001:0000f890       ??$_Get_size_of_n@$0OI@@std@@YAII@Z 10010890 f i Legitbot.obj
 0001:0000f8c0       ??$_Move_backward_unchecked1@V?$_Deque_unchecked_iterator@V?$_Deque_val@U?$_Deque_simple_types@ULegitPlayerRecords@@@std@@@std@@@std@@V12@@std@@YA?AV?$_Deque_unchecked_iterator@V?$_Deque_val@U?$_Deque_simple_types@ULegitPlayerRecords@@@std@@@std@@@0@V10@00U_General_ptr_iterator_tag@0@@Z 100108c0 f i Legitbot.obj
 0001:0000f930       ??$_Move_backward_unchecked@V?$_Deque_unchecked_iterator@V?$_Deque_val@U?$_Deque_simple_types@ULegitPlayerRecords@@@std@@@std@@@std@@V12@@std@@YA?AV?$_Deque_unchecked_iterator@V?$_Deque_val@U?$_Deque_simple_types@ULegitPlayerRecords@@@std@@@std@@@0@V10@00@Z 10010930 f i Legitbot.obj
 0001:0000f980       ??$_Move_unchecked1@V?$_Deque_unchecked_iterator@V?$_Deque_val@U?$_Deque_simple_types@ULegitPlayerRecords@@@std@@@std@@@std@@V12@@std@@YA?AV?$_Deque_unchecked_iterator@V?$_Deque_val@U?$_Deque_simple_types@ULegitPlayerRecords@@@std@@@std@@@0@V10@00U_General_ptr_iterator_tag@0@@Z 10010980 f i Legitbot.obj
 0001:0000f9f0       ??$_Move_unchecked@V?$_Deque_unchecked_iterator@V?$_Deque_val@U?$_Deque_simple_types@ULegitPlayerRecords@@@std@@@std@@@std@@V12@@std@@YA?AV?$_Deque_unchecked_iterator@V?$_Deque_val@U?$_Deque_simple_types@ULegitPlayerRecords@@@std@@@std@@@0@V10@00@Z 100109f0 f i Legitbot.obj
 0001:0000fa40       ??$construct@ULegitPlayerRecords@@ABU1@@?$_Default_allocator_traits@V?$allocator@ULegitPlayerRecords@@@std@@@std@@SAXAAV?$allocator@ULegitPlayerRecords@@@1@QAULegitPlayerRecords@@ABU3@@Z 10010a40 f i Legitbot.obj
 0001:0000fa80       ??$move@V?$_Deque_iterator@V?$_Deque_val@U?$_Deque_simple_types@ULegitPlayerRecords@@@std@@@std@@@std@@V12@@std@@YA?AV?$_Deque_iterator@V?$_Deque_val@U?$_Deque_simple_types@ULegitPlayerRecords@@@std@@@std@@@0@V10@00@Z 10010a80 f i Legitbot.obj
 0001:0000fb90       ??$move_backward@V?$_Deque_iterator@V?$_Deque_val@U?$_Deque_simple_types@ULegitPlayerRecords@@@std@@@std@@@std@@V12@@std@@YA?AV?$_Deque_iterator@V?$_Deque_val@U?$_Deque_simple_types@ULegitPlayerRecords@@@std@@@std@@@0@V10@00@Z 10010b90 f i Legitbot.obj
 0001:0000fca0       ??0error_code@std@@QAE@HABVerror_category@1@@Z 10010ca0 f i config_system.obj
 0001:0000fca0       ??0<lambda_498009bf6358dc471fbe163595f67980>@@QAE@ABVVector@@AAVVector2D@@@Z 10010ca0 f i Legitbot.obj
 0001:0000fca0       ??0?$basic_string_view@DU?$char_traits@D@std@@@std@@QAE@QBDI@Z 10010ca0 f i config_system.obj
 0001:0000fca0       ??0error_condition@std@@QAE@HABVerror_category@1@@Z 10010ca0 f i config_system.obj
 0001:0000fca0       ??0?$basic_string_view@_WU?$char_traits@_W@std@@@std@@QAE@QB_WI@Z 10010ca0 f i config_system.obj
 0001:0000fcd0       ??0LegitPlayerRecords@@QAE@XZ 10010cd0 f i Legitbot.obj
 0001:0000fcf0       ??0Legitbot@@QAE@XZ        10010cf0 f i Legitbot.obj
 0001:0000fd20       ??0Vector2D@@QAE@ABV0@@Z   10010d20 f i Legitbot.obj
 0001:0000fd50       ??1?$deque@ULegitPlayerRecords@@V?$allocator@ULegitPlayerRecords@@@std@@@std@@QAE@XZ 10010d50 f i Legitbot.obj
 0001:0000fda0       ??1Legitbot@@QAE@XZ        10010da0 f i Legitbot.obj
 0001:0000fdf0       ??4LegitPlayerRecords@@QAEAAU0@$$QAU0@@Z 10010df0 f i Legitbot.obj
 0001:0000fe50       ??D?$_Deque_const_iterator@V?$_Deque_val@U?$_Deque_simple_types@ULegitPlayerRecords@@@std@@@std@@@std@@QBEABULegitPlayerRecords@@XZ 10010e50 f i Legitbot.obj
 0001:0000feb0       ??D?$_Deque_iterator@V?$_Deque_val@U?$_Deque_simple_types@ULegitPlayerRecords@@@std@@@std@@@std@@QBEAAULegitPlayerRecords@@XZ 10010eb0 f i Legitbot.obj
 0001:0000fed0       ??D?$_Deque_unchecked_const_iterator@V?$_Deque_val@U?$_Deque_simple_types@ULegitPlayerRecords@@@std@@@std@@@std@@QBEABULegitPlayerRecords@@XZ 10010ed0 f i Legitbot.obj
 0001:0000ff20       ??D?$_Deque_unchecked_iterator@V?$_Deque_val@U?$_Deque_simple_types@ULegitPlayerRecords@@@std@@@std@@@std@@QBEAAULegitPlayerRecords@@XZ 10010f20 f i Legitbot.obj
 0001:0000ff40       ??R<lambda_498009bf6358dc471fbe163595f67980>@@QBE_NXZ 10010f40 f i Legitbot.obj
 0001:000101e0       ?OnCreateMove@Legitbot@@QAEXXZ 100111e0 f   Legitbot.obj
 0001:00010a30       ?WorldToScreen@Utils@@SA_NABVVector@@AAVVector2D@@@Z 10011a30 f i Legitbot.obj
 0001:00010ae0       ?_Growmap@?$deque@ULegitPlayerRecords@@V?$allocator@ULegitPlayerRecords@@@std@@@std@@IAEXI@Z 10011ae0 f i Legitbot.obj
 0001:00010d90       ?_Tidy@?$deque@ULegitPlayerRecords@@V?$allocator@ULegitPlayerRecords@@@std@@@std@@IAEXXZ 10011d90 f i Legitbot.obj
 0001:00010ea0       ?allocate@?$allocator@ULegitPlayerRecords@@@std@@QAEPAULegitPlayerRecords@@I@Z 10011ea0 f i Legitbot.obj
 0001:00010ed0       ?at@?$deque@ULegitPlayerRecords@@V?$allocator@ULegitPlayerRecords@@@std@@@std@@QAEAAULegitPlayerRecords@@I@Z 10011ed0 f i Legitbot.obj
 0001:00010f90       ?deallocate@?$allocator@ULegitPlayerRecords@@@std@@QAEXQAULegitPlayerRecords@@I@Z 10011f90 f i Legitbot.obj
 0001:00010fc0       ?erase@?$deque@ULegitPlayerRecords@@V?$allocator@ULegitPlayerRecords@@@std@@@std@@QAE?AV?$_Deque_iterator@V?$_Deque_val@U?$_Deque_simple_types@ULegitPlayerRecords@@@std@@@std@@@2@V?$_Deque_const_iterator@V?$_Deque_val@U?$_Deque_simple_types@ULegitPlayerRecords@@@std@@@std@@@2@0@Z 10011fc0 f i Legitbot.obj
 0001:00011260       ?erase@?$deque@ULegitPlayerRecords@@V?$allocator@ULegitPlayerRecords@@@std@@@std@@QAE?AV?$_Deque_iterator@V?$_Deque_val@U?$_Deque_simple_types@ULegitPlayerRecords@@@std@@@std@@@2@V?$_Deque_const_iterator@V?$_Deque_val@U?$_Deque_simple_types@ULegitPlayerRecords@@@std@@@std@@@2@@Z 10012260 f i Legitbot.obj
 0001:00011300       ?max_size@?$_Default_allocator_traits@V?$allocator@ULegitPlayerRecords@@@std@@@std@@SAIABV?$allocator@ULegitPlayerRecords@@@2@@Z 10012300 f i Legitbot.obj
 0001:00011310       ?max_size@?$deque@ULegitPlayerRecords@@V?$allocator@ULegitPlayerRecords@@@std@@@std@@QBEIXZ 10012310 f i Legitbot.obj
 0001:00011330       ?pop_back@?$deque@ULegitPlayerRecords@@V?$allocator@ULegitPlayerRecords@@@std@@@std@@QAEXXZ 10012330 f i Legitbot.obj
 0001:000113f0       ?pop_front@?$deque@ULegitPlayerRecords@@V?$allocator@ULegitPlayerRecords@@@std@@@std@@QAEXXZ 100123f0 f i Legitbot.obj
 0001:000114b0       ?push_back@?$deque@ULegitPlayerRecords@@V?$allocator@ULegitPlayerRecords@@@std@@@std@@QAEXABULegitPlayerRecords@@@Z 100124b0 f i Legitbot.obj
 0001:00011610       ??0Resolver@@QAE@XZ        10012610 f i Resolver.obj
 0001:000116b0       ?AnimOverlays@C_BaseEntity@@QAEPAVAnimationLayer@@XZ 100126b0 f i Resolver.obj
 0001:000116e0       ?AnimationFix@Resolver@@AAEXPAVC_BaseEntity@@@Z 100126e0 f   Resolver.obj
 0001:00012510       ?ClientAnimations@C_BaseEntity@@QAEX_N@Z 10013510 f i Resolver.obj
 0001:000125d0       ?FrameStage@Resolver@@QAEXW4ClientFrameStage_t@@@Z 100135d0 f   Resolver.obj
 0001:00012720       ?GetLowerBodyYaw@C_BaseEntity@@QAEMXZ 10013720 f i Resolver.obj
 0001:000127e0       ?GetNetChannel@IVEngineClient@@QAEPAVNetChannel@@XZ 100137e0 f i Resolver.obj
 0001:00012810       ?HandleHits@@YAXPAVC_BaseEntity@@@Z 10013810 f   Resolver.obj
 0001:00012af0       ?NumOverlays@C_BaseEntity@@QAEHXZ 10013af0 f i Resolver.obj
 0001:00012b00       ?OnCreateMove@Resolver@@QAEXXZ 10013b00 f   Resolver.obj
 0001:000132d0       ?SetLowerBodyYaw@C_BaseEntity@@QAEXM@Z 100142d0 f i Resolver.obj
 0001:00013390       ?UpdateClientAnimation@C_BaseEntity@@QAEXXZ 10014390 f i Resolver.obj
 0001:000133c0       ??$?0PADX@?$basic_string@DU?$char_traits@D@std@@V?$allocator@D@2@@std@@QAE@PAD0ABV?$allocator@D@1@@Z 100143c0 f i c_esp.obj
 0001:00013470       ??$?HDU?$char_traits@D@std@@V?$allocator@D@1@@std@@YA?AV?$basic_string@DU?$char_traits@D@std@@V?$allocator@D@2@@0@$$QAV10@QBD@Z 10014470 f i c_esp.obj
 0001:000134b0       ??$?HDU?$char_traits@D@std@@V?$allocator@D@1@@std@@YA?AV?$basic_string@DU?$char_traits@D@std@@V?$allocator@D@2@@0@QBD$$QAV10@@Z 100144b0 f i c_esp.obj
 0001:000134f0       ??$?RABHABH@?$less@X@std@@QBE_NABH0@Z 100144f0 f i c_esp.obj
 0001:00013520       ??$_Get_unwrapped@V?$_String_iterator@V?$_String_val@U?$_Simple_types@D@std@@@std@@@std@@$0A@@std@@YAPADABV?$_String_iterator@V?$_String_val@U?$_Simple_types@D@std@@@std@@@0@@Z 10014520 f i c_esp.obj
 0001:00013530       ??$_Get_unwrapped_n@V?$_String_iterator@V?$_String_val@U?$_Simple_types@D@std@@@std@@@std@@H$0A@@std@@YAPADABV?$_String_iterator@V?$_String_val@U?$_Simple_types@D@std@@@std@@@0@H@Z 10014530 f i c_esp.obj
 0001:00013560       ??$_Idl_distance@V?$_String_iterator@V?$_String_val@U?$_Simple_types@D@std@@@std@@@std@@PAD@std@@YAHABQAD0@Z 10014560 f i c_esp.obj
 0001:00013570       ??$_Integral_to_string@DH@std@@YA?AV?$basic_string@DU?$char_traits@D@std@@V?$allocator@D@2@@0@H@Z 10014570 f i c_esp.obj
 0001:00013620       ??$_Reallocate_grow_by@V<lambda_4d79bb85f269e6e8002a4599002d832c>@@IPBDI@?$basic_string@DU?$char_traits@D@std@@V?$allocator@D@2@@std@@QAEAAV01@IV<lambda_4d79bb85f269e6e8002a4599002d832c>@@IPBDI@Z 10014620 f i c_esp.obj
 0001:00013760       ??$_Reallocate_grow_by@V<lambda_ab246b20b9526e2ef7792587e4298a77>@@PBDI@?$basic_string@DU?$char_traits@D@std@@V?$allocator@D@2@@std@@QAEAAV01@IV<lambda_ab246b20b9526e2ef7792587e4298a77>@@PBDI@Z 10014760 f i c_esp.obj
 0001:00013890       ??$_Seek_wrapped@V?$_String_iterator@V?$_String_val@U?$_Simple_types@D@std@@@std@@@std@@PAD@std@@YAXAAV?$_String_iterator@V?$_String_val@U?$_Simple_types@D@std@@@std@@@0@ABQAD@Z 10014890 f i c_esp.obj
 0001:000138b0       ??$_Traits_find@U?$char_traits@D@std@@@std@@YAIQBDII0I@Z 100148b0 f i c_esp.obj
 0001:00013950       ??$_UIntegral_to_buff@DI@std@@YAPADPADI@Z 10014950 f i c_esp.obj
 0001:00013a10       ??$clamp@H@std@@YAABHABH00@Z 10014a10 f i c_esp.obj
 0001:00013a40       ??$clamp@HU?$less@X@std@@@std@@YAABHABH00U?$less@X@0@@Z 10014a40 f i c_esp.obj
 0001:00013ab0       ??$end@D$0BF@@std@@YAPADAAY0BF@D@Z 10014ab0 f i c_esp.obj
 0001:00013ac0       ??$sprintf_s@$0CAH@@@YAHAAY0CAH@DPBDZZ 10014ac0 f i c_esp.obj
 0001:00013af0       ??$transform@V?$_String_iterator@V?$_String_val@U?$_Simple_types@D@std@@@std@@@std@@V12@P6AHH@Z@std@@YA?AV?$_String_iterator@V?$_String_val@U?$_Simple_types@D@std@@@std@@@0@V10@0V10@P6AHH@Z@Z 10014af0 f i c_esp.obj
 0001:00013ba0       ??0?$basic_string@DU?$char_traits@D@std@@V?$allocator@D@2@@std@@QAE@ABV01@@Z 10014ba0 f i c_esp.obj
 0001:00013c20       ??0Color@@QAE@XZ           10014c20 f i c_esp.obj
 0001:00013c60       ??0c_esp@@QAE@XZ           10014c60 f i c_esp.obj
 0001:00013c90       ??A?$basic_string@DU?$char_traits@D@std@@V?$allocator@D@2@@std@@QAEAADI@Z 10014c90 f i c_esp.obj
 0001:00013cc0       ??G?$_String_const_iterator@V?$_String_val@U?$_Simple_types@D@std@@@std@@@std@@QBEHABV01@@Z 10014cc0 f i c_esp.obj
 0001:00013cf0       ??H?$_String_iterator@V?$_String_val@U?$_Simple_types@D@std@@@std@@@std@@QBE?AV01@H@Z 10014cf0 f i c_esp.obj
 0001:00013d20       ??R<lambda_4d79bb85f269e6e8002a4599002d832c>@@QBEXQADQBDII1I@Z 10014d20 f i c_esp.obj
 0001:00013d80       ??R<lambda_ab246b20b9526e2ef7792587e4298a77>@@QBEXQADQBDI1I@Z 10014d80 f i c_esp.obj
 0001:00013de0       ??Y?$_String_const_iterator@V?$_String_val@U?$_Simple_types@D@std@@@std@@@std@@QAEAAV01@H@Z 10014de0 f i c_esp.obj
 0001:00013e00       ??Y?$_String_iterator@V?$_String_val@U?$_Simple_types@D@std@@@std@@@std@@QAEAAV01@H@Z 10014e00 f i c_esp.obj
 0001:00013e20       ?BoundBox@c_esp@@AAEXPAVC_BaseEntity@@@Z 10014e20 f   c_esp.obj
 0001:00013f90       ?DrawLine@ISurface@@QAEXHHHH@Z 10014f90 f i c_esp.obj
 0001:00013fd0       ?DrawOutlinedRect@ISurface@@QAEXHHHH@Z 10014fd0 f i c_esp.obj
 0001:00014010       ?GetAmmo@C_BaseCombatWeapon@@QAEHXZ 10015010 f i c_esp.obj
 0001:000140d0       ?GetCSWpnData_2@C_BaseCombatWeapon@@QAEPAVweapon_info_t@@XZ 100150d0 f i c_esp.obj
 0001:00014100       ?GetName@C_BaseCombatWeapon@@QAE?AV?$basic_string@DU?$char_traits@D@std@@V?$allocator@D@2@@std@@XZ 10015100 f i c_esp.obj
 0001:00014140       ?Line@ISurface@@QAEXHHHHUColor@@@Z 10015140 f i c_esp.obj
 0001:00014180       ?OutlinedRect@ISurface@@QAEXHHHHUColor@@@Z 10015180 f i c_esp.obj
 0001:000141d0       ?Render@c_esp@@QAEXXZ      100151d0 f   c_esp.obj
 0001:000143c0       ?RenderAmmo@c_esp@@AAEXPAVC_BaseEntity@@@Z 100153c0 f   c_esp.obj
 0001:000147c0       ?RenderBox@c_esp@@AAEXXZ   100157c0 f   c_esp.obj
 0001:00014c00       ?RenderHealth@c_esp@@AAEXPAVC_BaseEntity@@@Z 10015c00 f   c_esp.obj
 0001:00015090       ?RenderName@c_esp@@AAEXPAVC_BaseEntity@@H@Z 10016090 f   c_esp.obj
 0001:000152d0       ?RenderSkeleton@c_esp@@AAEXPAVC_BaseEntity@@@Z 100162d0 f   c_esp.obj
 0001:00015d60       ?RenderWeaponName@c_esp@@AAEXPAVC_BaseEntity@@@Z 10016d60 f   c_esp.obj
 0001:000161a0       ?_Check_offset@?$_String_val@U?$_Simple_types@D@std@@@std@@QBEXI@Z 100171a0 f i c_esp.obj
 0001:000161a0       ?_Check_offset@?$_String_val@U?$_Simple_types@_W@std@@@std@@QBEXI@Z 100171a0 f i config_system.obj
 0001:000161c0       ?_Clamp_suffix_size@?$_String_val@U?$_Simple_types@D@std@@@std@@QBEIII@Z 100171c0 f i c_esp.obj
 0001:000161f0       ?_Construct@?$basic_string@DU?$char_traits@D@std@@V?$allocator@D@2@@std@@QAEXQAD0Urandom_access_iterator_tag@2@@Z 100171f0 f i c_esp.obj
 0001:00016230       ?_Construct_lv_contents@?$basic_string@DU?$char_traits@D@std@@V?$allocator@D@2@@std@@QAEXABV12@@Z 10017230 f i c_esp.obj
 0001:00016330       ?_Seek_to@?$_String_const_iterator@V?$_String_val@U?$_Simple_types@D@std@@@std@@@std@@QAEXPBD@Z 10017330 f i c_esp.obj
 0001:00016330       ?type@file_status@filesystem@std@@QAEXW4file_type@23@@Z 10017330 f i config_system.obj
 0001:00016350       ?_Unwrapped@?$_String_iterator@V?$_String_val@U?$_Simple_types@D@std@@@std@@@std@@QBEPADXZ 10017350 f i c_esp.obj
 0001:00016370       ?_Xran@?$_String_val@U?$_Simple_types@_W@std@@@std@@SAXXZ 10017370 f i config_system.obj
 0001:00016370       ?_Xran@?$_String_val@U?$_Simple_types@D@std@@@std@@SAXXZ 10017370 f i c_esp.obj
 0001:00016380       ?append@?$basic_string@DU?$char_traits@D@std@@V?$allocator@D@2@@std@@QAEAAV12@QBD@Z 10017380 f i c_esp.obj
 0001:000163b0       ?append@?$basic_string@DU?$char_traits@D@std@@V?$allocator@D@2@@std@@QAEAAV12@QBDI@Z 100173b0 f i c_esp.obj
 0001:00016450       ?begin@?$basic_string@DU?$char_traits@D@std@@V?$allocator@D@2@@std@@QAE?AV?$_String_iterator@V?$_String_val@U?$_Simple_types@D@std@@@std@@@2@XZ 10017450 f i c_esp.obj
 0001:000164c0       ?clean_name@@YA?AV?$basic_string@DU?$char_traits@D@std@@V?$allocator@D@2@@std@@V12@@Z 100174c0 f   c_esp.obj
 0001:00016620       ?end@?$basic_string@DU?$char_traits@D@std@@V?$allocator@D@2@@std@@QAE?AV?$_String_iterator@V?$_String_val@U?$_Simple_types@D@std@@@std@@@2@XZ 10017620 f i c_esp.obj
 0001:000166a0       ?erase@?$basic_string@DU?$char_traits@D@std@@V?$allocator@D@2@@std@@QAE?AV?$_String_iterator@V?$_String_val@U?$_Simple_types@D@std@@@std@@@2@V?$_String_const_iterator@V?$_String_val@U?$_Simple_types@D@std@@@std@@@2@0@Z 100176a0 f i c_esp.obj
 0001:00016720       ?erase@?$basic_string@DU?$char_traits@D@std@@V?$allocator@D@2@@std@@QAE?AV?$_String_iterator@V?$_String_val@U?$_Simple_types@D@std@@@std@@@2@V?$_String_const_iterator@V?$_String_val@U?$_Simple_types@D@std@@@std@@@2@@Z 10017720 f i c_esp.obj
 0001:00016780       ?erase@?$basic_string@DU?$char_traits@D@std@@V?$allocator@D@2@@std@@QAEAAV12@II@Z 10017780 f i c_esp.obj
 0001:00016810       ?find@?$basic_string@DU?$char_traits@D@std@@V?$allocator@D@2@@std@@QBEIQBDI@Z 10017810 f i c_esp.obj
 0001:000168a0       ?find@?$char_traits@D@std@@SAPBDQBDIABD@Z 100178a0 f i c_esp.obj
 0001:000168d0       ?insert@?$basic_string@DU?$char_traits@D@std@@V?$allocator@D@2@@std@@QAEAAV12@IQBD@Z 100178d0 f i c_esp.obj
 0001:00016910       ?insert@?$basic_string@DU?$char_traits@D@std@@V?$allocator@D@2@@std@@QAEAAV12@IQBDI@Z 10017910 f i c_esp.obj
 0001:00016a30       ?m_iPrimaryReserveAmmoCount@C_BaseCombatWeapon@@QAEHXZ 10017a30 f i c_esp.obj
 0001:00016af0       ?to_string@std@@YA?AV?$basic_string@DU?$char_traits@D@std@@V?$allocator@D@2@@1@H@Z 10017af0 f i c_esp.obj
 0001:00016b20       ??A?$ImVector@UImDrawCmd@@@@QAEAAUImDrawCmd@@H@Z 10017b20 f i imgui_draw.obj
 0001:00016b20       ??A?$ImVector@UImDrawCmd@@@@QBEABUImDrawCmd@@H@Z 10017b20 f i imgui_impl_dx9.obj
 0001:00016b40       ?ImGui_ImplDX9_CreateDeviceObjects@@YA_NXZ 10017b40 f   imgui_impl_dx9.obj
 0001:00016c90       ?ImGui_ImplDX9_Init@@YA_NPAXPAUIDirect3DDevice9@@@Z 10017c90 f   imgui_impl_dx9.obj
 0001:00016e70       ?ImGui_ImplDX9_InvalidateDeviceObjects@@YAXXZ 10017e70 f   imgui_impl_dx9.obj
 0001:00016f10       ?ImGui_ImplDX9_NewFrame@@YAXXZ 10017f10 f   imgui_impl_dx9.obj
 0001:000170a0       ?ImGui_ImplDX9_RenderDrawLists@@YAXPAUImDrawData@@@Z 100180a0 f   imgui_impl_dx9.obj
 0001:00017cd0       ?ImGui_ImplDX9_WndProcHandler@@YAJPAUHWND__@@IIJ@Z 10018cd0 f   imgui_impl_dx9.obj
 0001:00017f10       ??$_Pocma@V?$allocator@D@std@@@std@@YAXAAV?$allocator@D@0@0@Z 10018f10 f i imgui.obj
 0001:00017f10       ??$_Pocma@V?$allocator@_W@std@@@std@@YAXAAV?$allocator@_W@0@0@Z 10018f10 f i config_system.obj
 0001:00017f30       ??$_Pocma@V?$allocator@D@std@@@std@@YAXAAV?$allocator@D@0@0U?$integral_constant@_N$00@0@@Z 10018f30 f i imgui.obj
 0001:00017f30       ??$_Pocma@V?$allocator@_W@std@@@std@@YAXAAV?$allocator@_W@0@0U?$integral_constant@_N$00@0@@Z 10018f30 f i config_system.obj
 0001:00017f50       ??$nigga@H@@YAHHHH@Z       10018f50 f i imgui.obj
 0001:00017f80       ??0?$ImVector@Ustbrp_rect@@@@QAE@XZ 10018f80 f i imgui_draw.obj
 0001:00017f80       ??0?$ImVector@UImGuiColMod@@@@QAE@XZ 10018f80 f i imgui.obj
 0001:00017f80       ??0?$ImVector@UGlyph@ImFont@@@@QAE@XZ 10018f80 f i imgui_draw.obj
 0001:00017f80       ??0?$ImVector@UImVec2@@@@QAE@XZ 10018f80 f i imgui.obj
 0001:00017f80       ??0?$ImVector@UImGuiColumnData@@@@QAE@XZ 10018f80 f i imgui.obj
 0001:00017f80       ??0?$ImVector@I@@QAE@XZ    10018f80 f i imgui.obj
 0001:00017f80       ??0?$ImVector@D@@QAE@XZ    10018f80 f i imgui.obj
 0001:00017f80       ??0?$ImVector@PAUImDrawList@@@@QAE@XZ 10018f80 f i imgui.obj
 0001:00017f80       ??0?$ImVector@UImGuiPopupRef@@@@QAE@XZ 10018f80 f i imgui.obj
 0001:00017f80       ??0?$ImVector@_N@@QAE@XZ   10018f80 f i imgui.obj
 0001:00017f80       ??0?$ImVector@PAUImGuiWindow@@@@QAE@XZ 10018f80 f i imgui.obj
 0001:00017f80       ??0?$ImVector@UImGuiIniData@@@@QAE@XZ 10018f80 f i imgui.obj
 0001:00017f80       ??0?$ImVector@UImDrawChannel@@@@QAE@XZ 10018f80 f i imgui.obj
 0001:00017f80       ??0?$ImVector@UImDrawCmd@@@@QAE@XZ 10018f80 f i imgui.obj
 0001:00017f80       ??0?$ImVector@UPair@ImGuiStorage@@@@QAE@XZ 10018f80 f i imgui.obj
 0001:00017f80       ??0?$ImVector@UImGuiStyleMod@@@@QAE@XZ 10018f80 f i imgui.obj
 0001:00017f80       ??0?$ImVector@UImDrawVert@@@@QAE@XZ 10018f80 f i imgui.obj
 0001:00017f80       ??0?$ImVector@G@@QAE@XZ    10018f80 f i imgui.obj
 0001:00017f80       ??0?$ImVector@M@@QAE@XZ    10018f80 f i imgui.obj
 0001:00017f80       ??0?$ImVector@UImGuiGroupData@@@@QAE@XZ 10018f80 f i imgui.obj
 0001:00017f80       ??0?$ImVector@PAUImFont@@@@QAE@XZ 10018f80 f i imgui.obj
 0001:00017f80       ??0?$ImVector@UImVec4@@@@QAE@XZ 10018f80 f i imgui.obj
 0001:00017f80       ??0?$ImVector@UImFontConfig@@@@QAE@XZ 10018f80 f i imgui_draw.obj
 0001:00017f80       ??0?$ImVector@PAX@@QAE@XZ  10018f80 f i imgui.obj
 0001:00017f80       ??0?$ImVector@UCustomRect@ImFontAtlas@@@@QAE@XZ 10018f80 f i imgui_draw.obj
 0001:00017fb0       ??0ImColor@@QAE@HHHH@Z     10018fb0 f i imgui.obj
 0001:00018020       ??0ImColor@@QAE@MMMM@Z     10019020 f i imgui.obj
 0001:00018070       ??0ImDrawData@@QAE@XZ      10019070 f i imgui.obj
 0001:000180b0       ??0ImDrawList@@QAE@XZ      100190b0 f i imgui.obj
 0001:00018170       ??0ImGuiColMod@@QAE@XZ     10019170 f i imgui.obj
 0001:00018190       ??0ImGuiContext@@QAE@XZ    10019190 f i imgui.obj
 0001:00018850       ??0ImGuiDrawContext@@QAE@XZ 10019850 f i imgui.obj
 0001:00018b60       ??0ImGuiIO@@QAE@XZ         10019b60 f   imgui.obj
 0001:00018eb0       ??0ImGuiListClipper@@QAE@HM@Z 10019eb0 f i imgui.obj
 0001:00018ee0       ??0ImGuiMouseCursorData@@QAE@XZ 10019ee0 f i imgui.obj
 0001:00018f30       ??0ImGuiPopupRef@@QAE@IPAUImGuiWindow@@IABUImVec2@@@Z 10019f30 f i imgui.obj
 0001:00018f80       ??0ImGuiSimpleColumns@@QAE@XZ 10019f80 f   imgui.obj
 0001:00019000       ??0ImGuiSizeConstraintCallbackData@@QAE@XZ 1001a000 f i imgui.obj
 0001:00019030       ??0ImGuiStorage@@QAE@XZ    1001a030 f i imgui.obj
 0001:00019050       ??0ImGuiStyle@@QAE@XZ      1001a050 f   imgui.obj
 0001:0001a520       ??0ImGuiStyleMod@@QAE@HM@Z 1001b520 f i imgui.obj
 0001:0001a550       ??0ImGuiStyleMod@@QAE@HUImVec2@@@Z 1001b550 f i imgui.obj
 0001:0001a5a0       ??0ImGuiTextBuffer@@QAE@XZ 1001b5a0 f i imgui.obj
 0001:0001a610       ??0ImGuiTextEditState@@QAE@XZ 1001b610 f i imgui.obj
 0001:0001a690       ??0ImGuiWindow@@QAE@PBD@Z  1001b690 f   imgui.obj
 0001:0001abc0       ??0ImRect@@QAE@ABUImVec2@@0@Z 1001bbc0 f i imgui.obj
 0001:0001ac00       ??0ImRect@@QAE@ABUImVec4@@@Z 1001bc00 f i imgui.obj
 0001:0001ac70       ??0ImRect@@QAE@MMMM@Z      1001bc70 f i imgui.obj
 0001:0001acd0       ??0ImRect@@QAE@XZ          1001bcd0 f i imgui.obj
 0001:0001ad40       ??0ImVec2@@QAE@XZ          1001bd40 f i imgui.obj
 0001:0001ad70       ??0ImVec4@@QAE@MMMM@Z      1001bd70 f i imgui.obj
 0001:0001adc0       ??0ImVec4@@QAE@XZ          1001bdc0 f i imgui.obj
 0001:0001ae00       ??0Pair@ImGuiStorage@@QAE@IM@Z 1001be00 f i imgui.obj
 0001:0001ae30       ??1?$ImVector@M@@QAE@XZ    1001be30 f i imgui.obj
 0001:0001ae30       ??1?$ImVector@UImDrawChannel@@@@QAE@XZ 1001be30 f i imgui.obj
 0001:0001ae30       ??1?$ImVector@UImGuiPopupRef@@@@QAE@XZ 1001be30 f i imgui.obj
 0001:0001ae30       ??1?$ImVector@UGlyph@ImFont@@@@QAE@XZ 1001be30 f i imgui_draw.obj
 0001:0001ae30       ??1?$ImVector@PAUImFont@@@@QAE@XZ 1001be30 f i imgui.obj
 0001:0001ae30       ??1?$ImVector@PAX@@QAE@XZ  1001be30 f i imgui.obj
 0001:0001ae30       ??1?$ImVector@UImVec4@@@@QAE@XZ 1001be30 f i imgui.obj
 0001:0001ae30       ??1?$ImVector@D@@QAE@XZ    1001be30 f i imgui.obj
 0001:0001ae30       ??1?$ImVector@UImGuiGroupData@@@@QAE@XZ 1001be30 f i imgui.obj
 0001:0001ae30       ??1?$ImVector@UImGuiIniData@@@@QAE@XZ 1001be30 f i imgui.obj
 0001:0001ae30       ??1?$ImVector@Ustbrp_rect@@@@QAE@XZ 1001be30 f i imgui_draw.obj
 0001:0001ae30       ??1?$ImVector@UImDrawCmd@@@@QAE@XZ 1001be30 f i imgui.obj
 0001:0001ae30       ??1?$ImVector@UImGuiColMod@@@@QAE@XZ 1001be30 f i imgui.obj
 0001:0001ae30       ??1?$ImVector@PAUImDrawList@@@@QAE@XZ 1001be30 f i imgui.obj
 0001:0001ae30       ??1?$ImVector@UImGuiColumnData@@@@QAE@XZ 1001be30 f i imgui.obj
 0001:0001ae30       ??1?$ImVector@UImFontConfig@@@@QAE@XZ 1001be30 f i imgui_draw.obj
 0001:0001ae30       ??1?$ImVector@UImVec2@@@@QAE@XZ 1001be30 f i imgui.obj
 0001:0001ae30       ??1?$ImVector@G@@QAE@XZ    1001be30 f i imgui.obj
 0001:0001ae30       ??1?$ImVector@I@@QAE@XZ    1001be30 f i imgui.obj
 0001:0001ae30       ??1?$ImVector@PAUImGuiWindow@@@@QAE@XZ 1001be30 f i imgui.obj
 0001:0001ae30       ??1?$ImVector@UImGuiStyleMod@@@@QAE@XZ 1001be30 f i imgui.obj
 0001:0001ae30       ??1?$ImVector@UPair@ImGuiStorage@@@@QAE@XZ 1001be30 f i imgui.obj
 0001:0001ae30       ??1?$ImVector@UCustomRect@ImFontAtlas@@@@QAE@XZ 1001be30 f i imgui_draw.obj
 0001:0001ae30       ??1?$ImVector@UImDrawVert@@@@QAE@XZ 1001be30 f i imgui.obj
 0001:0001ae30       ??1?$ImVector@_N@@QAE@XZ   1001be30 f i imgui.obj
 0001:0001ae80       ??1ImDrawList@@QAE@XZ      1001be80 f i imgui.obj
 0001:0001af10       ??1ImGuiContext@@QAE@XZ    1001bf10 f i imgui.obj
 0001:0001b020       ??1ImGuiDrawContext@@QAE@XZ 1001c020 f i imgui.obj
 0001:0001b090       ??1ImGuiStorage@@QAE@XZ    1001c090 f i imgui.obj
 0001:0001b0b0       ??1ImGuiTextEditState@@QAE@XZ 1001c0b0 f i imgui.obj
 0001:0001b0e0       ??2@YAPAXIUImPlacementNewDummy@@PAX@Z 1001c0e0 f i imgui.obj
 0001:0001b0f0       ??4?$basic_string@DU?$char_traits@D@std@@V?$allocator@D@2@@std@@QAEAAV01@$$QAV01@@Z 1001c0f0 f i imgui.obj
 0001:0001b190       ??A?$ImVector@D@@QAEAADH@Z 1001c190 f i imgui.obj
 0001:0001b1b0       ??A?$ImVector@G@@QAEAAGH@Z 1001c1b0 f i imgui.obj
 0001:0001b1b0       ??A?$ImVector@G@@QBEABGH@Z 1001c1b0 f i imgui.obj
 0001:0001b1d0       ??A?$ImVector@PAUImDrawList@@@@QAEAAPAUImDrawList@@H@Z 1001c1d0 f i imgui.obj
 0001:0001b1d0       ??A?$ImVector@PAUImFont@@@@QAEAAPAUImFont@@H@Z 1001c1d0 f i imgui.obj
 0001:0001b1d0       ??A?$ImVector@M@@QBEABMH@Z 1001c1d0 f i imgui.obj
 0001:0001b1d0       ??A?$ImVector@M@@QAEAAMH@Z 1001c1d0 f i imgui_draw.obj
 0001:0001b1d0       ??A?$ImVector@PAUImGuiWindow@@@@QAEAAPAUImGuiWindow@@H@Z 1001c1d0 f i imgui.obj
 0001:0001b1f0       ??A?$ImVector@UImGuiColumnData@@@@QAEAAUImGuiColumnData@@H@Z 1001c1f0 f i imgui.obj
 0001:0001b210       ??A?$ImVector@UImGuiIniData@@@@QAEAAUImGuiIniData@@H@Z 1001c210 f i imgui.obj
 0001:0001b230       ??A?$ImVector@UImDrawChannel@@@@QAEAAUImDrawChannel@@H@Z 1001c230 f i imgui_draw.obj
 0001:0001b230       ??A?$ImVector@UImGuiPopupRef@@@@QAEAAUImGuiPopupRef@@H@Z 1001c230 f i imgui.obj
 0001:0001b250       ??BImColor@@QBEIXZ         1001c250 f i imgui.obj
 0001:0001b8d0       ?Add@ImRect@@QAEXABU1@@Z   1001c8d0 f i imgui.obj
 0001:0001b9f0       ?AddInputCharacter@ImGuiIO@@QAEXG@Z 1001c9f0 f   imgui.obj
 0001:0001be30       ?Begin@ImGui@@YA_NPBDPA_NABUImVec2@@MH@Z 1001ce30 f   imgui.obj
 0001:0001f5b0       ?Begin@ImGui@@YA_NPBDPA_NH@Z 100205b0 f   imgui.obj
 0001:0001f600       ?Begin@ImGuiListClipper@@QAEXHM@Z 10020600 f   imgui.obj
 0001:0001f6d0       ?BeginChild@ImGui@@YA_NIABUImVec2@@_NH@Z 100206d0 f   imgui.obj
 0001:0001f6f0       ?BeginChild@ImGui@@YA_NPBDABUImVec2@@_NH@Z 100206f0 f   imgui.obj
 0001:0001f9f0       ?BeginChildFrame@ImGui@@YA_NIABUImVec2@@H@Z 100209f0 f   imgui.obj
 0001:0001faa0       ?BeginColumns@ImGui@@YAXPBDHH@Z 10020aa0 f   imgui.obj
 0001:0001ff30       ?BeginGroup@ImGui@@YAXXZ   10020f30 f   imgui.obj
 0001:00020090       ?BeginPopup@ImGui@@YA_NPBD@Z 10021090 f   imgui.obj
 0001:00020200       ?Button@ImGui@@YA_NPBDABUImVec2@@@Z 10021200 f   imgui.obj
 0001:00020220       ?ButtonBehavior@ImGui@@YA_NABUImRect@@IPA_N1H@Z 10021220 f   imgui.obj
 0001:00020530       ?ButtonEx@ImGui@@YA_NPBDABUImVec2@@H@Z 10021530 f   imgui.obj
 0001:000207b0       ?ButtonExT@ImGui@@YA_NPBDABUImVec2@@HHH_NUImColor@@@Z 100217b0 f   imgui.obj
 0001:00020c80       ?ButtonT@ImGui@@YA_NPBDABUImVec2@@HHUImColor@@_N@Z 10021c80 f   imgui.obj
 0001:00020cc0       ?CalcFontSize@ImGuiWindow@@QBEMXZ 10021cc0 f i imgui.obj
 0001:00020cf0       ?CalcItemSize@ImGui@@YA?AUImVec2@@U2@MM@Z 10021cf0 f   imgui.obj
 0001:00020e60       ?CalcItemWidth@ImGui@@YAMXZ 10021e60 f   imgui.obj
 0001:00020ee0       ?CalcListClipping@ImGui@@YAXHMPAH0@Z 10021ee0 f   imgui.obj
 0001:00020fd0       ?CalcTextSize@ImGui@@YA?AUImVec2@@PBD0_NM@Z 10021fd0 f   imgui.obj
 0001:00021100       ?CalcWrapWidthForPos@ImGui@@YAMABUImVec2@@M@Z 10022100 f   imgui.obj
 0001:000212c0       ?Checkbox@ImGui@@YA_NPBDPA_N@Z 100222c0 f   imgui.obj
 0001:00021ba0       ?CheckboxFlags@ImGui@@YA_NPBDPAII@Z 10022ba0 f   imgui.obj
 0001:00021cb0       ?ClearActiveID@ImGui@@YAXXZ 10022cb0 f   imgui.obj
 0001:00021cd0       ?ClearSelection@ImGuiTextEditState@@QAEXXZ 10022cd0 f i imgui.obj
 0001:00021d60       ?ClipWith@ImRect@@QAEXABU1@@Z 10022d60 f i imgui.obj
 0001:00021de0       ?CloseButton@ImGui@@YA_NIABUImVec2@@M@Z 10022de0 f   imgui.obj
 0001:000220f0       ?CloseCurrentPopup@ImGui@@YAXXZ 100230f0 f   imgui.obj
 0001:000223f0       ?ColorButton@ImGui@@YA_NPBDABUImVec4@@HUImVec2@@@Z 100233f0 f   imgui.obj
 0001:00022b10       ?ColorConvertFloat4ToU32@ImGui@@YAIABUImVec4@@@Z 10023b10 f   imgui.obj
 0001:00022c10       ?ColorConvertHSVtoRGB@ImGui@@YAXMMMAAM00@Z 10023c10 f   imgui.obj
 0001:00022e20       ?ColorConvertRGBtoHSV@ImGui@@YAXMMMAAM00@Z 10023e20 f   imgui.obj
 0001:00022f40       ?ColorEdit4@ImGui@@YA_NPBDQAMH@Z 10023f40 f   imgui.obj
 0001:00023ff0       ?ColorPicker4@ImGui@@YA_NPBDQAMHPBM@Z 10024ff0 f   imgui.obj
 0001:00025600       ?Columns@ImGui@@YAXHPBD_N@Z 10026600 f   imgui.obj
 0001:00025670       ?Combo@ImGui@@YA_NPBDPAHP6A_NPAXHPAPBD@Z2HH@Z 10026670 f   imgui.obj
 0001:00026060       ?Combo@ImGui@@YA_NPBDPAHPBQBDHH@Z 10027060 f   imgui.obj
 0001:00026090       ?Contains@ImRect@@QBE_NABUImVec2@@@Z 10027090 f i imgui.obj
 0001:00026100       ?CreateContext@ImGui@@YAPAUImGuiContext@@P6APAXI@ZP6AXPAX@Z@Z 10027100 f   imgui.obj
 0001:00026570       ?CursorAnimReset@ImGuiTextEditState@@QAEXXZ 10027570 f i imgui.obj
 0001:00026590       ?CursorClamp@ImGuiTextEditState@@QAEXXZ 10027590 f i imgui.obj
 0001:000269c0       ?DragBehavior@ImGui@@YA_NABUImRect@@IPAMMMMHM@Z 100279c0 f   imgui.obj
 0001:00026e60       ?DragFloat@ImGui@@YA_NPBDPAMMMM0M@Z 10027e60 f   imgui.obj
 0001:000272d0       ?DragInt@ImGui@@YA_NPBDPAHMHH0@Z 100282d0 f   imgui.obj
 0001:00027350       ?Dummy@ImGui@@YAXABUImVec2@@@Z 10028350 f   imgui.obj
 0001:000273d0       ?End@ImGui@@YAXXZ          100283d0 f   imgui.obj
 0001:00027490       ?End@ImGuiListClipper@@QAEXXZ 10028490 f   imgui.obj
 0001:00027500       ?EndChild@ImGui@@YAX_N@Z   10028500 f   imgui.obj
 0001:00028240       ?EndChildFrame@ImGui@@YAXXZ 10029240 f   imgui.obj
 0001:00028270       ?EndColumns@ImGui@@YAXXZ   10029270 f   imgui.obj
 0001:00028670       ?EndFrame@ImGui@@YAXXZ     10029670 f   imgui.obj
 0001:00028960       ?EndGroup@ImGui@@YAXXZ     10029960 f   imgui.obj
 0001:00028ba0       ?EndPopup@ImGui@@YAXXZ     10029ba0 f   imgui.obj
 0001:00028bd0       ?Expand@ImRect@@QAEXABUImVec2@@@Z 10029bd0 f i imgui.obj
 0001:00029120       ?FindRenderedTextEnd@ImGui@@YAPBDPBD0@Z 1002a120 f   imgui.obj
 0001:00029190       ?FindWindowByName@ImGui@@YAPAUImGuiWindow@@PBD@Z 1002a190 f   imgui.obj
 0001:000292a0       ?FocusWindow@ImGui@@YAXPAUImGuiWindow@@@Z 1002a2a0 f   imgui.obj
 0001:000293d0       ?FocusableItemRegister@ImGui@@YA_NPAUImGuiWindow@@_N1@Z 1002a3d0 f   imgui.obj
 0001:000294f0       ?FocusableItemUnregister@ImGui@@YAXPAUImGuiWindow@@@Z 1002a4f0 f   imgui.obj
 0001:00029520       ?GetBL@ImRect@@QBE?AUImVec2@@XZ 1002a520 f i imgui.obj
 0001:00029560       ?GetBR@ImRect@@QBE?AUImVec2@@XZ 1002a560 f i imgui.obj
 0001:00029590       ?GetCenter@ImRect@@QBE?AUImVec2@@XZ 1002a590 f i imgui.obj
 0001:000295f0       ?GetCharAdvance@ImFont@@QBEMG@Z 1002a5f0 f i imgui.obj
 0001:00029640       ?GetClipboardText@ImGui@@YAPBDXZ 1002a640 f   imgui.obj
 0001:000297c0       ?GetColorU32@ImGui@@YAIABUImVec4@@@Z 1002a7c0 f   imgui.obj
 0001:00029810       ?GetColorU32@ImGui@@YAIHM@Z 1002a810 f   imgui.obj
 0001:00029870       ?GetColorU32@ImGui@@YAII@Z 1002a870 f   imgui.obj
 0001:000298d0       ?GetColumnOffset@ImGui@@YAMH@Z 1002a8d0 f   imgui.obj
 0001:00029950       ?GetColumnWidth@ImGui@@YAMH@Z 1002a950 f   imgui.obj
 0001:000299d0       ?GetContentRegionAvail@ImGui@@YA?AUImVec2@@XZ 1002a9d0 f   imgui.obj
 0001:00029a30       ?GetContentRegionMax@ImGui@@YA?AUImVec2@@XZ 1002aa30 f   imgui.obj
 0001:00029aa0       ?GetCurrentWindow@ImGui@@YAPAUImGuiWindow@@XZ 1002aaa0 f i imgui.obj
 0001:00029ad0       ?GetCurrentWindowRead@ImGui@@YAPAUImGuiWindow@@XZ 1002aad0 f i imgui.obj
 0001:00029af0       ?GetCursorPosX@ImGui@@YAMXZ 1002aaf0 f   imgui.obj
 0001:00029b30       ?GetCursorPosY@ImGui@@YAMXZ 1002ab30 f   imgui.obj
 0001:00029b70       ?GetCursorScreenPos@ImGui@@YA?AUImVec2@@XZ 1002ab70 f   imgui.obj
 0001:00029cc0       ?GetFloat@ImGuiStorage@@QBEMIM@Z 1002acc0 f   imgui.obj
 0001:00029d10       ?GetFrameCount@ImGui@@YAHXZ 1002ad10 f   imgui.obj
 0001:00029d90       ?GetHeight@ImRect@@QBEMXZ  1002ad90 f i imgui.obj
 0001:00029dc0       ?GetID@ImGui@@YAIPBD@Z     1002adc0 f   imgui.obj
 0001:00029df0       ?GetID@ImGuiWindow@@QAEIPBD0@Z 1002adf0 f   imgui.obj
 0001:00029e60       ?GetID@ImGuiWindow@@QAEIPBX@Z 1002ae60 f   imgui.obj
 0001:00029eb0       ?GetIDNoKeepAlive@ImGuiWindow@@QAEIPBD0@Z 1002aeb0 f   imgui.obj
 0001:00029f10       ?GetIO@ImGui@@YAAAUImGuiIO@@XZ 1002af10 f   imgui.obj
 0001:00029f80       ?GetMouseDragDelta@ImGui@@YA?AUImVec2@@HM@Z 1002af80 f   imgui.obj
 0001:0002a020       ?GetParentWindow@ImGui@@YAPAUImGuiWindow@@XZ 1002b020 f   imgui.obj
 0001:0002a060       ?GetScrollMaxX@ImGui@@YAMXZ 1002b060 f   imgui.obj
 0001:0002a0b0       ?GetScrollMaxY@ImGui@@YAMXZ 1002b0b0 f   imgui.obj
 0001:0002a100       ?GetSize@ImRect@@QBE?AUImVec2@@XZ 1002b100 f i imgui.obj
 0001:0002a150       ?GetStyle@ImGui@@YAAAUImGuiStyle@@XZ 1002b150 f   imgui.obj
 0001:0002a170       ?GetTR@ImRect@@QBE?AUImVec2@@XZ 1002b170 f i imgui.obj
 0001:0002a1b0       ?GetTextLineHeight@ImGui@@YAMXZ 1002b1b0 f   imgui.obj
 0001:0002a1d0       ?GetTextLineHeightWithSpacing@ImGui@@YAMXZ 1002b1d0 f   imgui.obj
 0001:0002a200       ?GetVarPtr@ImGuiStyleVarInfo@@QBEPAXXZ 1002b200 f i imgui.obj
 0001:0002a2c0       ?GetWidth@ImRect@@QBEMXZ   1002b2c0 f i imgui.obj
 0001:0002a2f0       ?GetWindowContentRegionMax@ImGui@@YA?AUImVec2@@XZ 1002b2f0 f   imgui.obj
 0001:0002a320       ?GetWindowDrawList@ImGui@@YAPAUImDrawList@@XZ 1002b320 f   imgui.obj
 0001:0002a340       ?GetWindowHeight@ImGui@@YAMXZ 1002b340 f   imgui.obj
 0001:0002a360       ?GetWindowPos@ImGui@@YA?AUImVec2@@XZ 1002b360 f   imgui.obj
 0001:0002a3a0       ?GetWindowSize@ImGui@@YA?AUImVec2@@XZ 1002b3a0 f   imgui.obj
 0001:0002a3d0       ?GetWindowWidth@ImGui@@YAMXZ 1002b3d0 f   imgui.obj
 0001:0002a3f0       ?HasSelection@ImGuiTextEditState@@QBE_NXZ 1002b3f0 f i imgui.obj
 0001:0002a660       ?ImFileLoadToMemory@@YAPAXPBD0PAHH@Z 1002b660 f   imgui.obj
 0001:0002a790       ?ImFileOpen@@YAPAU_iobuf@@PBD0@Z 1002b790 f   imgui.obj
 0001:0002a8f0       ?ImFormatString@@YAHPADHPBDZZ 1002b8f0 f   imgui.obj
 0001:0002a950       ?ImFormatStringV@@YAHPADHPBD0@Z 1002b950 f   imgui.obj
 0001:0002a9a0       ?ImHash@@YAIPBXHI@Z        1002b9a0 f   imgui.obj
 0001:0002add0       ?ImStrbolW@@YAPBGPBG0@Z    1002bdd0 f   imgui.obj
 0001:0002ae00       ?ImStrdup@@YAPADPBD@Z      1002be00 f   imgui.obj
 0001:0002ae60       ?ImStrlenW@@YAHPBG@Z       1002be60 f   imgui.obj
 0001:0002aea0       ?ImStrncpy@@YAXPADPBDH@Z   1002bea0 f   imgui.obj
 0001:0002aed0       ?ImTextCharFromUtf8@@YAHPAIPBD1@Z 1002bed0 f   imgui.obj
 0001:0002b4a0       ?ImTextCountCharsFromUtf8@@YAHPBD0@Z 1002c4a0 f   imgui.obj
 0001:0002b570       ?ImTextCountUtf8BytesFromStr@@YAHPBG0@Z 1002c570 f   imgui.obj
 0001:0002b5e0       ?ImTextStrFromUtf8@@YAHPAGHPBD1PAPBD@Z 1002c5e0 f   imgui.obj
 0001:0002b680       ?ImTextStrToUtf8@@YAHPADHPBG1@Z 1002c680 f   imgui.obj
 0001:0002b790       ?InputScalarAsWidgetReplacement@ImGui@@YA_NABUImRect@@PBDW4ImGuiDataType@@PAXIH@Z 1002c790 f   imgui.obj
 0001:0002b8b0       ?InputText@ImGui@@YA_NPBDPADIHP6AHPAUImGuiTextEditCallbackData@@@ZPAX@Z 1002c8b0 f   imgui.obj
 0001:0002bb40       ?InputTextEx@ImGui@@YA_NPBDPADHABUImVec2@@HP6AHPAUImGuiTextEditCallbackData@@@ZPAX@Z 1002cb40 f   imgui.obj
 0001:0002e730       ?InvisibleButton@ImGui@@YA_NPBDABUImVec2@@@Z 1002f730 f   imgui.obj
 0001:0002e8b0       ?IsClippedEx@ImGui@@YA_NABUImRect@@PBI_N@Z 1002f8b0 f   imgui.obj
 0001:0002e920       ?IsHovered@ImGui@@YA_NABUImRect@@I_N@Z 1002f920 f   imgui.obj
 0001:0002ea00       ?IsItemActive@ImGui@@YA_NXZ 1002fa00 f   imgui.obj
 0001:0002ea60       ?IsItemHovered@ImGui@@YA_NXZ 1002fa60 f   imgui.obj
 0001:0002ea80       ?IsKeyPressed@ImGui@@YA_NH_N@Z 1002fa80 f   imgui.obj
 0001:0002ebf0       ?IsMouseClicked@ImGui@@YA_NH_N@Z 1002fbf0 f   imgui.obj
 0001:0002ed20       ?IsMouseHoveringRect@ImGui@@YA_NABUImVec2@@0_N@Z 1002fd20 f   imgui.obj
 0001:0002edc0       ?IsPopupOpen@ImGui@@YA_NI@Z 1002fdc0 f   imgui.obj
 0001:0002ee90       ?ItemAdd@ImGui@@YA_NABUImRect@@PBI@Z 1002fe90 f   imgui.obj
 0001:0002efc0       ?ItemSize@ImGui@@YAXABUImRect@@M@Z 1002ffc0 f   imgui.obj
 0001:0002eff0       ?ItemSize@ImGui@@YAXABUImVec2@@M@Z 1002fff0 f   imgui.obj
 0001:0002f200       ?KeepAliveID@ImGui@@YAXI@Z 10030200 f   imgui.obj
 0001:0002f230       ?ListBox@ImGui@@YA_NPBDPAHP6A_NPAXHPAPBD@Z2HH@Z 10030230 f   imgui.obj
 0001:0002f3f0       ?ListBoxFooter@ImGui@@YAXXZ 100303f0 f   imgui.obj
 0001:0002f490       ?ListBoxHeader@ImGui@@YA_NPBDABUImVec2@@@Z 10030490 f   imgui.obj
 0001:0002f740       ?ListBoxHeader@ImGui@@YA_NPBDHH@Z 10030740 f   imgui.obj
 0001:0002fa30       ?LogFinish@ImGui@@YAXXZ    10030a30 f   imgui.obj
 0001:0002fca0       ?LogText@ImGui@@YAXPBDZZ   10030ca0 f   imgui.obj
 0001:0002fde0       ?MemAlloc@ImGui@@YAPAXI@Z  10030de0 f   imgui.obj
 0001:0002fe20       ?MemFree@ImGui@@YAXPAX@Z   10030e20 f   imgui.obj
 0001:0002fe60       ?MenuBarHeight@ImGuiWindow@@QBEMXZ 10030e60 f i imgui.obj
 0001:0002fec0       ?MenuBarRect@ImGuiWindow@@QBE?AUImRect@@XZ 10030ec0 f i imgui.obj
 0001:0002ff60       ?NewFrame@ImGui@@YAXXZ     10030f60 f   imgui.obj
 0001:00031130       ?NextColumn@ImGui@@YAXXZ   10032130 f   imgui.obj
 0001:00031330       ?OnKeyPressed@ImGuiTextEditState@@QAEXH@Z 10032330 f   imgui.obj
 0001:00031370       ?OpenPopup@ImGui@@YAXPBD@Z 10032370 f   imgui.obj
 0001:000313b0       ?OpenPopupEx@ImGui@@YAXI_N@Z 100323b0 f   imgui.obj
 0001:000314f0       ?Overlaps@ImRect@@QBE_NABU1@@Z 100324f0 f i imgui.obj
 0001:00031560       ?ParseFormatPrecision@ImGui@@YAHPBDH@Z 10032560 f   imgui.obj
 0001:00031610       ?PathClear@ImDrawList@@QAEXXZ 10032610 f i imgui.obj
 0001:00031630       ?PathFillConvex@ImDrawList@@QAEXI@Z 10032630 f i imgui.obj
 0001:00031670       ?PathLineTo@ImDrawList@@QAEXABUImVec2@@@Z 10032670 f i imgui.obj
 0001:000316a0       ?PathStroke@ImDrawList@@QAEXI_NM@Z 100326a0 f i imgui.obj
 0001:00031730       ?PopClipRect@ImGui@@YAXXZ  10032730 f   imgui.obj
 0001:00031790       ?PopFont@ImGui@@YAXXZ      10032790 f   imgui.obj
 0001:00031810       ?PopID@ImGui@@YAXXZ        10032810 f   imgui.obj
 0001:00031830       ?PopItemWidth@ImGui@@YAXXZ 10032830 f   imgui.obj
 0001:000318a0       ?PopStyleColor@ImGui@@YAXH@Z 100328a0 f   imgui.obj
 0001:00031910       ?PopStyleVar@ImGui@@YAXH@Z 10032910 f   imgui.obj
 0001:00031a40       ?PushClipRect@ImGui@@YAXABUImVec2@@0_N@Z 10032a40 f   imgui.obj
 0001:00031ac0       ?PushColumnClipRect@ImGui@@YAXH@Z 10032ac0 f   imgui.obj
 0001:00031b40       ?PushFont@ImGui@@YAXPAUImFont@@@Z 10032b40 f   imgui.obj
 0001:00031bb0       ?PushID@ImGui@@YAXH@Z      10032bb0 f   imgui.obj
 0001:00031bf0       ?PushID@ImGui@@YAXPBD@Z    10032bf0 f   imgui.obj
 0001:00031c30       ?PushID@ImGui@@YAXPBX@Z    10032c30 f   imgui.obj
 0001:00031c70       ?PushItemWidth@ImGui@@YAXM@Z 10032c70 f   imgui.obj
 0001:00031ce0       ?PushStyleColor@ImGui@@YAXHABUImVec4@@@Z 10032ce0 f   imgui.obj
 0001:00031d70       ?PushStyleVar@ImGui@@YAXHABUImVec2@@@Z 10032d70 f   imgui.obj
 0001:00031de0       ?PushStyleVar@ImGui@@YAXHM@Z 10032de0 f   imgui.obj
 0001:00031e50       ?RadioButton@ImGui@@YA_NPBD_N@Z 10032e50 f   imgui.obj
 0001:00032440       ?Rect@ImGuiWindow@@QBE?AUImRect@@XZ 10033440 f i imgui.obj
 0001:000324a0       ?Render@ImGui@@YAXXZ       100334a0 f   imgui.obj
 0001:00032b60       ?RenderCollapseTriangle@ImGui@@YAXUImVec2@@_NM@Z 10033b60 f   imgui.obj
 0001:00032eb0       ?RenderColorRectWithAlphaCheckerboard@ImGui@@YAXUImVec2@@0IM0MH@Z 10033eb0 f   imgui.obj
 0001:000331d0       ?RenderFrame@ImGui@@YAXUImVec2@@0I_NM@Z 100341d0 f   imgui.obj
 0001:00033350       ?RenderFrameBorder@ImGui@@YAXUImVec2@@0M@Z 10034350 f   imgui.obj
 0001:00033490       ?RenderText@ImGui@@YAXUImVec2@@PBD1_N@Z 10034490 f   imgui.obj
 0001:00033680       ?RenderTextClipped@ImGui@@YAXABUImVec2@@0PBD1PBU2@0PBUImRect@@@Z 10034680 f   imgui.obj
 0001:00033b90       ?RenderTextWrapped@ImGui@@YAXUImVec2@@PBD1M@Z 10034b90 f   imgui.obj
 0001:00033c90       ?RoundScalar@ImGui@@YAMMH@Z 10034c90 f   imgui.obj
 0001:00034150       ?SameLine@ImGui@@YAXMM@Z   10035150 f   imgui.obj
 0001:00034fa0       ?SelectAll@ImGuiTextEditState@@QAEXXZ 10035fa0 f i imgui.obj
 0001:00034fe0       ?Selectable@ImGui@@YA_NPBD_NHABUImVec2@@@Z 10035fe0 f   imgui.obj
 0001:000355b0       ?SelectableMeme@ImGui@@YA_NPBD_NHABUImVec2@@@Z 100365b0 f   imgui.obj
 0001:00035b40       ?Separator@ImGui@@YAXXZ    10036b40 f   imgui.obj
 0001:00035d40       ?SetActiveID@ImGui@@YAXIPAUImGuiWindow@@@Z 10036d40 f   imgui.obj
 0001:00035d90       ?SetClipboardText@ImGui@@YAXPBD@Z 10036d90 f   imgui.obj
 0001:00035e60       ?SetColumnOffset@ImGui@@YAXHM@Z 10036e60 f   imgui.obj
 0001:000360f0       ?SetCursorPosX@ImGui@@YAXM@Z 100370f0 f   imgui.obj
 0001:00036160       ?SetCursorPosY@ImGui@@YAXM@Z 10037160 f   imgui.obj
 0001:00036250       ?SetCursorScreenPos@ImGui@@YAXABUImVec2@@@Z 10037250 f   imgui.obj
 0001:000362b0       ?SetFloat@ImGuiStorage@@QAEXIM@Z 100372b0 f   imgui.obj
 0001:00036330       ?SetHoveredID@ImGui@@YAXI@Z 10037330 f   imgui.obj
 0001:00036360       ?SetNextWindowPos@ImGui@@YAXABUImVec2@@H@Z 10037360 f   imgui.obj
 0001:000363b0       ?SetNextWindowSize@ImGui@@YAXABUImVec2@@H@Z 100373b0 f   imgui.obj
 0001:00036400       ?SetScrollFromPosY@ImGui@@YAXMM@Z 10037400 f   imgui.obj
 0001:00036460       ?SetScrollHere@ImGui@@YAXM@Z 10037460 f   imgui.obj
 0001:00036530       ?SetWindowFocus@ImGui@@YAXXZ 10037530 f   imgui.obj
 0001:00036750       ?SliderBehavior@ImGui@@YA_NABUImRect@@IPBDPAMMMMHH@Z 10037750 f   imgui.obj
 0001:00037850       ?SliderFloat@ImGui@@YA_NPBDPAMMM0M@Z 10038850 f   imgui.obj
 0001:00037cf0       ?SliderInt@ImGui@@YA_NPBDPAHHH0@Z 10038cf0 f   imgui.obj
 0001:00037d60       ?Spacing@ImGui@@YAXXZ      10038d60 f   imgui.obj
 0001:00037db0       ?Step@ImGuiListClipper@@QAE_NXZ 10038db0 f   imgui.obj
 0001:00037ed0       ?Text@ImGui@@YAXPBDZZ      10038ed0 f   imgui.obj
 0001:00037f00       ?TextColored@ImGui@@YAXABUImVec4@@PBDZZ 10038f00 f   imgui.obj
 0001:00037f30       ?TextColoredV@ImGui@@YAXABUImVec4@@PBDPAD@Z 10038f30 f   imgui.obj
 0001:00037f60       ?TextUnformatted@ImGui@@YAXPBD0@Z 10038f60 f   imgui.obj
 0001:00038470       ?TextV@ImGui@@YAXPBDPAD@Z  10039470 f   imgui.obj
 0001:000384e0       ?TitleBarHeight@ImGuiWindow@@QBEMXZ 100394e0 f i imgui.obj
 0001:00038540       ?TitleBarRect@ImGuiWindow@@QBE?AUImRect@@XZ 10039540 f i imgui.obj
 0001:000385c0       ?Update@ImGuiSimpleColumns@@QAEXHM_N@Z 100395c0 f   imgui.obj
 0001:000386c0       ?_Assign_rv_contents@?$basic_string@DU?$char_traits@D@std@@V?$allocator@D@2@@std@@QAEX$$QAV12@U?$integral_constant@_N$00@2@@Z 100396c0 f i imgui.obj
 0001:00038700       ?_Move_alloc@?$_String_alloc@U?$_String_base_types@DV?$allocator@D@std@@@std@@@std@@QAEXAAV?$allocator@D@2@@Z 10039700 f i imgui.obj
 0001:00038700       ?_Move_alloc@?$_String_alloc@U?$_String_base_types@_WV?$allocator@_W@std@@@std@@@std@@QAEXAAV?$allocator@_W@2@@Z 10039700 f i config_system.obj
 0001:00038730       ?_grow_capacity@?$ImVector@UImGuiColMod@@@@QBEHH@Z 10039730 f i imgui.obj
 0001:00038730       ?_grow_capacity@?$ImVector@PAUImFont@@@@QBEHH@Z 10039730 f i imgui.obj
 0001:00038730       ?_grow_capacity@?$ImVector@PAX@@QBEHH@Z 10039730 f i imgui_draw.obj
 0001:00038730       ?_grow_capacity@?$ImVector@D@@QBEHH@Z 10039730 f i imgui.obj
 0001:00038730       ?_grow_capacity@?$ImVector@Ustbrp_rect@@@@QBEHH@Z 10039730 f i imgui_draw.obj
 0001:00038730       ?_grow_capacity@?$ImVector@I@@QBEHH@Z 10039730 f i imgui.obj
 0001:00038730       ?_grow_capacity@?$ImVector@G@@QBEHH@Z 10039730 f i imgui.obj
 0001:00038730       ?_grow_capacity@?$ImVector@UGlyph@ImFont@@@@QBEHH@Z 10039730 f i imgui_draw.obj
 0001:00038730       ?_grow_capacity@?$ImVector@UImGuiPopupRef@@@@QBEHH@Z 10039730 f i imgui.obj
 0001:00038730       ?_grow_capacity@?$ImVector@UImDrawChannel@@@@QBEHH@Z 10039730 f i imgui_draw.obj
 0001:00038730       ?_grow_capacity@?$ImVector@UImGuiColumnData@@@@QBEHH@Z 10039730 f i imgui.obj
 0001:00038730       ?_grow_capacity@?$ImVector@M@@QBEHH@Z 10039730 f i imgui.obj
 0001:00038730       ?_grow_capacity@?$ImVector@UImVec2@@@@QBEHH@Z 10039730 f i imgui.obj
 0001:00038730       ?_grow_capacity@?$ImVector@UImGuiIniData@@@@QBEHH@Z 10039730 f i imgui.obj
 0001:00038730       ?_grow_capacity@?$ImVector@UImFontConfig@@@@QBEHH@Z 10039730 f i imgui_draw.obj
 0001:00038730       ?_grow_capacity@?$ImVector@UCustomRect@ImFontAtlas@@@@QBEHH@Z 10039730 f i imgui_draw.obj
 0001:00038730       ?_grow_capacity@?$ImVector@UImDrawVert@@@@QBEHH@Z 10039730 f i imgui_draw.obj
 0001:00038730       ?_grow_capacity@?$ImVector@UImVec4@@@@QBEHH@Z 10039730 f i imgui_draw.obj
 0001:00038730       ?_grow_capacity@?$ImVector@_N@@QBEHH@Z 10039730 f i imgui.obj
 0001:00038730       ?_grow_capacity@?$ImVector@PAUImDrawList@@@@QBEHH@Z 10039730 f i imgui.obj
 0001:00038730       ?_grow_capacity@?$ImVector@PAUImGuiWindow@@@@QBEHH@Z 10039730 f i imgui.obj
 0001:00038730       ?_grow_capacity@?$ImVector@UImGuiStyleMod@@@@QBEHH@Z 10039730 f i imgui.obj
 0001:00038730       ?_grow_capacity@?$ImVector@UImDrawCmd@@@@QBEHH@Z 10039730 f i imgui_draw.obj
 0001:00038730       ?_grow_capacity@?$ImVector@UImGuiGroupData@@@@QBEHH@Z 10039730 f i imgui.obj
 0001:00038790       ?appendv@ImGuiTextBuffer@@QAEXPBDPAD@Z 10039790 f   imgui.obj
 0001:00038860       ?back@?$ImVector@M@@QAEAAMXZ 10039860 f i imgui.obj
 0001:00038860       ?back@?$ImVector@PAUImGuiWindow@@@@QAEAAPAUImGuiWindow@@XZ 10039860 f i imgui.obj
 0001:00038860       ?back@?$ImVector@PAX@@QAEAAPAXXZ 10039860 f i imgui_draw.obj
 0001:00038860       ?back@?$ImVector@PAUImFont@@@@QAEAAPAUImFont@@XZ 10039860 f i imgui.obj
 0001:00038860       ?back@?$ImVector@I@@QAEAAIXZ 10039860 f i imgui.obj
 0001:00038880       ?back@?$ImVector@UImDrawCmd@@@@QAEAAUImDrawCmd@@XZ 10039880 f i imgui.obj
 0001:000388a0       ?back@?$ImVector@UImGuiColMod@@@@QAEAAUImGuiColMod@@XZ 100398a0 f i imgui.obj
 0001:000388c0       ?back@?$ImVector@UImGuiGroupData@@@@QAEAAUImGuiGroupData@@XZ 100398c0 f i imgui.obj
 0001:000388c0       ?back@?$ImVector@UGlyph@ImFont@@@@QAEAAUGlyph@ImFont@@XZ 100398c0 f i imgui_draw.obj
 0001:000388e0       ?back@?$ImVector@UImGuiIniData@@@@QAEAAUImGuiIniData@@XZ 100398e0 f i imgui.obj
 0001:00038900       ?back@?$ImVector@UImGuiStyleMod@@@@QAEAAUImGuiStyleMod@@XZ 10039900 f i imgui.obj
 0001:00038920       ?back@?$ImVector@UImVec4@@@@QAEAAUImVec4@@XZ 10039920 f i imgui.obj
 0001:00038940       ?begin@?$ImVector@UPair@ImGuiStorage@@@@QAEPAUPair@ImGuiStorage@@XZ 10039940 f i imgui.obj
 0001:00038940       ?begin@?$ImVector@D@@QAEPADXZ 10039940 f i imgui.obj
 0001:00038940       ?begin@?$ImVector@PAUImGuiWindow@@@@QAEPAPAUImGuiWindow@@XZ 10039940 f i imgui.obj
 0001:00038960       ?begin@ImGuiTextBuffer@@QBEPBDXZ 10039960 f i imgui.obj
 0001:00038980       ?clear@?$ImVector@UGlyph@ImFont@@@@QAEXXZ 10039980 f i imgui_draw.obj
 0001:00038980       ?clear@?$ImVector@UImDrawVert@@@@QAEXXZ 10039980 f i imgui_draw.obj
 0001:00038980       ?clear@?$ImVector@PAX@@QAEXXZ 10039980 f i imgui_draw.obj
 0001:00038980       ?clear@?$ImVector@UCustomRect@ImFontAtlas@@@@QAEXXZ 10039980 f i imgui_draw.obj
 0001:00038980       ?clear@?$ImVector@G@@QAEXXZ 10039980 f i imgui.obj
 0001:00038980       ?clear@?$ImVector@UImVec4@@@@QAEXXZ 10039980 f i imgui_draw.obj
 0001:00038980       ?clear@?$ImVector@UImFontConfig@@@@QAEXXZ 10039980 f i imgui_draw.obj
 0001:00038980       ?clear@?$ImVector@UImVec2@@@@QAEXXZ 10039980 f i imgui_draw.obj
 0001:00038980       ?clear@?$ImVector@UImDrawChannel@@@@QAEXXZ 10039980 f i imgui_draw.obj
 0001:00038980       ?clear@?$ImVector@UImDrawCmd@@@@QAEXXZ 10039980 f i imgui_draw.obj
 0001:00038980       ?clear@?$ImVector@D@@QAEXXZ 10039980 f i imgui.obj
 0001:00038980       ?clear@?$ImVector@PAUImFont@@@@QAEXXZ 10039980 f i imgui.obj
 0001:00038980       ?clear@?$ImVector@M@@QAEXXZ 10039980 f i imgui_draw.obj
 0001:000389c0       ?clear@ImGuiTextBuffer@@QAEXXZ 100399c0 f i imgui.obj
 0001:000389f0       ?empty@?$ImVector@UImGuiPopupRef@@@@QBE_NXZ 100399f0 f i imgui.obj
 0001:000389f0       ?empty@?$ImVector@PAX@@QBE_NXZ 100399f0 f i imgui_draw.obj
 0001:000389f0       ?empty@?$ImVector@UCustomRect@ImFontAtlas@@@@QBE_NXZ 100399f0 f i imgui_draw.obj
 0001:000389f0       ?empty@?$ImVector@UImGuiGroupData@@@@QBE_NXZ 100399f0 f i imgui.obj
 0001:000389f0       ?empty@?$ImVector@PAUImFont@@@@QBE_NXZ 100399f0 f i imgui.obj
 0001:000389f0       ?empty@?$ImVector@UImFontConfig@@@@QBE_NXZ 100399f0 f i imgui_draw.obj
 0001:000389f0       ?empty@?$ImVector@PAUImDrawList@@@@QBE_NXZ 100399f0 f i imgui.obj
 0001:000389f0       ?empty@?$ImVector@M@@QBE_NXZ 100399f0 f i imgui.obj
 0001:000389f0       ?empty@?$ImVector@PAUImGuiWindow@@@@QBE_NXZ 100399f0 f i imgui.obj
 0001:000389f0       ?empty@?$ImVector@UImDrawCmd@@@@QBE_NXZ 100399f0 f i imgui.obj
 0001:000389f0       ?empty@?$ImVector@UImDrawVert@@@@QBE_NXZ 100399f0 f i imgui.obj
 0001:00038a20       ?end@?$ImVector@UPair@ImGuiStorage@@@@QAEPAUPair@ImGuiStorage@@XZ 10039a20 f i imgui.obj
 0001:00038a20       ?end@?$ImVector@UPair@ImGuiStorage@@@@QBEPBUPair@ImGuiStorage@@XZ 10039a20 f i imgui.obj
 0001:00038a40       ?erase@?$ImVector@PAUImGuiWindow@@@@QAEPAPAUImGuiWindow@@PBQAU2@@Z 10039a40 f i imgui.obj
 0001:00038ab0       ?front@?$ImVector@D@@QBEABDXZ 10039ab0 f i imgui.obj
 0001:00038ad0       ?insert@?$ImVector@PAUImGuiWindow@@@@QAEPAPAUImGuiWindow@@PBQAU2@ABQAU2@@Z 10039ad0 f i imgui.obj
 0001:00038b90       ?insert@?$ImVector@UPair@ImGuiStorage@@@@QAEPAUPair@ImGuiStorage@@PBU23@ABU23@@Z 10039b90 f i imgui.obj
 0001:00038d50       ?pop_back@?$ImVector@UImGuiStyleMod@@@@QAEXXZ 10039d50 f i imgui.obj
 0001:00038d50       ?pop_back@?$ImVector@M@@QAEXXZ 10039d50 f i imgui.obj
 0001:00038d50       ?pop_back@?$ImVector@UImDrawCmd@@@@QAEXXZ 10039d50 f i imgui.obj
 0001:00038d50       ?pop_back@?$ImVector@PAUImGuiWindow@@@@QAEXXZ 10039d50 f i imgui.obj
 0001:00038d50       ?pop_back@?$ImVector@UImGuiColMod@@@@QAEXXZ 10039d50 f i imgui.obj
 0001:00038d50       ?pop_back@?$ImVector@UImVec4@@@@QAEXXZ 10039d50 f i imgui_draw.obj
 0001:00038d50       ?pop_back@?$ImVector@I@@QAEXXZ 10039d50 f i imgui.obj
 0001:00038d50       ?pop_back@?$ImVector@PAUImFont@@@@QAEXXZ 10039d50 f i imgui.obj
 0001:00038d50       ?pop_back@?$ImVector@UImGuiGroupData@@@@QAEXXZ 10039d50 f i imgui.obj
 0001:00038d50       ?pop_back@?$ImVector@UImGuiPopupRef@@@@QAEXXZ 10039d50 f i imgui.obj
 0001:00038d50       ?pop_back@?$ImVector@PAX@@QAEXXZ 10039d50 f i imgui_draw.obj
 0001:00038d70       ?push_back@?$ImVector@D@@QAEXABD@Z 10039d70 f i imgui.obj
 0001:00038dd0       ?push_back@?$ImVector@PAUImDrawList@@@@QAEXABQAUImDrawList@@@Z 10039dd0 f i imgui.obj
 0001:00038dd0       ?push_back@?$ImVector@PAUImFont@@@@QAEXABQAUImFont@@@Z 10039dd0 f i imgui.obj
 0001:00038dd0       ?push_back@?$ImVector@M@@QAEXABM@Z 10039dd0 f i imgui.obj
 0001:00038dd0       ?push_back@?$ImVector@PAX@@QAEXABQAX@Z 10039dd0 f i imgui_draw.obj
 0001:00038dd0       ?push_back@?$ImVector@PAUImGuiWindow@@@@QAEXABQAUImGuiWindow@@@Z 10039dd0 f i imgui.obj
 0001:00038dd0       ?push_back@?$ImVector@I@@QAEXABI@Z 10039dd0 f i imgui.obj
 0001:00038e30       ?push_back@?$ImVector@UImGuiColMod@@@@QAEXABUImGuiColMod@@@Z 10039e30 f i imgui.obj
 0001:00038ea0       ?push_back@?$ImVector@UImGuiPopupRef@@@@QAEXABUImGuiPopupRef@@@Z 10039ea0 f i imgui.obj
 0001:00038f20       ?push_back@?$ImVector@UImGuiStyleMod@@@@QAEXABUImGuiStyleMod@@@Z 10039f20 f i imgui.obj
 0001:00038f20       ?push_back@?$ImVector@UCustomRect@ImFontAtlas@@@@QAEXABUCustomRect@ImFontAtlas@@@Z 10039f20 f i imgui_draw.obj
 0001:00038f90       ?push_back@?$ImVector@UImVec2@@@@QAEXABUImVec2@@@Z 10039f90 f i imgui.obj
 0001:00038ff0       ?reserve@?$ImVector@D@@QAEXH@Z 10039ff0 f i imgui.obj
 0001:00038ff0       ?reserve@?$ImVector@_N@@QAEXH@Z 10039ff0 f i imgui.obj
 0001:00039060       ?reserve@?$ImVector@G@@QAEXH@Z 1003a060 f i imgui.obj
 0001:000390e0       ?reserve@?$ImVector@PAUImGuiWindow@@@@QAEXH@Z 1003a0e0 f i imgui.obj
 0001:000390e0       ?reserve@?$ImVector@PAUImFont@@@@QAEXH@Z 1003a0e0 f i imgui.obj
 0001:000390e0       ?reserve@?$ImVector@M@@QAEXH@Z 1003a0e0 f i imgui.obj
 0001:000390e0       ?reserve@?$ImVector@I@@QAEXH@Z 1003a0e0 f i imgui.obj
 0001:000390e0       ?reserve@?$ImVector@PAUImDrawList@@@@QAEXH@Z 1003a0e0 f i imgui.obj
 0001:000390e0       ?reserve@?$ImVector@PAX@@QAEXH@Z 1003a0e0 f i imgui_draw.obj
 0001:00039160       ?reserve@?$ImVector@UImGuiColumnData@@@@QAEXH@Z 1003a160 f i imgui.obj
 0001:00039160       ?reserve@?$ImVector@UImGuiColMod@@@@QAEXH@Z 1003a160 f i imgui.obj
 0001:00039160       ?reserve@?$ImVector@UImDrawVert@@@@QAEXH@Z 1003a160 f i imgui_draw.obj
 0001:000391d0       ?reserve@?$ImVector@UGlyph@ImFont@@@@QAEXH@Z 1003a1d0 f i imgui_draw.obj
 0001:000391d0       ?reserve@?$ImVector@UImGuiGroupData@@@@QAEXH@Z 1003a1d0 f i imgui.obj
 0001:00039240       ?reserve@?$ImVector@UImGuiIniData@@@@QAEXH@Z 1003a240 f i imgui.obj
 0001:000392b0       ?reserve@?$ImVector@UImDrawChannel@@@@QAEXH@Z 1003a2b0 f i imgui_draw.obj
 0001:000392b0       ?reserve@?$ImVector@UImGuiPopupRef@@@@QAEXH@Z 1003a2b0 f i imgui.obj
 0001:00039320       ?reserve@?$ImVector@UCustomRect@ImFontAtlas@@@@QAEXH@Z 1003a320 f i imgui_draw.obj
 0001:00039320       ?reserve@?$ImVector@UImGuiStyleMod@@@@QAEXH@Z 1003a320 f i imgui.obj
 0001:00039390       ?reserve@?$ImVector@UImVec2@@@@QAEXH@Z 1003a390 f i imgui.obj
 0001:00039390       ?reserve@?$ImVector@UPair@ImGuiStorage@@@@QAEXH@Z 1003a390 f i imgui.obj
 0001:00039410       ?resize@?$ImVector@D@@QAEXH@Z 1003a410 f i imgui.obj
 0001:00039410       ?resize@?$ImVector@_N@@QAEXH@Z 1003a410 f i imgui.obj
 0001:00039450       ?resize@?$ImVector@G@@QAEXH@Z 1003a450 f i imgui.obj
 0001:00039490       ?resize@?$ImVector@PAUImDrawList@@@@QAEXH@Z 1003a490 f i imgui.obj
 0001:00039490       ?resize@?$ImVector@I@@QAEXH@Z 1003a490 f i imgui.obj
 0001:00039490       ?resize@?$ImVector@PAUImGuiWindow@@@@QAEXH@Z 1003a490 f i imgui.obj
 0001:00039490       ?resize@?$ImVector@PAX@@QAEXH@Z 1003a490 f i imgui_draw.obj
 0001:00039490       ?resize@?$ImVector@M@@QAEXH@Z 1003a490 f i imgui.obj
 0001:000394d0       ?resize@?$ImVector@UImDrawVert@@@@QAEXH@Z 1003a4d0 f i imgui_draw.obj
 0001:000394d0       ?resize@?$ImVector@UImGuiColumnData@@@@QAEXH@Z 1003a4d0 f i imgui.obj
 0001:00039510       ?resize@?$ImVector@UGlyph@ImFont@@@@QAEXH@Z 1003a510 f i imgui_draw.obj
 0001:00039510       ?resize@?$ImVector@UImGuiGroupData@@@@QAEXH@Z 1003a510 f i imgui.obj
 0001:00039550       ?resize@?$ImVector@UImGuiIniData@@@@QAEXH@Z 1003a550 f i imgui.obj
 0001:00039590       ?resize@?$ImVector@UImGuiPopupRef@@@@QAEXH@Z 1003a590 f i imgui.obj
 0001:00039590       ?resize@?$ImVector@UImDrawChannel@@@@QAEXH@Z 1003a590 f i imgui_draw.obj
 0001:000395d0       ?resize@?$ImVector@UImVec2@@@@QAEXH@Z 1003a5d0 f i imgui.obj
 0001:00039610       ?size@ImGuiTextBuffer@@QBEHXZ 1003a610 f i imgui.obj
 0001:0003b420       ?swap@?$ImVector@PAUImGuiWindow@@@@QAEXAAV1@@Z 1003c420 f i imgui.obj
 0001:0003b490       ___local_stdio_scanf_options 1003c490 f i imgui.obj
 0001:0003b4a0       __vfprintf_l               1003c4a0 f i imgui.obj
 0001:0003b4d0       __vsnprintf_l              1003c4d0 f i imgui.obj
 0001:0003b530       __vsscanf_l                1003c530 f i imgui.obj
 0001:0003b560       _fmodf                     1003c560 f i imgui.obj
 0001:0003b5a0       _fprintf                   1003c5a0 f i imgui.obj
 0001:0003b5e0       _powf                      1003c5e0 f i imgui.obj
 0001:0003b610       _sscanf                    1003c610 f i imgui.obj
 0001:0003b650       _vfprintf                  1003c650 f i imgui.obj
 0001:0003b670       _vsnprintf                 1003c670 f i imgui.obj
 0001:0003b6c0       ??0CustomRect@ImFontAtlas@@QAE@XZ 1003c6c0 f i imgui_draw.obj
 0001:0003b710       ??0ImDrawChannel@@QAE@XZ   1003c710 f i imgui_draw.obj
 0001:0003b770       ??0ImDrawCmd@@QAE@XZ       1003c770 f i imgui_draw.obj
 0001:0003b7f0       ??0ImFont@@QAE@XZ          1003c7f0 f   imgui_draw.obj
 0001:0003b890       ??0ImFontAtlas@@QAE@XZ     1003c890 f   imgui_draw.obj
 0001:0003b980       ??0ImFontConfig@@QAE@XZ    1003c980 f   imgui_draw.obj
 0001:0003ba80       ??1ImFont@@QAE@XZ          1003ca80 f   imgui_draw.obj
 0001:0003bae0       ??1ImFontAtlas@@QAE@XZ     1003cae0 f   imgui_draw.obj
 0001:0003bb40       ??A?$ImVector@UCustomRect@ImFontAtlas@@@@QAEAAUCustomRect@ImFontAtlas@@H@Z 1003cb40 f i imgui_draw.obj
 0001:0003bb60       ??A?$ImVector@UGlyph@ImFont@@@@QAEAAUGlyph@ImFont@@H@Z 1003cb60 f i imgui_draw.obj
 0001:0003bb80       ??A?$ImVector@UImFontConfig@@@@QAEAAUImFontConfig@@H@Z 1003cb80 f i imgui_draw.obj
 0001:0003bba0       ??A?$ImVector@Ustbrp_rect@@@@QAEAAUstbrp_rect@@H@Z 1003cba0 f i imgui_draw.obj
 0001:0003bbc0       ??_GImFont@@QAEPAXI@Z      1003cbc0 f i imgui_draw.obj
 0001:0003bbf0       ?AddCircle@ImDrawList@@QAEXABUImVec2@@MIHM@Z 1003cbf0 f   imgui_draw.obj
 0001:0003bc80       ?AddCircleFilled@ImDrawList@@QAEXABUImVec2@@MIH@Z 1003cc80 f   imgui_draw.obj
 0001:0003bd00       ?AddConvexPolyFilled@ImDrawList@@QAEXPBUImVec2@@HI_N@Z 1003cd00 f   imgui_draw.obj
 0001:0003c330       ?AddDrawCmd@ImDrawList@@QAEXXZ 1003d330 f   imgui_draw.obj
 0001:0003c3d0       ?AddFont@ImFontAtlas@@QAEPAUImFont@@PBUImFontConfig@@@Z 1003d3d0 f   imgui_draw.obj
 0001:0003c510       ?AddFontDefault@ImFontAtlas@@QAEPAUImFont@@PBUImFontConfig@@@Z 1003d510 f   imgui_draw.obj
 0001:0003c670       ?AddFontFromFileTTF@ImFontAtlas@@QAEPAUImFont@@PBDMPBUImFontConfig@@PBG@Z 1003d670 f   imgui_draw.obj
 0001:0003c840       ?AddFontFromMemoryCompressedBase85TTF@ImFontAtlas@@QAEPAUImFont@@PBDMPBUImFontConfig@@PBG@Z 1003d840 f   imgui_draw.obj
 0001:0003c8f0       ?AddFontFromMemoryCompressedTTF@ImFontAtlas@@QAEPAUImFont@@PBXHMPBUImFontConfig@@PBG@Z 1003d8f0 f   imgui_draw.obj
 0001:0003c9e0       ?AddFontFromMemoryTTF@ImFontAtlas@@QAEPAUImFont@@PAXHMPBUImFontConfig@@PBG@Z 1003d9e0 f   imgui_draw.obj
 0001:0003caa0       ?AddImage@ImDrawList@@QAEXPAXABUImVec2@@111I@Z 1003daa0 f   imgui_draw.obj
 0001:0003cb40       ?AddLine@ImDrawList@@QAEXABUImVec2@@0IM@Z 1003db40 f   imgui_draw.obj
 0001:0003cc00       ?AddPolyline@ImDrawList@@QAEXPBUImVec2@@HI_NM1@Z 1003dc00 f   imgui_draw.obj
 0001:0003e070       ?AddRect@ImDrawList@@QAEXABUImVec2@@0IMHM@Z 1003f070 f   imgui_draw.obj
 0001:0003e140       ?AddRectFilled@ImDrawList@@QAEXABUImVec2@@0IMH@Z 1003f140 f   imgui_draw.obj
 0001:0003e1c0       ?AddRectFilledMultiColor@ImDrawList@@QAEXABUImVec2@@0IIII@Z 1003f1c0 f   imgui_draw.obj
 0001:0003e310       ?AddText@ImDrawList@@QAEXABUImVec2@@IPBD1@Z 1003f310 f   imgui_draw.obj
 0001:0003e350       ?AddText@ImDrawList@@QAEXPBUImFont@@MABUImVec2@@IPBD2MPBUImVec4@@@Z 1003f350 f   imgui_draw.obj
 0001:0003e500       ?AddTriangleFilled@ImDrawList@@QAEXABUImVec2@@00I@Z 1003f500 f   imgui_draw.obj
 0001:0003e550       ?Build@ImFontAtlas@@QAE_NXZ 1003f550 f   imgui_draw.obj
 0001:0003e570       ?BuildLookupTable@ImFont@@QAEXXZ 1003f570 f   imgui_draw.obj
 0001:0003e830       ?CalcTextSizeA@ImFont@@QBE?AUImVec2@@MMMPBD0PAPBD@Z 1003f830 f   imgui_draw.obj
 0001:0003eb40       ?CalcWordWrapPositionA@ImFont@@QBEPBDMPBD0M@Z 1003fb40 f   imgui_draw.obj
 0001:0003ed80       ?ChannelsMerge@ImDrawList@@QAEXXZ 1003fd80 f   imgui_draw.obj
 0001:0003ef70       ?ChannelsSetCurrent@ImDrawList@@QAEXH@Z 1003ff70 f   imgui_draw.obj
 0001:0003f040       ?ChannelsSplit@ImDrawList@@QAEXH@Z 10040040 f   imgui_draw.obj
 0001:0003f240       ?Clear@ImDrawList@@QAEXXZ  10040240 f   imgui_draw.obj
 0001:0003f2f0       ?Clear@ImFont@@QAEXXZ      100402f0 f   imgui_draw.obj
 0001:0003f3b0       ?Clear@ImFontAtlas@@QAEXXZ 100403b0 f   imgui_draw.obj
 0001:0003f3e0       ?ClearFonts@ImFontAtlas@@QAEXXZ 100403e0 f   imgui_draw.obj
 0001:0003f460       ?ClearFreeMemory@ImDrawList@@QAEXXZ 10040460 f   imgui_draw.obj
 0001:0003f580       ?ClearInputData@ImFontAtlas@@QAEXXZ 10040580 f   imgui_draw.obj
 0001:0003f6f0       ?ClearTexData@ImFontAtlas@@QAEXXZ 100406f0 f   imgui_draw.obj
 0001:0003f740       ?CustomRectRegister@ImFontAtlas@@QAEHIHH@Z 10040740 f   imgui_draw.obj
 0001:0003f900       ?FindGlyph@ImFont@@QBEPBUGlyph@1@G@Z 10040900 f   imgui_draw.obj
 0001:0003f970       ?GetGlyphRangesDefault@ImFontAtlas@@QAEPBGXZ 10040970 f   imgui_draw.obj
 0001:0003f990       ?GetTexDataAsAlpha8@ImFontAtlas@@QAEXPAPAEPAH11@Z 10040990 f   imgui_draw.obj
 0001:0003fa10       ?GetTexDataAsRGBA32@ImFontAtlas@@QAEXPAPAEPAH11@Z 10040a10 f   imgui_draw.obj
 0001:0003fb10       ?GrowIndex@ImFont@@QAEXH@Z 10040b10 f   imgui_draw.obj
 0001:0003fbc0       ?ImFontAtlasBuildPackCustomRects@@YAXPAUImFontAtlas@@PAX@Z 10040bc0 f   imgui_draw.obj
 0001:0003fda0       ?ImFontAtlasBuildRegisterDefaultCustomRects@@YAXPAUImFontAtlas@@@Z 10040da0 f   imgui_draw.obj
 0001:0003fdd0       ?ImFontAtlasBuildRenderDefaultTexData@@YAXPAUImFontAtlas@@@Z 10040dd0 f   imgui_draw.obj
 0001:00040500       ?ImFontAtlasBuildSetupFont@@YAXPAUImFontAtlas@@PAUImFont@@PAUImFontConfig@@MM@Z 10041500 f   imgui_draw.obj
 0001:00040590       ?ImFontAtlasBuildWithStbTruetype@@YA_NPAUImFontAtlas@@@Z 10041590 f   imgui_draw.obj
 0001:00041220       ?PathArcTo@ImDrawList@@QAEXABUImVec2@@MMMH@Z 10042220 f   imgui_draw.obj
 0001:00041350       ?PathArcToFast@ImDrawList@@QAEXABUImVec2@@MHH@Z 10042350 f   imgui_draw.obj
 0001:00041560       ?PathRect@ImDrawList@@QAEXABUImVec2@@0MH@Z 10042560 f   imgui_draw.obj
 0001:000418d0       ?PopClipRect@ImDrawList@@QAEXXZ 100428d0 f   imgui_draw.obj
 0001:000418f0       ?PopTextureID@ImDrawList@@QAEXXZ 100428f0 f   imgui_draw.obj
 0001:00041910       ?PrimRect@ImDrawList@@QAEXABUImVec2@@0I@Z 10042910 f   imgui_draw.obj
 0001:00041b80       ?PrimRectUV@ImDrawList@@QAEXABUImVec2@@000I@Z 10042b80 f   imgui_draw.obj
 0001:00041e20       ?PrimReserve@ImDrawList@@QAEXHH@Z 10042e20 f   imgui_draw.obj
 0001:00041ec0       ?PrimWriteIdx@ImDrawList@@QAEXG@Z 10042ec0 f i imgui_draw.obj
 0001:00041ef0       ?PrimWriteVtx@ImDrawList@@QAEXABUImVec2@@0I@Z 10042ef0 f i imgui_draw.obj
 0001:00041f50       ?PushClipRect@ImDrawList@@QAEXUImVec2@@0_N@Z 10042f50 f   imgui_draw.obj
 0001:00042090       ?PushClipRectFullScreen@ImDrawList@@QAEXXZ 10043090 f   imgui_draw.obj
 0001:00042130       ?PushTextureID@ImDrawList@@QAEXABQAX@Z 10043130 f   imgui_draw.obj
 0001:00042160       ?RenderText@ImFont@@QBEXPAUImDrawList@@MUImVec2@@IABUImVec4@@PBD3M_N@Z 10043160 f   imgui_draw.obj
 0001:000429e0       ?UpdateClipRect@ImDrawList@@QAEXXZ 100439e0 f   imgui_draw.obj
 0001:00042b50       ?UpdateTextureID@ImDrawList@@QAEXXZ 10043b50 f   imgui_draw.obj
 0001:00042c80       ?back@?$ImVector@UImFontConfig@@@@QAEAAUImFontConfig@@XZ 10043c80 f i imgui_draw.obj
 0001:00042ca0       ?push_back@?$ImVector@UImDrawCmd@@@@QAEXABUImDrawCmd@@@Z 10043ca0 f i imgui_draw.obj
 0001:00042d00       ?push_back@?$ImVector@UImFontConfig@@@@QAEXABUImFontConfig@@@Z 10043d00 f i imgui_draw.obj
 0001:00042d60       ?push_back@?$ImVector@UImVec4@@@@QAEXABUImVec4@@@Z 10043d60 f i imgui_draw.obj
 0001:00042ec0       ?reserve@?$ImVector@UImDrawCmd@@@@QAEXH@Z 10043ec0 f i imgui_draw.obj
 0001:00042f40       ?reserve@?$ImVector@UImFontConfig@@@@QAEXH@Z 10043f40 f i imgui_draw.obj
 0001:00042fb0       ?reserve@?$ImVector@UImVec4@@@@QAEXH@Z 10043fb0 f i imgui_draw.obj
 0001:00042fb0       ?reserve@?$ImVector@Ustbrp_rect@@@@QAEXH@Z 10043fb0 f i imgui_draw.obj
 0001:00043030       ?resize@?$ImVector@UImDrawCmd@@@@QAEXH@Z 10044030 f i imgui_draw.obj
 0001:00043070       ?resize@?$ImVector@UImVec4@@@@QAEXH@Z 10044070 f i imgui_draw.obj
 0001:00043070       ?resize@?$ImVector@Ustbrp_rect@@@@QAEXH@Z 10044070 f i imgui_draw.obj
 0001:0004ac20       __snprintf                 1004bc20 f i imgui_draw.obj
 0001:0004ac60       __vsnprintf                1004bc60 f i imgui_draw.obj
 0001:0004c610       ??$GetOriginal@P6GXPAUIDirect3DDevice9@@@Z@VMTHook@@QAEP6GXPAUIDirect3DDevice9@@@ZI@Z 1004d610 f i directx_preset_hook.obj
 0001:0004c610       ??$GetOriginal@P6IXPAX0PAVCViewSetup@@@Z@VMTHook@@QAEP6IXPAX0PAVCViewSetup@@@ZI@Z 1004d610 f i oview_hook.obj
 0001:0004c610       ??$GetOriginal@P6GXPAUIDirect3DDevice9@@PAU_D3DPRESENT_PARAMETERS_@@@Z@VMTHook@@QAEP6GXPAUIDirect3DDevice9@@PAU_D3DPRESENT_PARAMETERS_@@@ZI@Z 1004d610 f i directx_preset_hook.obj
 0001:0004c610       ??$GetOriginal@P6EXPAXI_N1@Z@VMTHook@@QAEP6EXPAXI_N1@ZI@Z 1004d610 f i painttraverse_hook.obj
 0001:0004c610       ??$GetOriginal@P6IXPAX0@Z@VMTHook@@QAEP6IXPAX0@ZI@Z 1004d610 f i sceneend_hook.obj
 0001:0004c610       ??$GetOriginal@P6GXW4ClientFrameStage_t@@@Z@VMTHook@@QAEP6GXW4ClientFrameStage_t@@@ZI@Z 1004d610 f i fsn_hook.obj
 0001:0004c610       ??$GetOriginal@P6I_NPAVIClientMode@@PAXMPAVCUserCmd@@@Z@VMTHook@@QAEP6I_NPAVIClientMode@@PAXMPAVCUserCmd@@@ZI@Z 1004d610 f i createmove_hook.obj
 0001:0004c610       ??$GetOriginal@P6EXPAXPAVIMatRenderContext@@ABUDrawModelState_t@@ABUModelRenderInfo_t@@PAVmatrix3x4_t@@@Z@VMTHook@@QAEP6EXPAXPAVIMatRenderContext@@ABUDrawModelState_t@@ABUModelRenderInfo_t@@PAVmatrix3x4_t@@@ZI@Z 1004d610 f i dme_hook.obj
 0001:0004c610       ??$GetOriginal@P6IXPAVISurface@@PAX@Z@VMTHook@@QAEP6IXPAVISurface@@PAX@ZI@Z 1004d610 f i lock_cursor_hook.obj
 0001:0004c630       ??AVector@@QAEAAMH@Z       1004d630 f i createmove_hook.obj
 0001:0004c650       ?Clamp@Vector@@QAE?AV1@XZ  1004d650 f i createmove_hook.obj
 0001:0004c720       ?CreateMove@c_hooks@@SI_NPAVIClientMode@@PAXMPAVCUserCmd@@@Z 1004d720 f   createmove_hook.obj
 0001:0004c940       ?DoAutostrafe@Misc@@ABEXXZ 1004d940 f i createmove_hook.obj
 0001:0004cae0       ?DoBhop@Misc@@ABEXXZ       1004dae0 f i createmove_hook.obj
 0001:0004cbb0       ?DoFakeLag@Misc@@ABEXXZ    1004dbb0 f i createmove_hook.obj
 0001:0004d130       ?MovementFix@Misc@@QAEXAAVVector@@@Z 1004e130 f i createmove_hook.obj
 0001:0004d490       ?OnCreateMove@Misc@@QAEXXZ 1004e490 f i createmove_hook.obj
 0001:0004d4d0       ?Hooked_EndScene@c_hooks@@SGXPAUIDirect3DDevice9@@@Z 1004e4d0 f   directx_preset_hook.obj
 0001:0004d5e0       ?Hooked_EndScene_Reset@c_hooks@@SGXPAUIDirect3DDevice9@@PAU_D3DPRESENT_PARAMETERS_@@@Z 1004e5e0 f   directx_preset_hook.obj
 0001:0004d6d0       ?create_objects@@YGXPAUIDirect3DDevice9@@@Z 1004e6d0 f   directx_preset_hook.obj
 0001:0004d6f0       ?end_present@@YGXPAUIDirect3DDevice9@@@Z 1004e6f0 f   directx_preset_hook.obj
 0001:0004d7e0       ?invalidate_objects@@YGXXZ 1004e7e0 f   directx_preset_hook.obj
 0001:0004d7f0       ?post_render@@YGXXZ        1004e7f0 f   directx_preset_hook.obj
 0001:0004d800       ?pre_render@@YGXPAUIDirect3DDevice9@@@Z 1004e800 f   directx_preset_hook.obj
 0001:0004dab0       ?setup_resent@@YGXPAUIDirect3DDevice9@@@Z 1004eab0 f   directx_preset_hook.obj
 0001:0004eb50       ?DrawModelExecute@c_hooks@@SIXPAX0PAVIMatRenderContext@@ABUDrawModelState_t@@ABUModelRenderInfo_t@@PAVmatrix3x4_t@@@Z 1004fb50 f   dme_hook.obj
 0001:0004f0e0       ?FindMaterial@IMaterialSystem@@QAEPAVIMaterial@@PBD0_N0@Z 100500e0 f i dme_hook.obj
 0001:0004f120       ?ForcedMaterialOverride@CModelRender@@QAEXPAVIMaterial@@W4OverrideType_t@@@Z 10050120 f i dme_hook.obj
 0001:0004f150       ?GetModelName@IVModelInfo@@QAEPBDPBUmodel_t@@@Z 10050150 f i dme_hook.obj
 0001:0004f180       ?modulate@@YAXPBMPAVIMaterial@@@Z 10050180 f   dme_hook.obj
 0001:0004f2a0       ?set_vector@IMaterialVar@@QAEXVVector@@@Z 100502a0 f i dme_hook.obj
 0001:0004f2e0       ?set_vector_internal@IMaterialVar@@AAEXMMM@Z 100502e0 f i dme_hook.obj
 0001:0004f330       ?FireGameEvent@Event@@UAEXPAVIGameEvent@@@Z 10050330 f   event_hook.obj
 0001:0004f490       ?FrameStageNotify@c_hooks@@SGXW4ClientFrameStage_t@@@Z 10050490 f   fsn_hook.obj
 0001:0004f5b0       ?ThirdPerson@Misc@@QAEXW4ClientFrameStage_t@@@Z 100505b0 f i fsn_hook.obj
 0001:0004f760       ??__Kms@chrono_literals@literals@std@@YA?AV?$duration@_JU?$ratio@$00$0DOI@@std@@@chrono@3@_K@Z 10050760 f i hooking_init.obj
 0001:0004f780       ?FontCreate@ISurface@@QAEKXZ 10050780 f i hooking_init.obj
 0001:0004f7b0       ?SetFontGlyphSet@ISurface@@QAEXKPBDHHHHH@Z 100507b0 f i hooking_init.obj
 0001:0004f800       ?init_fonts@hooking@@QAEXXZ 10050800 f   hooking_init.obj
 0001:0004f8f0       ?window_handle@hooking@@QAEXXZ 100508f0 f   hooking_init.obj
 0001:0004f940       ?LockCursor@c_hooks@@SIXPAVISurface@@PAX@Z 10050940 f   lock_cursor_hook.obj
 0001:0004fa10       ?UnLockCursor@ISurface@@QAEXXZ 10050a10 f i lock_cursor_hook.obj
 0001:0004fa40       ?GetViewPunchAngle@C_BaseEntity@@QAE?AVVector@@XZ 10050a40 f i oview_hook.obj
 0001:0004fa70       ?IsScoped@C_BaseEntity@@QAE_NXZ 10050a70 f i oview_hook.obj
 0001:0004fb30       ?OverrideView@c_hooks@@SIXPAX0PAVCViewSetup@@@Z 10050b30 f   oview_hook.obj
 0001:0004fe30       ?Crosshair@Misc@@QAEXXZ    10050e30 f i painttraverse_hook.obj
 0001:00050260       ?GetName@IPanel@@QAEPBDI@Z 10051260 f i painttraverse_hook.obj
 0001:00050290       ?PaintTraverse@c_hooks@@SIXPAXHI_N1@Z 10051290 f   painttraverse_hook.obj
 0001:000504d0       ?SceneEnd@c_hooks@@SIXPAX0@Z 100514d0 f   sceneend_hook.obj
 0001:00050590       ?WndProc@c_hooks@@SGJPAUHWND__@@IIJ@Z 10051590 f   wndproc_hook.obj
 0001:00050650       ??$?0$0A@Vpath@filesystem@std@@@?$basic_ifstream@DU?$char_traits@D@std@@@std@@QAE@ABVpath@filesystem@1@HH@Z 10051650 f i config_system.obj
 0001:000506b0       ??$?0$0A@Vpath@filesystem@std@@@?$basic_ofstream@DU?$char_traits@D@std@@@std@@QAE@ABVpath@filesystem@1@HH@Z 100516b0 f i config_system.obj
 0001:00050710       ??$?0PBD$0A@@path@filesystem@std@@QAE@ABQBDW4format@012@@Z 10051710 f i config_system.obj
 0001:00050740       ??$?0U_Creator@_Dir_enum_impl@filesystem@std@@ABW4directory_options@23@@?$_Ref_count_obj@U_Dir_enum_impl@filesystem@std@@@std@@QAE@$$QAU_Creator@_Dir_enum_impl@filesystem@1@ABW4directory_options@41@@Z 10051740 f i config_system.obj
 0001:000507e0       ??$?0V?$basic_string@DU?$char_traits@D@std@@V?$allocator@D@2@@std@@$0A@@path@filesystem@std@@QAE@ABV?$basic_string@DU?$char_traits@D@std@@V?$allocator@D@2@@2@W4format@012@@Z 100517e0 f i config_system.obj
 0001:00050810       ??$?0V?$basic_string_view@_WU?$char_traits@_W@std@@@std@@$0A@@path@filesystem@std@@QAE@ABV?$basic_string_view@_WU?$char_traits@_W@std@@@2@W4format@012@@Z 10051810 f i config_system.obj
 0001:00050840       ??$?0V?$basic_string_view@_WU?$char_traits@_W@std@@@std@@X@?$basic_string@_WU?$char_traits@_W@std@@V?$allocator@_W@2@@std@@QAE@ABV?$basic_string_view@_WU?$char_traits@_W@std@@@1@ABV?$allocator@_W@1@@Z 10051840 f i config_system.obj
 0001:000508b0       ??$?4PA_W$0A@@path@filesystem@std@@QAEAAV012@ABQA_W@Z 100518b0 f i config_system.obj
 0001:00050910       ??$?5U<unnamed-type-cfg>@c_config@@@?$ArchiveX@V?$basic_ifstream@DU?$char_traits@D@std@@@std@@@@QBEABV0@AAU<unnamed-type-cfg>@c_config@@@Z 10051910 f i config_system.obj
 0001:00050970       ??$?6U<unnamed-type-cfg>@c_config@@@?$ArchiveX@V?$basic_ofstream@DU?$char_traits@D@std@@@std@@@@QBEABV0@ABU<unnamed-type-cfg>@c_config@@@Z 10051970 f i config_system.obj
 0001:000509d0       ??$?8DU?$char_traits@D@std@@V?$allocator@D@1@@std@@YA_NABV?$basic_string@DU?$char_traits@D@std@@V?$allocator@D@2@@0@QBD@Z 100519d0 f i config_system.obj
 0001:000509f0       ??$?9U_Dir_enum_impl@filesystem@std@@U012@@std@@YA_NABV?$shared_ptr@U_Dir_enum_impl@filesystem@std@@@0@0@Z 100519f0 f i config_system.obj
 0001:00050ae0       ??$?YV?$basic_string_view@DU?$char_traits@D@std@@@std@@X@?$basic_string@DU?$char_traits@D@std@@V?$allocator@D@2@@std@@QAEAAV01@ABV?$basic_string_view@DU?$char_traits@D@std@@@1@@Z 10051ae0 f i config_system.obj
 0001:00050b00       ??$?_0PBD$0A@@path@filesystem@std@@QAEAAV012@ABQBD@Z 10051b00 f i config_system.obj
 0001:00050b90       ??$?_0V?$basic_string_view@_WU?$char_traits@_W@std@@@std@@$0A@@path@filesystem@std@@QAEAAV012@ABV?$basic_string_view@_WU?$char_traits@_W@std@@@2@@Z 10051b90 f i config_system.obj
 0001:00050c20       ??$_Convert_Source_to_wide@PA_WU_Normal_conversion@filesystem@std@@@filesystem@std@@YA?AV?$basic_string@_WU?$char_traits@_W@std@@V?$allocator@_W@2@@1@ABQA_WU_Normal_conversion@01@@Z 10051c20 f i config_system.obj
 0001:00050c70       ??$_Convert_Source_to_wide@PBDU_Normal_conversion@filesystem@std@@@filesystem@std@@YA?AV?$basic_string@_WU?$char_traits@_W@std@@V?$allocator@_W@2@@1@ABQBDU_Normal_conversion@01@@Z 10051c70 f i config_system.obj
 0001:00050cc0       ??$_Convert_Source_to_wide@V?$basic_string@DU?$char_traits@D@std@@V?$allocator@D@2@@std@@U_Normal_conversion@filesystem@2@@filesystem@std@@YA?AV?$basic_string@_WU?$char_traits@_W@std@@V?$allocator@_W@2@@1@ABV?$basic_string@DU?$char_traits@D@std@@V?$allocator@D@2@@1@U_Normal_conversion@01@@Z 10051cc0 f i config_system.obj
 0001:00050d10       ??$_Convert_Source_to_wide@V?$basic_string_view@_WU?$char_traits@_W@std@@@std@@U_Normal_conversion@filesystem@2@@filesystem@std@@YA?AV?$basic_string@_WU?$char_traits@_W@std@@V?$allocator@_W@2@@1@ABV?$basic_string_view@_WU?$char_traits@_W@std@@@1@U_Normal_conversion@01@@Z 10051d10 f i config_system.obj
 0001:00050d60       ??$_Convert_stringoid_to_wide@U_Normal_conversion@filesystem@std@@@filesystem@std@@YA?AV?$basic_string@_WU?$char_traits@_W@std@@V?$allocator@_W@2@@1@V?$basic_string_view@DU?$char_traits@D@std@@@1@U_Normal_conversion@01@@Z 10051d60 f i config_system.obj
 0001:00050da0       ??$_Convert_stringoid_to_wide@U_Normal_conversion@filesystem@std@@@filesystem@std@@YA?AV?$basic_string@_WU?$char_traits@_W@std@@V?$allocator@_W@2@@1@V?$basic_string_view@_WU?$char_traits@_W@std@@@1@U_Normal_conversion@01@@Z 10051da0 f i config_system.obj
 0001:00050de0       ??$_Convert_wide_to@DU?$char_traits@D@std@@V?$allocator@D@2@@filesystem@std@@YA?AV?$basic_string@DU?$char_traits@D@std@@V?$allocator@D@2@@1@V?$basic_string_view@_WU?$char_traits@_W@std@@@1@ABV?$allocator@D@1@@Z 10051de0 f i config_system.obj
 0001:00050e20       ??$_Convert_wide_to_narrow@U?$char_traits@D@std@@V?$allocator@D@2@@filesystem@std@@YA?AV?$basic_string@DU?$char_traits@D@std@@V?$allocator@D@2@@1@W4__std_code_page@@V?$basic_string_view@_WU?$char_traits@_W@std@@@1@ABV?$allocator@D@1@@Z 10051e20 f i config_system.obj
 0001:00050f70       ??$_Copy_construct_from@UNode@NetvarTree@@@?$_Ptr_base@UNode@NetvarTree@@@std@@IAEXABV?$shared_ptr@UNode@NetvarTree@@@1@@Z 10051f70 f i NetvarManager.obj
 0001:00050f70       ??$_Copy_construct_from@U_Dir_enum_impl@filesystem@std@@@?$_Ptr_base@U_Dir_enum_impl@filesystem@std@@@std@@IAEXABV?$shared_ptr@U_Dir_enum_impl@filesystem@std@@@1@@Z 10051f70 f i config_system.obj
 0001:00050fb0       ??$_Destroy_range1@V?$allocator@V?$basic_string@DU?$char_traits@D@std@@V?$allocator@D@2@@std@@@std@@@std@@YAXPAV?$basic_string@DU?$char_traits@D@std@@V?$allocator@D@2@@0@0AAV?$allocator@V?$basic_string@DU?$char_traits@D@std@@V?$allocator@D@2@@std@@@0@U?$integral_constant@_N$0A@@0@@Z 10051fb0 f i config_system.obj
 0001:00050ff0       ??$_Destroy_range@V?$allocator@V?$basic_string@DU?$char_traits@D@std@@V?$allocator@D@2@@std@@@std@@@std@@YAXPAV?$basic_string@DU?$char_traits@D@std@@V?$allocator@D@2@@0@0AAV?$allocator@V?$basic_string@DU?$char_traits@D@std@@V?$allocator@D@2@@std@@@0@@Z 10051ff0 f i config_system.obj
 0001:00051020       ??$_Emplace_back@V?$basic_string@DU?$char_traits@D@std@@V?$allocator@D@2@@std@@@?$_Uninitialized_backout_al@PAV?$basic_string@DU?$char_traits@D@std@@V?$allocator@D@2@@std@@V?$allocator@V?$basic_string@DU?$char_traits@D@std@@V?$allocator@D@2@@std@@@2@@std@@QAEX$$QAV?$basic_string@DU?$char_traits@D@std@@V?$allocator@D@2@@1@@Z 10052020 f i config_system.obj
 0001:00051080       ??$_Emplace_back_with_unused_capacity@AAPBD@?$vector@V?$basic_string@DU?$char_traits@D@std@@V?$allocator@D@2@@std@@V?$allocator@V?$basic_string@DU?$char_traits@D@std@@V?$allocator@D@2@@std@@@2@@std@@AAEAAV?$basic_string@DU?$char_traits@D@std@@V?$allocator@D@2@@1@AAPBD@Z 10052080 f i config_system.obj
 0001:00051130       ??$_Emplace_back_with_unused_capacity@V?$basic_string@DU?$char_traits@D@std@@V?$allocator@D@2@@std@@@?$vector@V?$basic_string@DU?$char_traits@D@std@@V?$allocator@D@2@@std@@V?$allocator@V?$basic_string@DU?$char_traits@D@std@@V?$allocator@D@2@@std@@@2@@std@@AAEAAV?$basic_string@DU?$char_traits@D@std@@V?$allocator@D@2@@1@$$QAV21@@Z 10052130 f i config_system.obj
 0001:000511e0       ??$_Emplace_reallocate@AAPBD@?$vector@V?$basic_string@DU?$char_traits@D@std@@V?$allocator@D@2@@std@@V?$allocator@V?$basic_string@DU?$char_traits@D@std@@V?$allocator@D@2@@std@@@2@@std@@QAEPAV?$basic_string@DU?$char_traits@D@std@@V?$allocator@D@2@@1@QAV21@AAPBD@Z 100521e0 f i config_system.obj
 0001:000513e0       ??$_Emplace_reallocate@V?$basic_string@DU?$char_traits@D@std@@V?$allocator@D@2@@std@@@?$vector@V?$basic_string@DU?$char_traits@D@std@@V?$allocator@D@2@@std@@V?$allocator@V?$basic_string@DU?$char_traits@D@std@@V?$allocator@D@2@@std@@@2@@std@@QAEPAV?$basic_string@DU?$char_traits@D@std@@V?$allocator@D@2@@1@QAV21@$$QAV21@@Z 100523e0 f i config_system.obj
 0001:000515e0       ??$_Enable_shared_from_this@U_Dir_enum_impl@filesystem@std@@U123@@std@@YAXABV?$shared_ptr@U_Dir_enum_impl@filesystem@std@@@0@PAU_Dir_enum_impl@filesystem@0@@Z 100525e0 f i config_system.obj
 0001:000515e0       ??$_Enable_shared_from_this@UNode@NetvarTree@@U12@@std@@YAXABV?$shared_ptr@UNode@NetvarTree@@@0@PAUNode@NetvarTree@@@Z 100525e0 f i NetvarManager.obj
 0001:00051610       ??$_Fgetc@D@std@@YA_NAADPAU_iobuf@@@Z 10052610 f i config_system.obj
 0001:00051640       ??$_Find_unchecked1@PBV?$basic_string@DU?$char_traits@D@std@@V?$allocator@D@2@@std@@PBD@std@@YAPBV?$basic_string@DU?$char_traits@D@std@@V?$allocator@D@2@@0@PBV10@QBV10@ABQBDU?$integral_constant@_N$0A@@0@@Z 10052640 f i config_system.obj
 0001:00051680       ??$_Find_unchecked@PBV?$basic_string@DU?$char_traits@D@std@@V?$allocator@D@2@@std@@PBD@std@@YAPBV?$basic_string@DU?$char_traits@D@std@@V?$allocator@D@2@@0@QBV10@0ABQBD@Z 10052680 f i config_system.obj
 0001:000516b0       ??$_Fputc@D@std@@YA_NDPAU_iobuf@@@Z 100526b0 f i config_system.obj
 0001:000516f0       ??$_Get_size_of_n@$01@std@@YAII@Z 100526f0 f i config_system.obj
 0001:00051720       ??$_Get_size_of_n@$0BI@@std@@YAII@Z 10052720 f i config_system.obj
 0001:00051750       ??$_Get_unwrapped@V?$_Vector_const_iterator@V?$_Vector_val@U?$_Simple_types@V?$basic_string@DU?$char_traits@D@std@@V?$allocator@D@2@@std@@@std@@@std@@@std@@$0A@@std@@YAPBV?$basic_string@DU?$char_traits@D@std@@V?$allocator@D@2@@0@ABV?$_Vector_const_iterator@V?$_Vector_val@U?$_Simple_types@V?$basic_string@DU?$char_traits@D@std@@V?$allocator@D@2@@std@@@std@@@std@@@0@@Z 10052750 f i config_system.obj
 0001:00051760       ??$_Idl_distance@PAV?$basic_string@DU?$char_traits@D@std@@V?$allocator@D@2@@std@@PAV12@@std@@YAHABQAV?$basic_string@DU?$char_traits@D@std@@V?$allocator@D@2@@0@0@Z 10052760 f i config_system.obj
 0001:00051780       ??$_Immortalize@V_Generic_error_category@std@@@std@@YAAAV_Generic_error_category@0@XZ 10052780 f i config_system.obj
 0001:000517b0       ??$_Immortalize@V_System_error_category@std@@@std@@YAAAV_System_error_category@0@XZ 100527b0 f i config_system.obj
 0001:000517e0       ??$_Immortalize_impl@V_Generic_error_category@std@@@std@@YGHPAX0PAPAX@Z 100527e0 f i config_system.obj
 0001:00051810       ??$_Immortalize_impl@V_System_error_category@std@@@std@@YGHPAX0PAPAX@Z 10052810 f i config_system.obj
 0001:00051840       ??$_Initialize_dir_enum@U_Dir_enum_impl@filesystem@std@@@_Dir_enum_impl@filesystem@std@@SA?AW4__std_win_error@@AAV?$shared_ptr@U_Dir_enum_impl@filesystem@std@@@2@ABVpath@12@W4directory_options@12@@Z 10052840 f i config_system.obj
 0001:00051910       ??$_Move_construct_from@UNode@NetvarTree@@@?$_Ptr_base@UNode@NetvarTree@@@std@@IAEX$$QAV01@@Z 10052910 f i NetvarManager.obj
 0001:00051910       ??$_Move_construct_from@U_Dir_enum_impl@filesystem@std@@@?$_Ptr_base@U_Dir_enum_impl@filesystem@std@@@std@@IAEX$$QAV01@@Z 10052910 f i config_system.obj
 0001:00051950       ??$_Move_unchecked1@PAV?$basic_string@DU?$char_traits@D@std@@V?$allocator@D@2@@std@@PAV12@@std@@YAPAV?$basic_string@DU?$char_traits@D@std@@V?$allocator@D@2@@0@PAV10@00U_General_ptr_iterator_tag@0@@Z 10052950 f i config_system.obj
 0001:00051990       ??$_Move_unchecked@PAV?$basic_string@DU?$char_traits@D@std@@V?$allocator@D@2@@std@@PAV12@@std@@YAPAV?$basic_string@DU?$char_traits@D@std@@V?$allocator@D@2@@0@PAV10@00@Z 10052990 f i config_system.obj
 0001:000519d0       ??$_Pocca@V?$allocator@_W@std@@@std@@YAXAAV?$allocator@_W@0@ABV10@@Z 100529d0 f i config_system.obj
 0001:000519f0       ??$_Reallocate_for@V<lambda_03628ca18370b1f44a99b655e704819b>@@PB_W@?$basic_string@_WU?$char_traits@_W@std@@V?$allocator@_W@2@@std@@QAEAAV01@IV<lambda_03628ca18370b1f44a99b655e704819b>@@PB_W@Z 100529f0 f i config_system.obj
 0001:00051ad0       ??$_Reallocate_for@V<lambda_c6753c90be971fc9cc00b4f35f237a75>@@D@?$basic_string@DU?$char_traits@D@std@@V?$allocator@D@2@@std@@QAEAAV01@IV<lambda_c6753c90be971fc9cc00b4f35f237a75>@@D@Z 10052ad0 f i config_system.obj
 0001:00051bb0       ??$_Reallocate_grow_by@V<lambda_15711c68e099a15a58f4d77303cb286d>@@D@?$basic_string@DU?$char_traits@D@std@@V?$allocator@D@2@@std@@QAEAAV01@IV<lambda_15711c68e099a15a58f4d77303cb286d>@@D@Z 10052bb0 f i config_system.obj
 0001:00051ce0       ??$_Reallocate_grow_by@V<lambda_2fb699096920f2dc628cb0826b07831d>@@PB_WI@?$basic_string@_WU?$char_traits@_W@std@@V?$allocator@_W@2@@std@@QAEAAV01@IV<lambda_2fb699096920f2dc628cb0826b07831d>@@PB_WI@Z 10052ce0 f i config_system.obj
 0001:00051e10       ??$_Reallocate_grow_by@V<lambda_38fb7828f6004e9a4c6a38bfc6df7f44>@@_W@?$basic_string@_WU?$char_traits@_W@std@@V?$allocator@_W@2@@std@@QAEAAV01@IV<lambda_38fb7828f6004e9a4c6a38bfc6df7f44>@@_W@Z 10052e10 f i config_system.obj
 0001:00051f40       ??$_Reallocate_grow_by@V<lambda_67d87d4aa1269033985980465fd1d824>@@$$V@?$basic_string@DU?$char_traits@D@std@@V?$allocator@D@2@@std@@QAEAAV01@IV<lambda_67d87d4aa1269033985980465fd1d824>@@@Z 10052f40 f i config_system.obj
 0001:00052060       ??$_Reallocate_grow_by@V<lambda_c1b8c41cb4019640539cfd828748c4d4>@@ID@?$basic_string@DU?$char_traits@D@std@@V?$allocator@D@2@@std@@QAEAAV01@IV<lambda_c1b8c41cb4019640539cfd828748c4d4>@@ID@Z 10053060 f i config_system.obj
 0001:00052190       ??$_Reallocate_grow_by@V<lambda_c3135ae829aeedc0a8af1bd1e887c66a>@@I_W@?$basic_string@_WU?$char_traits@_W@std@@V?$allocator@_W@2@@std@@QAEAAV01@IV<lambda_c3135ae829aeedc0a8af1bd1e887c66a>@@I_W@Z 10053190 f i config_system.obj
 0001:000522c0       ??$_Seek_wrapped@V?$_Vector_const_iterator@V?$_Vector_val@U?$_Simple_types@V?$basic_string@DU?$char_traits@D@std@@V?$allocator@D@2@@std@@@std@@@std@@@std@@PBV?$basic_string@DU?$char_traits@D@std@@V?$allocator@D@2@@2@@std@@YAXAAV?$_Vector_const_iterator@V?$_Vector_val@U?$_Simple_types@V?$basic_string@DU?$char_traits@D@std@@V?$allocator@D@2@@std@@@std@@@std@@@0@ABQBV?$basic_string@DU?$char_traits@D@std@@V?$allocator@D@2@@0@@Z 100532c0 f i config_system.obj
 0001:000522e0       ??$_Seek_wrapped@V?$back_insert_iterator@V?$vector@V?$basic_string@DU?$char_traits@D@std@@V?$allocator@D@2@@std@@V?$allocator@V?$basic_string@DU?$char_traits@D@std@@V?$allocator@D@2@@std@@@2@@std@@@std@@V12@@std@@YAXAAV?$back_insert_iterator@V?$vector@V?$basic_string@DU?$char_traits@D@std@@V?$allocator@D@2@@std@@V?$allocator@V?$basic_string@DU?$char_traits@D@std@@V?$allocator@D@2@@std@@@2@@std@@@0@ABV10@@Z 100532e0 f i config_system.obj
 0001:000522f0       ??$_Set_ptr_rep_and_enable_shared@UNode@NetvarTree@@@?$shared_ptr@UNode@NetvarTree@@@std@@AAEXPAUNode@NetvarTree@@PAV_Ref_count_base@1@@Z 100532f0 f i NetvarManager.obj
 0001:000522f0       ??$_Set_ptr_rep_and_enable_shared@U_Dir_enum_impl@filesystem@std@@@?$shared_ptr@U_Dir_enum_impl@filesystem@std@@@std@@AAEXPAU_Dir_enum_impl@filesystem@1@PAV_Ref_count_base@1@@Z 100532f0 f i config_system.obj
 0001:00052320       ??$_Stringoid_from_Source@DU?$char_traits@D@std@@V?$allocator@D@2@@filesystem@std@@YA?AV?$basic_string_view@DU?$char_traits@D@std@@@1@ABV?$basic_string@DU?$char_traits@D@std@@V?$allocator@D@2@@1@@Z 10053320 f i config_system.obj
 0001:00052360       ??$_Stringoid_from_Source@PA_W@filesystem@std@@YA?AV?$basic_string_view@_WU?$char_traits@_W@std@@@1@ABQA_W@Z 10053360 f i config_system.obj
 0001:00052380       ??$_Stringoid_from_Source@PBD@filesystem@std@@YA?AV?$basic_string_view@DU?$char_traits@D@std@@@1@ABQBD@Z 10053380 f i config_system.obj
 0001:000523a0       ??$_Stringoid_from_Source@_WU?$char_traits@_W@std@@@filesystem@std@@YA?AV?$basic_string_view@_WU?$char_traits@_W@std@@@1@ABV21@@Z 100533a0 f i config_system.obj
 0001:000523e0       ??$_Traits_compare@U?$char_traits@_W@std@@@std@@YAHQB_WI0I@Z 100533e0 f i config_system.obj
 0001:00052440       ??$_Unaligned_load@I@filesystem@std@@YAIPBX@Z 10053440 f i config_system.obj
 0001:00052460       ??$_Ungetc@D@std@@YA_NABDPAU_iobuf@@@Z 10053460 f i config_system.obj
 0001:000524a0       ??$_Uninitialized_move@PAV?$basic_string@DU?$char_traits@D@std@@V?$allocator@D@2@@std@@PAV12@V?$allocator@V?$basic_string@DU?$char_traits@D@std@@V?$allocator@D@2@@std@@@2@@std@@YAPAV?$basic_string@DU?$char_traits@D@std@@V?$allocator@D@2@@0@QAV10@0PAV10@AAV?$allocator@V?$basic_string@DU?$char_traits@D@std@@V?$allocator@D@2@@std@@@0@@Z 100534a0 f i config_system.obj
 0001:00052560       ??$_Uninitialized_move_al_unchecked@PAV?$basic_string@DU?$char_traits@D@std@@V?$allocator@D@2@@std@@PAV12@V?$allocator@V?$basic_string@DU?$char_traits@D@std@@V?$allocator@D@2@@std@@@2@@std@@YAPAV?$basic_string@DU?$char_traits@D@std@@V?$allocator@D@2@@0@PAV10@QAV10@1AAV?$allocator@V?$basic_string@DU?$char_traits@D@std@@V?$allocator@D@2@@std@@@0@U_General_ptr_iterator_tag@0@U_Unused_parameter@0@@Z 10053560 f i config_system.obj
 0001:00052600       ??$append@V?$basic_string_view@DU?$char_traits@D@std@@@std@@X@?$basic_string@DU?$char_traits@D@std@@V?$allocator@D@2@@std@@QAEAAV01@ABV?$basic_string_view@DU?$char_traits@D@std@@@1@@Z 10053600 f i config_system.obj
 0001:00052650       ??$assign@V?$basic_string_view@_WU?$char_traits@_W@std@@@std@@X@?$basic_string@_WU?$char_traits@_W@std@@V?$allocator@_W@2@@std@@QAEAAV01@ABV?$basic_string_view@_WU?$char_traits@_W@std@@@1@@Z 10053650 f i config_system.obj
 0001:000526a0       ??$back_inserter@V?$vector@V?$basic_string@DU?$char_traits@D@std@@V?$allocator@D@2@@std@@V?$allocator@V?$basic_string@DU?$char_traits@D@std@@V?$allocator@D@2@@std@@@2@@std@@@std@@YA?AV?$back_insert_iterator@V?$vector@V?$basic_string@DU?$char_traits@D@std@@V?$allocator@D@2@@std@@V?$allocator@V?$basic_string@DU?$char_traits@D@std@@V?$allocator@D@2@@std@@@2@@std@@@0@AAV?$vector@V?$basic_string@DU?$char_traits@D@std@@V?$allocator@D@2@@std@@V?$allocator@V?$basic_string@DU?$char_traits@D@std@@V?$allocator@D@2@@std@@@2@@0@@Z 100536a0 f i config_system.obj
 0001:000526c0       ??$begin@V?$vector@V?$basic_string@DU?$char_traits@D@std@@V?$allocator@D@2@@std@@V?$allocator@V?$basic_string@DU?$char_traits@D@std@@V?$allocator@D@2@@std@@@2@@std@@@std@@YA?AV?$_Vector_const_iterator@V?$_Vector_val@U?$_Simple_types@V?$basic_string@DU?$char_traits@D@std@@V?$allocator@D@2@@std@@@std@@@std@@@0@ABV?$vector@V?$basic_string@DU?$char_traits@D@std@@V?$allocator@D@2@@std@@V?$allocator@V?$basic_string@DU?$char_traits@D@std@@V?$allocator@D@2@@std@@@2@@0@@Z 100536c0 f i config_system.obj
 0001:000526e0       ??$cbegin@V?$vector@V?$basic_string@DU?$char_traits@D@std@@V?$allocator@D@2@@std@@V?$allocator@V?$basic_string@DU?$char_traits@D@std@@V?$allocator@D@2@@std@@@2@@std@@@std@@YA?AV?$_Vector_const_iterator@V?$_Vector_val@U?$_Simple_types@V?$basic_string@DU?$char_traits@D@std@@V?$allocator@D@2@@std@@@std@@@std@@@0@ABV?$vector@V?$basic_string@DU?$char_traits@D@std@@V?$allocator@D@2@@std@@V?$allocator@V?$basic_string@DU?$char_traits@D@std@@V?$allocator@D@2@@std@@@2@@0@@Z 100536e0 f i config_system.obj
 0001:00052700       ??$cend@V?$vector@V?$basic_string@DU?$char_traits@D@std@@V?$allocator@D@2@@std@@V?$allocator@V?$basic_string@DU?$char_traits@D@std@@V?$allocator@D@2@@std@@@2@@std@@@std@@YA?AV?$_Vector_const_iterator@V?$_Vector_val@U?$_Simple_types@V?$basic_string@DU?$char_traits@D@std@@V?$allocator@D@2@@std@@@std@@@std@@@0@ABV?$vector@V?$basic_string@DU?$char_traits@D@std@@V?$allocator@D@2@@std@@V?$allocator@V?$basic_string@DU?$char_traits@D@std@@V?$allocator@D@2@@std@@@2@@0@@Z 10053700 f i config_system.obj
 0001:00052720       ??$construct@V?$basic_string@DU?$char_traits@D@std@@V?$allocator@D@2@@std@@AAPBD@?$_Default_allocator_traits@V?$allocator@V?$basic_string@DU?$char_traits@D@std@@V?$allocator@D@2@@std@@@std@@@std@@SAXAAV?$allocator@V?$basic_string@DU?$char_traits@D@std@@V?$allocator@D@2@@std@@@1@QAV?$basic_string@DU?$char_traits@D@std@@V?$allocator@D@2@@1@AAPBD@Z 10053720 f i config_system.obj
 0001:00052760       ??$construct@V?$basic_string@DU?$char_traits@D@std@@V?$allocator@D@2@@std@@V12@@?$_Default_allocator_traits@V?$allocator@V?$basic_string@DU?$char_traits@D@std@@V?$allocator@D@2@@std@@@std@@@std@@SAXAAV?$allocator@V?$basic_string@DU?$char_traits@D@std@@V?$allocator@D@2@@std@@@1@QAV?$basic_string@DU?$char_traits@D@std@@V?$allocator@D@2@@1@$$QAV31@@Z 10053760 f i config_system.obj
 0001:000527a0       ??$destroy@V?$basic_string@DU?$char_traits@D@std@@V?$allocator@D@2@@std@@@?$_Default_allocator_traits@V?$allocator@V?$basic_string@DU?$char_traits@D@std@@V?$allocator@D@2@@std@@@std@@@std@@SAXAAV?$allocator@V?$basic_string@DU?$char_traits@D@std@@V?$allocator@D@2@@std@@@1@QAV?$basic_string@DU?$char_traits@D@std@@V?$allocator@D@2@@1@@Z 100537a0 f i config_system.obj
 0001:000527b0       ??$emplace_back@AAPBD@?$vector@V?$basic_string@DU?$char_traits@D@std@@V?$allocator@D@2@@std@@V?$allocator@V?$basic_string@DU?$char_traits@D@std@@V?$allocator@D@2@@std@@@2@@std@@QAEAAV?$basic_string@DU?$char_traits@D@std@@V?$allocator@D@2@@1@AAPBD@Z 100537b0 f i config_system.obj
 0001:00052820       ??$emplace_back@V?$basic_string@DU?$char_traits@D@std@@V?$allocator@D@2@@std@@@?$vector@V?$basic_string@DU?$char_traits@D@std@@V?$allocator@D@2@@std@@V?$allocator@V?$basic_string@DU?$char_traits@D@std@@V?$allocator@D@2@@std@@@2@@std@@QAEAAV?$basic_string@DU?$char_traits@D@std@@V?$allocator@D@2@@1@$$QAV21@@Z 10053820 f i config_system.obj
 0001:00052890       ??$end@V?$vector@V?$basic_string@DU?$char_traits@D@std@@V?$allocator@D@2@@std@@V?$allocator@V?$basic_string@DU?$char_traits@D@std@@V?$allocator@D@2@@std@@@2@@std@@@std@@YA?AV?$_Vector_const_iterator@V?$_Vector_val@U?$_Simple_types@V?$basic_string@DU?$char_traits@D@std@@V?$allocator@D@2@@std@@@std@@@std@@@0@ABV?$vector@V?$basic_string@DU?$char_traits@D@std@@V?$allocator@D@2@@std@@V?$allocator@V?$basic_string@DU?$char_traits@D@std@@V?$allocator@D@2@@std@@@2@@0@@Z 10053890 f i config_system.obj
 0001:000528b0       ??$exchange@W4__std_fs_dir_handle@@W41@@std@@YA?AW4__std_fs_dir_handle@@AAW41@$$QAW41@@Z 100538b0 f i config_system.obj
 0001:000528e0       ??$find@V?$_Vector_const_iterator@V?$_Vector_val@U?$_Simple_types@V?$basic_string@DU?$char_traits@D@std@@V?$allocator@D@2@@std@@@std@@@std@@@std@@PBD@std@@YA?AV?$_Vector_const_iterator@V?$_Vector_val@U?$_Simple_types@V?$basic_string@DU?$char_traits@D@std@@V?$allocator@D@2@@std@@@std@@@std@@@0@V10@V10@ABQBD@Z 100538e0 f i config_system.obj
 0001:00052950       ??$find_if@PB_WU_Is_slash_oper@std@@@std@@YAPB_WPB_WQB_WU_Is_slash_oper@0@@Z 10053950 f i config_system.obj
 0001:000529d0       ??$find_if_not@PB_WU_Is_slash_oper@std@@@std@@YAPB_WPB_WQB_WU_Is_slash_oper@0@@Z 100539d0 f i config_system.obj
 0001:00052a50       ??$make_shared@U_Dir_enum_impl@filesystem@std@@U_Creator@123@ABW4directory_options@23@@std@@YA?AV?$shared_ptr@U_Dir_enum_impl@filesystem@std@@@0@$$QAU_Creator@_Dir_enum_impl@filesystem@0@ABW4directory_options@40@@Z 10053a50 f i config_system.obj
 0001:00052b40       ??$string@DU?$char_traits@D@std@@V?$allocator@D@2@$0A@@path@filesystem@std@@QBE?AV?$basic_string@DU?$char_traits@D@std@@V?$allocator@D@2@@2@ABV?$allocator@D@2@@Z 10053b40 f i config_system.obj
 0001:00052b90       ??$swap@PAU_Dir_enum_impl@filesystem@std@@X@std@@YAXAAPAU_Dir_enum_impl@filesystem@0@0@Z 10053b90 f i config_system.obj
 0001:00052b90       ??$swap@PAV_Ref_count_base@std@@X@std@@YAXAAPAV_Ref_count_base@0@0@Z 10053b90 f i config_system.obj
 0001:00052d40       ??$use_facet@V?$codecvt@DDU_Mbstatet@@@std@@@std@@YAABV?$codecvt@DDU_Mbstatet@@@0@ABVlocale@0@@Z 10053d40 f i config_system.obj
 0001:00052e60       ??0<unnamed-type-cfg>@c_config@@QAE@XZ 10053e60 f i config_system.obj
 0001:000531b0       ??0?$ArchiveX@V?$basic_ifstream@DU?$char_traits@D@std@@@std@@@@QAE@AAV?$basic_ifstream@DU?$char_traits@D@std@@@std@@@Z 100541b0 f i config_system.obj
 0001:000531b0       ??0?$ArchiveX@V?$basic_ofstream@DU?$char_traits@D@std@@@std@@@@QAE@AAV?$basic_ofstream@DU?$char_traits@D@std@@@std@@@Z 100541b0 f i config_system.obj
 0001:000531d0       ??0?$basic_filebuf@DU?$char_traits@D@std@@@std@@QAE@PAU_iobuf@@@Z 100541d0 f i config_system.obj
 0001:00053240       ??0?$basic_ifstream@DU?$char_traits@D@std@@@std@@QAE@PB_WHH@Z 10054240 f i config_system.obj
 0001:00053360       ??0?$basic_ofstream@DU?$char_traits@D@std@@@std@@QAE@PB_WHH@Z 10054360 f i config_system.obj
 0001:00053480       ??0?$basic_string@DU?$char_traits@D@std@@V?$allocator@D@2@@std@@QAE@ABV?$allocator@D@1@@Z 10054480 f i config_system.obj
 0001:000534d0       ??0?$basic_string@DU?$char_traits@D@std@@V?$allocator@D@2@@std@@QAE@ID@Z 100544d0 f i config_system.obj
 0001:00053540       ??0?$basic_string@DU?$char_traits@D@std@@V?$allocator@D@2@@std@@QAE@XZ 10054540 f i config_system.obj
 0001:00053590       ??0?$basic_string@_WU?$char_traits@_W@std@@V?$allocator@_W@2@@std@@QAE@$$QAV01@@Z 10054590 f i config_system.obj
 0001:00053620       ??0?$basic_string@_WU?$char_traits@_W@std@@V?$allocator@_W@2@@std@@QAE@ABV01@@Z 10054620 f i config_system.obj
 0001:000536a0       ??0?$basic_string@_WU?$char_traits@_W@std@@V?$allocator@_W@2@@std@@QAE@XZ 100546a0 f i config_system.obj
 0001:000536f0       ??0?$basic_string_view@DU?$char_traits@D@std@@@std@@QAE@QBD@Z 100546f0 f i config_system.obj
 0001:00053720       ??0?$basic_string_view@_WU?$char_traits@_W@std@@@std@@QAE@QB_W@Z 10054720 f i config_system.obj
 0001:00053750       ??0?$fpos@U_Mbstatet@@@std@@QAE@U_Mbstatet@@_J@Z 10054750 f i config_system.obj
 0001:00053790       ??0?$fpos@U_Mbstatet@@@std@@QAE@_J@Z 10054790 f i config_system.obj
 0001:000537d0       ??0?$shared_ptr@U_Dir_enum_impl@filesystem@std@@@std@@QAE@$$QAV01@@Z 100547d0 f i config_system.obj
 0001:000537d0       ??0?$shared_ptr@UNode@NetvarTree@@@std@@QAE@$$QAV01@@Z 100547d0 f i NetvarManager.obj
 0001:00053830       ??0?$shared_ptr@U_Dir_enum_impl@filesystem@std@@@std@@QAE@ABV01@@Z 10054830 f i config_system.obj
 0001:00053830       ??0?$shared_ptr@UNode@NetvarTree@@@std@@QAE@ABV01@@Z 10054830 f i NetvarManager.obj
 0001:00053880       ??0_Creator@_Dir_enum_impl@filesystem@std@@QAE@ABVpath@23@W4directory_options@23@@Z 10054880 f i config_system.obj
 0001:00053980       ??0_Dir_enum_impl@filesystem@std@@QAE@$$QAU_Creator@012@W4directory_options@12@@Z 10054980 f i config_system.obj
 0001:00053a20       ??0_File_status_and_error@filesystem@std@@QAE@XZ 10054a20 f i config_system.obj
 0001:00053a40       ??0_Find_file_handle@filesystem@std@@QAE@$$QAU012@@Z 10054a40 f i config_system.obj
 0001:00053aa0       ??0_Find_file_handle@filesystem@std@@QAE@XZ 10054aa0 f i config_system.obj
 0001:00053ac0       ??0_Generic_error_category@std@@QAE@XZ 10054ac0 f i config_system.obj
 0001:00053af0       ??0_Ref_count_base@std@@IAE@XZ 10054af0 f i config_system.obj
 0001:00053b20       ??0_System_error@std@@IAE@Verror_code@1@ABV?$basic_string@DU?$char_traits@D@std@@V?$allocator@D@2@@1@@Z 10054b20 f i config_system.obj
 0001:00053be0       ??0_System_error@std@@QAE@ABV01@@Z 10054be0 f i config_system.obj
 0001:00053c20       ??0_System_error_category@std@@QAE@XZ 10054c20 f i config_system.obj
 0001:00053c50       ??0bad_cast@std@@QAE@ABV01@@Z 10054c50 f i config_system.obj
 0001:00053c80       ??0bad_cast@std@@QAE@XZ    10054c80 f i config_system.obj
 0001:00053cb0       ??0c_config@@QAE@XZ        10054cb0 f i config_system.obj
 0001:00053cf0       ??0directory_entry@filesystem@std@@QAE@XZ 10054cf0 f i config_system.obj
 0001:00053d30       ??0directory_iterator@filesystem@std@@QAE@ABV012@@Z 10054d30 f i config_system.obj
 0001:00053d60       ??0directory_iterator@filesystem@std@@QAE@ABVpath@12@@Z 10054d60 f i config_system.obj
 0001:00053de0       ??0directory_iterator@filesystem@std@@QAE@XZ 10054de0 f i config_system.obj
 0001:00053e00       ??0error_category@std@@QAE@XZ 10054e00 f i config_system.obj
 0001:00053e20       ??0exception@std@@QAE@QBDH@Z 10054e20 f i config_system.obj
 0001:00053e50       ??0file_status@filesystem@std@@QAE@XZ 10054e50 f i config_system.obj
 0001:00053e80       ??0filesystem_error@filesystem@std@@QAE@ABV012@@Z 10054e80 f i config_system.obj
 0001:00053f30       ??0filesystem_error@filesystem@std@@QAE@ABV?$basic_string@DU?$char_traits@D@std@@V?$allocator@D@2@@2@ABVpath@12@1Verror_code@2@@Z 10054f30 f i config_system.obj
 0001:00054000       ??0filesystem_error@filesystem@std@@QAE@ABV?$basic_string@DU?$char_traits@D@std@@V?$allocator@D@2@@2@ABVpath@12@Verror_code@2@@Z 10055000 f i config_system.obj
 0001:00054120       ??0filesystem_error@filesystem@std@@QAE@ABV?$basic_string@DU?$char_traits@D@std@@V?$allocator@D@2@@2@Verror_code@2@@Z 10055120 f i config_system.obj
 0001:000541c0       ??0path@filesystem@std@@QAE@ABV012@@Z 100551c0 f i config_system.obj
 0001:000541f0       ??0path@filesystem@std@@QAE@XZ 100551f0 f i config_system.obj
 0001:00054210       ??0runtime_error@std@@QAE@ABV?$basic_string@DU?$char_traits@D@std@@V?$allocator@D@2@@1@@Z 10055210 f i config_system.obj
 0001:00054240       ??0system_error@std@@QAE@ABV01@@Z 10055240 f i config_system.obj
 0001:00054270       ??0system_error@std@@QAE@Verror_code@1@@Z 10055270 f i config_system.obj
 0001:00054300       ??0system_error@std@@QAE@Verror_code@1@ABV?$basic_string@DU?$char_traits@D@std@@V?$allocator@D@2@@1@@Z 10055300 f i config_system.obj
 0001:00054330       ??1?$_Uninitialized_backout_al@PAV?$basic_string@DU?$char_traits@D@std@@V?$allocator@D@2@@std@@V?$allocator@V?$basic_string@DU?$char_traits@D@std@@V?$allocator@D@2@@std@@@2@@std@@QAE@XZ 10055330 f i config_system.obj
 0001:00054390       ??1?$basic_filebuf@DU?$char_traits@D@std@@@std@@UAE@XZ 10055390 f i config_system.obj
 0001:00054400       ??1?$basic_ifstream@DU?$char_traits@D@std@@@std@@UAE@XZ 10055400 f i config_system.obj
 0001:00054460       ??1?$basic_ofstream@DU?$char_traits@D@std@@@std@@UAE@XZ 10055460 f i config_system.obj
 0001:000544c0       ??1?$basic_string@_WU?$char_traits@_W@std@@V?$allocator@_W@2@@std@@QAE@XZ 100554c0 f i config_system.obj
 0001:00054510       ??1?$unique_ptr@V_Facet_base@std@@U?$default_delete@V_Facet_base@std@@@2@@std@@QAE@XZ 10055510 f i config_system.obj
 0001:00054550       ??1?$vector@V?$basic_string@DU?$char_traits@D@std@@V?$allocator@D@2@@std@@V?$allocator@V?$basic_string@DU?$char_traits@D@std@@V?$allocator@D@2@@std@@@2@@std@@QAE@XZ 10055550 f i config_system.obj
 0001:00054590       ??1_Creator@_Dir_enum_impl@filesystem@std@@QAE@XZ 10055590 f i config_system.obj
 0001:000545b0       ??1_Dir_enum_impl@filesystem@std@@QAE@XZ 100555b0 f i config_system.obj
 0001:000545d0       ??1_Find_file_handle@filesystem@std@@QAE@XZ 100555d0 f i config_system.obj
 0001:000545f0       ??1_System_error@std@@UAE@XZ 100555f0 f i config_system.obj
 0001:00054610       ??1c_config@@QAE@XZ        10055610 f i config_system.obj
 0001:00054640       ??1directory_entry@filesystem@std@@QAE@XZ 10055640 f i config_system.obj
 0001:00054660       ??1directory_iterator@filesystem@std@@QAE@XZ 10055660 f i config_system.obj
 0001:00054680       ??1filesystem_error@filesystem@std@@UAE@XZ 10055680 f i config_system.obj
 0001:000546c0       ??1locale@std@@QAE@XZ      100556c0 f i config_system.obj
 0001:00054740       ??1path@filesystem@std@@QAE@XZ 10055740 f i config_system.obj
 0001:00054760       ??1system_error@std@@UAE@XZ 10055760 f i config_system.obj
 0001:00054780       ??4?$back_insert_iterator@V?$vector@V?$basic_string@DU?$char_traits@D@std@@V?$allocator@D@2@@std@@V?$allocator@V?$basic_string@DU?$char_traits@D@std@@V?$allocator@D@2@@std@@@2@@std@@@std@@QAEAAV01@$$QAV?$basic_string@DU?$char_traits@D@std@@V?$allocator@D@2@@1@@Z 10055780 f i config_system.obj
 0001:000547c0       ??4?$basic_string@DU?$char_traits@D@std@@V?$allocator@D@2@@std@@QAEAAV01@QBD@Z 100557c0 f i config_system.obj
 0001:000547e0       ??4?$basic_string@_WU?$char_traits@_W@std@@V?$allocator@_W@2@@std@@QAEAAV01@$$QAV01@@Z 100557e0 f i config_system.obj
 0001:00054880       ??4?$basic_string@_WU?$char_traits@_W@std@@V?$allocator@_W@2@@std@@QAEAAV01@ABV01@@Z 10055880 f i config_system.obj
 0001:000548f0       ??4?$shared_ptr@U_Dir_enum_impl@filesystem@std@@@std@@QAEAAV01@$$QAV01@@Z 100558f0 f i config_system.obj
 0001:00054930       ??4path@filesystem@std@@QAEAAV012@$$QAV012@@Z 10055930 f i config_system.obj
 0001:00054950       ??4path@filesystem@std@@QAEAAV012@ABV012@@Z 10055950 f i config_system.obj
 0001:00054970       ??8?$_Vector_const_iterator@V?$_Vector_val@U?$_Simple_types@V?$basic_string@DU?$char_traits@D@std@@V?$allocator@D@2@@std@@@std@@@std@@@std@@QBE_NABV01@@Z 10055970 f i config_system.obj
 0001:000549b0       ??8std@@YA_NABVerror_condition@0@0@Z 100559b0 f i config_system.obj
 0001:00054a10       ??9directory_iterator@filesystem@std@@QBE_NABV012@@Z 10055a10 f i config_system.obj
 0001:00054a30       ??A?$vector@V?$basic_string@DU?$char_traits@D@std@@V?$allocator@D@2@@std@@V?$allocator@V?$basic_string@DU?$char_traits@D@std@@V?$allocator@D@2@@std@@@2@@std@@QBEABV?$basic_string@DU?$char_traits@D@std@@V?$allocator@D@2@@1@I@Z 10055a30 f i config_system.obj
 0001:00054a30       ??A?$vector@V?$basic_string@DU?$char_traits@D@std@@V?$allocator@D@2@@std@@V?$allocator@V?$basic_string@DU?$char_traits@D@std@@V?$allocator@D@2@@std@@@2@@std@@QAEAAV?$basic_string@DU?$char_traits@D@std@@V?$allocator@D@2@@1@I@Z 10055a30 f i config_system.obj
 0001:00054a50       ??B?$basic_string@_WU?$char_traits@_W@std@@V?$allocator@_W@2@@std@@QBE?AV?$basic_string_view@_WU?$char_traits@_W@std@@@1@XZ 10055a50 f i config_system.obj
 0001:00054ac0       ??B?$fpos@U_Mbstatet@@@std@@QBE_JXZ 10055ac0 f i config_system.obj
 0001:00054af0       ??Ddirectory_iterator@filesystem@std@@QBEABVdirectory_entry@12@XZ 10055af0 f i config_system.obj
 0001:00054b10       ??Edirectory_iterator@filesystem@std@@QAEAAV012@XZ 10055b10 f i config_system.obj
 0001:00054b50       ??H?$_Vector_const_iterator@V?$_Vector_val@U?$_Simple_types@V?$basic_string@DU?$char_traits@D@std@@V?$allocator@D@2@@std@@@std@@@std@@@std@@QBE?AV01@H@Z 10055b50 f i config_system.obj
 0001:00054b80       ??I@YA?AW4__std_fs_file_attr@@W40@0@Z 10055b80 f i config_system.obj
 0001:00054b80       ??Ifilesystem@std@@YA?AW4directory_options@01@W4201@0@Z 10055b80 f i config_system.obj
 0001:00054b90       ??Kfilesystem@std@@YA?AVpath@01@ABV201@0@Z 10055b90 f i config_system.obj
 0001:00054c30       ??R<lambda_03628ca18370b1f44a99b655e704819b>@@QBEXQA_WIQB_W@Z 10055c30 f i config_system.obj
 0001:00054c70       ??R<lambda_15711c68e099a15a58f4d77303cb286d>@@QBEXQADQBDID@Z 10055c70 f i config_system.obj
 0001:00054cd0       ??R<lambda_2fb699096920f2dc628cb0826b07831d>@@QBEXQA_WQB_WI1I@Z 10055cd0 f i config_system.obj
 0001:00054d30       ??R<lambda_38fb7828f6004e9a4c6a38bfc6df7f44>@@QBEXQA_WQB_WI_W@Z 10055d30 f i config_system.obj
 0001:00054d90       ??R<lambda_67d87d4aa1269033985980465fd1d824>@@QBEXQADQBDI@Z 10055d90 f i config_system.obj
 0001:00054dc0       ??R<lambda_c1b8c41cb4019640539cfd828748c4d4>@@QBEXQADQBDIID@Z 10055dc0 f i config_system.obj
 0001:00054e20       ??R<lambda_c3135ae829aeedc0a8af1bd1e887c66a>@@QBEXQA_WQB_WII_W@Z 10055e20 f i config_system.obj
 0001:00054e80       ??R<lambda_c6753c90be971fc9cc00b4f35f237a75>@@QBEXQADID@Z 10055e80 f i config_system.obj
 0001:00054ec0       ??R?$default_delete@V_Facet_base@std@@@std@@QBEXPAV_Facet_base@1@@Z 10055ec0 f i config_system.obj
 0001:00054f00       ??R_Is_slash_oper@std@@QBE_N_W@Z 10055f00 f i config_system.obj
 0001:00054f40       ??U@YA?AW4__std_fs_stats_flags@@W40@0@Z 10055f40 f i config_system.obj
 0001:00054f50       ??Y?$_Vector_const_iterator@V?$_Vector_val@U?$_Simple_types@V?$basic_string@DU?$char_traits@D@std@@V?$allocator@D@2@@std@@@std@@@std@@@std@@QAEAAV01@H@Z 10055f50 f i config_system.obj
 0001:00054f80       ??Y?$basic_string@DU?$char_traits@D@std@@V?$allocator@D@2@@std@@QAEAAV01@ABV01@@Z 10055f80 f i config_system.obj
 0001:00054fa0       ??Y?$basic_string@DU?$char_traits@D@std@@V?$allocator@D@2@@std@@QAEAAV01@D@Z 10055fa0 f i config_system.obj
 0001:00054fc0       ??_0path@filesystem@std@@QAEAAV012@ABV012@@Z 10055fc0 f i config_system.obj
 0001:00055140       ??_5@YAAAW4__std_fs_stats_flags@@AAW40@W40@@Z 10056140 f i config_system.obj
 0001:00055160       ??_D?$basic_ifstream@DU?$char_traits@D@std@@@std@@QAEXXZ 10056160 f i config_system.obj
 0001:00055190       ??_D?$basic_ofstream@DU?$char_traits@D@std@@@std@@QAEXXZ 10056190 f i config_system.obj
 0001:000551b2       ??_E?$basic_ifstream@DU?$char_traits@D@std@@@std@@$4PPPPPPPM@A@AEPAXI@Z 100561b2 f i config_system.obj
 0001:000551ba       ??_E?$basic_ofstream@DU?$char_traits@D@std@@@std@@$4PPPPPPPM@A@AEPAXI@Z 100561ba f i config_system.obj
 0001:000551d0       ??_G?$_Ref_count_obj@U_Dir_enum_impl@filesystem@std@@@std@@UAEPAXI@Z 100561d0 f i config_system.obj
 0001:000551d0       ??_E?$_Ref_count_obj@U_Dir_enum_impl@filesystem@std@@@std@@UAEPAXI@Z 100561d0 f i config_system.obj
 0001:00055200       ??_E?$basic_filebuf@DU?$char_traits@D@std@@@std@@UAEPAXI@Z 10056200 f i config_system.obj
 0001:00055200       ??_G?$basic_filebuf@DU?$char_traits@D@std@@@std@@UAEPAXI@Z 10056200 f i config_system.obj
 0001:00055230       ??_E?$basic_ifstream@DU?$char_traits@D@std@@@std@@UAEPAXI@Z 10056230 f i config_system.obj
 0001:00055230       ??_G?$basic_ifstream@DU?$char_traits@D@std@@@std@@UAEPAXI@Z 10056230 f i config_system.obj
 0001:00055270       ??_G?$basic_ofstream@DU?$char_traits@D@std@@@std@@UAEPAXI@Z 10056270 f i config_system.obj
 0001:00055270       ??_E?$basic_ofstream@DU?$char_traits@D@std@@@std@@UAEPAXI@Z 10056270 f i config_system.obj
 0001:000552b0       ??_G?$basic_string@DU?$char_traits@D@std@@V?$allocator@D@2@@std@@QAEPAXI@Z 100562b0 f i config_system.obj
 0001:000552e0       ??_G_Dir_enum_impl@filesystem@std@@QAEPAXI@Z 100562e0 f i config_system.obj
 0001:00055310       ??_E_System_error_category@std@@UAEPAXI@Z 10056310 f i config_system.obj
 0001:00055310       ??_G_System_error_category@std@@UAEPAXI@Z 10056310 f i config_system.obj
 0001:00055310       ??_E_Generic_error_category@std@@UAEPAXI@Z 10056310 f i config_system.obj
 0001:00055310       ??_G_Generic_error_category@std@@UAEPAXI@Z 10056310 f i config_system.obj
 0001:00055340       ??_E_System_error@std@@UAEPAXI@Z 10056340 f i config_system.obj
 0001:00055340       ??_G_System_error@std@@UAEPAXI@Z 10056340 f i config_system.obj
 0001:00055370       ??_Efilesystem_error@filesystem@std@@UAEPAXI@Z 10056370 f i config_system.obj
 0001:00055370       ??_Gfilesystem_error@filesystem@std@@UAEPAXI@Z 10056370 f i config_system.obj
 0001:000553a0       ??_Esystem_error@std@@UAEPAXI@Z 100563a0 f i config_system.obj
 0001:000553a0       ??_Gsystem_error@std@@UAEPAXI@Z 100563a0 f i config_system.obj
 0001:000553d0       ??__Ksv@string_view_literals@literals@std@@YA?AV?$basic_string_view@_WU?$char_traits@_W@std@@@3@PB_WI@Z 100563d0 f i config_system.obj
 0001:000553d0       ??__Ksv@string_view_literals@literals@std@@YA?AV?$basic_string_view@DU?$char_traits@D@std@@@3@PBDI@Z 100563d0 f i config_system.obj
 0001:000553f0       ?_Advance_and_reset_if_no_more_files@_Dir_enum_impl@filesystem@std@@SA?AW4__std_win_error@@AAV?$shared_ptr@U_Dir_enum_impl@filesystem@std@@@3@@Z 100563f0 f i config_system.obj
 0001:00055480       ?_Assign_rv_contents@?$basic_string@_WU?$char_traits@_W@std@@V?$allocator@_W@2@@std@@QAEX$$QAV12@U?$integral_constant@_N$00@2@@Z 10056480 f i config_system.obj
 0001:000554c0       ?_Assign_rv_contents_with_alloc_always_equal@?$basic_string@_WU?$char_traits@_W@std@@V?$allocator@_W@2@@std@@QAEX$$QAV12@U?$integral_constant@_N$00@2@@Z 100564c0 f i config_system.obj
 0001:00055560       ?_Become_small@?$basic_string@DU?$char_traits@D@std@@V?$allocator@D@2@@std@@QAEXXZ 10056560 f i config_system.obj
 0001:00055600       ?_Bitmask_includes@@YA_NW4__std_fs_file_attr@@0@Z 10056600 f i config_system.obj
 0001:00055600       ?_Bitmask_includes@filesystem@std@@YA_NW4directory_options@12@0@Z 10056600 f i config_system.obj
 0001:00055630       ?_Calculate_growth@?$basic_string@_WU?$char_traits@_W@std@@V?$allocator@_W@2@@std@@QBEII@Z 10056630 f i config_system.obj
 0001:000556b0       ?_Calculate_growth@?$vector@V?$basic_string@DU?$char_traits@D@std@@V?$allocator@D@2@@std@@V?$allocator@V?$basic_string@DU?$char_traits@D@std@@V?$allocator@D@2@@std@@@2@@std@@ABEII@Z 100566b0 f i config_system.obj
 0001:00055700       ?_Change_array@?$vector@V?$basic_string@DU?$char_traits@D@std@@V?$allocator@D@2@@std@@V?$allocator@V?$basic_string@DU?$char_traits@D@std@@V?$allocator@D@2@@std@@@2@@std@@AAEXQAV?$basic_string@DU?$char_traits@D@std@@V?$allocator@D@2@@2@II@Z 10056700 f i config_system.obj
 0001:000557c0       ?_Check_convert_result@filesystem@std@@YAHU__std_fs_convert_result@@@Z 100567c0 f i config_system.obj
 0001:00055800       ?_Construct_lv_contents@?$basic_string@_WU?$char_traits@_W@std@@V?$allocator@_W@2@@std@@QAEXABV12@@Z 10056800 f i config_system.obj
 0001:00055900       ?_Convert_narrow_to_wide@filesystem@std@@YA?AV?$basic_string@_WU?$char_traits@_W@std@@V?$allocator@_W@2@@2@W4__std_code_page@@V?$basic_string_view@DU?$char_traits@D@std@@@2@@Z 10056900 f i config_system.obj
 0001:00055a50       ?_Copy_alloc@?$_String_alloc@U?$_String_base_types@_WV?$allocator@_W@std@@@std@@@std@@QAEXABV?$allocator@_W@2@@Z 10056a50 f i config_system.obj
 0001:00055a80       ?_Delete_this@?$_Ref_count_obj@U_Dir_enum_impl@filesystem@std@@@std@@EAEXXZ 10056a80 f i config_system.obj
 0001:00055a80       ?_Delete_this@?$_Ref_count_obj@UNode@NetvarTree@@@std@@EAEXXZ 10056a80 f i NetvarManager.obj
 0001:00055ac0       ?_Destroy@?$_Ref_count_obj@U_Dir_enum_impl@filesystem@std@@@std@@EAEXXZ 10056ac0 f i config_system.obj
 0001:00055b10       ?_Destroy@?$vector@V?$basic_string@DU?$char_traits@D@std@@V?$allocator@D@2@@std@@V?$allocator@V?$basic_string@DU?$char_traits@D@std@@V?$allocator@D@2@@std@@@2@@std@@AAEXPAV?$basic_string@DU?$char_traits@D@std@@V?$allocator@D@2@@2@0@Z 10056b10 f i config_system.obj
 0001:00055b40       ?_Endwrite@?$basic_filebuf@DU?$char_traits@D@std@@@std@@IAE_NXZ 10056b40 f i config_system.obj
 0001:00055c70       ?_Eos@?$basic_string@DU?$char_traits@D@std@@V?$allocator@D@2@@std@@QAEXI@Z 10056c70 f i config_system.obj
 0001:00055cc0       ?_Eos@?$basic_string@_WU?$char_traits@_W@std@@V?$allocator@_W@2@@std@@QAEXI@Z 10056cc0 f i config_system.obj
 0001:00055d10       ?_Equal@?$basic_string@DU?$char_traits@D@std@@V?$allocator@D@2@@std@@QBE_NQBD@Z 10056d10 f i config_system.obj
 0001:00055d90       ?_Find_filename@filesystem@std@@YAPB_WQB_WPB_W@Z 10056d90 f i config_system.obj
 0001:00055df0       ?_Find_relative_path@filesystem@std@@YAPB_WQB_W0@Z 10056df0 f i config_system.obj
 0001:00055e30       ?_Find_root_name_end@filesystem@std@@YAPB_WQB_W0@Z 10056e30 f i config_system.obj
 0001:00055fe0       ?_Get_any_status@filesystem@std@@YA?AU_File_status_and_error@12@ABVpath@12@W4__std_fs_stats_flags@@@Z 10056fe0 f i config_system.obj
 0001:00056050       ?_Get_deleter@_Ref_count_base@std@@UBEPAXABVtype_info@@@Z 10057050 f i config_system.obj
 0001:00056060       ?_Getfacet@locale@std@@QBEPBVfacet@12@I@Z 10057060 f i config_system.obj
 0001:000560f0       ?_Getptr@?$_Ref_count_obj@U_Dir_enum_impl@filesystem@std@@@std@@QAEPAU_Dir_enum_impl@filesystem@2@XZ 100570f0 f i config_system.obj
 0001:00056110       ?_Has_drive_letter_prefix@filesystem@std@@YA_NQB_W0@Z 10057110 f i config_system.obj
 0001:00056150       ?_Incref@_Ref_count_base@std@@QAEXXZ 10057150 f i config_system.obj
 0001:00056170       ?_Init@?$basic_filebuf@DU?$char_traits@D@std@@@std@@IAEXPAU_iobuf@@W4_Initfl@12@@Z 10057170 f i config_system.obj
 0001:00056240       ?_Initcvt@?$basic_filebuf@DU?$char_traits@D@std@@@std@@IAEXABV?$codecvt@DDU_Mbstatet@@@2@@Z 10057240 f i config_system.obj
 0001:00056290       ?_Is_dot_or_dotdot@filesystem@std@@YA_NABU__std_fs_find_data@@@Z 10057290 f i config_system.obj
 0001:00056310       ?_Is_drive_prefix@filesystem@std@@YA_NQB_W@Z 10057310 f i config_system.obj
 0001:00056360       ?_Is_file_not_found@filesystem@std@@YA_NW4__std_win_error@@@Z 10057360 f i config_system.obj
 0001:00056390       ?_Large_string_engaged@?$_String_val@U?$_Simple_types@_W@std@@@std@@QBE_NXZ 10057390 f i config_system.obj
 0001:000563c0       ?_Lock@?$basic_filebuf@DU?$char_traits@D@std@@@std@@UAEXXZ 100573c0 f i config_system.obj
 0001:000563f0       ?_Make_ec@filesystem@std@@YA?AVerror_code@2@W4__std_win_error@@@Z 100573f0 f i config_system.obj
 0001:00056410       ?_Makestr@_System_error@std@@CA?AV?$basic_string@DU?$char_traits@D@std@@V?$allocator@D@2@@2@Verror_code@2@V32@@Z 10057410 f i config_system.obj
 0001:000564e0       ?_Myptr@?$_String_val@U?$_Simple_types@_W@std@@@std@@QBEPB_WXZ 100574e0 f i config_system.obj
 0001:000564e0       ?_Myptr@?$_String_val@U?$_Simple_types@_W@std@@@std@@QAEPA_WXZ 100574e0 f i config_system.obj
 0001:00056520       ?_Not_good@_File_status_and_error@filesystem@std@@QBE_NXZ 10057520 f i config_system.obj
 0001:00056570       ?_Open@_Find_file_handle@filesystem@std@@QAE?AW4__std_win_error@@PB_WPAU__std_fs_find_data@@@Z 10057570 f i config_system.obj
 0001:00056590       ?_Open_dir@_Dir_enum_impl@filesystem@std@@SA?AW4__std_win_error@@AAVpath@23@W4directory_options@23@AAU_Find_file_handle@23@AAU__std_fs_find_data@@@Z 10057590 f i config_system.obj
 0001:00056610       ?_Parse_filename@filesystem@std@@YA?AV?$basic_string_view@_WU?$char_traits@_W@std@@@2@V32@@Z 10057610 f i config_system.obj
 0001:00056670       ?_Pretty_message@filesystem_error@filesystem@std@@CA?AV?$basic_string@DU?$char_traits@D@std@@V?$allocator@D@2@@3@V?$basic_string_view@DU?$char_traits@D@std@@@3@ABVpath@23@1@Z 10057670 f i config_system.obj
 0001:000567f0       ?_Range_compare@filesystem@std@@YAHQB_W000@Z 100577f0 f i config_system.obj
 0001:00056820       ?_Refresh@_Dir_enum_impl@filesystem@std@@QAEXABU__std_fs_find_data@@@Z 10057820 f i config_system.obj
 0001:000568c0       ?_Refresh@directory_entry@filesystem@std@@AAEXABU__std_fs_find_data@@@Z 100578c0 f i config_system.obj
 0001:00056970       ?_Refresh@file_status@filesystem@std@@QAEXW4__std_win_error@@ABU__std_fs_stats@@@Z 10057970 f i config_system.obj
 0001:00056a80       ?_Reset_back@?$basic_filebuf@DU?$char_traits@D@std@@@std@@AAEXXZ 10057a80 f i config_system.obj
 0001:00056ac0       ?_Seek_to@?$_Vector_const_iterator@V?$_Vector_val@U?$_Simple_types@V?$basic_string@DU?$char_traits@D@std@@V?$allocator@D@2@@std@@@std@@@std@@@std@@QAEXPBV?$basic_string@DU?$char_traits@D@std@@V?$allocator@D@2@@2@@Z 10057ac0 f i config_system.obj
 0001:00056ae0       ?_Set_back@?$basic_filebuf@DU?$char_traits@D@std@@@std@@AAEXXZ 10057ae0 f i config_system.obj
 0001:00056b40       ?_Set_ptr_rep@?$_Ptr_base@UNode@NetvarTree@@@std@@IAEXPAUNode@NetvarTree@@PAV_Ref_count_base@2@@Z 10057b40 f i NetvarManager.obj
 0001:00056b40       ?_Set_ptr_rep@?$_Ptr_base@U_Dir_enum_impl@filesystem@std@@@std@@IAEXPAU_Dir_enum_impl@filesystem@2@PAV_Ref_count_base@2@@Z 10057b40 f i config_system.obj
 0001:00056b60       ?_Skip_dots@_Dir_enum_impl@filesystem@std@@SA?AW4__std_win_error@@W4__std_fs_dir_handle@@AAU__std_fs_find_data@@@Z 10057b60 f i config_system.obj
 0001:00056bd0       ?_Swap@?$_Ptr_base@U_Dir_enum_impl@filesystem@std@@@std@@IAEXAAV12@@Z 10057bd0 f i config_system.obj
 0001:00056c10       ?_Throw_fs_error@filesystem@std@@YAXPBDW4__std_win_error@@@Z 10057c10 f i config_system.obj
 0001:00056cd0       ?_Throw_fs_error@filesystem@std@@YAXPBDW4__std_win_error@@ABVpath@12@2@Z 10057cd0 f i config_system.obj
 0001:00056d90       ?_Throw_fs_error@filesystem@std@@YAXPBDW4__std_win_error@@ABVpath@12@@Z 10057d90 f i config_system.obj
 0001:00056e50       ?_Tidy@?$vector@V?$basic_string@DU?$char_traits@D@std@@V?$allocator@D@2@@std@@V?$allocator@V?$basic_string@DU?$char_traits@D@std@@V?$allocator@D@2@@std@@@2@@std@@AAEXXZ 10057e50 f i config_system.obj
 0001:00056f00       ?_Tidy_deallocate@?$basic_string@_WU?$char_traits@_W@std@@V?$allocator@_W@2@@std@@QAEXXZ 10057f00 f i config_system.obj
 0001:00056fb0       ?_Tidy_init@?$basic_string@_WU?$char_traits@_W@std@@V?$allocator@_W@2@@std@@QAEXXZ 10057fb0 f i config_system.obj
 0001:00057000       ?_Umove@?$vector@V?$basic_string@DU?$char_traits@D@std@@V?$allocator@D@2@@std@@V?$allocator@V?$basic_string@DU?$char_traits@D@std@@V?$allocator@D@2@@std@@@2@@std@@AAEPAV?$basic_string@DU?$char_traits@D@std@@V?$allocator@D@2@@2@PAV32@00@Z 10058000 f i config_system.obj
 0001:00057030       ?_Umove_if_noexcept1@?$vector@V?$basic_string@DU?$char_traits@D@std@@V?$allocator@D@2@@std@@V?$allocator@V?$basic_string@DU?$char_traits@D@std@@V?$allocator@D@2@@std@@@2@@std@@AAEXPAV?$basic_string@DU?$char_traits@D@std@@V?$allocator@D@2@@2@00U?$integral_constant@_N$00@2@@Z 10058030 f i config_system.obj
 0001:00057060       ?_Umove_if_noexcept@?$vector@V?$basic_string@DU?$char_traits@D@std@@V?$allocator@D@2@@std@@V?$allocator@V?$basic_string@DU?$char_traits@D@std@@V?$allocator@D@2@@std@@@2@@std@@AAEXPAV?$basic_string@DU?$char_traits@D@std@@V?$allocator@D@2@@2@00@Z 10058060 f i config_system.obj
 0001:00057090       ?_Unlock@?$basic_filebuf@DU?$char_traits@D@std@@@std@@UAEXXZ 10058090 f i config_system.obj
 0001:000570c0       ?_Xsystem_error_invalid_argument@filesystem@std@@YAXXZ 100580c0 f i config_system.obj
 0001:00057100       ?add@c_config@@QAEXPBD@Z   10058100 f   config_system.obj
 0001:000571e0       ?allocate@?$allocator@V?$basic_string@DU?$char_traits@D@std@@V?$allocator@D@2@@std@@@std@@QAEPAV?$basic_string@DU?$char_traits@D@std@@V?$allocator@D@2@@2@I@Z 100581e0 f i config_system.obj
 0001:00057210       ?allocate@?$allocator@_W@std@@QAEPA_WI@Z 10058210 f i config_system.obj
 0001:00057240       ?append@?$basic_string@DU?$char_traits@D@std@@V?$allocator@D@2@@std@@QAEAAV12@ABV12@@Z 10058240 f i config_system.obj
 0001:00057280       ?append@?$basic_string@DU?$char_traits@D@std@@V?$allocator@D@2@@std@@QAEAAV12@ID@Z 10058280 f i config_system.obj
 0001:00057320       ?append@?$basic_string@_WU?$char_traits@_W@std@@V?$allocator@_W@2@@std@@QAEAAV12@I_W@Z 10058320 f i config_system.obj
 0001:000573d0       ?append@?$basic_string@_WU?$char_traits@_W@std@@V?$allocator@_W@2@@std@@QAEAAV12@QB_WI@Z 100583d0 f i config_system.obj
 0001:00057480       ?assign@?$_WChar_traits@_W@std@@SAPA_WQA_WI_W@Z 10058480 f i config_system.obj
 0001:000574a0       ?assign@?$_WChar_traits@_W@std@@SAXAA_WAB_W@Z 100584a0 f i config_system.obj
 0001:000574c0       ?assign@?$basic_string@DU?$char_traits@D@std@@V?$allocator@D@2@@std@@QAEAAV12@ID@Z 100584c0 f i config_system.obj
 0001:00057550       ?assign@?$basic_string@_WU?$char_traits@_W@std@@V?$allocator@_W@2@@std@@QAEAAV12@QB_WI@Z 10058550 f i config_system.obj
 0001:000575e0       ?assign@?$char_traits@D@std@@SAPADQADID@Z 100585e0 f i config_system.obj
 0001:00057600       ?begin@?$vector@V?$basic_string@DU?$char_traits@D@std@@V?$allocator@D@2@@std@@V?$allocator@V?$basic_string@DU?$char_traits@D@std@@V?$allocator@D@2@@std@@@2@@std@@QBE?AV?$_Vector_const_iterator@V?$_Vector_val@U?$_Simple_types@V?$basic_string@DU?$char_traits@D@std@@V?$allocator@D@2@@std@@@std@@@std@@@2@XZ 10058600 f i config_system.obj
 0001:00057670       ?c_str@?$basic_string@_WU?$char_traits@_W@std@@V?$allocator@_W@2@@std@@QBEPB_WXZ 10058670 f i config_system.obj
 0001:00057670       ?data@?$basic_string@_WU?$char_traits@_W@std@@V?$allocator@_W@2@@std@@QBEPB_WXZ 10058670 f i config_system.obj
 0001:00057670       ?data@?$basic_string@_WU?$char_traits@_W@std@@V?$allocator@_W@2@@std@@QAEPA_WXZ 10058670 f i config_system.obj
 0001:000576c0       ?c_str@path@filesystem@std@@QBEPB_WXZ 100586c0 f i config_system.obj
 0001:000576e0       ?capacity@?$vector@V?$basic_string@DU?$char_traits@D@std@@V?$allocator@D@2@@std@@V?$allocator@V?$basic_string@DU?$char_traits@D@std@@V?$allocator@D@2@@std@@@2@@std@@QBEIXZ 100586e0 f i config_system.obj
 0001:00057710       ?size@?$basic_string_view@DU?$char_traits@D@std@@@std@@QBEIXZ 10058710 f i config_system.obj
 0001:00057710       ?GetType@RecvProp@@QBE?AW4SendPropType@@XZ 10058710 f i NetvarManager.obj
 0001:00057710       ?category@error_code@std@@QBEABVerror_category@2@XZ 10058710 f i config_system.obj
 0001:00057710       ?category@error_condition@std@@QBEABVerror_category@2@XZ 10058710 f i config_system.obj
 0001:00057710       ?size@?$basic_string_view@_WU?$char_traits@_W@std@@@std@@QBEIXZ 10058710 f i config_system.obj
 0001:00057710       ?GetNumProps@RecvTable@@QAEHXZ 10058710 f i NetvarManager.obj
 0001:00057730       ?cbegin@?$vector@V?$basic_string@DU?$char_traits@D@std@@V?$allocator@D@2@@std@@V?$allocator@V?$basic_string@DU?$char_traits@D@std@@V?$allocator@D@2@@std@@@2@@std@@QBE?AV?$_Vector_const_iterator@V?$_Vector_val@U?$_Simple_types@V?$basic_string@DU?$char_traits@D@std@@V?$allocator@D@2@@std@@@std@@@std@@@2@XZ 10058730 f i config_system.obj
 0001:00057750       ?close@?$basic_filebuf@DU?$char_traits@D@std@@@std@@QAEPAV12@XZ 10058750 f i config_system.obj
 0001:000577c0       ?close@?$basic_ifstream@DU?$char_traits@D@std@@@std@@QAEXXZ 100587c0 f i config_system.obj
 0001:00057800       ?close@?$basic_ofstream@DU?$char_traits@D@std@@@std@@QAEXXZ 10058800 f i config_system.obj
 0001:00057840       ?compare@?$_WChar_traits@_W@std@@SAHQB_W0I@Z 10058840 f i config_system.obj
 0001:000578c0       ?copy@?$_WChar_traits@_W@std@@SAPA_WQA_WQB_WI@Z 100588c0 f i config_system.obj
 0001:000578e0       ?create_directory@filesystem@std@@YA_NABVpath@12@@Z 100588e0 f i config_system.obj
 0001:00057930       ?deallocate@?$allocator@V?$basic_string@DU?$char_traits@D@std@@V?$allocator@D@2@@std@@@std@@QAEXQAV?$basic_string@DU?$char_traits@D@std@@V?$allocator@D@2@@2@I@Z 10058930 f i config_system.obj
 0001:00057950       ?deallocate@?$allocator@_W@std@@QAEXQA_WI@Z 10058950 f i config_system.obj
 0001:00057970       ?default_error_condition@_System_error_category@std@@UBE?AVerror_condition@2@H@Z 10058970 f i config_system.obj
 0001:000579f0       ?default_error_condition@error_category@std@@UBE?AVerror_condition@2@H@Z 100589f0 f i config_system.obj
 0001:00057a10       ?empty@?$basic_string@DU?$char_traits@D@std@@V?$allocator@D@2@@std@@QBE_NXZ 10058a10 f i config_system.obj
 0001:00057a40       ?empty@?$basic_string_view@_WU?$char_traits@_W@std@@@std@@QBE_NXZ 10058a40 f i config_system.obj
 0001:00057a40       ?empty@?$basic_string_view@DU?$char_traits@D@std@@@std@@QBE_NXZ 10058a40 f i config_system.obj
 0001:00057a70       ?end@?$vector@V?$basic_string@DU?$char_traits@D@std@@V?$allocator@D@2@@std@@V?$allocator@V?$basic_string@DU?$char_traits@D@std@@V?$allocator@D@2@@std@@@2@@std@@QBE?AV?$_Vector_const_iterator@V?$_Vector_val@U?$_Simple_types@V?$basic_string@DU?$char_traits@D@std@@V?$allocator@D@2@@std@@@std@@@std@@@2@XZ 10058a70 f i config_system.obj
 0001:00057ae0       ?eq_int_type@?$char_traits@D@std@@SA_NABH0@Z 10058ae0 f i config_system.obj
 0001:00057b10       ?equivalent@error_category@std@@UBE_NABVerror_code@2@H@Z 10058b10 f i config_system.obj
 0001:00057b60       ?equivalent@error_category@std@@UBE_NHABVerror_condition@2@@Z 10058b60 f i config_system.obj
 0001:00057ba0       ?erase@?$basic_string@_WU?$char_traits@_W@std@@V?$allocator@_W@2@@std@@QAEAAV12@I@Z 10058ba0 f i config_system.obj
 0001:00057be0       ?erase@?$vector@V?$basic_string@DU?$char_traits@D@std@@V?$allocator@D@2@@std@@V?$allocator@V?$basic_string@DU?$char_traits@D@std@@V?$allocator@D@2@@std@@@2@@std@@QAE?AV?$_Vector_iterator@V?$_Vector_val@U?$_Simple_types@V?$basic_string@DU?$char_traits@D@std@@V?$allocator@D@2@@std@@@std@@@std@@@2@V?$_Vector_const_iterator@V?$_Vector_val@U?$_Simple_types@V?$basic_string@DU?$char_traits@D@std@@V?$allocator@D@2@@std@@@std@@@std@@@2@@Z 10058be0 f i config_system.obj
 0001:00057c80       ?filename@path@filesystem@std@@QBE?AV123@XZ 10058c80 f i config_system.obj
 0001:00057ce0       ?front@?$basic_string@DU?$char_traits@D@std@@V?$allocator@D@2@@std@@QAEAADXZ 10058ce0 f i config_system.obj
 0001:00057d00       ?generic_category@std@@YAABVerror_category@1@XZ 10058d00 f i config_system.obj
 0001:00057d40       ?imbue@?$basic_filebuf@DU?$char_traits@D@std@@@std@@MAEXABVlocale@2@@Z 10058d40 f i config_system.obj
 0001:00057d70       ?is_absolute@path@filesystem@std@@QBE_NXZ 10058d70 f i config_system.obj
 0001:00057e50       ?is_directory@filesystem@std@@YA_NABVpath@12@@Z 10058e50 f i config_system.obj
 0001:00057e80       ?is_directory@filesystem@std@@YA_NVfile_status@12@@Z 10058e80 f i config_system.obj
 0001:00057eb0       ?length@?$_WChar_traits@_W@std@@SAIPB_W@Z 10058eb0 f i config_system.obj
 0001:00057ef0       ?load@c_config@@QAEXI@Z    10058ef0 f   config_system.obj
 0001:00058040       ?make_error_code@std@@YA?AVerror_code@1@W4errc@1@@Z 10059040 f i config_system.obj
 0001:00058060       ?max_size@?$_Default_allocator_traits@V?$allocator@V?$basic_string@DU?$char_traits@D@std@@V?$allocator@D@2@@std@@@std@@@std@@SAIABV?$allocator@V?$basic_string@DU?$char_traits@D@std@@V?$allocator@D@2@@std@@@2@@Z 10059060 f i config_system.obj
 0001:00058070       ?max_size@?$basic_string@_WU?$char_traits@_W@std@@V?$allocator@_W@2@@std@@QBEIXZ 10059070 f i config_system.obj
 0001:000580d0       ?max_size@?$vector@V?$basic_string@DU?$char_traits@D@std@@V?$allocator@D@2@@std@@V?$allocator@V?$basic_string@DU?$char_traits@D@std@@V?$allocator@D@2@@std@@@2@@std@@QBEIXZ 100590d0 f i config_system.obj
 0001:00058110       ?message@_Generic_error_category@std@@UBE?AV?$basic_string@DU?$char_traits@D@std@@V?$allocator@D@2@@2@H@Z 10059110 f i config_system.obj
 0001:00058150       ?message@_System_error_category@std@@UBE?AV?$basic_string@DU?$char_traits@D@std@@V?$allocator@D@2@@2@H@Z 10059150 f i config_system.obj
 0001:00058230       ?message@error_code@std@@QBE?AV?$basic_string@DU?$char_traits@D@std@@V?$allocator@D@2@@2@XZ 10059230 f i config_system.obj
 0001:00058290       ?move@?$_WChar_traits@_W@std@@SAPA_WQA_WQB_WI@Z 10059290 f i config_system.obj
 0001:000582b0       ?name@_Generic_error_category@std@@UBEPBDXZ 100592b0 f i config_system.obj
 0001:000582c0       ?name@_System_error_category@std@@UBEPBDXZ 100592c0 f i config_system.obj
 0001:000582d0       ?not_eof@?$char_traits@D@std@@SAHABH@Z 100592d0 f i config_system.obj
 0001:00058320       ?open@?$basic_filebuf@DU?$char_traits@D@std@@@std@@QAEPAV12@PB_WHH@Z 10059320 f i config_system.obj
 0001:000583e0       ?overflow@?$basic_filebuf@DU?$char_traits@D@std@@@std@@MAEHH@Z 100593e0 f i config_system.obj
 0001:000585d0       ?path@directory_entry@filesystem@std@@QBEABV023@XZ 100595d0 f i config_system.obj
 0001:000585f0       ?pbackfail@?$basic_filebuf@DU?$char_traits@D@std@@@std@@MAEHH@Z 100595f0 f i config_system.obj
 0001:00058750       ?permissions@file_status@filesystem@std@@QAEXW4perms@23@@Z 10059750 f i config_system.obj
 0001:00058770       ?push_back@?$basic_string@DU?$char_traits@D@std@@V?$allocator@D@2@@std@@QAEXD@Z 10059770 f i config_system.obj
 0001:00058800       ?push_back@?$basic_string@_WU?$char_traits@_W@std@@V?$allocator@_W@2@@std@@QAEX_W@Z 10059800 f i config_system.obj
 0001:000588a0       ?push_back@?$vector@V?$basic_string@DU?$char_traits@D@std@@V?$allocator@D@2@@std@@V?$allocator@V?$basic_string@DU?$char_traits@D@std@@V?$allocator@D@2@@std@@@2@@std@@QAEX$$QAV?$basic_string@DU?$char_traits@D@std@@V?$allocator@D@2@@2@@Z 100598a0 f i config_system.obj
 0001:000588d0       ?remove@c_config@@QAEXI@Z  100598d0 f   config_system.obj
 0001:000589b0       ?remove@filesystem@std@@YA_NABVpath@12@@Z 100599b0 f i config_system.obj
 0001:00058a00       ?remove_filename@path@filesystem@std@@QAEAAV123@XZ 10059a00 f i config_system.obj
 0001:00058a90       ?rename@c_config@@QAEXIPBD@Z 10059a90 f   config_system.obj
 0001:00058bb0       ?rename@filesystem@std@@YAXABVpath@12@0@Z 10059bb0 f i config_system.obj
 0001:00058c00       ?replace_filename@path@filesystem@std@@QAEAAV123@ABV123@@Z 10059c00 f i config_system.obj
 0001:00058c30       ?reserve@?$basic_string@DU?$char_traits@D@std@@V?$allocator@D@2@@std@@QAEXI@Z 10059c30 f i config_system.obj
 0001:00058cc0       ?reset@?$shared_ptr@U_Dir_enum_impl@filesystem@std@@@std@@QAEXXZ 10059cc0 f i config_system.obj
 0001:00058cf0       ?reset@c_config@@QAEXXZ    10059cf0 f   config_system.obj
 0001:00059010       ?resize@?$basic_string@DU?$char_traits@D@std@@V?$allocator@D@2@@std@@QAEXID@Z 1005a010 f i config_system.obj
 0001:00059060       ?resize@?$basic_string@_WU?$char_traits@_W@std@@V?$allocator@_W@2@@std@@QAEXI_W@Z 1005a060 f i config_system.obj
 0001:000590b0       ?run@c_config@@QAEXPBD@Z   1005a0b0 f   config_system.obj
 0001:000591f0       ?save@c_config@@QBEXI@Z    1005a1f0 f   config_system.obj
 0001:00059340       ?seekoff@?$basic_filebuf@DU?$char_traits@D@std@@@std@@MAE?AV?$fpos@U_Mbstatet@@@2@_JHH@Z 1005a340 f i config_system.obj
 0001:00059420       ?seekpos@?$basic_filebuf@DU?$char_traits@D@std@@@std@@MAE?AV?$fpos@U_Mbstatet@@@2@V32@H@Z 1005a420 f i config_system.obj
 0001:000594c0       ?setbuf@?$basic_filebuf@DU?$char_traits@D@std@@@std@@MAEPAV?$basic_streambuf@DU?$char_traits@D@std@@@2@PAD_J@Z 1005a4c0 f i config_system.obj
 0001:00059540       ?shrink_to_fit@?$basic_string@DU?$char_traits@D@std@@V?$allocator@D@2@@std@@QAEXXZ 1005a540 f i config_system.obj
 0001:00059650       ?size@?$vector@V?$basic_string@DU?$char_traits@D@std@@V?$allocator@D@2@@std@@V?$allocator@V?$basic_string@DU?$char_traits@D@std@@V?$allocator@D@2@@std@@@2@@std@@QBEIXZ 1005a650 f i config_system.obj
 0001:00059680       ?state@?$fpos@U_Mbstatet@@@std@@QBE?AU_Mbstatet@@XZ 1005a680 f i config_system.obj
 0001:000596b0       ?status@filesystem@std@@YA?AVfile_status@12@ABVpath@12@@Z 1005a6b0 f i config_system.obj
 0001:00059730       ?string@path@filesystem@std@@QBE?AV?$basic_string@DU?$char_traits@D@std@@V?$allocator@D@2@@3@XZ 1005a730 f i config_system.obj
 0001:00059770       ?swap@?$shared_ptr@U_Dir_enum_impl@filesystem@std@@@std@@QAEXAAV12@@Z 1005a770 f i config_system.obj
 0001:00059790       ?sync@?$basic_filebuf@DU?$char_traits@D@std@@@std@@MAEHXZ 1005a790 f i config_system.obj
 0001:00059810       ?system_category@std@@YAABVerror_category@1@XZ 1005a810 f i config_system.obj
 0001:00059850       ?to_char_type@?$char_traits@D@std@@SADABH@Z 1005a850 f i config_system.obj
 0001:00059860       ?to_int_type@?$char_traits@D@std@@SAHABD@Z 1005a860 f i config_system.obj
 0001:00059870       ?uflow@?$basic_filebuf@DU?$char_traits@D@std@@@std@@MAEHXZ 1005a870 f i config_system.obj
 0001:00059b00       ?underflow@?$basic_filebuf@DU?$char_traits@D@std@@@std@@MAEHXZ 1005ab00 f i config_system.obj
 0001:00059ba0       ?what@filesystem_error@filesystem@std@@UBEPBDXZ 1005aba0 f i config_system.obj
 0001:00059bc0       ?xsgetn@?$basic_filebuf@DU?$char_traits@D@std@@@std@@MAE_JPAD_J@Z 1005abc0 f i config_system.obj
 0001:00059ce0       ?xsputn@?$basic_filebuf@DU?$char_traits@D@std@@@std@@MAE_JPBD_J@Z 1005ace0 f i config_system.obj
 0001:00059e00       _wmemmove                  1005ae00 f i config_system.obj
 0001:00059e20       _wmemset                   1005ae20 f i config_system.obj
 0001:00059e80       ??$duration_cast@V?$duration@_JU?$ratio@$00$0DOI@@std@@@chrono@std@@_JU?$ratio@$00$0JIJGIA@@3@X@chrono@std@@YA?AV?$duration@_JU?$ratio@$00$0DOI@@std@@@01@ABV?$duration@_JU?$ratio@$00$0JIJGIA@@std@@@01@@Z 1005ae80 f i menu_system.obj
 0001:00059f90       ??0c_menu@@QAE@XZ          1005af90 f i menu_system.obj
 0001:00059ff0       ?Render@c_menu@@QAEXXZ     1005aff0 f   menu_system.obj
 0001:0005adf0       ?apply_fonts@c_menu@@QAEXXZ 1005bdf0 f   menu_system.obj
 0001:0005ae70       ?begin_popup@ImGui@@YAXPBDHPA_N@Z 1005be70 f   menu_system.obj
 0001:0005b260       ?config_tab@@YAXXZ         1005c260 f   menu_system.obj
 0001:0005b800       ?get_mils@ImGui@@YAJXZ     1005c800 f   menu_system.obj
 0001:0005b840       ?legit_tab@@YAXXZ          1005c840 f   menu_system.obj
 0001:0005bb60       ?misc_tab@@YAXXZ           1005cb60 f   menu_system.obj
 0001:0005bd90       ?rage_tab@@YAXXZ           1005cd90 f   menu_system.obj
 0001:0005c170       ?run_popup@c_menu@@QAEXXZ  1005d170 f   menu_system.obj
 0001:0005c2d0       ?visuals_tab@@YAXXZ        1005d2d0 f   menu_system.obj
 0001:0005cab0       ?FireRate@C_BaseEntity@@QAEMXZ 1005dab0 f   CEntity.obj
 0001:0005d320       ?FixSetupBones@C_BaseEntity@@QAEXPAVmatrix3x4_t@@@Z 1005e320 f   CEntity.obj
 0001:0005d3f0       ?GetAbsOrigin@C_BaseEntity@@QAE?AVVector@@XZ 1005e3f0 f i CEntity.obj
 0001:0005d430       ?GetHitbox@mstudiohitboxset_t@@QBEPAUmstudiobbox_t@@H@Z 1005e430 f i CEntity.obj
 0001:0005d450       ?GetHitboxPosition@C_BaseEntity@@QAE?AVVector@@HPAVmatrix3x4_t@@@Z 1005e450 f   CEntity.obj
 0001:0005d5c0       ?GetHitboxPosition@C_BaseEntity@@QAE?AVVector@@HPAVmatrix3x4_t@@PAM@Z 1005e5c0 f   CEntity.obj
 0001:0005d740       ?GetHitboxSet@studiohdr_t@@QBEPAUmstudiohitboxset_t@@H@Z 1005e740 f i CEntity.obj
 0001:0005d770       ?GetStudiomodel@IVModelInfo@@QAEPAUstudiohdr_t@@PBUmodel_t@@@Z 1005e770 f i CEntity.obj
 0001:0005d7a0       ?IsKnifeorNade@C_BaseEntity@@QAE_NXZ 1005e7a0 f   CEntity.obj
 0001:0005d9c0       ?SetAbsAngles@C_BaseEntity@@QAEXVVector@@@Z 1005e9c0 f   CEntity.obj
 0001:0005da80       ?SetAbsOrigin@C_BaseEntity@@QAEXVVector@@@Z 1005ea80 f   CEntity.obj
 0001:0005db30       ??$?6U?$char_traits@D@std@@@std@@YAAAV?$basic_ostream@DU?$char_traits@D@std@@@0@AAV10@PBD@Z 1005eb30 f i Interfaces.obj
 0001:0005deb0       ??$?6V?$basic_ofstream@DU?$char_traits@D@std@@@std@@$$BY0MO@D$0A@@std@@YA$$QAV?$basic_ofstream@DU?$char_traits@D@std@@@0@$$QAV10@AAY0MO@$$CBD@Z 1005eeb0 f i Interfaces.obj
 0001:0005deb0       ??$?6V?$basic_ofstream@DU?$char_traits@D@std@@@std@@$$BY0OF@D$0A@@std@@YA$$QAV?$basic_ofstream@DU?$char_traits@D@std@@@0@$$QAV10@AAY0OF@$$CBD@Z 1005eeb0 f i Interfaces.obj
 0001:0005dee0       ??$CaptureInterface@VIGameEventManager@@@interfaces@@YAPAVIGameEventManager@@PBD0@Z 1005eee0 f i Interfaces.obj
 0001:0005df90       ??$FindClass@VCModelRender@@@interfaces@@YAPAVCModelRender@@V?$basic_string@DU?$char_traits@D@std@@V?$allocator@D@2@@std@@0_N@Z 1005ef90 f i Interfaces.obj
 0001:0005e170       ??$FindClass@VCPrediction@@@interfaces@@YAPAVCPrediction@@V?$basic_string@DU?$char_traits@D@std@@V?$allocator@D@2@@std@@0_N@Z 1005f170 f i Interfaces.obj
 0001:0005e350       ??$FindClass@VIBaseClientDLL@@@interfaces@@YAPAVIBaseClientDLL@@V?$basic_string@DU?$char_traits@D@std@@V?$allocator@D@2@@std@@0_N@Z 1005f350 f i Interfaces.obj
 0001:0005e530       ??$FindClass@VICVar@@@interfaces@@YAPAVICVar@@V?$basic_string@DU?$char_traits@D@std@@V?$allocator@D@2@@std@@0_N@Z 1005f530 f i Interfaces.obj
 0001:0005e710       ??$FindClass@VIClientEntityList@@@interfaces@@YAPAVIClientEntityList@@V?$basic_string@DU?$char_traits@D@std@@V?$allocator@D@2@@std@@0_N@Z 1005f710 f i Interfaces.obj
 0001:0005e8f0       ??$FindClass@VIEngineTrace@@@interfaces@@YAPAVIEngineTrace@@V?$basic_string@DU?$char_traits@D@std@@V?$allocator@D@2@@std@@0_N@Z 1005f8f0 f i Interfaces.obj
 0001:0005ead0       ??$FindClass@VIGameMovement@@@interfaces@@YAPAVIGameMovement@@V?$basic_string@DU?$char_traits@D@std@@V?$allocator@D@2@@std@@0_N@Z 1005fad0 f i Interfaces.obj
 0001:0005ecb0       ??$FindClass@VIMaterialSystem@@@interfaces@@YAPAVIMaterialSystem@@V?$basic_string@DU?$char_traits@D@std@@V?$allocator@D@2@@std@@0_N@Z 1005fcb0 f i Interfaces.obj
 0001:0005ee90       ??$FindClass@VIPanel@@@interfaces@@YAPAVIPanel@@V?$basic_string@DU?$char_traits@D@std@@V?$allocator@D@2@@std@@0_N@Z 1005fe90 f i Interfaces.obj
 0001:0005f070       ??$FindClass@VIPhysicsSurfaceProps@@@interfaces@@YAPAVIPhysicsSurfaceProps@@V?$basic_string@DU?$char_traits@D@std@@V?$allocator@D@2@@std@@0_N@Z 10060070 f i Interfaces.obj
 0001:0005f250       ??$FindClass@VISurface@@@interfaces@@YAPAVISurface@@V?$basic_string@DU?$char_traits@D@std@@V?$allocator@D@2@@std@@0_N@Z 10060250 f i Interfaces.obj
 0001:0005f430       ??$FindClass@VIVEngineClient@@@interfaces@@YAPAVIVEngineClient@@V?$basic_string@DU?$char_traits@D@std@@V?$allocator@D@2@@std@@0_N@Z 10060430 f i Interfaces.obj
 0001:0005f610       ??$FindClass@VIVModelInfo@@@interfaces@@YAPAVIVModelInfo@@V?$basic_string@DU?$char_traits@D@std@@V?$allocator@D@2@@std@@0_N@Z 10060610 f i Interfaces.obj
 0001:0005f7f0       ??$FindClass@VIVRenderView@@@interfaces@@YAPAVIVRenderView@@V?$basic_string@DU?$char_traits@D@std@@V?$allocator@D@2@@std@@0_N@Z 100607f0 f i Interfaces.obj
 0001:0005f9d0       ??$sprintf_s@$0BAA@@@YAHAAY0BAA@DPBDZZ 100609d0 f i Interfaces.obj
 0001:0005fa00       ??0?$basic_ofstream@DU?$char_traits@D@std@@@std@@QAE@PBDHH@Z 10060a00 f i Interfaces.obj
 0001:0005fb20       ??0_Sentry_base@?$basic_ostream@DU?$char_traits@D@std@@@std@@QAE@AAV12@@Z 10060b20 f i Interfaces.obj
 0001:0005fb80       ??0sentry@?$basic_ostream@DU?$char_traits@D@std@@@std@@QAE@AAV12@@Z 10060b80 f i Interfaces.obj
 0001:0005fc50       ??1_Sentry_base@?$basic_ostream@DU?$char_traits@D@std@@@std@@QAE@XZ 10060c50 f i Interfaces.obj
 0001:0005fcd0       ??1sentry@?$basic_ostream@DU?$char_traits@D@std@@@std@@QAE@XZ 10060cd0 f i Interfaces.obj
 0001:0005fd30       ??Bsentry@?$basic_ostream@DU?$char_traits@D@std@@@std@@QBE_NXZ 10060d30 f i Interfaces.obj
 0001:0005fd50       ?Init@interfaces@@YAXXZ    10060d50 f   Interfaces.obj
 0001:00060300       ?open@?$basic_filebuf@DU?$char_traits@D@std@@@std@@QAEPAV12@PBDHH@Z 10061300 f i Interfaces.obj
 0001:000603c0       ??$isinf@M@@YA_NM@Z        100613c0 f i Math.obj
 0001:00060400       ??$isnan@M@@YA_NM@Z        10061400 f i Math.obj
 0001:00060440       ??AVector@@QBEMH@Z         10061440 f i Math.obj
 0001:00060460       ??Amatrix3x4_t@@QBEPBMH@Z  10061460 f i Math.obj
 0001:00060480       ?AngleVectors@Math@@QAEXABVVector@@PAV2@11@Z 10061480 f   Math.obj
 0001:00060660       ?AngleVectors@Math@@QAEXABVVector@@PAV2@@Z 10061660 f   Math.obj
 0001:00060760       ?CalcAngle@Math@@QAE?AVVector@@ABV2@0@Z 10061760 f   Math.obj
 0001:000609b0       ?Clamp@Math@@QAE_NAAVVector@@@Z 100619b0 f   Math.obj
 0001:00060aa0       ?ClampAngles@Math@@QAEXAAVVector@@@Z 10061aa0 f   Math.obj
 0001:00060b40       ?CrossProduct@@YA?AVVector@@ABV1@0@Z 10061b40 f i Math.obj
 0001:00060bd0       ?Distance@Math@@QAEMVVector2D@@0@Z 10061bd0 f   Math.obj
 0001:00060c30       ?DotProduct@@YAMABVVector@@0@Z 10061c30 f i Math.obj
 0001:00060c80       ?GRD_TO_BOG@Math@@QAEMM@Z  10061c80 f   Math.obj
 0001:00060cb0       ?NormalizeAngles@Math@@QAEXAAVVector@@@Z 10061cb0 f   Math.obj
 0001:00060d60       ?NormalizeYaw@Math@@QAEMM@Z 10061d60 f   Math.obj
 0001:00060e00       ?RandomFloat@Math@@QAEMMM@Z 10061e00 f   Math.obj
 0001:00060e90       ?VectorAngles@Math@@QAEXABVVector@@AAV2@1@Z 10061e90 f   Math.obj
 0001:00061090       ?VectorAngles@Math@@QAEXABVVector@@AAV2@@Z 10062090 f   Math.obj
 0001:00061310       ?VectorTransform@Math@@QAEXVVector@@Vmatrix3x4_t@@AAV2@@Z 10062310 f   Math.obj
 0001:00061580       ?atan2@@YAMMM@Z            10062580 f i Math.obj
 0001:000615b0       ?atan@@YAMM@Z              100625b0 f i Math.obj
 0001:000615d0       ?fpclassify@@YAHM@Z        100625d0 f i Math.obj
 0001:000615f0       ?round@@YAMM@Z             100625f0 f i Math.obj
 0001:00061610       ?sin_cos@@YAXMPAM0@Z       10062610 f   Math.obj
 0001:00061650       _atan2f                    10062650 f i Math.obj
 0001:00061690       _atanf                     10062690 f i Math.obj
 0001:000616b0       ??$?0AAU?$equal_to@V?$basic_string@DU?$char_traits@D@std@@V?$allocator@D@2@@std@@@std@@M@?$_Compressed_pair@U?$equal_to@V?$basic_string@DU?$char_traits@D@std@@V?$allocator@D@2@@std@@@std@@M$00@std@@QAE@U_One_then_variadic_args_t@1@AAU?$equal_to@V?$basic_string@DU?$char_traits@D@std@@V?$allocator@D@2@@std@@@1@$$QAM@Z 100626b0 f i NetvarManager.obj
 0001:000616e0       ??$?0AAU?$hash@V?$basic_string@DU?$char_traits@D@std@@V?$allocator@D@2@@std@@@std@@U_One_then_variadic_args_t@1@AAU?$equal_to@V?$basic_string@DU?$char_traits@D@std@@V?$allocator@D@2@@std@@@1@M@?$_Compressed_pair@U?$hash@V?$basic_string@DU?$char_traits@D@std@@V?$allocator@D@2@@std@@@std@@V?$_Compressed_pair@U?$equal_to@V?$basic_string@DU?$char_traits@D@std@@V?$allocator@D@2@@std@@@std@@M$00@2@$00@std@@QAE@U_One_then_variadic_args_t@1@AAU?$hash@V?$basic_string@DU?$char_traits@D@std@@V?$allocator@D@2@@std@@@1@$$QAU21@AAU?$equal_to@V?$basic_string@DU?$char_traits@D@std@@V?$allocator@D@2@@std@@@1@$$QAM@Z 100626e0 f i NetvarManager.obj
 0001:00061750       ??$?0ABV?$allocator@U?$pair@$$CBV?$basic_string@DU?$char_traits@D@std@@V?$allocator@D@2@@std@@V?$shared_ptr@UNode@NetvarTree@@@2@@std@@@std@@$$V@?$_Compressed_pair@V?$allocator@U?$_List_node@U?$pair@$$CBV?$basic_string@DU?$char_traits@D@std@@V?$allocator@D@2@@std@@V?$shared_ptr@UNode@NetvarTree@@@2@@std@@PAX@std@@@std@@V?$_List_val@U?$_List_simple_types@U?$pair@$$CBV?$basic_string@DU?$char_traits@D@std@@V?$allocator@D@2@@std@@V?$shared_ptr@UNode@NetvarTree@@@2@@std@@@std@@@2@$00@std@@QAE@U_One_then_variadic_args_t@1@ABV?$allocator@U?$pair@$$CBV?$basic_string@DU?$char_traits@D@std@@V?$allocator@D@2@@std@@V?$shared_ptr@UNode@NetvarTree@@@2@@std@@@1@@Z 10062750 f i NetvarManager.obj
 0001:00061780       ??$?0ABV?$allocator@U?$pair@$$CBV?$basic_string@DU?$char_traits@D@std@@V?$allocator@D@2@@std@@V?$shared_ptr@UNode@NetvarTree@@@2@@std@@@std@@X@?$_List_alloc@U?$_List_base_types@U?$pair@$$CBV?$basic_string@DU?$char_traits@D@std@@V?$allocator@D@2@@std@@V?$shared_ptr@UNode@NetvarTree@@@2@@std@@V?$allocator@U?$pair@$$CBV?$basic_string@DU?$char_traits@D@std@@V?$allocator@D@2@@std@@V?$shared_ptr@UNode@NetvarTree@@@2@@std@@@2@@std@@@std@@QAE@ABV?$allocator@U?$pair@$$CBV?$basic_string@DU?$char_traits@D@std@@V?$allocator@D@2@@std@@V?$shared_ptr@UNode@NetvarTree@@@2@@std@@@1@@Z 10062780 f i NetvarManager.obj
 0001:000617e0       ??$?0ABV?$allocator@U?$pair@$$CBV?$basic_string@DU?$char_traits@D@std@@V?$allocator@D@2@@std@@V?$shared_ptr@UNode@NetvarTree@@@2@@std@@@std@@X@?$_List_buy@U?$pair@$$CBV?$basic_string@DU?$char_traits@D@std@@V?$allocator@D@2@@std@@V?$shared_ptr@UNode@NetvarTree@@@2@@std@@V?$allocator@U?$pair@$$CBV?$basic_string@DU?$char_traits@D@std@@V?$allocator@D@2@@std@@V?$shared_ptr@UNode@NetvarTree@@@2@@std@@@2@@std@@QAE@ABV?$allocator@U?$pair@$$CBV?$basic_string@DU?$char_traits@D@std@@V?$allocator@D@2@@std@@V?$shared_ptr@UNode@NetvarTree@@@2@@std@@@1@@Z 100627e0 f i NetvarManager.obj
 0001:00061810       ??$?0ABV?$allocator@V?$_List_unchecked_iterator@V?$_List_val@U?$_List_simple_types@U?$pair@$$CBV?$basic_string@DU?$char_traits@D@std@@V?$allocator@D@2@@std@@V?$shared_ptr@UNode@NetvarTree@@@2@@std@@@std@@@std@@@std@@@std@@$$V@?$_Compressed_pair@V?$allocator@V?$_List_unchecked_iterator@V?$_List_val@U?$_List_simple_types@U?$pair@$$CBV?$basic_string@DU?$char_traits@D@std@@V?$allocator@D@2@@std@@V?$shared_ptr@UNode@NetvarTree@@@2@@std@@@std@@@std@@@std@@@std@@V?$_Vector_val@U?$_Simple_types@V?$_List_unchecked_iterator@V?$_List_val@U?$_List_simple_types@U?$pair@$$CBV?$basic_string@DU?$char_traits@D@std@@V?$allocator@D@2@@std@@V?$shared_ptr@UNode@NetvarTree@@@2@@std@@@std@@@std@@@std@@@std@@@2@$00@std@@QAE@U_One_then_variadic_args_t@1@ABV?$allocator@V?$_List_unchecked_iterator@V?$_List_val@U?$_List_simple_types@U?$pair@$$CBV?$basic_string@DU?$char_traits@D@std@@V?$allocator@D@2@@std@@V?$shared_ptr@UNode@NetvarTree@@@2@@std@@@std@@@std@@@std@@@1@@Z 10062810 f i NetvarManager.obj
 0001:00061840       ??$?0ABV?$allocator@V?$_List_unchecked_iterator@V?$_List_val@U?$_List_simple_types@U?$pair@$$CBV?$basic_string@DU?$char_traits@D@std@@V?$allocator@D@2@@std@@V?$shared_ptr@UNode@NetvarTree@@@2@@std@@@std@@@std@@@std@@@std@@X@?$_Vector_alloc@U?$_Vec_base_types@V?$_List_unchecked_iterator@V?$_List_val@U?$_List_simple_types@U?$pair@$$CBV?$basic_string@DU?$char_traits@D@std@@V?$allocator@D@2@@std@@V?$shared_ptr@UNode@NetvarTree@@@2@@std@@@std@@@std@@@std@@V?$allocator@V?$_List_unchecked_iterator@V?$_List_val@U?$_List_simple_types@U?$pair@$$CBV?$basic_string@DU?$char_traits@D@std@@V?$allocator@D@2@@std@@V?$shared_ptr@UNode@NetvarTree@@@2@@std@@@std@@@std@@@std@@@2@@std@@@std@@QAE@ABV?$allocator@V?$_List_unchecked_iterator@V?$_List_val@U?$_List_simple_types@U?$pair@$$CBV?$basic_string@DU?$char_traits@D@std@@V?$allocator@D@2@@std@@V?$shared_ptr@UNode@NetvarTree@@@2@@std@@@std@@@std@@@std@@@1@@Z 10062840 f i NetvarManager.obj
 0001:00061880       ??$?0H@?$_Ref_count_obj@UNode@NetvarTree@@@std@@QAE@$$QAH@Z 10062880 f i NetvarManager.obj
 0001:00061910       ??$?0PBDABV?$shared_ptr@UNode@NetvarTree@@@std@@$0A@@?$pair@$$CBV?$basic_string@DU?$char_traits@D@std@@V?$allocator@D@2@@std@@V?$shared_ptr@UNode@NetvarTree@@@2@@std@@QAE@$$QAPBDABV?$shared_ptr@UNode@NetvarTree@@@1@@Z 10062910 f i NetvarManager.obj
 0001:00061960       ??$_Buynode@PBDABV?$shared_ptr@UNode@NetvarTree@@@std@@@?$_List_buy@U?$pair@$$CBV?$basic_string@DU?$char_traits@D@std@@V?$allocator@D@2@@std@@V?$shared_ptr@UNode@NetvarTree@@@2@@std@@V?$allocator@U?$pair@$$CBV?$basic_string@DU?$char_traits@D@std@@V?$allocator@D@2@@std@@V?$shared_ptr@UNode@NetvarTree@@@2@@std@@@2@@std@@QAEPAU?$_List_node@U?$pair@$$CBV?$basic_string@DU?$char_traits@D@std@@V?$allocator@D@2@@std@@V?$shared_ptr@UNode@NetvarTree@@@2@@std@@PAX@1@PAU21@0$$QAPBDABV?$shared_ptr@UNode@NetvarTree@@@1@@Z 10062960 f i NetvarManager.obj
 0001:00061a50       ??$_Insert@PBDABV?$shared_ptr@UNode@NetvarTree@@@std@@@?$list@U?$pair@$$CBV?$basic_string@DU?$char_traits@D@std@@V?$allocator@D@2@@std@@V?$shared_ptr@UNode@NetvarTree@@@2@@std@@V?$allocator@U?$pair@$$CBV?$basic_string@DU?$char_traits@D@std@@V?$allocator@D@2@@std@@V?$shared_ptr@UNode@NetvarTree@@@2@@std@@@2@@std@@QAEXV?$_List_unchecked_const_iterator@V?$_List_val@U?$_List_simple_types@U?$pair@$$CBV?$basic_string@DU?$char_traits@D@std@@V?$allocator@D@2@@std@@V?$shared_ptr@UNode@NetvarTree@@@2@@std@@@std@@@std@@U_Iterator_base0@2@@1@$$QAPBDABV?$shared_ptr@UNode@NetvarTree@@@1@@Z 10062a50 f i NetvarManager.obj
 0001:00061ad0       ??$construct@U?$pair@$$CBV?$basic_string@DU?$char_traits@D@std@@V?$allocator@D@2@@std@@V?$shared_ptr@UNode@NetvarTree@@@2@@std@@PBDABV?$shared_ptr@UNode@NetvarTree@@@2@@?$_Default_allocator_traits@V?$allocator@U?$_List_node@U?$pair@$$CBV?$basic_string@DU?$char_traits@D@std@@V?$allocator@D@2@@std@@V?$shared_ptr@UNode@NetvarTree@@@2@@std@@PAX@std@@@std@@@std@@SAXAAV?$allocator@U?$_List_node@U?$pair@$$CBV?$basic_string@DU?$char_traits@D@std@@V?$allocator@D@2@@std@@V?$shared_ptr@UNode@NetvarTree@@@2@@std@@PAX@std@@@1@QAU?$pair@$$CBV?$basic_string@DU?$char_traits@D@std@@V?$allocator@D@2@@std@@V?$shared_ptr@UNode@NetvarTree@@@2@@1@$$QAPBDABV?$shared_ptr@UNode@NetvarTree@@@1@@Z 10062ad0 f i NetvarManager.obj
 0001:00061b20       ??$emplace@PBDABV?$shared_ptr@UNode@NetvarTree@@@std@@@?$_Hash@V?$_Umap_traits@V?$basic_string@DU?$char_traits@D@std@@V?$allocator@D@2@@std@@V?$shared_ptr@UNode@NetvarTree@@@2@V?$_Uhash_compare@V?$basic_string@DU?$char_traits@D@std@@V?$allocator@D@2@@std@@U?$hash@V?$basic_string@DU?$char_traits@D@std@@V?$allocator@D@2@@std@@@2@U?$equal_to@V?$basic_string@DU?$char_traits@D@std@@V?$allocator@D@2@@std@@@2@@2@V?$allocator@U?$pair@$$CBV?$basic_string@DU?$char_traits@D@std@@V?$allocator@D@2@@std@@V?$shared_ptr@UNode@NetvarTree@@@2@@std@@@2@$0A@@std@@@std@@QAE?AU?$pair@V?$_List_iterator@V?$_List_val@U?$_List_simple_types@U?$pair@$$CBV?$basic_string@DU?$char_traits@D@std@@V?$allocator@D@2@@std@@V?$shared_ptr@UNode@NetvarTree@@@2@@std@@@std@@@std@@@std@@_N@1@$$QAPBDABV?$shared_ptr@UNode@NetvarTree@@@1@@Z 10062b20 f i NetvarManager.obj
 0001:00061ba0       ??$emplace_front@PBDABV?$shared_ptr@UNode@NetvarTree@@@std@@@?$list@U?$pair@$$CBV?$basic_string@DU?$char_traits@D@std@@V?$allocator@D@2@@std@@V?$shared_ptr@UNode@NetvarTree@@@2@@std@@V?$allocator@U?$pair@$$CBV?$basic_string@DU?$char_traits@D@std@@V?$allocator@D@2@@std@@V?$shared_ptr@UNode@NetvarTree@@@2@@std@@@2@@std@@QAEAAU?$pair@$$CBV?$basic_string@DU?$char_traits@D@std@@V?$allocator@D@2@@std@@V?$shared_ptr@UNode@NetvarTree@@@2@@1@$$QAPBDABV?$shared_ptr@UNode@NetvarTree@@@1@@Z 10062ba0 f i NetvarManager.obj
 0001:00061c10       ??$make_shared@UNode@NetvarTree@@H@std@@YA?AV?$shared_ptr@UNode@NetvarTree@@@0@$$QAH@Z 10062c10 f i NetvarManager.obj
 0001:00061cf0       ??0?$_Hash@V?$_Umap_traits@V?$basic_string@DU?$char_traits@D@std@@V?$allocator@D@2@@std@@V?$shared_ptr@UNode@NetvarTree@@@2@V?$_Uhash_compare@V?$basic_string@DU?$char_traits@D@std@@V?$allocator@D@2@@std@@U?$hash@V?$basic_string@DU?$char_traits@D@std@@V?$allocator@D@2@@std@@@2@U?$equal_to@V?$basic_string@DU?$char_traits@D@std@@V?$allocator@D@2@@std@@@2@@2@V?$allocator@U?$pair@$$CBV?$basic_string@DU?$char_traits@D@std@@V?$allocator@D@2@@std@@V?$shared_ptr@UNode@NetvarTree@@@2@@std@@@2@$0A@@std@@@std@@QAE@ABV?$_Uhash_compare@V?$basic_string@DU?$char_traits@D@std@@V?$allocator@D@2@@std@@U?$hash@V?$basic_string@DU?$char_traits@D@std@@V?$allocator@D@2@@std@@@2@U?$equal_to@V?$basic_string@DU?$char_traits@D@std@@V?$allocator@D@2@@std@@@2@@1@ABV?$allocator@U?$pair@$$CBV?$basic_string@DU?$char_traits@D@std@@V?$allocator@D@2@@std@@V?$shared_ptr@UNode@NetvarTree@@@2@@std@@@1@@Z 10062cf0 f i NetvarManager.obj
 0001:00061db0       ??0?$_Uhash_compare@V?$basic_string@DU?$char_traits@D@std@@V?$allocator@D@2@@std@@U?$hash@V?$basic_string@DU?$char_traits@D@std@@V?$allocator@D@2@@std@@@2@U?$equal_to@V?$basic_string@DU?$char_traits@D@std@@V?$allocator@D@2@@std@@@2@@std@@QAE@U?$hash@V?$basic_string@DU?$char_traits@D@std@@V?$allocator@D@2@@std@@@1@U?$equal_to@V?$basic_string@DU?$char_traits@D@std@@V?$allocator@D@2@@std@@@1@@Z 10062db0 f i NetvarManager.obj
 0001:00061df0       ??0?$_Umap_traits@V?$basic_string@DU?$char_traits@D@std@@V?$allocator@D@2@@std@@V?$shared_ptr@UNode@NetvarTree@@@2@V?$_Uhash_compare@V?$basic_string@DU?$char_traits@D@std@@V?$allocator@D@2@@std@@U?$hash@V?$basic_string@DU?$char_traits@D@std@@V?$allocator@D@2@@std@@@2@U?$equal_to@V?$basic_string@DU?$char_traits@D@std@@V?$allocator@D@2@@std@@@2@@2@V?$allocator@U?$pair@$$CBV?$basic_string@DU?$char_traits@D@std@@V?$allocator@D@2@@std@@V?$shared_ptr@UNode@NetvarTree@@@2@@std@@@2@$0A@@std@@QAE@ABV?$_Uhash_compare@V?$basic_string@DU?$char_traits@D@std@@V?$allocator@D@2@@std@@U?$hash@V?$basic_string@DU?$char_traits@D@std@@V?$allocator@D@2@@std@@@2@U?$equal_to@V?$basic_string@DU?$char_traits@D@std@@V?$allocator@D@2@@std@@@2@@1@@Z 10062df0 f i NetvarManager.obj
 0001:00061e10       ??0?$list@U?$pair@$$CBV?$basic_string@DU?$char_traits@D@std@@V?$allocator@D@2@@std@@V?$shared_ptr@UNode@NetvarTree@@@2@@std@@V?$allocator@U?$pair@$$CBV?$basic_string@DU?$char_traits@D@std@@V?$allocator@D@2@@std@@V?$shared_ptr@UNode@NetvarTree@@@2@@std@@@2@@std@@QAE@ABV?$allocator@U?$pair@$$CBV?$basic_string@DU?$char_traits@D@std@@V?$allocator@D@2@@std@@V?$shared_ptr@UNode@NetvarTree@@@2@@std@@@1@@Z 10062e10 f i NetvarManager.obj
 0001:00061e30       ??0?$unordered_map@V?$basic_string@DU?$char_traits@D@std@@V?$allocator@D@2@@std@@V?$shared_ptr@UNode@NetvarTree@@@2@U?$hash@V?$basic_string@DU?$char_traits@D@std@@V?$allocator@D@2@@std@@@2@U?$equal_to@V?$basic_string@DU?$char_traits@D@std@@V?$allocator@D@2@@std@@@2@V?$allocator@U?$pair@$$CBV?$basic_string@DU?$char_traits@D@std@@V?$allocator@D@2@@std@@V?$shared_ptr@UNode@NetvarTree@@@2@@std@@@2@@std@@QAE@XZ 10062e30 f i NetvarManager.obj
 0001:00061e70       ??0?$vector@V?$_List_unchecked_iterator@V?$_List_val@U?$_List_simple_types@U?$pair@$$CBV?$basic_string@DU?$char_traits@D@std@@V?$allocator@D@2@@std@@V?$shared_ptr@UNode@NetvarTree@@@2@@std@@@std@@@std@@@std@@V?$allocator@V?$_List_unchecked_iterator@V?$_List_val@U?$_List_simple_types@U?$pair@$$CBV?$basic_string@DU?$char_traits@D@std@@V?$allocator@D@2@@std@@V?$shared_ptr@UNode@NetvarTree@@@2@@std@@@std@@@std@@@std@@@2@@std@@QAE@ABV?$allocator@V?$_List_unchecked_iterator@V?$_List_val@U?$_List_simple_types@U?$pair@$$CBV?$basic_string@DU?$char_traits@D@std@@V?$allocator@D@2@@std@@V?$shared_ptr@UNode@NetvarTree@@@2@@std@@@std@@@std@@@std@@@1@@Z 10062e70 f i NetvarManager.obj
 0001:00061ec0       ??0NetvarTree@@QAE@XZ      10062ec0 f   NetvarManager.obj
 0001:00061fa0       ??0Node@NetvarTree@@QAE@H@Z 10062fa0 f i NetvarManager.obj
 0001:00061fd0       ??_E?$_Ref_count_obj@UNode@NetvarTree@@@std@@UAEPAXI@Z 10062fd0 f i NetvarManager.obj
 0001:00061fd0       ??_G?$_Ref_count_obj@UNode@NetvarTree@@@std@@UAEPAXI@Z 10062fd0 f i NetvarManager.obj
 0001:00062000       ??_GNode@NetvarTree@@QAEPAXI@Z 10063000 f i NetvarManager.obj
 0001:00062030       ?GetDataTable@RecvProp@@QBEPAVRecvTable@@XZ 10063030 f i NetvarManager.obj
 0001:00062050       ?GetName@RecvTable@@QAEPBDXZ 10063050 f i NetvarManager.obj
 0001:00062070       ?GetOffset@RecvProp@@QBEHXZ 10063070 f i NetvarManager.obj
 0001:00062090       ?GetProp@RecvTable@@QAEPAVRecvProp@@H@Z 10063090 f i NetvarManager.obj
 0001:000620b0       ?PopulateNodes@NetvarTree@@AAEXPAVRecvTable@@PAV?$unordered_map@V?$basic_string@DU?$char_traits@D@std@@V?$allocator@D@2@@std@@V?$shared_ptr@UNode@NetvarTree@@@2@U?$hash@V?$basic_string@DU?$char_traits@D@std@@V?$allocator@D@2@@std@@@2@U?$equal_to@V?$basic_string@DU?$char_traits@D@std@@V?$allocator@D@2@@std@@@2@V?$allocator@U?$pair@$$CBV?$basic_string@DU?$char_traits@D@std@@V?$allocator@D@2@@std@@V?$shared_ptr@UNode@NetvarTree@@@2@@std@@@2@@std@@@Z 100630b0 f   NetvarManager.obj
 0001:000621b0       ?_Buyheadnode@?$_List_alloc@U?$_List_base_types@U?$pair@$$CBV?$basic_string@DU?$char_traits@D@std@@V?$allocator@D@2@@std@@V?$shared_ptr@UNode@NetvarTree@@@2@@std@@V?$allocator@U?$pair@$$CBV?$basic_string@DU?$char_traits@D@std@@V?$allocator@D@2@@std@@V?$shared_ptr@UNode@NetvarTree@@@2@@std@@@2@@std@@@std@@QAEPAU?$_List_node@U?$pair@$$CBV?$basic_string@DU?$char_traits@D@std@@V?$allocator@D@2@@std@@V?$shared_ptr@UNode@NetvarTree@@@2@@std@@PAX@2@XZ 100631b0 f i NetvarManager.obj
 0001:000621d0       ?_Destroy@?$_Ref_count_obj@UNode@NetvarTree@@@std@@EAEXXZ 100631d0 f i NetvarManager.obj
 0001:00062220       ?_Getptr@?$_Ref_count_obj@UNode@NetvarTree@@@std@@QAEPAUNode@NetvarTree@@XZ 10063220 f i NetvarManager.obj
 0001:00062231       _K32GetModuleInformation@16 10063231 f   kernel32:KERNEL32.dll
 0001:00062237       _SHGetKnownFolderPath@16   10063237 f   shell32:SHELL32.dll
 0001:0006223d       ?_Xlength_error@std@@YAXPBD@Z 1006323d f   msvcprt:MSVCP140.dll
 0001:00062243       __Xtime_get_ticks          10063243 f   msvcprt:MSVCP140.dll
 0001:00062249       __Thrd_sleep               10063249 f   msvcprt:MSVCP140.dll
 0001:0006224f       ?_Xout_of_range@std@@YAXPBD@Z 1006324f f   msvcprt:MSVCP140.dll
 0001:00062255       ??1_Fac_node@std@@QAE@XZ   10063255 f i msvcprt:locale0_implib.obj
 0001:000622b4       ??1_Fac_tidy_reg_t@std@@QAE@XZ 100632b4 f i msvcprt:locale0_implib.obj
 0001:000622db       ?_Facet_Register@std@@YAXPAV_Facet_base@1@@Z 100632db f   msvcprt:locale0_implib.obj
 0001:00062307       ?_Getgloballocale@locale@std@@CAPAV_Locimp@12@XZ 10063307 f   msvcprt:MSVCP140.dll
 0001:0006230d       ?_Execute_once@std@@YAHAAUonce_flag@1@P6GHPAX1PAPAX@Z1@Z 1006330d f   msvcprt:MSVCP140.dll
 0001:00062313       ?_Syserror_map@std@@YAPBDH@Z 10063313 f   msvcprt:MSVCP140.dll
 0001:00062319       ?_Winerror_map@std@@YAHH@Z 10063319 f   msvcprt:MSVCP140.dll
 0001:0006231f       ?_Winerror_message@std@@YAKKPADK@Z 1006331f f   msvcprt:MSVCP140.dll
 0001:00062374       ??$__crt_fast_encode_pointer@P6GHPAXW4_FILE_INFO_BY_HANDLE_CLASS@@0K@Z@@YAP6GHPAXW4_FILE_INFO_BY_HANDLE_CLASS@@0K@ZQ6GH010K@Z@Z 10063374 f i msvcprt:filesystem.obj
 0001:00062374       ??$__crt_fast_encode_pointer@P6GHPAU_RTL_CONDITION_VARIABLE@@PAU_RTL_CRITICAL_SECTION@@K@Z@@YAP6GHPAU_RTL_CONDITION_VARIABLE@@PAU_RTL_CRITICAL_SECTION@@K@ZQ6GH01K@Z@Z 10063374 f i MSVCRT:thread_safe_statics.obj
 0001:00062374       ??$__crt_fast_encode_pointer@P6GXPAU_RTL_CONDITION_VARIABLE@@@Z@@YAP6GXPAU_RTL_CONDITION_VARIABLE@@@ZQ6GX0@Z@Z 10063374 f i MSVCRT:thread_safe_statics.obj
 0001:0006239e       ___std_fs_close_handle@4   1006339e f   msvcprt:filesystem.obj
 0001:000623be       ___std_fs_code_page@0      100633be f   msvcprt:filesystem.obj
 0001:000623dc       ___std_fs_convert_narrow_to_wide@20 100633dc f   msvcprt:filesystem.obj
 0001:00062410       ___std_fs_convert_wide_to_narrow@20 10063410 f   msvcprt:filesystem.obj
 0001:000624c3       ___std_fs_create_directory@4 100634c3 f   msvcprt:filesystem.obj
 0001:000624fe       ___std_fs_directory_iterator_advance@8 100634fe f   msvcprt:filesystem.obj
 0001:0006251f       ___std_fs_directory_iterator_close@4 1006351f f   msvcprt:filesystem.obj
 0001:0006253f       ___std_fs_directory_iterator_open@12 1006353f f   msvcprt:filesystem.obj
 0001:0006259f       ___std_fs_get_stats@16     1006359f f   msvcprt:filesystem.obj
 0001:000628e2       ___std_fs_open_handle@16   100638e2 f   msvcprt:filesystem.obj
 0001:00062916       ___std_fs_remove@4         10063916 f   msvcprt:filesystem.obj
 0001:00062a63       ___std_fs_rename@8         10063a63 f   msvcprt:filesystem.obj
 0001:00062a86       ?_Fiopen@std@@YAPAU_iobuf@@PB_WHH@Z 10063a86 f   msvcprt:MSVCP140.dll
 0001:00062a8c       ?showmanyc@?$basic_streambuf@DU?$char_traits@D@std@@@std@@MAE_JXZ 10063a8c f   msvcprt:MSVCP140.dll
 0001:00062a92       ?uncaught_exception@std@@YA_NXZ 10063a92 f   msvcprt:MSVCP140.dll
 0001:00062a98       ?_Fiopen@std@@YAPAU_iobuf@@PBDHH@Z 10063a98 f   msvcprt:MSVCP140.dll
 0001:00062a9e       ??_U@YAPAXI@Z              10063a9e f   MSVCRT:new_array.obj
 0001:00062aa7       @__security_check_cookie@4 10063aa7 f   MSVCRT:secchk.obj
 0001:00062ac0       __ftoui3                   10063ac0 f   MSVCRT:ftol3.obj
 0001:00062acf       __ftoul3                   10063acf f   MSVCRT:ftol3.obj
 0001:00062ade       __ftol3                    10063ade f   MSVCRT:ftol3.obj
 0001:00062aeb       __ftol3_NaN                10063aeb f   MSVCRT:ftol3.obj
 0001:00062b03       __ftol3_work               10063b03 f   MSVCRT:ftol3.obj
 0001:00062b89       __ftol3_common             10063b89 f   MSVCRT:ftol3.obj
 0001:00062c4b       __ftol3_arg_error          10063c4b f   MSVCRT:ftol3.obj
 0001:00062c5d       __ftol3_except             10063c5d f   MSVCRT:ftol3.obj
 0001:00062ca1       __dtoui3                   10063ca1 f   MSVCRT:ftol3.obj
 0001:00062cb0       __dtoul3                   10063cb0 f   MSVCRT:ftol3.obj
 0001:00062cbf       __dtol3                    10063cbf f   MSVCRT:ftol3.obj
 0001:00062ccc       __dtol3_NaN                10063ccc f   MSVCRT:ftol3.obj
 0001:00062ce9       __dtol3_work               10063ce9 f   MSVCRT:ftol3.obj
 0001:00062dd0       __ultod3                   10063dd0 f   MSVCRT:ftol3.obj
 0001:00062e10       __ltod3                    10063e10 f   MSVCRT:ftol3.obj
 0001:00062e37       ??_L@YGXPAXIIP6EX0@Z1@Z    10063e37 f   MSVCRT:ehvecctr.obj
 0001:00062eab       ??_M@YGXPAXIIP6EX0@Z@Z     10063eab f   MSVCRT:ehvecdtr.obj
 0001:00062f30       ?__ArrayUnwind@@YGXPAXIIP6EX0@Z@Z 10063f30 f   MSVCRT:ehvecdtr.obj
 0001:00062fa9       ??2@YAPAXI@Z               10063fa9 f   MSVCRT:new_scalar.obj
 0001:00062fd9       ??3@YAXPAXI@Z              10063fd9 f   MSVCRT:delete_scalar_size.obj
 0001:00062fe7       ??_V@YAXPAX@Z              10063fe7 f   MSVCRT:delete_array.obj
 0001:00063030       ___scrt_acquire_startup_lock 10064030 f   MSVCRT:utility.obj
 0001:00063062       ___scrt_dllmain_after_initialize_c 10064062 f   MSVCRT:utility.obj
 0001:0006308d       ___scrt_dllmain_before_initialize_c 1006408d f   MSVCRT:utility.obj
 0001:0006309b       ___scrt_dllmain_crt_thread_attach 1006409b f   MSVCRT:utility.obj
 0001:000630ba       ___scrt_dllmain_crt_thread_detach 100640ba f   MSVCRT:utility.obj
 0001:000630c7       ___scrt_dllmain_exception_filter 100640c7 f   MSVCRT:utility.obj
 0001:000630fb       ___scrt_dllmain_uninitialize_c 100640fb f   MSVCRT:utility.obj
 0001:0006311e       ___scrt_dllmain_uninitialize_critical 1006411e f   MSVCRT:utility.obj
 0001:0006312b       ___scrt_initialize_crt     1006412b f   MSVCRT:utility.obj
 0001:00063164       ___scrt_initialize_onexit_tables 10064164 f   MSVCRT:utility.obj
 0001:00063209       ___scrt_is_nonwritable_in_current_image 10064209 f   MSVCRT:utility.obj
 0001:0006329d       ___scrt_release_startup_lock 1006429d f   MSVCRT:utility.obj
 0001:000632ba       ___scrt_uninitialize_crt   100642ba f   MSVCRT:utility.obj
 0001:000632e2       __onexit                   100642e2 f   MSVCRT:utility.obj
 0001:0006331d       _atexit                    1006431d f   MSVCRT:utility.obj
 0001:00063332       ??_Gtype_info@@UAEPAXI@Z   10064332 f i MSVCRT:std_type_info_static.obj
 0001:00063332       ??_Etype_info@@UAEPAXI@Z   10064332 f i MSVCRT:std_type_info_static.obj
 0001:00063360       __alldiv                   10064360 f   MSVCRT:lldiv.obj
 0001:00063410       __allmul                   10064410 f   MSVCRT:llmul.obj
 0001:00063444       ___raise_securityfailure   10064444 f   MSVCRT:gs_report.obj
 0001:0006346c       ___report_gsfailure        1006446c f   MSVCRT:gs_report.obj
 0001:00063565       ___report_rangecheckfailure 10064565 f   MSVCRT:gs_report.obj
 0001:00063571       ___report_securityfailure  10064571 f   MSVCRT:gs_report.obj
 0001:00063771       __Init_thread_abort        10064771 f   MSVCRT:thread_safe_statics.obj
 0001:00063795       __Init_thread_footer       10064795 f   MSVCRT:thread_safe_statics.obj
 0001:000637df       __Init_thread_header       100647df f   MSVCRT:thread_safe_statics.obj
 0001:00063831       __Init_thread_notify       10064831 f   MSVCRT:thread_safe_statics.obj
 0001:00063873       __Init_thread_wait         10064873 f   MSVCRT:thread_safe_statics.obj
 0001:000638e0       __alloca_probe             100648e0 f   MSVCRT:chkstk.obj
 0001:000638e0       __chkstk                   100648e0 f   MSVCRT:chkstk.obj
 0001:00063910       __ftol2_sse                10064910 f   MSVCRT:ftol2.obj
 0001:00063919       __ftol2_pentium4           10064919 f   MSVCRT:ftol2.obj
 0001:0006392c       __ftol2_sse_excpt          1006492c f   MSVCRT:ftol2.obj
 0001:00063950       __ftol2                    10064950 f   MSVCRT:ftol2.obj
 0001:000639d0       __alloca_probe_16          100649d0 f   MSVCRT:alloca16.obj
 0001:000639e6       __alloca_probe_8           100649e6     MSVCRT:alloca16.obj
 0001:00063a00       __allshl                   10064a00 f   MSVCRT:llshl.obj
 0001:00063d3f       __DllMainCRTStartup@12     10064d3f f   MSVCRT:dll_dllmain.obj
 0001:00063d62       @_guard_check_icall_nop@4  10064d62 f i MSVCRT:guard_support.obj
 0001:00063d70       __SEH_prolog4              10064d70 f   MSVCRT:sehprolg4.obj
 0001:00063db6       __SEH_epilog4              10064db6 f   MSVCRT:sehprolg4.obj
 0001:00063dcb       __except_handler4          10064dcb f   MSVCRT:chandler4gs.obj
 0001:00063dee       ??0bad_alloc@std@@QAE@ABV01@@Z 10064dee f i MSVCRT:throw_bad_alloc.obj
 0001:00063e09       ??0bad_alloc@std@@QAE@XZ   10064e09 f i MSVCRT:throw_bad_alloc.obj
 0001:00063e21       ??0bad_array_new_length@std@@QAE@ABV01@@Z 10064e21 f i MSVCRT:throw_bad_alloc.obj
 0001:00063e3c       ??0bad_array_new_length@std@@QAE@XZ 10064e3c f i MSVCRT:throw_bad_alloc.obj
 0001:00063e54       ??1bad_array_new_length@std@@UAE@XZ 10064e54 f i MSVCRT:throw_bad_alloc.obj
 0001:00063e54       ??1bad_alloc@std@@UAE@XZ   10064e54 f i MSVCRT:throw_bad_alloc.obj
 0001:00063e65       ??_Gbad_alloc@std@@UAEPAXI@Z 10064e65 f i MSVCRT:throw_bad_alloc.obj
 0001:00063e65       ??_Ebad_alloc@std@@UAEPAXI@Z 10064e65 f i MSVCRT:throw_bad_alloc.obj
 0001:00063e65       ??_Gbad_array_new_length@std@@UAEPAXI@Z 10064e65 f i MSVCRT:throw_bad_alloc.obj
 0001:00063e65       ??_Ebad_array_new_length@std@@UAEPAXI@Z 10064e65 f i MSVCRT:throw_bad_alloc.obj
 0001:00063e92       ?__scrt_throw_std_bad_alloc@@YAXXZ 10064e92 f   MSVCRT:throw_bad_alloc.obj
 0001:00063eaf       ?__scrt_throw_std_bad_array_new_length@@YAXXZ 10064eaf f   MSVCRT:throw_bad_alloc.obj
 0001:00063ecc       ??3@YAXPAX@Z               10064ecc f   MSVCRT:delete_scalar.obj
 0001:00063ed2       ___isa_available_init      10064ed2 f   MSVCRT:cpu_disp.obj
 0001:00064069       __get_startup_argv_mode    10065069 f   MSVCRT:argv_mode.obj
 0001:0006406d       ___scrt_is_ucrt_dll_in_use 1006506d f   MSVCRT:ucrt_detection.obj
 0001:00064079       ___scrt_fastfail           10065079 f   MSVCRT:utility_desktop.obj
 0001:00064193       __crt_debugger_hook        10065193 f   MSVCRT:utility_desktop.obj
 0001:000641e8       ___security_init_cookie    100651e8 f   MSVCRT:gs_support.obj
 0001:00064233       ?__scrt_initialize_type_info@@YAXXZ 10065233 f   MSVCRT:tncleanup.obj
 0001:0006423f       ?__scrt_uninitialize_type_info@@YAXXZ 1006523f f   MSVCRT:tncleanup.obj
 0001:0006424b       ___scrt_initialize_default_local_stdio_options 1006524b f   MSVCRT:default_local_stdio_options.obj
 0001:00064268       ___scrt_get_dyn_tls_init_callback 10065268 f   MSVCRT:dyn_tls_init.obj
 0001:0006426e       __RTC_Initialize           1006526e f   MSVCRT:initsect.obj
 0001:0006429a       __RTC_Terminate            1006529a f   MSVCRT:initsect.obj
 0001:000642c6       _ImmGetContext@4           100652c6 f   imm32:IMM32.dll
 0001:000642cc       _ImmSetCompositionWindow@8 100652cc f   imm32:IMM32.dll
 0001:000642d2       _strstr                    100652d2 f   vcruntime:VCRUNTIME140.dll
 0001:000642d8       _memcpy                    100652d8 f   vcruntime:VCRUNTIME140.dll
 0001:000642de       _memset                    100652de f   vcruntime:VCRUNTIME140.dll
 0001:000642e4       __purecall                 100652e4 f   vcruntime:VCRUNTIME140.dll
 0001:000642ea       ___std_exception_copy      100652ea f   vcruntime:VCRUNTIME140.dll
 0001:000642f0       ___std_exception_destroy   100652f0 f   vcruntime:VCRUNTIME140.dll
 0001:000642f6       __CxxThrowException@8      100652f6 f   vcruntime:VCRUNTIME140.dll
 0001:000642fc       ___CxxFrameHandler3        100652fc f   vcruntime:VCRUNTIME140.dll
 0001:00064302       _memmove                   10065302 f   vcruntime:VCRUNTIME140.dll
 0001:00064308       _memcmp                    10065308 f   vcruntime:VCRUNTIME140.dll
 0001:0006430e       _memchr                    1006530e f   vcruntime:VCRUNTIME140.dll
 0001:00064314       _strchr                    10065314 f   vcruntime:VCRUNTIME140.dll
 0001:0006431a       ___std_terminate           1006531a f   vcruntime:VCRUNTIME140.dll
 0001:00064320       __except_handler4_common   10065320 f   vcruntime:VCRUNTIME140.dll
 0001:00064326       ___std_type_info_destroy_list 10065326 f   vcruntime:VCRUNTIME140.dll
 0001:0006432c       __libm_sse2_cos_precise    1006532c f   ucrt:api-ms-win-crt-math-l1-1-0.dll
 0001:00064332       __libm_sse2_sin_precise    10065332 f   ucrt:api-ms-win-crt-math-l1-1-0.dll
 0001:00064338       __libm_sse2_sqrt_precise   10065338 f   ucrt:api-ms-win-crt-math-l1-1-0.dll
 0001:0006433e       __libm_sse2_pow_precise    1006533e f   ucrt:api-ms-win-crt-math-l1-1-0.dll
 0001:00064344       _free                      10065344 f   ucrt:api-ms-win-crt-heap-l1-1-0.dll
 0001:0006434a       _malloc                    1006534a f   ucrt:api-ms-win-crt-heap-l1-1-0.dll
 0001:00064350       __CIfmod                   10065350 f   ucrt:api-ms-win-crt-math-l1-1-0.dll
 0001:00064356       _ceil                      10065356 f   ucrt:api-ms-win-crt-math-l1-1-0.dll
 0001:0006435c       _floor                     1006535c f   ucrt:api-ms-win-crt-math-l1-1-0.dll
 0001:00064362       _terminate                 10065362 f   ucrt:api-ms-win-crt-runtime-l1-1-0.dll
 0001:00064368       __CIatan2                  10065368 f   ucrt:api-ms-win-crt-math-l1-1-0.dll
 0001:0006436e       __libm_sse2_atan_precise   1006536e f   ucrt:api-ms-win-crt-math-l1-1-0.dll
 0001:00064374       __except1                  10065374 f   ucrt:api-ms-win-crt-math-l1-1-0.dll
 0001:0006437a       __callnewh                 1006537a f   ucrt:api-ms-win-crt-heap-l1-1-0.dll
 0001:00064380       __seh_filter_dll           10065380 f   ucrt:api-ms-win-crt-runtime-l1-1-0.dll
 0001:00064386       __configure_narrow_argv    10065386 f   ucrt:api-ms-win-crt-runtime-l1-1-0.dll
 0001:0006438c       __initialize_narrow_environment 1006538c f   ucrt:api-ms-win-crt-runtime-l1-1-0.dll
 0001:00064392       __initialize_onexit_table  10065392 f   ucrt:api-ms-win-crt-runtime-l1-1-0.dll
 0001:00064398       __register_onexit_function 10065398 f   ucrt:api-ms-win-crt-runtime-l1-1-0.dll
 0001:0006439e       __execute_onexit_table     1006539e f   ucrt:api-ms-win-crt-runtime-l1-1-0.dll
 0001:000643a4       __crt_atexit               100653a4 f   ucrt:api-ms-win-crt-runtime-l1-1-0.dll
 0001:000643aa       __cexit                    100653aa f   ucrt:api-ms-win-crt-runtime-l1-1-0.dll
 0001:000643b0       __initterm                 100653b0 f   ucrt:api-ms-win-crt-runtime-l1-1-0.dll
 0001:000643b6       __initterm_e               100653b6 f   ucrt:api-ms-win-crt-runtime-l1-1-0.dll
 0001:000643bc       _IsProcessorFeaturePresent@4 100653bc f   kernel32:KERNEL32.dll
 0001:000643c2       ___scrt_stub_for_acrt_thread_detach 100653c2 f   MSVCRT:ucrt_stubs.obj
 0001:000643c2       ___vcrt_thread_attach      100653c2 f   MSVCRT:ucrt_stubs.obj
 0001:000643c2       ___vcrt_uninitialize_critical 100653c2 f   MSVCRT:ucrt_stubs.obj
 0001:000643c2       ___acrt_thread_attach      100653c2 f   MSVCRT:ucrt_stubs.obj
 0001:000643c2       ___acrt_uninitialize       100653c2 f   MSVCRT:ucrt_stubs.obj
 0001:000643c2       ___scrt_stub_for_acrt_uninitialize_critical 100653c2 f   MSVCRT:ucrt_stubs.obj
 0001:000643c2       ___acrt_thread_detach      100653c2 f   MSVCRT:ucrt_stubs.obj
 0001:000643c2       ___scrt_stub_for_acrt_uninitialize 100653c2 f   MSVCRT:ucrt_stubs.obj
 0001:000643c2       ___vcrt_initialize         100653c2 f   MSVCRT:ucrt_stubs.obj
 0001:000643c2       ___acrt_uninitialize_critical 100653c2 f   MSVCRT:ucrt_stubs.obj
 0001:000643c2       ___scrt_stub_for_acrt_initialize 100653c2 f   MSVCRT:ucrt_stubs.obj
 0001:000643c2       ___vcrt_uninitialize       100653c2 f   MSVCRT:ucrt_stubs.obj
 0001:000643c2       ___vcrt_thread_detach      100653c2 f   MSVCRT:ucrt_stubs.obj
 0001:000643c2       ___scrt_stub_for_acrt_thread_attach 100653c2 f   MSVCRT:ucrt_stubs.obj
 0001:000643c2       ___acrt_initialize         100653c2 f   MSVCRT:ucrt_stubs.obj
 0001:000643c5       __is_c_termination_complete 100653c5 f   MSVCRT:ucrt_stubs.obj
 0001:000643c5       ___scrt_stub_for_is_c_termination_complete 100653c5 f   MSVCRT:ucrt_stubs.obj
 0002:00000000       __imp__ImmGetContext@4     10068000     imm32:IMM32.dll
 0002:00000004       __imp__ImmSetCompositionWindow@8 10068004     imm32:IMM32.dll
 0002:00000008       \177IMM32_NULL_THUNK_DATA  10068008     imm32:IMM32.dll
 0002:0000000c       __imp__K32GetModuleInformation@16 1006800c     kernel32:KERNEL32.dll
 0002:00000010       __imp__Sleep@4             10068010     kernel32:KERNEL32.dll
 0002:00000014       __imp__CreateThread@24     10068014     kernel32:KERNEL32.dll
 0002:00000018       __imp__DisableThreadLibraryCalls@4 10068018     kernel32:KERNEL32.dll
 0002:0000001c       __imp__FreeLibraryAndExitThread@8 1006801c     kernel32:KERNEL32.dll
 0002:00000020       __imp__GetModuleHandleW@4  10068020     kernel32:KERNEL32.dll
 0002:00000024       __imp__QueryPerformanceCounter@4 10068024     kernel32:KERNEL32.dll
 0002:00000028       __imp__QueryPerformanceFrequency@4 10068028     kernel32:KERNEL32.dll
 0002:0000002c       __imp__GlobalAlloc@8       1006802c     kernel32:KERNEL32.dll
 0002:00000030       __imp__GlobalUnlock@4      10068030     kernel32:KERNEL32.dll
 0002:00000034       __imp__GlobalLock@4        10068034     kernel32:KERNEL32.dll
 0002:00000038       __imp__GetProcAddress@8    10068038     kernel32:KERNEL32.dll
 0002:0000003c       __imp__GetSystemTimeAsFileTime@4 1006803c     kernel32:KERNEL32.dll
 0002:00000040       __imp__GetCurrentThreadId@0 10068040     kernel32:KERNEL32.dll
 0002:00000044       __imp__GetCurrentProcessId@0 10068044     kernel32:KERNEL32.dll
 0002:00000048       __imp__IsDebuggerPresent@0 10068048     kernel32:KERNEL32.dll
 0002:0000004c       __imp__CreateEventW@16     1006804c     kernel32:KERNEL32.dll
 0002:00000050       __imp__WaitForSingleObjectEx@12 10068050     kernel32:KERNEL32.dll
 0002:00000054       __imp__ResetEvent@4        10068054     kernel32:KERNEL32.dll
 0002:00000058       __imp__SetEvent@4          10068058     kernel32:KERNEL32.dll
 0002:0000005c       __imp__DeleteCriticalSection@4 1006805c     kernel32:KERNEL32.dll
 0002:00000060       __imp__InitializeCriticalSectionAndSpinCount@8 10068060     kernel32:KERNEL32.dll
 0002:00000064       __imp__LeaveCriticalSection@4 10068064     kernel32:KERNEL32.dll
 0002:00000068       __imp__EnterCriticalSection@4 10068068     kernel32:KERNEL32.dll
 0002:0000006c       __imp__IsProcessorFeaturePresent@4 1006806c     kernel32:KERNEL32.dll
 0002:00000070       __imp__TerminateProcess@8  10068070     kernel32:KERNEL32.dll
 0002:00000074       __imp__SetUnhandledExceptionFilter@4 10068074     kernel32:KERNEL32.dll
 0002:00000078       __imp__VirtualProtect@16   10068078     kernel32:KERNEL32.dll
 0002:0000007c       __imp__WideCharToMultiByte@32 1006807c     kernel32:KERNEL32.dll
 0002:00000080       __imp__MultiByteToWideChar@24 10068080     kernel32:KERNEL32.dll
 0002:00000084       __imp__MoveFileExW@12      10068084     kernel32:KERNEL32.dll
 0002:00000088       __imp__SetLastError@4      10068088     kernel32:KERNEL32.dll
 0002:0000008c       __imp__GetLastError@0      1006808c     kernel32:KERNEL32.dll
 0002:00000090       __imp__CloseHandle@4       10068090     kernel32:KERNEL32.dll
 0002:00000094       __imp__AreFileApisANSI@0   10068094     kernel32:KERNEL32.dll
 0002:00000098       __imp__RemoveDirectoryW@4  10068098     kernel32:KERNEL32.dll
 0002:0000009c       __imp__GetFileInformationByHandle@8 1006809c     kernel32:KERNEL32.dll
 0002:000000a0       __imp__GetFileAttributesExW@12 100680a0     kernel32:KERNEL32.dll
 0002:000000a4       __imp__FindNextFileW@8     100680a4     kernel32:KERNEL32.dll
 0002:000000a8       __imp__FindFirstFileExW@24 100680a8     kernel32:KERNEL32.dll
 0002:000000ac       __imp__FindClose@4         100680ac     kernel32:KERNEL32.dll
 0002:000000b0       __imp__DeleteFileW@4       100680b0     kernel32:KERNEL32.dll
 0002:000000b4       __imp__CreateFileW@28      100680b4     kernel32:KERNEL32.dll
 0002:000000b8       __imp__CreateDirectoryW@8  100680b8     kernel32:KERNEL32.dll
 0002:000000bc       __imp__InitializeSListHead@4 100680bc     kernel32:KERNEL32.dll
 0002:000000c0       __imp__GetModuleHandleA@4  100680c0     kernel32:KERNEL32.dll
 0002:000000c4       __imp__UnhandledExceptionFilter@4 100680c4     kernel32:KERNEL32.dll
 0002:000000c8       __imp__GetCurrentProcess@0 100680c8     kernel32:KERNEL32.dll
 0002:000000cc       \177KERNEL32_NULL_THUNK_DATA 100680cc     kernel32:KERNEL32.dll
 0002:000000d0       __imp_?egptr@?$basic_streambuf@DU?$char_traits@D@std@@@std@@IBEPADXZ 100680d0     msvcprt:MSVCP140.dll
 0002:000000d4       __imp_?gbump@?$basic_streambuf@DU?$char_traits@D@std@@@std@@IAEXH@Z 100680d4     msvcprt:MSVCP140.dll
 0002:000000d8       __imp_?setg@?$basic_streambuf@DU?$char_traits@D@std@@@std@@IAEXPAD00@Z 100680d8     msvcprt:MSVCP140.dll
 0002:000000dc       __imp_?epptr@?$basic_streambuf@DU?$char_traits@D@std@@@std@@IBEPADXZ 100680dc     msvcprt:MSVCP140.dll
 0002:000000e0       __imp_?_Gndec@?$basic_streambuf@DU?$char_traits@D@std@@@std@@IAEPADXZ 100680e0     msvcprt:MSVCP140.dll
 0002:000000e4       __imp_?_Gninc@?$basic_streambuf@DU?$char_traits@D@std@@@std@@IAEPADXZ 100680e4     msvcprt:MSVCP140.dll
 0002:000000e8       __imp_?_Gnavail@?$basic_streambuf@DU?$char_traits@D@std@@@std@@IBE_JXZ 100680e8     msvcprt:MSVCP140.dll
 0002:000000ec       __imp_?pbump@?$basic_streambuf@DU?$char_traits@D@std@@@std@@IAEXH@Z 100680ec     msvcprt:MSVCP140.dll
 0002:000000f0       __imp_?_Pninc@?$basic_streambuf@DU?$char_traits@D@std@@@std@@IAEPADXZ 100680f0     msvcprt:MSVCP140.dll
 0002:000000f4       __imp_?_Pnavail@?$basic_streambuf@DU?$char_traits@D@std@@@std@@IBE_JXZ 100680f4     msvcprt:MSVCP140.dll
 0002:000000f8       __imp_?_Init@?$basic_streambuf@DU?$char_traits@D@std@@@std@@IAEXXZ 100680f8     msvcprt:MSVCP140.dll
 0002:000000fc       __imp_?_Init@?$basic_streambuf@DU?$char_traits@D@std@@@std@@IAEXPAPAD0PAH001@Z 100680fc     msvcprt:MSVCP140.dll
 0002:00000100       __imp_?xsgetn@?$basic_streambuf@DU?$char_traits@D@std@@@std@@MAE_JPAD_J@Z 10068100     msvcprt:MSVCP140.dll
 0002:00000104       __imp_?xsputn@?$basic_streambuf@DU?$char_traits@D@std@@@std@@MAE_JPBD_J@Z 10068104     msvcprt:MSVCP140.dll
 0002:00000108       __imp_??1?$basic_ios@DU?$char_traits@D@std@@@std@@UAE@XZ 10068108     msvcprt:MSVCP140.dll
 0002:0000010c       __imp_?setstate@?$basic_ios@DU?$char_traits@D@std@@@std@@QAEXH_N@Z 1006810c     msvcprt:MSVCP140.dll
 0002:00000110       __imp_??0?$basic_ios@DU?$char_traits@D@std@@@std@@IAE@XZ 10068110     msvcprt:MSVCP140.dll
 0002:00000114       __imp_??0?$basic_ostream@DU?$char_traits@D@std@@@std@@QAE@PAV?$basic_streambuf@DU?$char_traits@D@std@@@1@_N@Z 10068114     msvcprt:MSVCP140.dll
 0002:00000118       __imp_??1?$basic_ostream@DU?$char_traits@D@std@@@std@@UAE@XZ 10068118     msvcprt:MSVCP140.dll
 0002:0000011c       __imp_?write@?$basic_ostream@DU?$char_traits@D@std@@@std@@QAEAAV12@PBD_J@Z 1006811c     msvcprt:MSVCP140.dll
 0002:00000120       __imp_??0?$basic_istream@DU?$char_traits@D@std@@@std@@QAE@PAV?$basic_streambuf@DU?$char_traits@D@std@@@1@_N@Z 10068120     msvcprt:MSVCP140.dll
 0002:00000124       __imp_??1?$basic_istream@DU?$char_traits@D@std@@@std@@UAE@XZ 10068124     msvcprt:MSVCP140.dll
 0002:00000128       __imp_?read@?$basic_istream@DU?$char_traits@D@std@@@std@@QAEAAV12@PAD_J@Z 10068128     msvcprt:MSVCP140.dll
 0002:0000012c       __imp_?_Fiopen@std@@YAPAU_iobuf@@PB_WHH@Z 1006812c     msvcprt:MSVCP140.dll
 0002:00000130       __imp_?showmanyc@?$basic_streambuf@DU?$char_traits@D@std@@@std@@MAE_JXZ 10068130     msvcprt:MSVCP140.dll
 0002:00000134       __imp_?id@?$codecvt@DDU_Mbstatet@@@std@@2V0locale@2@A 10068134     msvcprt:MSVCP140.dll
 0002:00000138       __imp_?uncaught_exception@std@@YA_NXZ 10068138     msvcprt:MSVCP140.dll
 0002:0000013c       __imp_?flags@ios_base@std@@QBEHXZ 1006813c     msvcprt:MSVCP140.dll
 0002:00000140       __imp_?width@ios_base@std@@QBE_JXZ 10068140     msvcprt:MSVCP140.dll
 0002:00000144       __imp_?width@ios_base@std@@QAE_J_J@Z 10068144     msvcprt:MSVCP140.dll
 0002:00000148       __imp_?sputc@?$basic_streambuf@DU?$char_traits@D@std@@@std@@QAEHD@Z 10068148     msvcprt:MSVCP140.dll
 0002:0000014c       __imp_?sputn@?$basic_streambuf@DU?$char_traits@D@std@@@std@@QAE_JPBD_J@Z 1006814c     msvcprt:MSVCP140.dll
 0002:00000150       __imp_?tie@?$basic_ios@DU?$char_traits@D@std@@@std@@QBEPAV?$basic_ostream@DU?$char_traits@D@std@@@2@XZ 10068150     msvcprt:MSVCP140.dll
 0002:00000154       __imp_?rdbuf@?$basic_ios@DU?$char_traits@D@std@@@std@@QBEPAV?$basic_streambuf@DU?$char_traits@D@std@@@2@XZ 10068154     msvcprt:MSVCP140.dll
 0002:00000158       __imp_?fill@?$basic_ios@DU?$char_traits@D@std@@@std@@QBEDXZ 10068158     msvcprt:MSVCP140.dll
 0002:0000015c       __imp_?_Osfx@?$basic_ostream@DU?$char_traits@D@std@@@std@@QAEXXZ 1006815c     msvcprt:MSVCP140.dll
 0002:00000160       __imp_?flush@?$basic_ostream@DU?$char_traits@D@std@@@std@@QAEAAV12@XZ 10068160     msvcprt:MSVCP140.dll
 0002:00000164       __imp_?_Fiopen@std@@YAPAU_iobuf@@PBDHH@Z 10068164     msvcprt:MSVCP140.dll
 0002:00000168       __imp_?good@ios_base@std@@QBE_NXZ 10068168     msvcprt:MSVCP140.dll
 0002:0000016c       __imp_?gptr@?$basic_streambuf@DU?$char_traits@D@std@@@std@@IBEPADXZ 1006816c     msvcprt:MSVCP140.dll
 0002:00000170       __imp_?eback@?$basic_streambuf@DU?$char_traits@D@std@@@std@@IBEPADXZ 10068170     msvcprt:MSVCP140.dll
 0002:00000174       __imp_?getloc@?$basic_streambuf@DU?$char_traits@D@std@@@std@@QBE?AVlocale@2@XZ 10068174     msvcprt:MSVCP140.dll
 0002:00000178       __imp_?_Winerror_message@std@@YAKKPADK@Z 10068178     msvcprt:MSVCP140.dll
 0002:0000017c       __imp_?_Winerror_map@std@@YAHH@Z 1006817c     msvcprt:MSVCP140.dll
 0002:00000180       __imp_?_Syserror_map@std@@YAPBDH@Z 10068180     msvcprt:MSVCP140.dll
 0002:00000184       __imp_?_Execute_once@std@@YAHAAUonce_flag@1@P6GHPAX1PAPAX@Z1@Z 10068184     msvcprt:MSVCP140.dll
 0002:00000188       __imp_?_Getcat@?$codecvt@DDU_Mbstatet@@@std@@SAIPAPBVfacet@locale@2@PBV42@@Z 10068188     msvcprt:MSVCP140.dll
 0002:0000018c       __imp_?unshift@?$codecvt@DDU_Mbstatet@@@std@@QBEHAAU_Mbstatet@@PAD1AAPAD@Z 1006818c     msvcprt:MSVCP140.dll
 0002:00000190       __imp_?out@?$codecvt@DDU_Mbstatet@@@std@@QBEHAAU_Mbstatet@@PBD1AAPBDPAD3AAPAD@Z 10068190     msvcprt:MSVCP140.dll
 0002:00000194       __imp_?in@?$codecvt@DDU_Mbstatet@@@std@@QBEHAAU_Mbstatet@@PBD1AAPBDPAD3AAPAD@Z 10068194     msvcprt:MSVCP140.dll
 0002:00000198       __imp_??0?$basic_streambuf@DU?$char_traits@D@std@@@std@@IAE@XZ 10068198     msvcprt:MSVCP140.dll
 0002:0000019c       __imp_?always_noconv@codecvt_base@std@@QBE_NXZ 1006819c     msvcprt:MSVCP140.dll
 0002:000001a0       __imp_?_Getgloballocale@locale@std@@CAPAV_Locimp@12@XZ 100681a0     msvcprt:MSVCP140.dll
 0002:000001a4       __imp_??Bid@locale@std@@QAEIXZ 100681a4     msvcprt:MSVCP140.dll
 0002:000001a8       __imp_??1?$basic_streambuf@DU?$char_traits@D@std@@@std@@UAE@XZ 100681a8     msvcprt:MSVCP140.dll
 0002:000001ac       __imp_??1_Lockit@std@@QAE@XZ 100681ac     msvcprt:MSVCP140.dll
 0002:000001b0       __imp_??0_Lockit@std@@QAE@H@Z 100681b0     msvcprt:MSVCP140.dll
 0002:000001b4       __imp_?pptr@?$basic_streambuf@DU?$char_traits@D@std@@@std@@IBEPADXZ 100681b4     msvcprt:MSVCP140.dll
 0002:000001b8       __imp_?_Xout_of_range@std@@YAXPBD@Z 100681b8     msvcprt:MSVCP140.dll
 0002:000001bc       __imp___Thrd_sleep         100681bc     msvcprt:MSVCP140.dll
 0002:000001c0       __imp___Xtime_get_ticks    100681c0     msvcprt:MSVCP140.dll
 0002:000001c4       __imp_?_Xlength_error@std@@YAXPBD@Z 100681c4     msvcprt:MSVCP140.dll
 0002:000001c8       \177MSVCP140_NULL_THUNK_DATA 100681c8     msvcprt:MSVCP140.dll
 0002:000001cc       __imp__SHGetKnownFolderPath@16 100681cc     shell32:SHELL32.dll
 0002:000001d0       \177SHELL32_NULL_THUNK_DATA 100681d0     shell32:SHELL32.dll
 0002:000001d4       __imp__SetWindowLongA@12   100681d4     user32:USER32.dll
 0002:000001d8       __imp__CallWindowProcA@20  100681d8     user32:USER32.dll
 0002:000001dc       __imp__EmptyClipboard@0    100681dc     user32:USER32.dll
 0002:000001e0       __imp__GetClipboardData@4  100681e0     user32:USER32.dll
 0002:000001e4       __imp__SetClipboardData@8  100681e4     user32:USER32.dll
 0002:000001e8       __imp__CloseClipboard@0    100681e8     user32:USER32.dll
 0002:000001ec       __imp__OpenClipboard@4     100681ec     user32:USER32.dll
 0002:000001f0       __imp__SetCursor@4         100681f0     user32:USER32.dll
 0002:000001f4       __imp__GetClientRect@8     100681f4     user32:USER32.dll
 0002:000001f8       __imp__GetKeyState@4       100681f8     user32:USER32.dll
 0002:000001fc       __imp__MessageBoxA@16      100681fc     user32:USER32.dll
 0002:00000200       __imp__GetAsyncKeyState@4  10068200     user32:USER32.dll
 0002:00000204       __imp__FindWindowA@8       10068204     user32:USER32.dll
 0002:00000208       \177USER32_NULL_THUNK_DATA 10068208     user32:USER32.dll
 0002:0000020c       __imp____std_terminate     1006820c     vcruntime:VCRUNTIME140.dll
 0002:00000210       __imp___except_handler4_common 10068210     vcruntime:VCRUNTIME140.dll
 0002:00000214       __imp__strchr              10068214     vcruntime:VCRUNTIME140.dll
 0002:00000218       __imp__memchr              10068218     vcruntime:VCRUNTIME140.dll
 0002:0000021c       __imp__memcmp              1006821c     vcruntime:VCRUNTIME140.dll
 0002:00000220       __imp____CxxFrameHandler3  10068220     vcruntime:VCRUNTIME140.dll
 0002:00000224       __imp____std_type_info_destroy_list 10068224     vcruntime:VCRUNTIME140.dll
 0002:00000228       __imp____std_exception_destroy 10068228     vcruntime:VCRUNTIME140.dll
 0002:0000022c       __imp____std_exception_copy 1006822c     vcruntime:VCRUNTIME140.dll
 0002:00000230       __imp___purecall           10068230     vcruntime:VCRUNTIME140.dll
 0002:00000234       __imp__memset              10068234     vcruntime:VCRUNTIME140.dll
 0002:00000238       __imp__memcpy              10068238     vcruntime:VCRUNTIME140.dll
 0002:0000023c       __imp__strstr              1006823c     vcruntime:VCRUNTIME140.dll
 0002:00000240       __imp___CxxThrowException@8 10068240     vcruntime:VCRUNTIME140.dll
 0002:00000244       __imp__memmove             10068244     vcruntime:VCRUNTIME140.dll
 0002:00000248       \177VCRUNTIME140_NULL_THUNK_DATA 10068248     vcruntime:VCRUNTIME140.dll
 0002:0000024c       __imp__mbstowcs_s          1006824c     ucrt:api-ms-win-crt-convert-l1-1-0.dll
 0002:00000250       __imp__atoi                10068250     ucrt:api-ms-win-crt-convert-l1-1-0.dll
 0002:00000254       \177api-ms-win-crt-convert-l1-1-0_NULL_THUNK_DATA 10068254     ucrt:api-ms-win-crt-convert-l1-1-0.dll
 0002:00000258       __imp___lock_file          10068258     ucrt:api-ms-win-crt-filesystem-l1-1-0.dll
 0002:0000025c       __imp___unlock_file        1006825c     ucrt:api-ms-win-crt-filesystem-l1-1-0.dll
 0002:00000260       \177api-ms-win-crt-filesystem-l1-1-0_NULL_THUNK_DATA 10068260     ucrt:api-ms-win-crt-filesystem-l1-1-0.dll
 0002:00000264       __imp__malloc              10068264     ucrt:api-ms-win-crt-heap-l1-1-0.dll
 0002:00000268       __imp___callnewh           10068268     ucrt:api-ms-win-crt-heap-l1-1-0.dll
 0002:0000026c       __imp__free                1006826c     ucrt:api-ms-win-crt-heap-l1-1-0.dll
 0002:00000270       \177api-ms-win-crt-heap-l1-1-0_NULL_THUNK_DATA 10068270     ucrt:api-ms-win-crt-heap-l1-1-0.dll
 0002:00000274       __imp_____lc_codepage_func 10068274     ucrt:api-ms-win-crt-locale-l1-1-0.dll
 0002:00000278       \177api-ms-win-crt-locale-l1-1-0_NULL_THUNK_DATA 10068278     ucrt:api-ms-win-crt-locale-l1-1-0.dll
 0002:0000027c       __imp___libm_sse2_pow_precise 1006827c     ucrt:api-ms-win-crt-math-l1-1-0.dll
 0002:00000280       __imp___libm_sse2_sqrt_precise 10068280     ucrt:api-ms-win-crt-math-l1-1-0.dll
 0002:00000284       __imp___libm_sse2_sin_precise 10068284     ucrt:api-ms-win-crt-math-l1-1-0.dll
 0002:00000288       __imp___libm_sse2_cos_precise 10068288     ucrt:api-ms-win-crt-math-l1-1-0.dll
 0002:0000028c       __imp___except1            1006828c     ucrt:api-ms-win-crt-math-l1-1-0.dll
 0002:00000290       __imp___CIfmod             10068290     ucrt:api-ms-win-crt-math-l1-1-0.dll
 0002:00000294       __imp__floor               10068294     ucrt:api-ms-win-crt-math-l1-1-0.dll
 0002:00000298       __imp__ceil                10068298     ucrt:api-ms-win-crt-math-l1-1-0.dll
 0002:0000029c       __imp___libm_sse2_atan_precise 1006829c     ucrt:api-ms-win-crt-math-l1-1-0.dll
 0002:000002a0       __imp___CIatan2            100682a0     ucrt:api-ms-win-crt-math-l1-1-0.dll
 0002:000002a4       __imp__fmaxf               100682a4     ucrt:api-ms-win-crt-math-l1-1-0.dll
 0002:000002a8       __imp__roundf              100682a8     ucrt:api-ms-win-crt-math-l1-1-0.dll
 0002:000002ac       __imp___fdtest             100682ac     ucrt:api-ms-win-crt-math-l1-1-0.dll
 0002:000002b0       \177api-ms-win-crt-math-l1-1-0_NULL_THUNK_DATA 100682b0     ucrt:api-ms-win-crt-math-l1-1-0.dll
 0002:000002b4       __imp___seh_filter_dll     100682b4     ucrt:api-ms-win-crt-runtime-l1-1-0.dll
 0002:000002b8       __imp___configure_narrow_argv 100682b8     ucrt:api-ms-win-crt-runtime-l1-1-0.dll
 0002:000002bc       __imp___crt_atexit         100682bc     ucrt:api-ms-win-crt-runtime-l1-1-0.dll
 0002:000002c0       __imp___execute_onexit_table 100682c0     ucrt:api-ms-win-crt-runtime-l1-1-0.dll
 0002:000002c4       __imp___register_onexit_function 100682c4     ucrt:api-ms-win-crt-runtime-l1-1-0.dll
 0002:000002c8       __imp___cexit              100682c8     ucrt:api-ms-win-crt-runtime-l1-1-0.dll
 0002:000002cc       __imp___initterm           100682cc     ucrt:api-ms-win-crt-runtime-l1-1-0.dll
 0002:000002d0       __imp___initialize_onexit_table 100682d0     ucrt:api-ms-win-crt-runtime-l1-1-0.dll
 0002:000002d4       __imp__terminate           100682d4     ucrt:api-ms-win-crt-runtime-l1-1-0.dll
 0002:000002d8       __imp___invalid_parameter_noinfo_noreturn 100682d8     ucrt:api-ms-win-crt-runtime-l1-1-0.dll
 0002:000002dc       __imp___initterm_e         100682dc     ucrt:api-ms-win-crt-runtime-l1-1-0.dll
 0002:000002e0       __imp___initialize_narrow_environment 100682e0     ucrt:api-ms-win-crt-runtime-l1-1-0.dll
 0002:000002e4       \177api-ms-win-crt-runtime-l1-1-0_NULL_THUNK_DATA 100682e4     ucrt:api-ms-win-crt-runtime-l1-1-0.dll
 0002:000002e8       __imp____stdio_common_vfprintf 100682e8     ucrt:api-ms-win-crt-stdio-l1-1-0.dll
 0002:000002ec       __imp____stdio_common_vsprintf 100682ec     ucrt:api-ms-win-crt-stdio-l1-1-0.dll
 0002:000002f0       __imp____stdio_common_vsscanf 100682f0     ucrt:api-ms-win-crt-stdio-l1-1-0.dll
 0002:000002f4       __imp__fseek               100682f4     ucrt:api-ms-win-crt-stdio-l1-1-0.dll
 0002:000002f8       __imp__fread               100682f8     ucrt:api-ms-win-crt-stdio-l1-1-0.dll
 0002:000002fc       __imp__fflush              100682fc     ucrt:api-ms-win-crt-stdio-l1-1-0.dll
 0002:00000300       __imp__fclose              10068300     ucrt:api-ms-win-crt-stdio-l1-1-0.dll
 0002:00000304       __imp___wfopen             10068304     ucrt:api-ms-win-crt-stdio-l1-1-0.dll
 0002:00000308       __imp____acrt_iob_func     10068308     ucrt:api-ms-win-crt-stdio-l1-1-0.dll
 0002:0000030c       __imp___get_stream_buffer_pointers 1006830c     ucrt:api-ms-win-crt-stdio-l1-1-0.dll
 0002:00000310       __imp____stdio_common_vsprintf_s 10068310     ucrt:api-ms-win-crt-stdio-l1-1-0.dll
 0002:00000314       __imp__fgetc               10068314     ucrt:api-ms-win-crt-stdio-l1-1-0.dll
 0002:00000318       __imp__fputc               10068318     ucrt:api-ms-win-crt-stdio-l1-1-0.dll
 0002:0000031c       __imp__fsetpos             1006831c     ucrt:api-ms-win-crt-stdio-l1-1-0.dll
 0002:00000320       __imp___fseeki64           10068320     ucrt:api-ms-win-crt-stdio-l1-1-0.dll
 0002:00000324       __imp__fwrite              10068324     ucrt:api-ms-win-crt-stdio-l1-1-0.dll
 0002:00000328       __imp__setvbuf             10068328     ucrt:api-ms-win-crt-stdio-l1-1-0.dll
 0002:0000032c       __imp__ungetc              1006832c     ucrt:api-ms-win-crt-stdio-l1-1-0.dll
 0002:00000330       __imp__ftell               10068330     ucrt:api-ms-win-crt-stdio-l1-1-0.dll
 0002:00000334       __imp__fgetpos             10068334     ucrt:api-ms-win-crt-stdio-l1-1-0.dll
 0002:00000338       \177api-ms-win-crt-stdio-l1-1-0_NULL_THUNK_DATA 10068338     ucrt:api-ms-win-crt-stdio-l1-1-0.dll
 0002:0000033c       __imp__strncpy             1006833c     ucrt:api-ms-win-crt-string-l1-1-0.dll
 0002:00000340       __imp__isprint             10068340     ucrt:api-ms-win-crt-string-l1-1-0.dll
 0002:00000344       __imp__toupper             10068344     ucrt:api-ms-win-crt-string-l1-1-0.dll
 0002:00000348       \177api-ms-win-crt-string-l1-1-0_NULL_THUNK_DATA 10068348     ucrt:api-ms-win-crt-string-l1-1-0.dll
 0002:0000034c       __imp__rand                1006834c     ucrt:api-ms-win-crt-utility-l1-1-0.dll
 0002:00000350       __imp__qsort               10068350     ucrt:api-ms-win-crt-utility-l1-1-0.dll
 0002:00000354       \177api-ms-win-crt-utility-l1-1-0_NULL_THUNK_DATA 10068354     ucrt:api-ms-win-crt-utility-l1-1-0.dll
 0002:00000358       __imp__CoTaskMemFree@4     10068358     ole32:ole32.dll
 0002:0000035c       \177ole32_NULL_THUNK_DATA  1006835c     ole32:ole32.dll
 0002:00000360       ___guard_check_icall_fptr  10068360     MSVCRT:guard_support.obj
 0002:00000364       ___xc_a                    10068364     MSVCRT:initializers.obj
 0002:00000434       ___xc_z                    10068434     MSVCRT:initializers.obj
 0002:00000438       ___xi_a                    10068438     MSVCRT:initializers.obj
 0002:00000440       ___xi_z                    10068440     MSVCRT:initializers.obj
 0002:00000444       ___xl_a                    10068444     MSVCRT:tlssup.obj
 0002:00000448       ___xl_z                    10068448     MSVCRT:tlssup.obj
 0002:0000044c       ___xp_a                    1006844c     MSVCRT:initializers.obj
 0002:00000450       ___xp_z                    10068450     MSVCRT:initializers.obj
 0002:00000454       ___xt_a                    10068454     MSVCRT:initializers.obj
 0002:00000458       ___xt_z                    10068458     MSVCRT:initializers.obj
 0002:000004c0       __real@3f800000            100684c0     other_esp.obj
 0002:000004c4       __real@42c80000            100684c4     other_esp.obj
 0002:000004c8       __real@437f0000            100684c8     other_esp.obj
 0002:0000054c       ??_7exception@std@@6B@     1006854c     c_hooks.obj
 0002:00000554       ??_C@_0BC@EOODALEL@Unknown?5exception@ 10068554     c_hooks.obj
 0002:0000056c       ??_7runtime_error@std@@6B@ 1006856c     c_hooks.obj
 0002:00000578       ??_7IGameEventListener@@6B@ 10068578     c_hooks.obj
 0002:00000588       ??_7Event@@6B@             10068588     c_hooks.obj
 0002:00000594       ??_C@_0M@GPCKBPEK@player_hurt@ 10068594     c_hooks.obj
 0002:000005a0       ??_C@_0BK@ILCFOOBA@Failed?5to?5protect?5region?$CB@ 100685a0     c_hooks.obj
 0002:000005bc       ??_C@_0BA@JFNIOLAK@string?5too?5long@ 100685bc     c_hooks.obj
 0002:00000638       ?piecewise_construct@std@@3Upiecewise_construct_t@1@B 10068638     c_ragebot.obj
 0002:0000063c       ??_C@_0O@NDBNDAKG@DT_BaseEntity@ 1006863c     c_ragebot.obj
 0002:0000064c       ??_C@_0BA@MIGFFMNM@m_hActiveWeapon@ 1006864c     c_ragebot.obj
 0002:0000065c       ??_C@_0BH@EFEKCINC@DT_BaseCombatCharacter@ 1006865c     c_ragebot.obj
 0002:00000674       ??_C@_0L@OEKNBODE@m_iTeamNum@ 10068674     c_ragebot.obj
 0002:00000680       ??_C@_08JPGJABNM@m_fFlags@ 10068680     c_ragebot.obj
 0002:0000068c       ??_C@_0O@KNDKHNCF@DT_BasePlayer@ 1006868c     c_ragebot.obj
 0002:0000069c       ??_C@_0BD@IDNCLOOB@m_flSimulationTime@ 1006869c     c_ragebot.obj
 0002:000006b0       ??_C@_0M@LGBCIIFJ@DT_CSPlayer@ 100686b0     c_ragebot.obj
 0002:000006bc       ??_C@_0M@GDCAJHLF@m_lifeState@ 100686bc     c_ragebot.obj
 0002:000006c8       ??_C@_09FOIALPOM@m_iHealth@ 100686c8     c_ragebot.obj
 0002:000006d4       ??_C@_0M@MBFMJJPI@m_nTickBase@ 100686d4     c_ragebot.obj
 0002:000006e0       ??_C@_09JINBMJKL@localdata@ 100686e0     c_ragebot.obj
 0002:000006ec       ??_C@_0P@PAJMEMKA@m_angEyeAngles@ 100686ec     c_ragebot.obj
 0002:000006fc       ??_C@_0M@BAFECOKC@m_vecOrigin@ 100686fc     c_ragebot.obj
 0002:00000708       ??_C@_0BB@CHJEEOLK@m_vecVelocity?$FL0?$FN@ 10068708     c_ragebot.obj
 0002:0000071c       ??_C@_0BA@GJLMCNFJ@DT_WeaponCSBase@ 1006871c     c_ragebot.obj
 0002:0000072c       ??_C@_0BA@PHEHCCBG@m_fLastShotTime@ 1006872c     c_ragebot.obj
 0002:0000073c       ??_C@_0BG@IBOJPCLN@m_flNextPrimaryAttack@ 1006873c     c_ragebot.obj
 0002:00000754       ??_C@_0BG@JBGBGMFE@LocalActiveWeaponData@ 10068754     c_ragebot.obj
 0002:0000076c       ??_C@_0BE@OBECLDDP@DT_BaseCombatWeapon@ 1006876c     c_ragebot.obj
 0002:00000780       ??_C@_0BL@KOKKEGGO@invalid?5deque?$DMT?$DO?5subscript@ 10068780     c_ragebot.obj
 0002:0000079c       ??_C@_0BD@OLBABOEK@vector?$DMT?$DO?5too?5long@ 1006879c     c_ragebot.obj
 0002:000007b0       ??_C@_0BB@MOGOBHAF@list?$DMT?$DO?5too?5long@ 100687b0     c_ragebot.obj
 0002:000007c4       __real@00000000            100687c4     c_ragebot.obj
 0002:000007c8       __real@34000000            100687c8     c_ragebot.obj
 0002:000007cc       __real@3eae147b            100687cc     c_ragebot.obj
 0002:000007d0       __real@3fe0000000000000    100687d0     c_ragebot.obj
 0002:000007d8       __real@40a00000            100687d8     c_ragebot.obj
 0002:000007dc       __real@40c90fdb            100687dc     c_ragebot.obj
 0002:000007e0       __real@41200000            100687e0     c_ragebot.obj
 0002:000007e4       __real@41e80000            100687e4     c_ragebot.obj
 0002:000007e8       __real@41f00000            100687e8     c_ragebot.obj
 0002:000007ec       __real@43340000            100687ec     c_ragebot.obj
 0002:000007f0       __real@43570000            100687f0     c_ragebot.obj
 0002:000007f4       __real@43800000            100687f4     c_ragebot.obj
 0002:000007f8       __real@43b20000            100687f8     c_ragebot.obj
 0002:000007fc       __real@43c80000            100687fc     c_ragebot.obj
 0002:00000800       __real@47c35000            10068800     c_ragebot.obj
 0002:00000804       __real@49742400            10068804     c_ragebot.obj
 0002:00000810       __xmm@41f00000000000000000000000000000 10068810     c_ragebot.obj
 0002:00000820       __xmm@7fffffffffffffff7fffffffffffffff 10068820     c_ragebot.obj
 0002:00000830       __xmm@80000000800000008000000080000000 10068830     c_ragebot.obj
 0002:000008c8       ??_C@_0N@IIBEIILJ@m_ArmorValue@ 100688c8     Autowall.obj
 0002:000008d8       ??_C@_0N@KELFAIEF@m_bHasHelmet@ 100688d8     Autowall.obj
 0002:000008ec       ??_7ITraceFilter@@6B@      100688ec     Autowall.obj
 0002:000008f8       ??_7C_TraceFilter@@6B@     100688f8     Autowall.obj
 0002:00000900       __real@3d4ccccd            10068900     Autowall.obj
 0002:00000904       __real@3dcccccd            10068904     Autowall.obj
 0002:00000908       __real@3e23d70a            10068908     Autowall.obj
 0002:0000090c       __real@3f000000            1006890c     Autowall.obj
 0002:00000910       __real@3f400000            10068910     Autowall.obj
 0002:00000918       __real@3f60624dd2f1a9fc    10068918     Autowall.obj
 0002:00000920       __real@3fa00000            10068920     Autowall.obj
 0002:00000924       __real@40000000            10068924     Autowall.obj
 0002:00000928       __real@40400000            10068928     Autowall.obj
 0002:0000092c       __real@40800000            1006892c     Autowall.obj
 0002:00000930       __real@41c00000            10068930     Autowall.obj
 0002:00000934       __real@42200000            10068934     Autowall.obj
 0002:00000938       __real@453b8000            10068938     Autowall.obj
 0002:000009b0       ??_C@_0BE@HFJPMIJB@m_hConstraintEntity@ 100689b0     EnginePrediction.obj
 0002:00000a50       ??_C@_0BC@KBDMBKEH@deque?$DMT?$DO?5too?5long@ 10068a50     LagComp.obj
 0002:00000a64       __real@3e4ccccd            10068a64     LagComp.obj
 0002:00000a68       __real@42340000            10068a68     AntiAim.obj
 0002:00000a6c       __real@42480000            10068a6c     AntiAim.obj
 0002:00000a70       __real@42a00000            10068a70     AntiAim.obj
 0002:00000a74       __real@42b3cccd            10068a74     AntiAim.obj
 0002:00000a78       __real@42b40000            10068a78     AntiAim.obj
 0002:00000a7c       ??_C@_0CC@KGCKDAPP@0F?510?505?5?$DP?5?$DP?5?$DP?5?$DP?58D?585?5?$DP?5?$DP?5?$DP?5?$DP?5@ 10068a7c     Legitbot.obj
 0002:00000aa0       ??_C@_0BE@FJNGABL@client_panorama?4dll@ 10068aa0     Legitbot.obj
 0002:00000ab4       __real@3a83126f            10068ab4     Legitbot.obj
 0002:00000ab8       ??_C@_0BH@BMLKANBG@m_bClientSideAnimation@ 10068ab8     Resolver.obj
 0002:00000ad0       ??_C@_0BB@POPPCPOC@DT_BaseAnimating@ 10068ad0     Resolver.obj
 0002:00000ae4       ??_C@_0BH@GJAPHBOD@m_flLowerBodyYawTarget@ 10068ae4     Resolver.obj
 0002:00000afc       __real@3e75c28f            10068afc     Resolver.obj
 0002:00000b00       __real@42680000            10068b00     Resolver.obj
 0002:00000b04       __real@42700000            10068b04     Resolver.obj
 0002:00000b08       __real@428c0000            10068b08     Resolver.obj
 0002:00000b0c       __real@c2680000            10068b0c     Resolver.obj
 0002:00000b10       __real@c2700000            10068b10     Resolver.obj
 0002:00000b14       __real@c2b40000            10068b14     Resolver.obj
 0002:00000b34       ??_C@_08CHHOFABL@m_iClip1@ 10068b34     c_esp.obj
 0002:00000b40       ??_C@_0BL@GKAMNBOO@m_iPrimaryReserveAmmoCount@ 10068b40     c_esp.obj
 0002:00000b5c       ??_C@_0BI@CFPLBAOH@invalid?5string?5position@ 10068b5c     c_esp.obj
 0002:00000b74       __real@41000000            10068b74     c_esp.obj
 0002:00000b78       __real@bf800000            10068b78     imgui_impl_dx9.obj
 0002:00001e80       ??_C@_09GBFFKCDJ@?$CD?$CDOverlay@ 10069e80     imgui.obj
 0002:00001e8a       ??_C@_00CNPNBAHC@@         10069e8a     imgui.obj
 0002:00001eb4       __real@1e3ce508            10069eb4     imgui.obj
 0002:00001eb8       __real@358637bd            10069eb8     imgui.obj
 0002:00001ebc       __real@3727c5ac            10069ebc     imgui.obj
 0002:00001ec0       __real@38d1b717            10069ec0     imgui.obj
 0002:00001ec4       __real@3b808081            10069ec4     imgui.obj
 0002:00001ec8       __real@3c23d70a            10069ec8     imgui.obj
 0002:00001ecc       __real@3c888889            10069ecc     imgui.obj
 0002:00001ed0       __real@3cdd2f1b            10069ed0     imgui.obj
 0002:00001ed4       __real@3d9fbe77            10069ed4     imgui.obj
 0002:00001ed8       __real@3da3d70a            10069ed8     imgui.obj
 0002:00001edc       __real@3e19999a            10069edc     imgui.obj
 0002:00001ee0       __real@3e2aaaab            10069ee0     imgui.obj
 0002:00001ee4       __real@3e6147ae            10069ee4     imgui.obj
 0002:00001ee8       __real@3e800000            10069ee8     imgui.obj
 0002:00001eec       __real@3e8a3d71            10069eec     imgui.obj
 0002:00001ef0       __real@3e99999a            10069ef0     imgui.obj
 0002:00001ef4       __real@3ea3d70a            10069ef4     imgui.obj
 0002:00001ef8       __real@3eb33333            10069ef8     imgui.obj
 0002:00001efc       __real@3ec28f5c            10069efc     imgui.obj
 0002:00001f00       __real@3ecccccd            10069f00     imgui.obj
 0002:00001f04       __real@3ee66666            10069f04     imgui.obj
 0002:00001f08       __real@3f07ae14            10069f08     imgui.obj
 0002:00001f0c       __real@3f0a3d71            10069f0c     imgui.obj
 0002:00001f10       __real@3f0ccccd            10069f10     imgui.obj
 0002:00001f14       __real@3f170a3d            10069f14     imgui.obj
 0002:00001f18       __real@3f19999a            10069f18     imgui.obj
 0002:00001f1c       __real@3f2147ae            10069f1c     imgui.obj
 0002:00001f20       __real@3f266666            10069f20     imgui.obj
 0002:00001f24       __real@3f2b851f            10069f24     imgui.obj
 0002:00001f28       __real@3f333333            10069f28     imgui.obj
 0002:00001f2c       __real@3f350481            10069f2c     imgui.obj
 0002:00001f30       __real@3f4ccccd            10069f30     imgui.obj
 0002:00001f34       __real@3f547ae1            10069f34     imgui.obj
 0002:00001f38       __real@3f5db22d            10069f38     imgui.obj
 0002:00001f3c       __real@3f5db3d0            10069f3c     imgui.obj
 0002:00001f40       __real@3f5eb852            10069f40     imgui.obj
 0002:00001f44       __real@3f666666            10069f44     imgui.obj
 0002:00001f48       __real@3f733333            10069f48     imgui.obj
 0002:00001f4c       __real@3f7d70a4            10069f4c     imgui.obj
 0002:00001f50       __real@3f7fff58            10069f50     imgui.obj
 0002:00001f54       __real@3f800054            10069f54     imgui.obj
 0002:00001f58       __real@3f99999a            10069f58     imgui.obj
 0002:00001f5c       __real@3faccccd            10069f5c     imgui.obj
 0002:00001f60       __real@3fc00000            10069f60     imgui.obj
 0002:00001f64       __real@40200000            10069f64     imgui.obj
 0002:00001f68       __real@403f5c29            10069f68     imgui.obj
 0002:00001f6c       __real@40c00000            10069f6c     imgui.obj
 0002:00001f70       __real@40e00000            10069f70     imgui.obj
 0002:00001f74       __real@40eccccd            10069f74     imgui.obj
 0002:00001f78       __real@41100000            10069f78     imgui.obj
 0002:00001f7c       __real@41300000            10069f7c     imgui.obj
 0002:00001f80       __real@41400000            10069f80     imgui.obj
 0002:00001f84       __real@41600000            10069f84     imgui.obj
 0002:00001f88       __real@41700000            10069f88     imgui.obj
 0002:00001f8c       __real@41800000            10069f8c     imgui.obj
 0002:00001f90       __real@41880000            10069f90     imgui.obj
 0002:00001f94       __real@41900000            10069f94     imgui.obj
 0002:00001f98       __real@41a00000            10069f98     imgui.obj
 0002:00001f9c       __real@41a80000            10069f9c     imgui.obj
 0002:00001fa0       __real@41b00000            10069fa0     imgui.obj
 0002:00001fa4       __real@42000000            10069fa4     imgui.obj
 0002:00001fa8       __real@42f00000            10069fa8     imgui.obj
 0002:00001fac       __real@43200000            10069fac     imgui.obj
 0002:00001fb0       __real@432f0000            10069fb0     imgui.obj
 0002:00001fb4       __real@43310000            10069fb4     imgui.obj
 0002:00001fb8       __real@43410000            10069fb8     imgui.obj
 0002:00001fbc       __real@43420000            10069fbc     imgui.obj
 0002:00001fc0       __real@43b40000            10069fc0     imgui.obj
 0002:00001fc4       __real@447a0000            10069fc4     imgui.obj
 0002:00001fc8       __real@461c3c00            10069fc8     imgui.obj
 0002:00001fcc       __real@7f7fffff            10069fcc     imgui.obj
 0002:00001fd0       __real@be99999a            10069fd0     imgui.obj
 0002:00001fd4       __real@beaaaaab            10069fd4     imgui.obj
 0002:00001fd8       __real@bf000000            10069fd8     imgui.obj
 0002:00001fdc       __real@bf5db22d            10069fdc     imgui.obj
 0002:00001fe0       __real@bf5db3d0            10069fe0     imgui.obj
 0002:00001fe4       __real@c0000000            10069fe4     imgui.obj
 0002:00001fe8       __real@c1000000            10069fe8     imgui.obj
 0002:00001fec       __real@c1880000            10069fec     imgui.obj
 0002:00001ff0       __real@c61c3c00            10069ff0     imgui.obj
 0002:00001ff4       __real@ff7fffff            10069ff4     imgui.obj
 0002:00005978       __real@3ffeb852            1006d978     imgui_draw.obj
 0002:0000597c       __real@40490fdb            1006d97c     imgui_draw.obj
 0002:00005980       __real@41500000            1006d980     imgui_draw.obj
 0002:00005984       __real@41980000            1006d984     imgui_draw.obj
 0002:00005988       __real@41b80000            1006d988     imgui_draw.obj
 0002:0000598c       __real@41f80000            1006d98c     imgui_draw.obj
 0002:00005990       __real@425c0000            1006d990     imgui_draw.obj
 0002:00005994       __real@42920000            1006d994     imgui_draw.obj
 0002:00005998       __real@42b60000            1006d998     imgui_draw.obj
 0002:0000599c       __real@46000000            1006d99c     imgui_draw.obj
 0002:000059a0       __real@46800000            1006d9a0     imgui_draw.obj
 0002:000059a4       __real@47800000            1006d9a4     imgui_draw.obj
 0002:000059a8       __real@c6000000            1006d9a8     imgui_draw.obj
 0002:000059ac       __real@3e500000            1006d9ac     createmove_hook.obj
 0002:000059b0       __real@3e600000            1006d9b0     createmove_hook.obj
 0002:000059b4       __real@42b20000            1006d9b4     createmove_hook.obj
 0002:000059b8       __real@43e10000            1006d9b8     createmove_hook.obj
 0002:000059bc       __real@461c4000            1006d9bc     createmove_hook.obj
 0002:000059c0       __real@c2b20000            1006d9c0     createmove_hook.obj
 0002:000059c4       __real@c3340000            1006d9c4     createmove_hook.obj
 0002:000059c8       __real@c3e10000            1006d9c8     createmove_hook.obj
 0002:000059cc       __real@3dc8c8c9            1006d9cc     directx_preset_hook.obj
 0002:000059d0       __real@3e0c8c8d            1006d9d0     directx_preset_hook.obj
 0002:000059d4       __real@3e0f5c29            1006d9d4     directx_preset_hook.obj
 0002:000059d8       __real@3e2e147b            1006d9d8     directx_preset_hook.obj
 0002:000059dc       __real@3e851eb8            1006d9dc     directx_preset_hook.obj
 0002:000059e0       __real@3edc28f6            1006d9e0     directx_preset_hook.obj
 0002:000059e4       __real@3f078788            1006d9e4     directx_preset_hook.obj
 0002:000059e8       __real@3f179798            1006d9e8     directx_preset_hook.obj
 0002:000059ec       __real@3f1c28f6            1006d9ec     directx_preset_hook.obj
 0002:000059f0       __real@3f70a3d7            1006d9f0     directx_preset_hook.obj
 0002:000059f4       __real@3f7ae148            1006d9f4     directx_preset_hook.obj
 0002:00005ad0       ??_C@_09NFOPKLIK@sv_cheats@ 1006dad0     fsn_hook.obj
 0002:00005adc       ??_C@_0M@BIELKGOF@thirdperson@ 1006dadc     fsn_hook.obj
 0002:00005ae8       ??_C@_0M@INGIFFDB@firstperson@ 1006dae8     fsn_hook.obj
 0002:00005b44       ??_C@_0M@PPOAODEA@m_bIsScoped@ 1006db44     oview_hook.obj
 0002:00005b50       __real@3ee66663            1006db50     oview_hook.obj
 0002:00005b70       ??_C@_0BL@OOBMLGKK@weapon_debug_spread_show?50@ 1006db70     painttraverse_hook.obj
 0002:00005b8c       ??_C@_0M@HPFLIJIB@crosshair?50@ 1006db8c     painttraverse_hook.obj
 0002:00005b98       ??_C@_0BL@MFDBOFGJ@weapon_debug_spread_show?53@ 1006db98     painttraverse_hook.obj
 0002:00005bb4       ??_C@_0M@GGEALIMA@crosshair?51@ 1006dbb4     painttraverse_hook.obj
 0002:00005bc4       ??_7bad_cast@std@@6B@      1006dbc4     config_system.obj
 0002:00005bcc       ??_C@_08EPJLHIJG@bad?5cast@ 1006dbcc     config_system.obj
 0002:00005bdc       ??_7_System_error@std@@6B@ 1006dbdc     config_system.obj
 0002:00005be4       ??_C@_02LMMGGCAJ@?3?5@     1006dbe4     config_system.obj
 0002:00005bec       ??_7system_error@std@@6B@  1006dbec     config_system.obj
 0002:00005bf8       ??_7_Generic_error_category@std@@6B@ 1006dbf8     config_system.obj
 0002:00005c10       ??_C@_07DCLBNMLN@generic@  1006dc10     config_system.obj
 0002:00005c1c       ??_7_System_error_category@std@@6B@ 1006dc1c     config_system.obj
 0002:00005c34       ??_C@_06FHFOAHML@system@   1006dc34     config_system.obj
 0002:00005c3c       ??_C@_0O@BFJCFAAK@unknown?5error@ 1006dc3c     config_system.obj
 0002:00005c4a       ?_Is_slash@std@@3U_Is_slash_oper@1@B 1006dc4a     config_system.obj
 0002:00005c50       ??_7filesystem_error@filesystem@std@@6B@ 1006dc50     config_system.obj
 0002:00005c58       ??_C@_03NONCDIOG@?3?5?$CC@ 1006dc58     config_system.obj
 0002:00005c5c       ??_C@_04PHMHGEMA@?$CC?0?5?$CC@ 1006dc5c     config_system.obj
 0002:00005c64       ??_C@_13BBDEGPLJ@?$AA?$CK@ 1006dc64     config_system.obj
 0002:00005c68       ??_C@_0CH@GANCNKKD@directory_iterator?3?3directory_i@ 1006dc68     config_system.obj
 0002:00005c90       ??_C@_0BP@DPMCMHCK@directory_iterator?3?3operator?$CL?$CL@ 1006dc90     config_system.obj
 0002:00005cb0       ??_C@_06LEMKAMD@remove@    1006dcb0     config_system.obj
 0002:00005cb8       ??_C@_06LMEAOBLB@rename@   1006dcb8     config_system.obj
 0002:00005cc0       ??_C@_06DJIHEMFI@status@   1006dcc0     config_system.obj
 0002:00005cc8       ??_C@_0BB@FIPAOBBI@create_directory@ 1006dcc8     config_system.obj
 0002:00005ce0       ??_7?$basic_filebuf@DU?$char_traits@D@std@@@std@@6B@ 1006dce0     config_system.obj
 0002:00005d20       ??_7?$basic_ifstream@DU?$char_traits@D@std@@@std@@6B@ 1006dd20     config_system.obj
 0002:00005d24       ??_8?$basic_ifstream@DU?$char_traits@D@std@@@std@@7B@ 1006dd24     config_system.obj
 0002:00005d30       ??_7?$basic_ofstream@DU?$char_traits@D@std@@@std@@6B@ 1006dd30     config_system.obj
 0002:00005d34       ??_8?$basic_ofstream@DU?$char_traits@D@std@@@std@@7B@ 1006dd34     config_system.obj
 0002:00005d40       ??_7?$_Ref_count_obj@U_Dir_enum_impl@filesystem@std@@@std@@6B@ 1006dd40     config_system.obj
 0002:00008abc       __real@3df0f0f1            10070abc     menu_system.obj
 0002:00008ac0       __real@3e1c9c9d            10070ac0     menu_system.obj
 0002:00008ac4       __real@42aa0000            10070ac4     menu_system.obj
 0002:00008ac8       __real@42be0000            10070ac8     menu_system.obj
 0002:00008acc       __real@43180000            10070acc     menu_system.obj
 0002:00008ad0       __real@43320000            10070ad0     menu_system.obj
 0002:00008ad4       __real@43490000            10070ad4     menu_system.obj
 0002:00008ad8       __real@437a0000            10070ad8     menu_system.obj
 0002:00008adc       __real@43868000            10070adc     menu_system.obj
 0002:00008ae0       __real@43908000            10070ae0     menu_system.obj
 0002:00008ae4       __real@43b48000            10070ae4     menu_system.obj
 0002:00008ae8       __real@43e38000            10070ae8     menu_system.obj
 0002:00008aec       __real@440e0000            10070aec     menu_system.obj
 0002:00008af0       __real@44160000            10070af0     menu_system.obj
 0002:00008af4       __real@c0400000            10070af4     menu_system.obj
 0002:00008dd8       __real@3a51b717            10070dd8     CEntity.obj
 0002:00008ddc       __real@3d8f5c29            10070ddc     CEntity.obj
 0002:00008de0       __real@3d99999a            10070de0     CEntity.obj
 0002:00008de4       __real@3db645a2            10070de4     CEntity.obj
 0002:00008de8       __real@3df5c28f            10070de8     CEntity.obj
 0002:00008dec       __real@3e2d0e56            10070dec     CEntity.obj
 0002:00008df0       __real@3e656042            10070df0     CEntity.obj
 0002:00008df4       __real@3f5851ec            10070df4     CEntity.obj
 0002:00008df8       __real@3f61cac1            10070df8     CEntity.obj
 0002:00008dfc       __real@3fbb4396            10070dfc     CEntity.obj
 0002:00009838       __real@3c8efa35            10071838     Math.obj
 0002:00009840       __real@3f91df46a2529d39    10071840     Math.obj
 0002:00009848       __real@400921fb54442d18    10071848     Math.obj
 0002:00009850       __real@404ca5dc1a63c1f8    10071850     Math.obj
 0002:00009858       __real@c3b40000            10071858     Math.obj
 0002:00009860       ??_7?$_Ref_count_obj@UNode@NetvarTree@@@std@@6B@ 10071860     NetvarManager.obj
 0002:00009870       _FOLDERID_Documents        10071870     shell32:shguid.obj
 0002:00009880       ??_C@_1BK@MGMFAEKH@?$AAk?$AAe?$AAr?$AAn?$AAe?$AAl?$AA3?$AA2?$AA?4?$AAd?$AAl?$AAl@ 10071880     msvcprt:filesystem.obj
 0002:0000989c       ??_C@_0BN@NEEHBBPO@GetFileInformationByHandleEx@ 1007189c     msvcprt:filesystem.obj
 0002:000098bc       ??_C@_0BL@KBBHGKCM@SetFileInformationByHandle@ 100718bc     msvcprt:filesystem.obj
 0002:00009968       ??_7type_info@@6B@         10071968     MSVCRT:std_type_info_static.obj
 0002:00009978       ??_C@_1EC@JIJBPKFM@?$AAa?$AAp?$AAi?$AA?9?$AAm?$AAs?$AA?9?$AAw?$AAi?$AAn?$AA?9?$AAc?$AAo?$AAr?$AAe@ 10071978     MSVCRT:thread_safe_statics.obj
 0002:000099bc       ??_C@_0BM@HLJJNPAH@InitializeConditionVariable@ 100719bc     MSVCRT:thread_safe_statics.obj
 0002:000099d8       ??_C@_0BJ@JEBJOJFJ@SleepConditionVariableCS@ 100719d8     MSVCRT:thread_safe_statics.obj
 0002:000099f4       ??_C@_0BJ@PGPPEPCC@WakeAllConditionVariable@ 100719f4     MSVCRT:thread_safe_statics.obj
 0002:00009a10       __pRawDllMain              10071a10     MSVCRT:dll_dllmain.obj
 0002:00009a10       __pDefaultRawDllMain       10071a10     MSVCRT:dll_dllmain.obj
 0002:00009a18       ??_7bad_alloc@std@@6B@     10071a18     MSVCRT:throw_bad_alloc.obj
 0002:00009a20       ??_C@_0P@GHFPNOJB@bad?5allocation@ 10071a20     MSVCRT:throw_bad_alloc.obj
 0002:00009a34       ??_7bad_array_new_length@std@@6B@ 10071a34     MSVCRT:throw_bad_alloc.obj
 0002:00009a3c       ??_C@_0BF@KINCDENJ@bad?5array?5new?5length@ 10071a3c     MSVCRT:throw_bad_alloc.obj
 0002:00009ab8       __load_config_used         10071ab8     MSVCRT:loadcfg.obj
 0002:00009b58       __tls_used                 10071b58     MSVCRT:tlssup.obj
 0002:00009b70       ??_R4exception@std@@6B@    10071b70     c_hooks.obj
 0002:00009b84       ??_R3exception@std@@8      10071b84     c_hooks.obj
 0002:00009b94       ??_R2exception@std@@8      10071b94     c_hooks.obj
 0002:00009b9c       ??_R1A@?0A@EA@exception@std@@8 10071b9c     c_hooks.obj
 0002:00009bb8       ??_R4runtime_error@std@@6B@ 10071bb8     c_hooks.obj
 0002:00009bcc       ??_R3runtime_error@std@@8  10071bcc     c_hooks.obj
 0002:00009bdc       ??_R2runtime_error@std@@8  10071bdc     c_hooks.obj
 0002:00009be8       ??_R1A@?0A@EA@runtime_error@std@@8 10071be8     c_hooks.obj
 0002:00009c04       ??_R4IGameEventListener@@6B@ 10071c04     c_hooks.obj
 0002:00009c18       ??_R3IGameEventListener@@8 10071c18     c_hooks.obj
 0002:00009c28       ??_R2IGameEventListener@@8 10071c28     c_hooks.obj
 0002:00009c30       ??_R1A@?0A@EA@IGameEventListener@@8 10071c30     c_hooks.obj
 0002:00009c4c       ??_R4Event@@6B@            10071c4c     c_hooks.obj
 0002:00009c60       ??_R3Event@@8              10071c60     c_hooks.obj
 0002:00009c70       ??_R2Event@@8              10071c70     c_hooks.obj
 0002:00009c7c       ??_R1A@?0A@EA@Event@@8     10071c7c     c_hooks.obj
 0002:00009c98       ??_R4ITraceFilter@@6B@     10071c98     Autowall.obj
 0002:00009cac       ??_R3ITraceFilter@@8       10071cac     Autowall.obj
 0002:00009cbc       ??_R2ITraceFilter@@8       10071cbc     Autowall.obj
 0002:00009cc4       ??_R1A@?0A@EA@ITraceFilter@@8 10071cc4     Autowall.obj
 0002:00009ce0       ??_R4C_TraceFilter@@6B@    10071ce0     Autowall.obj
 0002:00009cf4       ??_R3C_TraceFilter@@8      10071cf4     Autowall.obj
 0002:00009d04       ??_R2C_TraceFilter@@8      10071d04     Autowall.obj
 0002:00009d10       ??_R1A@?0A@EA@C_TraceFilter@@8 10071d10     Autowall.obj
 0002:00009d2c       ??_R4?$basic_filebuf@DU?$char_traits@D@std@@@std@@6B@ 10071d2c     config_system.obj
 0002:00009d40       ??_R3?$basic_filebuf@DU?$char_traits@D@std@@@std@@8 10071d40     config_system.obj
 0002:00009d50       ??_R2?$basic_filebuf@DU?$char_traits@D@std@@@std@@8 10071d50     config_system.obj
 0002:00009d5c       ??_R1A@?0A@EA@?$basic_filebuf@DU?$char_traits@D@std@@@std@@8 10071d5c     config_system.obj
 0002:00009d78       ??_R1A@?0A@EA@?$basic_streambuf@DU?$char_traits@D@std@@@std@@8 10071d78     config_system.obj
 0002:00009d94       ??_R3?$basic_streambuf@DU?$char_traits@D@std@@@std@@8 10071d94     config_system.obj
 0002:00009da4       ??_R2?$basic_streambuf@DU?$char_traits@D@std@@@std@@8 10071da4     config_system.obj
 0002:00009dac       ??_R4?$basic_ifstream@DU?$char_traits@D@std@@@std@@6B@ 10071dac     config_system.obj
 0002:00009dc0       ??_R3?$basic_ifstream@DU?$char_traits@D@std@@@std@@8 10071dc0     config_system.obj
 0002:00009dd0       ??_R2?$basic_ifstream@DU?$char_traits@D@std@@@std@@8 10071dd0     config_system.obj
 0002:00009de8       ??_R1A@?0A@EA@?$basic_ifstream@DU?$char_traits@D@std@@@std@@8 10071de8     config_system.obj
 0002:00009e04       ??_R1A@?0A@EA@?$basic_istream@DU?$char_traits@D@std@@@std@@8 10071e04     config_system.obj
 0002:00009e20       ??_R3?$basic_istream@DU?$char_traits@D@std@@@std@@8 10071e20     config_system.obj
 0002:00009e30       ??_R2?$basic_istream@DU?$char_traits@D@std@@@std@@8 10071e30     config_system.obj
 0002:00009e44       ??_R1A@A@3FA@?$basic_ios@DU?$char_traits@D@std@@@std@@8 10071e44     config_system.obj
 0002:00009e60       ??_R3?$basic_ios@DU?$char_traits@D@std@@@std@@8 10071e60     config_system.obj
 0002:00009e70       ??_R2?$basic_ios@DU?$char_traits@D@std@@@std@@8 10071e70     config_system.obj
 0002:00009e80       ??_R1A@?0A@EA@?$basic_ios@DU?$char_traits@D@std@@@std@@8 10071e80     config_system.obj
 0002:00009e9c       ??_R1A@?0A@EA@ios_base@std@@8 10071e9c     config_system.obj
 0002:00009eb8       ??_R3ios_base@std@@8       10071eb8     config_system.obj
 0002:00009ec8       ??_R2ios_base@std@@8       10071ec8     config_system.obj
 0002:00009ed4       ??_R17?0A@EA@?$_Iosb@H@std@@8 10071ed4     config_system.obj
 0002:00009ef0       ??_R3?$_Iosb@H@std@@8      10071ef0     config_system.obj
 0002:00009f00       ??_R2?$_Iosb@H@std@@8      10071f00     config_system.obj
 0002:00009f08       ??_R1A@?0A@EA@?$_Iosb@H@std@@8 10071f08     config_system.obj
 0002:00009f24       ??_R1A@A@3EA@ios_base@std@@8 10071f24     config_system.obj
 0002:00009f40       ??_R17A@3EA@?$_Iosb@H@std@@8 10071f40     config_system.obj
 0002:00009f5c       ??_R4?$basic_ofstream@DU?$char_traits@D@std@@@std@@6B@ 10071f5c     config_system.obj
 0002:00009f70       ??_R3?$basic_ofstream@DU?$char_traits@D@std@@@std@@8 10071f70     config_system.obj
 0002:00009f80       ??_R2?$basic_ofstream@DU?$char_traits@D@std@@@std@@8 10071f80     config_system.obj
 0002:00009f98       ??_R1A@?0A@EA@?$basic_ofstream@DU?$char_traits@D@std@@@std@@8 10071f98     config_system.obj
 0002:00009fb4       ??_R1A@?0A@EA@?$basic_ostream@DU?$char_traits@D@std@@@std@@8 10071fb4     config_system.obj
 0002:00009fd0       ??_R3?$basic_ostream@DU?$char_traits@D@std@@@std@@8 10071fd0     config_system.obj
 0002:00009fe0       ??_R2?$basic_ostream@DU?$char_traits@D@std@@@std@@8 10071fe0     config_system.obj
 0002:00009ff4       ??_R4bad_cast@std@@6B@     10071ff4     config_system.obj
 0002:0000a008       ??_R3bad_cast@std@@8       10072008     config_system.obj
 0002:0000a018       ??_R2bad_cast@std@@8       10072018     config_system.obj
 0002:0000a024       ??_R1A@?0A@EA@bad_cast@std@@8 10072024     config_system.obj
 0002:0000a040       ??_R3_Ref_count_base@std@@8 10072040     config_system.obj
 0002:0000a050       ??_R2_Ref_count_base@std@@8 10072050     config_system.obj
 0002:0000a058       ??_R1A@?0A@EA@_Ref_count_base@std@@8 10072058     config_system.obj
 0002:0000a074       ??_R3error_category@std@@8 10072074     config_system.obj
 0002:0000a084       ??_R2error_category@std@@8 10072084     config_system.obj
 0002:0000a08c       ??_R1A@?0A@EA@error_category@std@@8 1007208c     config_system.obj
 0002:0000a0a8       ??_R4_System_error@std@@6B@ 100720a8     config_system.obj
 0002:0000a0bc       ??_R3_System_error@std@@8  100720bc     config_system.obj
 0002:0000a0cc       ??_R2_System_error@std@@8  100720cc     config_system.obj
 0002:0000a0dc       ??_R1A@?0A@EA@_System_error@std@@8 100720dc     config_system.obj
 0002:0000a0f8       ??_R4system_error@std@@6B@ 100720f8     config_system.obj
 0002:0000a10c       ??_R3system_error@std@@8   1007210c     config_system.obj
 0002:0000a11c       ??_R2system_error@std@@8   1007211c     config_system.obj
 0002:0000a130       ??_R1A@?0A@EA@system_error@std@@8 10072130     config_system.obj
 0002:0000a14c       ??_R4_Generic_error_category@std@@6B@ 1007214c     config_system.obj
 0002:0000a160       ??_R3_Generic_error_category@std@@8 10072160     config_system.obj
 0002:0000a170       ??_R2_Generic_error_category@std@@8 10072170     config_system.obj
 0002:0000a17c       ??_R1A@?0A@EA@_Generic_error_category@std@@8 1007217c     config_system.obj
 0002:0000a198       ??_R4_System_error_category@std@@6B@ 10072198     config_system.obj
 0002:0000a1ac       ??_R3_System_error_category@std@@8 100721ac     config_system.obj
 0002:0000a1bc       ??_R2_System_error_category@std@@8 100721bc     config_system.obj
 0002:0000a1c8       ??_R1A@?0A@EA@_System_error_category@std@@8 100721c8     config_system.obj
 0002:0000a1e4       ??_R4filesystem_error@filesystem@std@@6B@ 100721e4     config_system.obj
 0002:0000a1f8       ??_R3filesystem_error@filesystem@std@@8 100721f8     config_system.obj
 0002:0000a208       ??_R2filesystem_error@filesystem@std@@8 10072208     config_system.obj
 0002:0000a220       ??_R1A@?0A@EA@filesystem_error@filesystem@std@@8 10072220     config_system.obj
 0002:0000a23c       ??_R4?$_Ref_count_obj@U_Dir_enum_impl@filesystem@std@@@std@@6B@ 1007223c     config_system.obj
 0002:0000a250       ??_R3?$_Ref_count_obj@U_Dir_enum_impl@filesystem@std@@@std@@8 10072250     config_system.obj
 0002:0000a260       ??_R2?$_Ref_count_obj@U_Dir_enum_impl@filesystem@std@@@std@@8 10072260     config_system.obj
 0002:0000a26c       ??_R1A@?0A@EA@?$_Ref_count_obj@U_Dir_enum_impl@filesystem@std@@@std@@8 1007226c     config_system.obj
 0002:0000a288       ??_R4?$_Ref_count_obj@UNode@NetvarTree@@@std@@6B@ 10072288     NetvarManager.obj
 0002:0000a29c       ??_R3?$_Ref_count_obj@UNode@NetvarTree@@@std@@8 1007229c     NetvarManager.obj
 0002:0000a2ac       ??_R2?$_Ref_count_obj@UNode@NetvarTree@@@std@@8 100722ac     NetvarManager.obj
 0002:0000a2b8       ??_R1A@?0A@EA@?$_Ref_count_obj@UNode@NetvarTree@@@std@@8 100722b8     NetvarManager.obj
 0002:0000a2d4       ??_R4type_info@@6B@        100722d4     MSVCRT:std_type_info_static.obj
 0002:0000a2e8       ??_R3type_info@@8          100722e8     MSVCRT:std_type_info_static.obj
 0002:0000a2f8       ??_R2type_info@@8          100722f8     MSVCRT:std_type_info_static.obj
 0002:0000a300       ??_R1A@?0A@EA@type_info@@8 10072300     MSVCRT:std_type_info_static.obj
 0002:0000a31c       ??_R4bad_alloc@std@@6B@    1007231c     MSVCRT:throw_bad_alloc.obj
 0002:0000a330       ??_R3bad_alloc@std@@8      10072330     MSVCRT:throw_bad_alloc.obj
 0002:0000a340       ??_R2bad_alloc@std@@8      10072340     MSVCRT:throw_bad_alloc.obj
 0002:0000a34c       ??_R1A@?0A@EA@bad_alloc@std@@8 1007234c     MSVCRT:throw_bad_alloc.obj
 0002:0000a368       ??_R4bad_array_new_length@std@@6B@ 10072368     MSVCRT:throw_bad_alloc.obj
 0002:0000a37c       ??_R3bad_array_new_length@std@@8 1007237c     MSVCRT:throw_bad_alloc.obj
 0002:0000a38c       ??_R2bad_array_new_length@std@@8 1007238c     MSVCRT:throw_bad_alloc.obj
 0002:0000a39c       ??_R1A@?0A@EA@bad_array_new_length@std@@8 1007239c     MSVCRT:throw_bad_alloc.obj
 0002:0000a3c0       ___safe_se_handler_table   100723c0     <linker-defined>
 0002:0000a998       ___rtc_iaa                 10072998     MSVCRT:initsect.obj
 0002:0000a99c       ___rtc_izz                 1007299c     MSVCRT:initsect.obj
 0002:0000a9a0       ___rtc_taa                 100729a0     MSVCRT:initsect.obj
 0002:0000a9a4       ___rtc_tzz                 100729a4     MSVCRT:initsect.obj
 0002:0000a9a8       __tls_start                100729a8     MSVCRT:tlssup.obj
 0002:0000a9ac       __Init_thread_epoch        100729ac     MSVCRT:thread_safe_statics.obj
 0002:0000a9b0       __tls_end                  100729b0     MSVCRT:tlssup.obj
 0002:0000ab44       __TI2?AVruntime_error@std@@ 10072b44     c_hooks.obj
 0002:0000ab54       __CTA2?AVruntime_error@std@@ 10072b54     c_hooks.obj
 0002:0000ab60       __CT??_R0?AVruntime_error@std@@@8??0runtime_error@std@@QAE@ABV01@@Z12 10072b60     c_hooks.obj
 0002:0000ab7c       __CT??_R0?AVexception@std@@@8??0exception@std@@QAE@ABV01@@Z12 10072b7c     c_hooks.obj
 0002:0000c26c       __CT??_R0?AVsystem_error@std@@@8??0system_error@std@@QAE@ABV01@@Z20 1007426c     config_system.obj
 0002:0000c288       __CT??_R0?AV_System_error@std@@@8??0_System_error@std@@QAE@ABV01@@Z20 10074288     config_system.obj
 0002:0000c2a4       __TI4?AVsystem_error@std@@ 100742a4     config_system.obj
 0002:0000c2b4       __CTA4?AVsystem_error@std@@ 100742b4     config_system.obj
 0002:0000c2c8       __TI5?AVfilesystem_error@filesystem@std@@ 100742c8     config_system.obj
 0002:0000c2d8       __CTA5?AVfilesystem_error@filesystem@std@@ 100742d8     config_system.obj
 0002:0000c2f0       __CT??_R0?AVfilesystem_error@filesystem@std@@@8??0filesystem_error@filesystem@std@@QAE@ABV012@@Z92 100742f0     config_system.obj
 0002:0000c30c       __TI2?AVbad_cast@std@@     1007430c     config_system.obj
 0002:0000c31c       __CTA2?AVbad_cast@std@@    1007431c     config_system.obj
 0002:0000c328       __CT??_R0?AVbad_cast@std@@@8??0bad_cast@std@@QAE@ABV01@@Z12 10074328     config_system.obj
 0002:0000c7bc       __TI2?AVbad_alloc@std@@    100747bc     MSVCRT:throw_bad_alloc.obj
 0002:0000c7cc       __CTA2?AVbad_alloc@std@@   100747cc     MSVCRT:throw_bad_alloc.obj
 0002:0000c7d8       __CT??_R0?AVbad_alloc@std@@@8??0bad_alloc@std@@QAE@ABV01@@Z12 100747d8     MSVCRT:throw_bad_alloc.obj
 0002:0000c7f4       __TI3?AVbad_array_new_length@std@@ 100747f4     MSVCRT:throw_bad_alloc.obj
 0002:0000c804       __CTA3?AVbad_array_new_length@std@@ 10074804     MSVCRT:throw_bad_alloc.obj
 0002:0000c814       __CT??_R0?AVbad_array_new_length@std@@@8??0bad_array_new_length@std@@QAE@ABV01@@Z12 10074814     MSVCRT:throw_bad_alloc.obj
 0002:0000c830       __IMPORT_DESCRIPTOR_KERNEL32 10074830     kernel32:KERNEL32.dll
 0002:0000c844       __IMPORT_DESCRIPTOR_USER32 10074844     user32:USER32.dll
 0002:0000c858       __IMPORT_DESCRIPTOR_SHELL32 10074858     shell32:SHELL32.dll
 0002:0000c86c       __IMPORT_DESCRIPTOR_ole32  1007486c     ole32:ole32.dll
 0002:0000c880       __IMPORT_DESCRIPTOR_MSVCP140 10074880     msvcprt:MSVCP140.dll
 0002:0000c894       __IMPORT_DESCRIPTOR_IMM32  10074894     imm32:IMM32.dll
 0002:0000c8a8       __IMPORT_DESCRIPTOR_VCRUNTIME140 100748a8     vcruntime:VCRUNTIME140.dll
 0002:0000c8bc       __IMPORT_DESCRIPTOR_api-ms-win-crt-heap-l1-1-0 100748bc     ucrt:api-ms-win-crt-heap-l1-1-0.dll
 0002:0000c8d0       __IMPORT_DESCRIPTOR_api-ms-win-crt-convert-l1-1-0 100748d0     ucrt:api-ms-win-crt-convert-l1-1-0.dll
 0002:0000c8e4       __IMPORT_DESCRIPTOR_api-ms-win-crt-stdio-l1-1-0 100748e4     ucrt:api-ms-win-crt-stdio-l1-1-0.dll
 0002:0000c8f8       __IMPORT_DESCRIPTOR_api-ms-win-crt-runtime-l1-1-0 100748f8     ucrt:api-ms-win-crt-runtime-l1-1-0.dll
 0002:0000c90c       __IMPORT_DESCRIPTOR_api-ms-win-crt-math-l1-1-0 1007490c     ucrt:api-ms-win-crt-math-l1-1-0.dll
 0002:0000c920       __IMPORT_DESCRIPTOR_api-ms-win-crt-utility-l1-1-0 10074920     ucrt:api-ms-win-crt-utility-l1-1-0.dll
 0002:0000c934       __IMPORT_DESCRIPTOR_api-ms-win-crt-string-l1-1-0 10074934     ucrt:api-ms-win-crt-string-l1-1-0.dll
 0002:0000c948       __IMPORT_DESCRIPTOR_api-ms-win-crt-filesystem-l1-1-0 10074948     ucrt:api-ms-win-crt-filesystem-l1-1-0.dll
 0002:0000c95c       __IMPORT_DESCRIPTOR_api-ms-win-crt-locale-l1-1-0 1007495c     ucrt:api-ms-win-crt-locale-l1-1-0.dll
 0002:0000c970       __NULL_IMPORT_DESCRIPTOR   10074970     kernel32:KERNEL32.dll
 0003:00000024       ?GImGui@@3PAUImGuiContext@@A 10077024     imgui.obj
 0003:0000002c       ?maxSpeed@?1??DoFakeLag@Misc@@ABEXXZ@4MA 1007702c     createmove_hook.obj
 0003:00000030       ?Acceleration@?1??DoFakeLag@Misc@@ABEXXZ@4MA 10077030     createmove_hook.obj
 0003:00000034       ?stop@?1??DoFakeLag@Misc@@ABEXXZ@4_NA 10077034     createmove_hook.obj
 0003:00000035       ?stop2@?1??DoFakeLag@Misc@@ABEXXZ@4_NA 10077035     createmove_hook.obj
 0003:00000040       ?bSendPacket@g@@3_NA       10077040     GlobalVars.obj
 0003:00000044       ?TargetIndex@g@@3HA        10077044     GlobalVars.obj
 0003:00000050       ___security_cookie_complement 10077050     MSVCRT:gs_cookie.obj
 0003:00000054       ___security_cookie         10077054     MSVCRT:gs_cookie.obj
 0003:00000058       __fltused                  10077058     MSVCRT:fltused.obj
 0003:0000005c       ___scrt_native_dllmain_reason 1007705c     MSVCRT:utility.obj
 0003:00000060       __Init_global_epoch        10077060     MSVCRT:thread_safe_statics.obj
 0003:00000070       ___isa_enabled             10077070     MSVCRT:cpu_disp.obj
 0003:00000074       ___scrt_ucrt_dll_is_in_use 10077074     MSVCRT:ucrt_stubs.obj
 0003:00000078       ??_R0?AVruntime_error@std@@@8 10077078     c_hooks.obj
 0003:00000098       ??_R0?AVexception@std@@@8  10077098     c_hooks.obj
 0003:000000b4       ??_R0?AVIGameEventListener@@@8 100770b4     c_hooks.obj
 0003:000000d8       ??_R0?AVEvent@@@8          100770d8     c_hooks.obj
 0003:000000ec       ??_R0?AVITraceFilter@@@8   100770ec     Autowall.obj
 0003:00000108       ??_R0?AVC_TraceFilter@@@8  10077108     Autowall.obj
 0003:00000124       ??_R0?AVsystem_error@std@@@8 10077124     config_system.obj
 0003:00000144       ??_R0?AV_System_error@std@@@8 10077144     config_system.obj
 0003:00000164       ??_R0?AVfilesystem_error@filesystem@std@@@8 10077164     config_system.obj
 0003:00000194       ??_R0?AVbad_cast@std@@@8   10077194     config_system.obj
 0003:000001b0       ??_R0?AV?$basic_filebuf@DU?$char_traits@D@std@@@std@@@8 100771b0     config_system.obj
 0003:000001ec       ??_R0?AV?$basic_streambuf@DU?$char_traits@D@std@@@std@@@8 100771ec     config_system.obj
 0003:00000228       ??_R0?AV?$basic_ifstream@DU?$char_traits@D@std@@@std@@@8 10077228     config_system.obj
 0003:00000264       ??_R0?AV?$basic_istream@DU?$char_traits@D@std@@@std@@@8 10077264     config_system.obj
 0003:000002a0       ??_R0?AV?$basic_ios@DU?$char_traits@D@std@@@std@@@8 100772a0     config_system.obj
 0003:000002d8       ??_R0?AVios_base@std@@@8   100772d8     config_system.obj
 0003:000002f4       ??_R0?AV?$_Iosb@H@std@@@8  100772f4     config_system.obj
 0003:00000310       ??_R0?AV?$basic_ofstream@DU?$char_traits@D@std@@@std@@@8 10077310     config_system.obj
 0003:0000034c       ??_R0?AV?$basic_ostream@DU?$char_traits@D@std@@@std@@@8 1007734c     config_system.obj
 0003:00000388       ??_R0?AV_Ref_count_base@std@@@8 10077388     config_system.obj
 0003:000003ac       ??_R0?AVerror_category@std@@@8 100773ac     config_system.obj
 0003:000003d0       ??_R0?AV_Generic_error_category@std@@@8 100773d0     config_system.obj
 0003:000003fc       ??_R0?AV_System_error_category@std@@@8 100773fc     config_system.obj
 0003:00000428       ??_R0?AV?$_Ref_count_obj@U_Dir_enum_impl@filesystem@std@@@std@@@8 10077428     config_system.obj
 0003:0000046c       ??_R0?AV?$_Ref_count_obj@UNode@NetvarTree@@@std@@@8 1007746c     NetvarManager.obj
 0003:000004a4       ??_R0?AVtype_info@@@8      100774a4     MSVCRT:std_type_info_static.obj
 0003:000004bc       ??_R0?AVbad_alloc@std@@@8  100774bc     MSVCRT:throw_bad_alloc.obj
 0003:000004d8       ??_R0?AVbad_array_new_length@std@@@8 100774d8     MSVCRT:throw_bad_alloc.obj
 0003:00000500       ?c_other_esp@@3Vother_esp@@A 10077500     other_esp.obj
 0003:00000510       ?_OptionsStorage@?1??__local_stdio_printf_options@@9@4_KA 10077510     other_esp.obj
 0003:00000520       ?g_Misc@@3VMisc@@A         10077520     c_hooks.obj
 0003:00000528       ?hooks@@3Vc_hooks@@A       10077528     c_hooks.obj
 0003:00000660       ?g_Event@@3VEvent@@A       10077660     c_hooks.obj
 0003:00000668       ?HThisModule@@3PAUHINSTANCE__@@A 10077668     dll_main.obj
 0003:00000680       ?aimbot@@3Vc_aimbot@@A     10077680     c_ragebot.obj
 0003:00061f0c       ?m_hActiveWeapon@?1??GetActiveWeapon@C_BaseEntity@@QAEPAVC_BaseCombatWeapon@@XZ@4HA 100d8f0c     c_ragebot.obj
 0003:00061f10       ?$TSS0@?1??GetActiveWeapon@C_BaseEntity@@QAEPAVC_BaseCombatWeapon@@XZ@4HA 100d8f10     c_ragebot.obj
 0003:00061f14       ?m_iTeamNum@?1??GetTeam@C_BaseEntity@@QAEHXZ@4HA 100d8f14     c_ragebot.obj
 0003:00061f18       ?$TSS0@?1??GetTeam@C_BaseEntity@@QAEHXZ@4HA 100d8f18     c_ragebot.obj
 0003:00061f1c       ?m_fFlags@?1??GetFlags@C_BaseEntity@@QAE?AW4EntityFlags@@XZ@4HA 100d8f1c     c_ragebot.obj
 0003:00061f20       ?$TSS0@?1??GetFlags@C_BaseEntity@@QAE?AW4EntityFlags@@XZ@4HA 100d8f20     c_ragebot.obj
 0003:00061f24       ?m_flSimulationTime@?1??GetSimulationTime@C_BaseEntity@@QAEMXZ@4HA 100d8f24     c_ragebot.obj
 0003:00061f28       ?$TSS0@?1??GetSimulationTime@C_BaseEntity@@QAEMXZ@4HA 100d8f28     c_ragebot.obj
 0003:00061f2c       ?m_lifeState@?1??GetLifeState@C_BaseEntity@@QAE_NXZ@4HA 100d8f2c     c_ragebot.obj
 0003:00061f30       ?$TSS0@?1??GetLifeState@C_BaseEntity@@QAE_NXZ@4HA 100d8f30     c_ragebot.obj
 0003:00061f34       ?m_iHealth@?1??GetHealth@C_BaseEntity@@QAEHXZ@4HA 100d8f34     c_ragebot.obj
 0003:00061f38       ?$TSS0@?1??GetHealth@C_BaseEntity@@QAEHXZ@4HA 100d8f38     c_ragebot.obj
 0003:00061f3c       ?m_nTickBase@?1??GetTickBase@C_BaseEntity@@QAEHXZ@4HA 100d8f3c     c_ragebot.obj
 0003:00061f40       ?$TSS0@?1??GetTickBase@C_BaseEntity@@QAEHXZ@4HA 100d8f40     c_ragebot.obj
 0003:00061f44       ?m_angEyeAngles@?1??GetEyeAngles@C_BaseEntity@@QAE?AVVector@@XZ@4HA 100d8f44     c_ragebot.obj
 0003:00061f48       ?$TSS0@?1??GetEyeAngles@C_BaseEntity@@QAE?AVVector@@XZ@4HA 100d8f48     c_ragebot.obj
 0003:00061f4c       ?m_vecOrigin@?1??GetOrigin@C_BaseEntity@@QAE?AVVector@@XZ@4HA 100d8f4c     c_ragebot.obj
 0003:00061f50       ?$TSS0@?1??GetOrigin@C_BaseEntity@@QAE?AVVector@@XZ@4HA 100d8f50     c_ragebot.obj
 0003:00061f54       ?m_vecVelocity@?1??GetVelocity@C_BaseEntity@@QAE?AVVector@@XZ@4HA 100d8f54     c_ragebot.obj
 0003:00061f58       ?$TSS0@?1??GetVelocity@C_BaseEntity@@QAE?AVVector@@XZ@4HA 100d8f58     c_ragebot.obj
 0003:00061f5c       ?m_fLastShotTime@?1??GetLastShotTime@C_BaseCombatWeapon@@QAEMXZ@4HA 100d8f5c     c_ragebot.obj
 0003:00061f60       ?$TSS0@?1??GetLastShotTime@C_BaseCombatWeapon@@QAEMXZ@4HA 100d8f60     c_ragebot.obj
 0003:00061f64       ?m_flNextPrimaryAttack@?1??GetNextPrimaryAttack@C_BaseCombatWeapon@@QAEMXZ@4HA 100d8f64     c_ragebot.obj
 0003:00061f68       ?$TSS0@?1??GetNextPrimaryAttack@C_BaseCombatWeapon@@QAEMXZ@4HA 100d8f68     c_ragebot.obj
 0003:000623d4       ?g_Autowall@@3VAutowall@@A 100d93d4     Autowall.obj
 0003:000623e0       ?m_ArmorValue@?1??ArmorValue@C_BaseEntity@@QAEHXZ@4HA 100d93e0     Autowall.obj
 0003:000623e4       ?$TSS0@?1??ArmorValue@C_BaseEntity@@QAEHXZ@4HA 100d93e4     Autowall.obj
 0003:000623e8       ?m_bHasHelmet@?1??HasHelmet@C_BaseEntity@@QAE_NXZ@4HA 100d93e8     Autowall.obj
 0003:000623ec       ?$TSS0@?1??HasHelmet@C_BaseEntity@@QAE_NXZ@4HA 100d93ec     Autowall.obj
 0003:00062400       ?flOldCurtime@@3MA         100d9400     EnginePrediction.obj
 0003:00062404       ?flOldFrametime@@3MA       100d9404     EnginePrediction.obj
 0003:00062408       ?m_nPredictionRandomSeed@@3PAHA 100d9408     EnginePrediction.obj
 0003:0006240c       ?m_pSetPredictionPlayer@@3PAHA 100d940c     EnginePrediction.obj
 0003:00062418       ?m_hConstraintEntity@?1??SetCurrentCommand@C_BaseEntity@@QAEXPAVCUserCmd@@@Z@4HA 100d9418     EnginePrediction.obj
 0003:0006241c       ?$TSS0@?1??SetCurrentCommand@C_BaseEntity@@QAEXPAVCUserCmd@@@Z@4HA 100d941c     EnginePrediction.obj
 0003:00062428       ?g_LagComp@@3VLagComp@@A   100d9428     LagComp.obj
 0003:00062c4c       ?Swtich@@3_NA              100d9c4c     AntiAim.obj
 0003:00062c4d       ?g_AntiAim@@3VAntiAim@@A   100d9c4d     AntiAim.obj
 0003:00062c78       ?g_Legitbot@@3VLegitbot@@A 100d9c78     Legitbot.obj
 0003:0006318c       ?pViewMatrix@?1???R<lambda_498009bf6358dc471fbe163595f67980>@@QBE_NXZ@4IA 100da18c     Legitbot.obj
 0003:000633a8       ?g_Resolver@@3VResolver@@A 100da3a8     Resolver.obj
 0003:00063600       ?m_bClientSideAnimation@?1??ClientAnimations@C_BaseEntity@@QAEX_N@Z@4HA 100da600     Resolver.obj
 0003:00063604       ?$TSS0@?1??ClientAnimations@C_BaseEntity@@QAEX_N@Z@4HA 100da604     Resolver.obj
 0003:00063608       ?m_flLowerBodyYawTarget@?1??GetLowerBodyYaw@C_BaseEntity@@QAEMXZ@4HA 100da608     Resolver.obj
 0003:0006360c       ?$TSS0@?1??GetLowerBodyYaw@C_BaseEntity@@QAEMXZ@4HA 100da60c     Resolver.obj
 0003:00063610       ?m_flLowerBodyYawTarget@?1??SetLowerBodyYaw@C_BaseEntity@@QAEXM@Z@4HA 100da610     Resolver.obj
 0003:00063614       ?$TSS0@?1??SetLowerBodyYaw@C_BaseEntity@@QAEXM@Z@4HA 100da614     Resolver.obj
 0003:00072ef0       ?esp@@3Vc_esp@@A           100e9ef0     c_esp.obj
 0003:00072f40       ?m_iClip1@?1??GetAmmo@C_BaseCombatWeapon@@QAEHXZ@4HA 100e9f40     c_esp.obj
 0003:00072f44       ?$TSS0@?1??GetAmmo@C_BaseCombatWeapon@@QAEHXZ@4HA 100e9f44     c_esp.obj
 0003:00072f48       ?primary_reserve@?1??m_iPrimaryReserveAmmoCount@C_BaseCombatWeapon@@QAEHXZ@4HA 100e9f48     c_esp.obj
 0003:00072f4c       ?$TSS0@?1??m_iPrimaryReserveAmmoCount@C_BaseCombatWeapon@@QAEHXZ@4HA 100e9f4c     c_esp.obj
 0003:00072f78       ?_OptionsStorage@?1??__local_stdio_scanf_options@@9@4_KA 100e9f78     imgui.obj
 0003:00076a38       ?bLastJumped@?1??DoBhop@Misc@@ABEXXZ@4_NA 100eda38     createmove_hook.obj
 0003:00076a39       ?bShouldFake@?1??DoBhop@Misc@@ABEXXZ@4_NA 100eda39     createmove_hook.obj
 0003:00076a3a       ?init@?1??DoFakeLag@Misc@@ABEXXZ@4_NA 100eda3a     createmove_hook.obj
 0003:00076a44       ?m_pStateBlockDraw@@3PAUIDirect3DStateBlock9@@A 100eda44     directx_preset_hook.obj
 0003:00076a48       ?m_pStateBlockText@@3PAUIDirect3DStateBlock9@@A 100eda48     directx_preset_hook.obj
 0003:00076a4c       ?state_block@@3PAUIDirect3DStateBlock9@@A 100eda4c     directx_preset_hook.obj
 0003:00076a50       ?dwOld_D3DRS_COLORWRITEENABLE@@3KA 100eda50     directx_preset_hook.obj
 0003:00076aac       ?init@?1??ThirdPerson@Misc@@QAEXW4ClientFrameStage_t@@@Z@4_NA 100edaac     fsn_hook.obj
 0003:00076ab8       ?c_hooking@@3PAVhooking@@A 100edab8     hooking_init.obj
 0003:00076adc       ?m_bIsScoped@?1??IsScoped@C_BaseEntity@@QAE_NXZ@4HA 100edadc     oview_hook.obj
 0003:00076ae0       ?$TSS0@?1??IsScoped@C_BaseEntity@@QAE_NXZ@4HA 100edae0     oview_hook.obj
 0003:00076af4       ?init@?1??Crosshair@Misc@@QAEXXZ@4_NA 100edaf4     painttraverse_hook.obj
 0003:00076af5       ?init2@?1??Crosshair@Misc@@QAEXXZ@4_NA 100edaf5     painttraverse_hook.obj
 0003:00076b28       ?galaxy_vars@@3Vc_config@@A 100edb28     config_system.obj
 0003:00076c80       ?_Stinit@?1??_Init@?$basic_filebuf@DU?$char_traits@D@std@@@std@@IAEXPAU_iobuf@@W4_Initfl@23@@Z@4U_Mbstatet@@A 100edc80     config_system.obj
 0003:00076c88       ?_Flag@?1???$_Immortalize@V_Generic_error_category@std@@@std@@YAAAV_Generic_error_category@1@XZ@4PAXA 100edc88     config_system.obj
 0003:00076c8c       ?_Storage@?1???$_Immortalize@V_Generic_error_category@std@@@std@@YAAAV_Generic_error_category@1@XZ@4T?$_Align_type@H$07@1@A 100edc8c     config_system.obj
 0003:00076c94       ?_Flag@?1???$_Immortalize@V_System_error_category@std@@@std@@YAAAV_System_error_category@1@XZ@4PAXA 100edc94     config_system.obj
 0003:00076c98       ?_Storage@?1???$_Immortalize@V_System_error_category@std@@@std@@YAAAV_System_error_category@1@XZ@4T?$_Align_type@H$07@1@A 100edc98     config_system.obj
 0003:00076ca0       ?_Psave@?$_Facetptr@V?$codecvt@DDU_Mbstatet@@@std@@@std@@2PBVfacet@locale@2@B 100edca0     config_system.obj
 0003:00076ca4       ?Main@@3PAUImFont@@A       100edca4     menu_system.obj
 0003:00076ca8       ?MainCaps@@3PAUImFont@@A   100edca8     menu_system.obj
 0003:00076cac       ?show_popup@@3_NA          100edcac     menu_system.obj
 0003:00076cad       ?save_config@@3_NA         100edcad     menu_system.obj
 0003:00076cae       ?load_config@@3_NA         100edcae     menu_system.obj
 0003:00076caf       ?reverse@@3_NA             100edcaf     menu_system.obj
 0003:00076cb0       ?offset@@3HA               100edcb0     menu_system.obj
 0003:00076cbc       ?menu@@3Vc_menu@@A         100edcbc     menu_system.obj
 0003:00076cf8       ?pCmd@g@@3PAVCUserCmd@@A   100edcf8     GlobalVars.obj
 0003:00076cfc       ?pLocalEntity@g@@3PAVC_BaseEntity@@A 100edcfc     GlobalVars.obj
 0003:00076d00       ?uRandomSeed@g@@3IA        100edd00     GlobalVars.obj
 0003:00076d04       ?LagPeek@g@@3_NA           100edd04     GlobalVars.obj
 0003:00076d08       ?Shot@g@@3PA_NA            100edd08     GlobalVars.obj
 0003:00076d4c       ?weapon_font@g@@3KA        100edd4c     GlobalVars.obj
 0003:00076d50       ?Hit@g@@3PA_NA             100edd50     GlobalVars.obj
 0003:00076d94       ?watermark_font@g@@3KA     100edd94     GlobalVars.obj
 0003:00076d98       ?MissedShots@g@@3PAHA      100edd98     GlobalVars.obj
 0003:00076e9c       ?CourierNew@g@@3KA         100ede9c     GlobalVars.obj
 0003:00076ea0       ?Tahoma@g@@3KA             100edea0     GlobalVars.obj
 0003:00076ea4       ?FakeAngle@g@@3VVector@@A  100edea4     GlobalVars.obj
 0003:00076eb0       ?OriginalView@g@@3VVector@@A 100edeb0     GlobalVars.obj
 0003:00076ebc       ?RealAngle@g@@3VVector@@A  100edebc     GlobalVars.obj
 0003:00076ec8       ?AimbotHitbox@g@@3PAY0BM@VVector@@A 100edec8     GlobalVars.obj
 0003:0007c420       ?EnemyEyeAngs@g@@3PAVVector@@A 100f3420     GlobalVars.obj
 0003:0007c72c       ?g_pEngine@@3PAVIVEngineClient@@A 100f372c     Interfaces.obj
 0003:0007c730       ?g_pTrace@@3PAVIEngineTrace@@A 100f3730     Interfaces.obj
 0003:0007c734       ?g_pSurfaceData@@3PAVIPhysicsSurfaceProps@@A 100f3734     Interfaces.obj
 0003:0007c738       ?g_pCvar@@3PAVICVar@@A     100f3738     Interfaces.obj
 0003:0007c73c       ?g_pEntityList@@3PAVIClientEntityList@@A 100f373c     Interfaces.obj
 0003:0007c740       ?g_pModelInfo@@3PAVIVModelInfo@@A 100f3740     Interfaces.obj
 0003:0007c744       ?g_pModelRender@@3PAVCModelRender@@A 100f3744     Interfaces.obj
 0003:0007c748       ?g_pMaterialSys@@3PAVIMaterialSystem@@A 100f3748     Interfaces.obj
 0003:0007c74c       ?g_pRenderView@@3PAVIVRenderView@@A 100f374c     Interfaces.obj
 0003:0007c750       ?g_pPanel@@3PAVIPanel@@A   100f3750     Interfaces.obj
 0003:0007c754       ?g_pClientMode@@3PAVIClientMode@@A 100f3754     Interfaces.obj
 0003:0007c758       ?g_pGlobalVars@@3PAVCGlobalVarsBase@@A 100f3758     Interfaces.obj
 0003:0007c75c       ?g_pClientDll@@3PAVIBaseClientDLL@@A 100f375c     Interfaces.obj
 0003:0007c760       ?g_pMoveHelper@@3PAVIMoveHelper@@A 100f3760     Interfaces.obj
 0003:0007c764       ?g_pMovement@@3PAVIGameMovement@@A 100f3764     Interfaces.obj
 0003:0007c768       ?g_pPrediction@@3PAVCPrediction@@A 100f3768     Interfaces.obj
 0003:0007c76c       ?g_pEventManager@@3PAVIGameEventManager@@A 100f376c     Interfaces.obj
 0003:0007c770       ?g_pSurface@@3PAVISurface@@A 100f3770     Interfaces.obj
 0003:0007c77c       ?g_Math@@3VMath@@A         100f377c     Math.obj
 0003:0007c790       ?g_pNetvars@@3V?$unique_ptr@VNetvarTree@@U?$default_delete@VNetvarTree@@@std@@@std@@A 100f3790     NetvarManager.obj
 0003:0007c79c       ?GetFinalPathNameByHandleW_p@?A0xb24c12bc@@3P6GKPAXPA_WKK@ZA 100f379c     msvcprt:filesystem.obj
 0003:0007c7a0       ?_GetFileInformationByHandleEx_p@?A0xb24c12bc@@3P6GHPAXW4_FILE_INFO_BY_HANDLE_CLASS@@0K@ZA 100f37a0     msvcprt:filesystem.obj
 0003:0007c7a4       ?_SetFileInformationByHandle_p@?A0xb24c12bc@@3P6GHPAXW4_FILE_INFO_BY_HANDLE_CLASS@@0K@ZA 100f37a4     msvcprt:filesystem.obj
 0003:0007c7a8       ?_CreateSymbolicLinkW_p@?A0xb24c12bc@@3P6GEPB_W0K@ZA 100f37a8     msvcprt:filesystem.obj
 0003:0007c7ac       ___scrt_current_native_startup_state 100f37ac     MSVCRT:utility.obj
 0003:0007c7b0       ___scrt_native_startup_lock 100f37b0     MSVCRT:utility.obj
 0003:0007cb14       __tls_index                100f3b14     MSVCRT:tlssup.obj
 0003:0007cb1c       ___isa_available           100f3b1c     MSVCRT:cpu_disp.obj
 0003:0007cb20       ___favor                   100f3b20     MSVCRT:cpu_disp.obj
 0003:0007cb24       ___scrt_debugger_hook_flag 100f3b24     MSVCRT:utility_desktop.obj
 0003:0007cb28       ?__type_info_root_node@@3U__type_info_node@@A 100f3b28     MSVCRT:tncleanup.obj
 0003:0007cb30       ___dyn_tls_init_callback   100f3b30     <common>

 entry point at        0001:00063d3f

 Static symbols

 0000:fff07000       .debug$S                   10000000     msvcprt:MSVCP140.dll
 0000:fff07000       .debug$S                   10000000     kernel32:KERNEL32.dll
 0000:fff07000       .debug$S                   10000000     kernel32:KERNEL32.dll
 0000:fff07000       .debug$S                   10000000     kernel32:KERNEL32.dll
 0000:fff07000       .debug$S                   10000000     kernel32:KERNEL32.dll
 0000:fff07000       .debug$S                   10000000     kernel32:KERNEL32.dll
 0000:fff07000       .debug$S                   10000000     kernel32:KERNEL32.dll
 0000:fff07000       .debug$S                   10000000     kernel32:KERNEL32.dll
 0000:fff07000       .debug$S                   10000000     kernel32:KERNEL32.dll
 0000:fff07000       .debug$S                   10000000     kernel32:KERNEL32.dll
 0000:fff07000       .debug$S                   10000000     kernel32:KERNEL32.dll
 0000:fff07000       .debug$S                   10000000     kernel32:KERNEL32.dll
 0000:fff07000       .debug$S                   10000000     kernel32:KERNEL32.dll
 0000:fff07000       .debug$S                   10000000     kernel32:KERNEL32.dll
 0000:fff07000       .debug$S                   10000000     kernel32:KERNEL32.dll
 0000:fff07000       .debug$S                   10000000     kernel32:KERNEL32.dll
 0000:fff07000       .debug$S                   10000000     kernel32:KERNEL32.dll
 0000:fff07000       .debug$S                   10000000     kernel32:KERNEL32.dll
 0000:fff07000       .debug$S                   10000000     kernel32:KERNEL32.dll
 0000:fff07000       .debug$S                   10000000     kernel32:KERNEL32.dll
 0000:fff07000       .debug$S                   10000000     kernel32:KERNEL32.dll
 0000:fff07000       .debug$S                   10000000     kernel32:KERNEL32.dll
 0000:fff07000       .debug$S                   10000000     kernel32:KERNEL32.dll
 0000:fff07000       .debug$S                   10000000     kernel32:KERNEL32.dll
 0000:fff07000       .debug$S                   10000000     kernel32:KERNEL32.dll
 0000:fff07000       .debug$S                   10000000     kernel32:KERNEL32.dll
 0000:fff07000       .debug$S                   10000000     kernel32:KERNEL32.dll
 0000:fff07000       .debug$S                   10000000     kernel32:KERNEL32.dll
 0000:fff07000       .debug$S                   10000000     kernel32:KERNEL32.dll
 0000:fff07000       .debug$S                   10000000     kernel32:KERNEL32.dll
 0000:fff07000       .debug$S                   10000000     kernel32:KERNEL32.dll
 0000:fff07000       .debug$S                   10000000     kernel32:KERNEL32.dll
 0000:fff07000       .debug$S                   10000000     kernel32:KERNEL32.dll
 0000:fff07000       .debug$S                   10000000     kernel32:KERNEL32.dll
 0000:fff07000       .debug$S                   10000000     kernel32:KERNEL32.dll
 0000:fff07000       .debug$S                   10000000     kernel32:KERNEL32.dll
 0000:fff07000       .debug$S                   10000000     kernel32:KERNEL32.dll
 0000:fff07000       .debug$S                   10000000     kernel32:KERNEL32.dll
 0000:fff07000       .debug$S                   10000000     kernel32:KERNEL32.dll
 0000:fff07000       .debug$S                   10000000     kernel32:KERNEL32.dll
 0000:fff07000       .debug$S                   10000000     kernel32:KERNEL32.dll
 0000:fff07000       .debug$S                   10000000     kernel32:KERNEL32.dll
 0000:fff07000       .debug$S                   10000000     kernel32:KERNEL32.dll
 0000:fff07000       .debug$S                   10000000     kernel32:KERNEL32.dll
 0000:fff07000       .debug$S                   10000000     kernel32:KERNEL32.dll
 0000:fff07000       .debug$S                   10000000     kernel32:KERNEL32.dll
 0000:fff07000       .debug$S                   10000000     kernel32:KERNEL32.dll
 0000:fff07000       .debug$S                   10000000     msvcprt:MSVCP140.dll
 0000:fff07000       .debug$S                   10000000     msvcprt:MSVCP140.dll
 0000:fff07000       .debug$S                   10000000     msvcprt:MSVCP140.dll
 0000:fff07000       .debug$S                   10000000     msvcprt:MSVCP140.dll
 0000:fff07000       .debug$S                   10000000     msvcprt:MSVCP140.dll
 0000:fff07000       .debug$S                   10000000     msvcprt:MSVCP140.dll
 0000:fff07000       .debug$S                   10000000     msvcprt:MSVCP140.dll
 0000:fff07000       .debug$S                   10000000     msvcprt:MSVCP140.dll
 0000:fff07000       .debug$S                   10000000     msvcprt:MSVCP140.dll
 0000:fff07000       .debug$S                   10000000     ucrt:api-ms-win-crt-runtime-l1-1-0.dll
 0000:fff07000       .debug$S                   10000000     ucrt:api-ms-win-crt-runtime-l1-1-0.dll
 0000:fff07000       .debug$S                   10000000     ucrt:api-ms-win-crt-runtime-l1-1-0.dll
 0000:fff07000       .debug$S                   10000000     ucrt:api-ms-win-crt-runtime-l1-1-0.dll
 0000:fff07000       .debug$S                   10000000     ucrt:api-ms-win-crt-runtime-l1-1-0.dll
 0000:fff07000       .debug$S                   10000000     ucrt:api-ms-win-crt-runtime-l1-1-0.dll
 0000:fff07000       .debug$S                   10000000     ucrt:api-ms-win-crt-runtime-l1-1-0.dll
 0000:fff07000       .debug$S                   10000000     ucrt:api-ms-win-crt-runtime-l1-1-0.dll
 0000:fff07000       .debug$S                   10000000     ucrt:api-ms-win-crt-runtime-l1-1-0.dll
 0000:fff07000       .debug$S                   10000000     ucrt:api-ms-win-crt-runtime-l1-1-0.dll
 0000:fff07000       .debug$S                   10000000     ucrt:api-ms-win-crt-runtime-l1-1-0.dll
 0000:fff07000       .debug$S                   10000000     ucrt:api-ms-win-crt-heap-l1-1-0.dll
 0000:fff07000       .debug$S                   10000000     ucrt:api-ms-win-crt-math-l1-1-0.dll
 0000:fff07000       .debug$S                   10000000     ucrt:api-ms-win-crt-locale-l1-1-0.dll
 0000:fff07000       .debug$S                   10000000     ucrt:api-ms-win-crt-math-l1-1-0.dll
 0000:fff07000       .debug$S                   10000000     ucrt:api-ms-win-crt-math-l1-1-0.dll
 0000:fff07000       .debug$S                   10000000     ucrt:api-ms-win-crt-math-l1-1-0.dll
 0000:fff07000       .debug$S                   10000000     ucrt:api-ms-win-crt-math-l1-1-0.dll
 0000:fff07000       .debug$S                   10000000     ucrt:api-ms-win-crt-runtime-l1-1-0.dll
 0000:fff07000       .debug$S                   10000000     ucrt:api-ms-win-crt-filesystem-l1-1-0.dll
 0000:fff07000       .debug$S                   10000000     ucrt:api-ms-win-crt-filesystem-l1-1-0.dll
 0000:fff07000       .debug$S                   10000000     ucrt:api-ms-win-crt-stdio-l1-1-0.dll
 0000:fff07000       .debug$S                   10000000     ucrt:api-ms-win-crt-stdio-l1-1-0.dll
 0000:fff07000       .debug$S                   10000000     ucrt:api-ms-win-crt-stdio-l1-1-0.dll
 0000:fff07000       .debug$S                   10000000     ucrt:api-ms-win-crt-stdio-l1-1-0.dll
 0000:fff07000       .debug$S                   10000000     ucrt:api-ms-win-crt-stdio-l1-1-0.dll
 0000:fff07000       .debug$S                   10000000     ucrt:api-ms-win-crt-stdio-l1-1-0.dll
 0000:fff07000       .debug$S                   10000000     ucrt:api-ms-win-crt-stdio-l1-1-0.dll
 0000:fff07000       .debug$S                   10000000     ucrt:api-ms-win-crt-stdio-l1-1-0.dll
 0000:fff07000       .debug$S                   10000000     ucrt:api-ms-win-crt-stdio-l1-1-0.dll
 0000:fff07000       .debug$S                   10000000     ucrt:api-ms-win-crt-math-l1-1-0.dll
 0000:fff07000       .debug$S                   10000000     ucrt:api-ms-win-crt-math-l1-1-0.dll
 0000:fff07000       .debug$S                   10000000     ucrt:api-ms-win-crt-math-l1-1-0.dll
 0000:fff07000       .debug$S                   10000000     ucrt:api-ms-win-crt-stdio-l1-1-0.dll
 0000:fff07000       .debug$S                   10000000     ucrt:api-ms-win-crt-stdio-l1-1-0.dll
 0000:fff07000       .debug$S                   10000000     ucrt:api-ms-win-crt-stdio-l1-1-0.dll
 0000:fff07000       .debug$S                   10000000     ucrt:api-ms-win-crt-stdio-l1-1-0.dll
 0000:fff07000       .debug$S                   10000000     ucrt:api-ms-win-crt-stdio-l1-1-0.dll
 0000:fff07000       .debug$S                   10000000     ucrt:api-ms-win-crt-stdio-l1-1-0.dll
 0000:fff07000       .debug$S                   10000000     ucrt:api-ms-win-crt-stdio-l1-1-0.dll
 0000:fff07000       .debug$S                   10000000     ucrt:api-ms-win-crt-stdio-l1-1-0.dll
 0000:fff07000       .debug$S                   10000000     ucrt:api-ms-win-crt-stdio-l1-1-0.dll
 0000:fff07000       .debug$S                   10000000     ucrt:api-ms-win-crt-stdio-l1-1-0.dll
 0000:fff07000       .debug$S                   10000000     ucrt:api-ms-win-crt-convert-l1-1-0.dll
 0000:fff07000       .debug$S                   10000000     ucrt:api-ms-win-crt-utility-l1-1-0.dll
 0000:fff07000       .debug$S                   10000000     ucrt:api-ms-win-crt-heap-l1-1-0.dll
 0000:fff07000       .debug$S                   10000000     ucrt:api-ms-win-crt-heap-l1-1-0.dll
 0000:fff07000       .debug$S                   10000000     ucrt:api-ms-win-crt-string-l1-1-0.dll
 0000:fff07000       .debug$S                   10000000     ucrt:api-ms-win-crt-string-l1-1-0.dll
 0000:fff07000       .debug$S                   10000000     ucrt:api-ms-win-crt-string-l1-1-0.dll
 0000:fff07000       .debug$S                   10000000     ucrt:api-ms-win-crt-utility-l1-1-0.dll
 0000:fff07000       .debug$S                   10000000     ucrt:api-ms-win-crt-math-l1-1-0.dll
 0000:fff07000       .debug$S                   10000000     ucrt:api-ms-win-crt-math-l1-1-0.dll
 0000:fff07000       .debug$S                   10000000     ucrt:api-ms-win-crt-math-l1-1-0.dll
 0000:fff07000       .debug$S                   10000000     ucrt:api-ms-win-crt-math-l1-1-0.dll
 0000:fff07000       .debug$S                   10000000     ucrt:api-ms-win-crt-math-l1-1-0.dll
 0000:fff07000       .debug$S                   10000000     ucrt:api-ms-win-crt-runtime-l1-1-0.dll
 0000:fff07000       .debug$S                   10000000     ucrt:api-ms-win-crt-stdio-l1-1-0.dll
 0000:fff07000       .debug$S                   10000000     ucrt:api-ms-win-crt-convert-l1-1-0.dll
 0000:fff07000       .debug$S                   10000000     ucrt:api-ms-win-crt-heap-l1-1-0.dll
 0000:fff07000       .debug$S                   10000000     msvcprt:MSVCP140.dll
 0000:fff07000       .debug$S                   10000000     vcruntime:VCRUNTIME140.dll
 0000:fff07000       .debug$S                   10000000     vcruntime:VCRUNTIME140.dll
 0000:fff07000       .debug$S                   10000000     vcruntime:VCRUNTIME140.dll
 0000:fff07000       .debug$S                   10000000     vcruntime:VCRUNTIME140.dll
 0000:fff07000       .debug$S                   10000000     vcruntime:VCRUNTIME140.dll
 0000:fff07000       .debug$S                   10000000     vcruntime:VCRUNTIME140.dll
 0000:fff07000       .debug$S                   10000000     vcruntime:VCRUNTIME140.dll
 0000:fff07000       .debug$S                   10000000     vcruntime:VCRUNTIME140.dll
 0000:fff07000       .debug$S                   10000000     vcruntime:VCRUNTIME140.dll
 0000:fff07000       .debug$S                   10000000     vcruntime:VCRUNTIME140.dll
 0000:fff07000       .debug$S                   10000000     vcruntime:VCRUNTIME140.dll
 0000:fff07000       .debug$S                   10000000     vcruntime:VCRUNTIME140.dll
 0000:fff07000       .debug$S                   10000000     vcruntime:VCRUNTIME140.dll
 0000:fff07000       .debug$S                   10000000     vcruntime:VCRUNTIME140.dll
 0000:fff07000       .debug$S                   10000000     vcruntime:VCRUNTIME140.dll
 0000:fff07000       .debug$S                   10000000     msvcprt:MSVCP140.dll
 0000:fff07000       .debug$S                   10000000     imm32:IMM32.dll
 0000:fff07000       .debug$S                   10000000     imm32:IMM32.dll
 0000:fff07000       .debug$S                   10000000     msvcprt:MSVCP140.dll
 0000:fff07000       .debug$S                   10000000     msvcprt:MSVCP140.dll
 0000:fff07000       .debug$S                   10000000     msvcprt:MSVCP140.dll
 0000:fff07000       .debug$S                   10000000     msvcprt:MSVCP140.dll
 0000:fff07000       .debug$S                   10000000     msvcprt:MSVCP140.dll
 0000:fff07000       .debug$S                   10000000     msvcprt:MSVCP140.dll
 0000:fff07000       .debug$S                   10000000     msvcprt:MSVCP140.dll
 0000:fff07000       .debug$S                   10000000     msvcprt:MSVCP140.dll
 0000:fff07000       .debug$S                   10000000     msvcprt:MSVCP140.dll
 0000:fff07000       .debug$S                   10000000     msvcprt:MSVCP140.dll
 0000:fff07000       .debug$S                   10000000     msvcprt:MSVCP140.dll
 0000:fff07000       .debug$S                   10000000     msvcprt:MSVCP140.dll
 0000:fff07000       .debug$S                   10000000     msvcprt:MSVCP140.dll
 0000:fff07000       .debug$S                   10000000     msvcprt:MSVCP140.dll
 0000:fff07000       .debug$S                   10000000     msvcprt:MSVCP140.dll
 0000:fff07000       .debug$S                   10000000     kernel32:KERNEL32.dll
 0000:fff07000       .debug$S                   10000000     kernel32:KERNEL32.dll
 0000:fff07000       .debug$S                   10000000     kernel32:KERNEL32.dll
 0000:fff07000       .debug$S                   10000000     kernel32:KERNEL32.dll
 0000:fff07000       .debug$S                   10000000     kernel32:KERNEL32.dll
 0000:fff07000       .debug$S                   10000000     kernel32:KERNEL32.dll
 0000:fff07000       .debug$S                   10000000     kernel32:KERNEL32.dll
 0000:fff07000       .debug$S                   10000000     kernel32:KERNEL32.dll
 0000:fff07000       .debug$S                   10000000     kernel32:KERNEL32.dll
 0000:fff07000       .debug$S                   10000000     kernel32:KERNEL32.dll
 0000:fff07000       .debug$S                   10000000     kernel32:KERNEL32.dll
 0000:fff07000       .debug$S                   10000000     kernel32:KERNEL32.dll
 0000:fff07000       .debug$S                   10000000     kernel32:KERNEL32.dll
 0000:fff07000       .debug$S                   10000000     kernel32:KERNEL32.dll
 0000:fff07000       .debug$S                   10000000     kernel32:KERNEL32.dll
 0000:fff07000       .debug$S                   10000000     msvcprt:MSVCP140.dll
 0000:fff07000       .debug$S                   10000000     user32:USER32.dll
 0000:fff07000       .debug$S                   10000000     user32:USER32.dll
 0000:fff07000       .debug$S                   10000000     user32:USER32.dll
 0000:fff07000       .debug$S                   10000000     user32:USER32.dll
 0000:fff07000       .debug$S                   10000000     user32:USER32.dll
 0000:fff07000       .debug$S                   10000000     user32:USER32.dll
 0000:fff07000       .debug$S                   10000000     user32:USER32.dll
 0000:fff07000       .debug$S                   10000000     user32:USER32.dll
 0000:fff07000       .debug$S                   10000000     user32:USER32.dll
 0000:fff07000       .debug$S                   10000000     user32:USER32.dll
 0000:fff07000       .debug$S                   10000000     user32:USER32.dll
 0000:fff07000       .debug$S                   10000000     user32:USER32.dll
 0000:fff07000       .debug$S                   10000000     user32:USER32.dll
 0000:fff07000       .debug$S                   10000000     shell32:SHELL32.dll
 0000:fff07000       .debug$S                   10000000     ole32:ole32.dll
 0000:fff07000       .debug$S                   10000000     msvcprt:MSVCP140.dll
 0000:fff07000       .debug$S                   10000000     msvcprt:MSVCP140.dll
 0000:fff07000       .debug$S                   10000000     msvcprt:MSVCP140.dll
 0000:fff07000       .debug$S                   10000000     msvcprt:MSVCP140.dll
 0000:fff07000       .debug$S                   10000000     msvcprt:MSVCP140.dll
 0000:fff07000       .debug$S                   10000000     msvcprt:MSVCP140.dll
 0000:fff07000       .debug$S                   10000000     msvcprt:MSVCP140.dll
 0000:fff07000       .debug$S                   10000000     msvcprt:MSVCP140.dll
 0000:fff07000       .debug$S                   10000000     msvcprt:MSVCP140.dll
 0000:fff07000       .debug$S                   10000000     msvcprt:MSVCP140.dll
 0000:fff07000       .debug$S                   10000000     msvcprt:MSVCP140.dll
 0000:fff07000       .debug$S                   10000000     msvcprt:MSVCP140.dll
 0000:fff07000       .debug$S                   10000000     msvcprt:MSVCP140.dll
 0000:fff07000       .debug$S                   10000000     msvcprt:MSVCP140.dll
 0000:fff07000       .debug$S                   10000000     msvcprt:MSVCP140.dll
 0000:fff07000       .debug$S                   10000000     msvcprt:MSVCP140.dll
 0000:fff07000       .debug$S                   10000000     msvcprt:MSVCP140.dll
 0000:fff07000       .debug$S                   10000000     msvcprt:MSVCP140.dll
 0000:fff07000       .debug$S                   10000000     msvcprt:MSVCP140.dll
 0000:fff07000       .debug$S                   10000000     msvcprt:MSVCP140.dll
 0000:fff07000       .debug$S                   10000000     msvcprt:MSVCP140.dll
 0000:fff07000       .debug$S                   10000000     msvcprt:MSVCP140.dll
 0000:fff07000       .debug$S                   10000000     msvcprt:MSVCP140.dll
 0000:fff07000       .debug$S                   10000000     msvcprt:MSVCP140.dll
 0000:fff07000       .debug$S                   10000000     msvcprt:MSVCP140.dll
 0000:fff07000       .debug$S                   10000000     msvcprt:MSVCP140.dll
 0000:fff07000       .debug$S                   10000000     msvcprt:MSVCP140.dll
 0000:fff07000       .debug$S                   10000000     msvcprt:MSVCP140.dll
 0000:fff07000       .debug$S                   10000000     msvcprt:MSVCP140.dll
 0000:fff07000       .debug$S                   10000000     msvcprt:MSVCP140.dll
 0000:fff07000       .debug$S                   10000000     msvcprt:MSVCP140.dll
 0000:fff07000       .debug$S                   10000000     msvcprt:MSVCP140.dll
 0000:fff07000       .debug$S                   10000000     msvcprt:MSVCP140.dll
 0000:fff07000       .debug$S                   10000000     msvcprt:MSVCP140.dll
 0000:fff07000       .debug$S                   10000000     msvcprt:MSVCP140.dll
 0000:fff07000       .debug$S                   10000000     msvcprt:MSVCP140.dll
 0000:fff07000       .debug$S                   10000000     msvcprt:MSVCP140.dll
 0000:fff07000       .debug$S                   10000000     msvcprt:MSVCP140.dll
 0000:fff07000       .debug$S                   10000000     msvcprt:MSVCP140.dll
 0000:fff07000       .debug$S                   10000000     msvcprt:MSVCP140.dll
 0000:fff07000       .debug$S                   10000000     msvcprt:MSVCP140.dll
 0001:00000000       ??__Evec2_origin@@YAXXZ    10001000 f   other_esp.obj
 0001:00000030       ??__Eg_Event@@YAXXZ        10001030 f   c_hooks.obj
 0001:00000050       ??__Ehooks@@YAXXZ          10001050 f   c_hooks.obj
 0001:00000070       ??__Evec2_origin@@YAXXZ    10001070 f   c_hooks.obj
 0001:000000a0       ??__Evec2_origin@@YAXXZ    100010a0 f   dll_main.obj
 0001:000000d0       ??__Eaimbot@@YAXXZ         100010d0 f   c_ragebot.obj
 0001:000000e0       ??__Evec2_origin@@YAXXZ    100010e0 f   c_ragebot.obj
 0001:00000110       ??__Evec2_origin@@YAXXZ    10001110 f   Autowall.obj
 0001:00000140       ??__Evec2_origin@@YAXXZ    10001140 f   EnginePrediction.obj
 0001:00000170       ??__Eg_LagComp@@YAXXZ      10001170 f   LagComp.obj
 0001:00000190       ??__Evec2_origin@@YAXXZ    10001190 f   LagComp.obj
 0001:000001c0       ??__Evec2_origin@@YAXXZ    100011c0 f   AntiAim.obj
 0001:000001f0       ??__Eg_Legitbot@@YAXXZ     100011f0 f   Legitbot.obj
 0001:00000210       ??__Evec2_origin@@YAXXZ    10001210 f   Legitbot.obj
 0001:00000240       ??__Eg_Resolver@@YAXXZ     10001240 f   Resolver.obj
 0001:00000250       ??__Evec2_origin@@YAXXZ    10001250 f   Resolver.obj
 0001:00000280       ??__Eesp@@YAXXZ            10001280 f   c_esp.obj
 0001:00000290       ??__Evec2_origin@@YAXXZ    10001290 f   c_esp.obj
 0001:000002c0       ??__EGImDefaultContext@@YAXXZ 100012c0 f   imgui.obj
 0001:000002e0       ??__EGImDefaultFontAtlas@@YAXXZ 100012e0 f   imgui.obj
 0001:00000300       ??__EGNullClipRect@@YAXXZ  10001300 f   imgui_draw.obj
 0001:00000350       ??__Evec2_origin@@YAXXZ    10001350 f   bone_processing_hook.obj
 0001:00000380       ??__Evec2_origin@@YAXXZ    10001380 f   createmove_hook.obj
 0001:000003b0       ??__Evec2_origin@@YAXXZ    100013b0 f   directx_preset_hook.obj
 0001:000003e0       ??__Evec2_origin@@YAXXZ    100013e0 f   dme_hook.obj
 0001:00000410       ??__Evec2_origin@@YAXXZ    10001410 f   event_hook.obj
 0001:00000440       ??__Evec2_origin@@YAXXZ    10001440 f   fsn_hook.obj
 0001:00000470       ??__Evec2_origin@@YAXXZ    10001470 f   hooking_init.obj
 0001:000004a0       ??__Evec2_origin@@YAXXZ    100014a0 f   lock_cursor_hook.obj
 0001:000004d0       ??__Evec2_origin@@YAXXZ    100014d0 f   oview_hook.obj
 0001:00000500       ??__Evec2_origin@@YAXXZ    10001500 f   painttraverse_hook.obj
 0001:00000530       ??__Evec2_origin@@YAXXZ    10001530 f   sceneend_hook.obj
 0001:00000560       ??__Evec2_origin@@YAXXZ    10001560 f   wndproc_hook.obj
 0001:00000590       ??__Egalaxy_vars@@YAXXZ    10001590 f   config_system.obj
 0001:000005b0       ??__Emenu@@YAXXZ           100015b0 f   menu_system.obj
 0001:000005c0       ??__Evec2_origin@@YAXXZ    100015c0 f   menu_system.obj
 0001:000005f0       ??__Ew_printf@XorCompileTime@@YAXXZ 100015f0 f   menu_system.obj
 0001:00000600       ??__Ew_printf_s@XorCompileTime@@YAXXZ 10001600 f   menu_system.obj
 0001:00000610       ??__Ew_sprintf@XorCompileTime@@YAXXZ 10001610 f   menu_system.obj
 0001:00000620       ??__Ew_sprintf_s@XorCompileTime@@YAXXZ 10001620 f   menu_system.obj
 0001:00000630       ??__Evec2_origin@@YAXXZ    10001630 f   CEntity.obj
 0001:00000660       ??__EAimbotHitbox@g@@YAXXZ 10001660 f   GlobalVars.obj
 0001:00000680       ??__EEnemyEyeAngs@g@@YAXXZ 10001680 f   GlobalVars.obj
 0001:000006a0       ??__EFakeAngle@g@@YAXXZ    100016a0 f   GlobalVars.obj
 0001:000006b0       ??__EOriginalView@g@@YAXXZ 100016b0 f   GlobalVars.obj
 0001:000006c0       ??__ERealAngle@g@@YAXXZ    100016c0 f   GlobalVars.obj
 0001:000006d0       ??__Evec2_origin@@YAXXZ    100016d0 f   GlobalVars.obj
 0001:00000700       ??__Evec2_origin@@YAXXZ    10001700 f   Interfaces.obj
 0001:00000730       ??__Evec2_origin@@YAXXZ    10001730 f   Math.obj
 0001:00000760       ??__Eg_pNetvars@@YAXXZ     10001760 f   NetvarManager.obj
 0001:0000077c       ??__E_Fac_tidy_reg@std@@YAXXZ 1000177c f   msvcprt:locale0_implib.obj
 0001:00002f82       __catch$?RestoreTable@ShadowVTManager@@QAEXXZ$0 10003f82 f i c_hooks.obj
 0001:00004436       __catch$?attach@@YGKPAX@Z$0 10005436 f   dll_main.obj
 0001:00004ca1       __catch$??$_Buynode@ABUpiecewise_construct_t@std@@V?$tuple@$$QAV?$basic_string@DU?$char_traits@D@std@@V?$allocator@D@2@@std@@@2@V?$tuple@$$V@2@@?$_List_buy@U?$pair@$$CBV?$basic_string@DU?$char_traits@D@std@@V?$allocator@D@2@@std@@V?$shared_ptr@UNode@NetvarTree@@@2@@std@@V?$allocator@U?$pair@$$CBV?$basic_string@DU?$char_traits@D@std@@V?$allocator@D@2@@std@@V?$shared_ptr@UNode@NetvarTree@@@2@@std@@@2@@std@@QAEPAU?$_List_node@U?$pair@$$CBV?$basic_string@DU?$char_traits@D@std@@V?$allocator@D@2@@std@@V?$shared_ptr@UNode@NetvarTree@@@2@@std@@PAX@1@PAU21@0ABUpiecewise_construct_t@1@$$QAV?$tuple@$$QAV?$basic_string@DU?$char_traits@D@std@@V?$allocator@D@2@@std@@@1@$$QAV?$tuple@$$V@1@@Z$0 10005ca1 f i c_ragebot.obj
 0001:00004fb9       __catch$??$_Emplace_reallocate@H@?$vector@HV?$allocator@H@std@@@std@@QAEPAHQAH$$QAH@Z$0 10005fb9 f i c_ragebot.obj
 0001:000052b2       __catch$??$_Insert@AAU?$pair@$$CBV?$basic_string@DU?$char_traits@D@std@@V?$allocator@D@2@@std@@V?$shared_ptr@UNode@NetvarTree@@@2@@std@@V?$_List_unchecked_iterator@V?$_List_val@U?$_List_simple_types@U?$pair@$$CBV?$basic_string@DU?$char_traits@D@std@@V?$allocator@D@2@@std@@V?$shared_ptr@UNode@NetvarTree@@@2@@std@@@std@@@std@@@2@@?$_Hash@V?$_Umap_traits@V?$basic_string@DU?$char_traits@D@std@@V?$allocator@D@2@@std@@V?$shared_ptr@UNode@NetvarTree@@@2@V?$_Uhash_compare@V?$basic_string@DU?$char_traits@D@std@@V?$allocator@D@2@@std@@U?$hash@V?$basic_string@DU?$char_traits@D@std@@V?$allocator@D@2@@std@@@2@U?$equal_to@V?$basic_string@DU?$char_traits@D@std@@V?$allocator@D@2@@std@@@2@@2@V?$allocator@U?$pair@$$CBV?$basic_string@DU?$char_traits@D@std@@V?$allocator@D@2@@std@@V?$shared_ptr@UNode@NetvarTree@@@2@@std@@@2@$0A@@std@@@std@@IAE?AU?$pair@V?$_List_iterator@V?$_List_val@U?$_List_simple_types@U?$pair@$$CBV?$basic_string@DU?$char_traits@D@std@@V?$allocator@D@2@@std@@V?$shared_ptr@UNode@NetvarTree@@@2@@std@@@std@@@std@@@std@@_N@1@AAU?$pair@$$CBV?$basic_string@DU?$char_traits@D@std@@V?$allocator@D@2@@std@@V?$shared_ptr@UNode@NetvarTree@@@2@@1@V?$_List_unchecked_iterator@V?$_List_val@U?$_List_simple_types@U?$pair@$$CBV?$basic_string@DU?$char_traits@D@std@@V?$allocator@D@2@@std@@V?$shared_ptr@UNode@NetvarTree@@@2@@std@@@std@@@std@@@1@@Z$0 100062b2 f i c_ragebot.obj
 0001:0000536c       __catch$??$_Insert@AAU?$pair@$$CBV?$basic_string@DU?$char_traits@D@std@@V?$allocator@D@2@@std@@V?$shared_ptr@UNode@NetvarTree@@@2@@std@@V?$_List_unchecked_iterator@V?$_List_val@U?$_List_simple_types@U?$pair@$$CBV?$basic_string@DU?$char_traits@D@std@@V?$allocator@D@2@@std@@V?$shared_ptr@UNode@NetvarTree@@@2@@std@@@std@@@std@@@2@@?$_Hash@V?$_Umap_traits@V?$basic_string@DU?$char_traits@D@std@@V?$allocator@D@2@@std@@V?$shared_ptr@UNode@NetvarTree@@@2@V?$_Uhash_compare@V?$basic_string@DU?$char_traits@D@std@@V?$allocator@D@2@@std@@U?$hash@V?$basic_string@DU?$char_traits@D@std@@V?$allocator@D@2@@std@@@2@U?$equal_to@V?$basic_string@DU?$char_traits@D@std@@V?$allocator@D@2@@std@@@2@@2@V?$allocator@U?$pair@$$CBV?$basic_string@DU?$char_traits@D@std@@V?$allocator@D@2@@std@@V?$shared_ptr@UNode@NetvarTree@@@2@@std@@@2@$0A@@std@@@std@@IAE?AU?$pair@V?$_List_iterator@V?$_List_val@U?$_List_simple_types@U?$pair@$$CBV?$basic_string@DU?$char_traits@D@std@@V?$allocator@D@2@@std@@V?$shared_ptr@UNode@NetvarTree@@@2@@std@@@std@@@std@@@std@@_N@1@AAU?$pair@$$CBV?$basic_string@DU?$char_traits@D@std@@V?$allocator@D@2@@std@@V?$shared_ptr@UNode@NetvarTree@@@2@@1@V?$_List_unchecked_iterator@V?$_List_val@U?$_List_simple_types@U?$pair@$$CBV?$basic_string@DU?$char_traits@D@std@@V?$allocator@D@2@@std@@V?$shared_ptr@UNode@NetvarTree@@@2@@std@@@std@@@std@@@1@@Z$2 1000636c f i c_ragebot.obj
 0001:00005ef0       ??0<lambda_d047aa5cc1f86c7b1c4b875d1253a0f3>@@QAE@ABQAUImGuiWindow@@@Z 10006ef0 f i imgui.obj
 0001:00005ef0       ??0<lambda_42d221394b547edb48c6f2ecbde06d0c>@@QAE@ABQAUImGuiWindow@@@Z 10006ef0 f i imgui.obj
 0001:00009bba       __catch$?_Buynode0@?$_List_alloc@U?$_List_base_types@U?$pair@$$CBV?$basic_string@DU?$char_traits@D@std@@V?$allocator@D@2@@std@@V?$shared_ptr@UNode@NetvarTree@@@2@@std@@V?$allocator@U?$pair@$$CBV?$basic_string@DU?$char_traits@D@std@@V?$allocator@D@2@@std@@V?$shared_ptr@UNode@NetvarTree@@@2@@std@@@2@@std@@@std@@QAEPAU?$_List_node@U?$pair@$$CBV?$basic_string@DU?$char_traits@D@std@@V?$allocator@D@2@@std@@V?$shared_ptr@UNode@NetvarTree@@@2@@std@@PAX@2@PAU32@0@Z$0 1000abba f i c_ragebot.obj
 0001:0000a4db       __catch$?_Reallocate_exactly@?$vector@V?$_List_unchecked_iterator@V?$_List_val@U?$_List_simple_types@U?$pair@$$CBV?$basic_string@DU?$char_traits@D@std@@V?$allocator@D@2@@std@@V?$shared_ptr@UNode@NetvarTree@@@2@@std@@@std@@@std@@@std@@V?$allocator@V?$_List_unchecked_iterator@V?$_List_val@U?$_List_simple_types@U?$pair@$$CBV?$basic_string@DU?$char_traits@D@std@@V?$allocator@D@2@@std@@V?$shared_ptr@UNode@NetvarTree@@@2@@std@@@std@@@std@@@std@@@2@@std@@AAEXI@Z$0 1000b4db f i c_ragebot.obj
 0001:0000ba74       $LN8                       1000ca74     Autowall.obj
 0001:00011630       ??R<lambda_f338f303ecc4ff2fd081edb185de3335>@@QBEMMMMMM@Z 10012630 f   Resolver.obj
 0001:00016b70       ?ImGui_ImplDX9_CreateFontsTexture@@YA_NXZ 10017b70 f   imgui_impl_dx9.obj
 0001:00017edc       $LN22                      10018edc     imgui_impl_dx9.obj
 0001:0001b270       ??D@YA?AUImVec2@@ABU0@0@Z  1001c270 f   imgui.obj
 0001:0001b270       ??D@YA?AUImVec2@@ABU0@0@Z  1001c270 f   imgui_draw.obj
 0001:0001b2b0       ??D@YA?AUImVec2@@ABU0@M@Z  1001c2b0 f   imgui.obj
 0001:0001b2b0       ??D@YA?AUImVec2@@ABU0@M@Z  1001c2b0 f   imgui_draw.obj
 0001:0001b2f0       ??G@YA?AUImVec2@@ABU0@0@Z  1001c2f0 f   imgui_draw.obj
 0001:0001b2f0       ??G@YA?AUImVec2@@ABU0@0@Z  1001c2f0 f   imgui.obj
 0001:0001b330       ??H@YA?AUImVec2@@ABU0@0@Z  1001c330 f   imgui.obj
 0001:0001b330       ??H@YA?AUImVec2@@ABU0@0@Z  1001c330 f   imgui_draw.obj
 0001:0001b370       ??K@YA?AUImVec2@@ABU0@0@Z  1001c370 f   imgui.obj
 0001:0001b3b0       ??R<lambda_42d221394b547edb48c6f2ecbde06d0c>@@QBEXHHM@Z 1001c3b0 f   imgui.obj
 0001:0001b4d0       ??R<lambda_d047aa5cc1f86c7b1c4b875d1253a0f3>@@QBEXHH_NM@Z 1001c4d0 f   imgui.obj
 0001:0001b860       ??X@YAAAUImVec2@@AAU0@M@Z  1001c860 f   imgui_draw.obj
 0001:0001b860       ??X@YAAAUImVec2@@AAU0@M@Z  1001c860 f   imgui.obj
 0001:0001b890       ??Y@YAAAUImVec2@@AAU0@ABU0@@Z 1001c890 f   imgui.obj
 0001:0001b950       ?AddDrawListToRenderList@@YAXAAV?$ImVector@PAUImDrawList@@@@PAUImDrawList@@@Z 1001c950 f   imgui.obj
 0001:0001ba40       ?AddWindowSettings@@YAPAUImGuiIniData@@PBD@Z 1001ca40 f   imgui.obj
 0001:0001bb10       ?AddWindowToRenderList@@YAXAAV?$ImVector@PAUImDrawList@@@@PAUImGuiWindow@@@Z 1001cb10 f   imgui.obj
 0001:0001bbb0       ?AddWindowToSortedBuffer@@YAXAAV?$ImVector@PAUImGuiWindow@@@@PAUImGuiWindow@@@Z 1001cbb0 f   imgui.obj
 0001:0001bc70       ?ApplySizeFullWithConstraint@@YAXPAUImGuiWindow@@UImVec2@@@Z 1001cc70 f   imgui.obj
 0001:0001f730       ?BeginChildEx@@YA_NPBDIABUImVec2@@_NH@Z 10020730 f   imgui.obj
 0001:000200f0       ?BeginPopupEx@@YA_NIH@Z    100210f0 f   imgui.obj
 0001:000211b0       ?CheckStacksSize@@YAXPAUImGuiWindow@@_N@Z 100221b0 f   imgui.obj
 0001:00021c20       ?ChildWindowComparer@@YAHPBX0@Z 10022c20 f   imgui.obj
 0001:00021d00       ?ClearSetNextWindowData@@YAXXZ 10022d00 f   imgui.obj
 0001:000221c0       ?CloseInactivePopups@@YAXXZ 100231c0 f   imgui.obj
 0001:00022330       ?ClosePopup@@YAXI@Z        10023330 f   imgui.obj
 0001:00022370       ?ClosePopupToLevel@@YAXH@Z 10023370 f   imgui.obj
 0001:00022e08       $LN12                      10023e08     imgui.obj
 0001:00023dc0       ?ColorEditOptionsPopup@@YAXH@Z 10024dc0 f   imgui.obj
 0001:00025340       ?ColorPickerOptionsPopup@@YAXHPAM@Z 10026340 f   imgui.obj
 0001:000255c0       ?ColorSquareSize@@YAMXZ    100265c0 f   imgui.obj
 0001:000261e0       ?CreateNewWindow@@YAPAUImGuiWindow@@PBDUImVec2@@H@Z 100271e0 f   imgui.obj
 0001:000265f0       ?DataTypeApplyOpFromText@@YA_NPBD0W4ImGuiDataType@@PAX0@Z 100275f0 f   imgui.obj
 0001:00026910       ?DataTypeFormatString@@YAXW4ImGuiDataType@@PAXHPADH@Z 10027910 f   imgui.obj
 0001:00028c40       ?FindBestPopupWindowPos@@YA?AUImVec2@@ABU1@0PAHABUImRect@@@Z 10029c40 f   imgui.obj
 0001:00029020       ?FindHoveredWindow@@YAPAUImGuiWindow@@UImVec2@@_N@Z 1002a020 f   imgui.obj
 0001:00029220       ?FindWindowSettings@@YAPAUImGuiIniData@@PBD@Z 1002a220 f   imgui.obj
 0001:00029690       ?GetClipboardTextFn_DefaultImpl@@YAPBDPAX@Z 1002a690 f   imgui.obj
 0001:00029ba0       ?GetDefaultFont@@YAPAUImFont@@XZ 1002aba0 f   imgui.obj
 0001:00029bf0       ?GetDraggedColumnOffset@@YAMH@Z 1002abf0 f   imgui.obj
 0001:00029d20       ?GetFrontMostModalRootWindow@@YAPAUImGuiWindow@@XZ 1002ad20 f   imgui.obj
 0001:00029f20       ?GetMinimumStepAtDecimalPrecision@@YAMH@Z 1002af20 f   imgui.obj
 0001:0002a160       ?GetStyleVarInfo@@YAPBUImGuiStyleVarInfo@@H@Z 1002b160 f   imgui.obj
 0001:0002a220       ?GetVisibleRect@@YA?AUImRect@@XZ 1002b220 f   imgui.obj
 0001:0002a420       ?ImAlphaBlendColor@@YAIII@Z 1002b420 f   imgui.obj
 0001:0002a510       ?ImCharIsSpace@@YA_NH@Z    1002b510 f   imgui.obj
 0001:0002a510       ?ImCharIsSpace@@YA_NH@Z    1002b510 f   imgui_draw.obj
 0001:0002a540       ?ImClamp@@YA?AUImVec2@@ABU1@0U1@@Z 1002b540 f   imgui.obj
 0001:0002a5d0       ?ImClamp@@YAHHHH@Z         1002b5d0 f   imgui.obj
 0001:0002a610       ?ImClamp@@YAMMMM@Z         1002b610 f   imgui.obj
 0001:0002a890       ?ImFloor@@YA?AUImVec2@@ABU1@@Z 1002b890 f   imgui.obj
 0001:0002a8d0       ?ImFloor@@YAMM@Z           1002b8d0 f   imgui.obj
 0001:0002ab10       ?ImLengthSqr@@YAMABUImVec2@@@Z 1002bb10 f   imgui.obj
 0001:0002ab50       ?ImLerp@@YAHHHM@Z          1002bb50 f   imgui.obj
 0001:0002ab80       ?ImLerp@@YAMMMM@Z          1002bb80 f   imgui.obj
 0001:0002abb0       ?ImMax@@YA?AUImVec2@@ABU1@0@Z 1002bbb0 f   imgui.obj
 0001:0002ac30       ?ImMax@@YAHHH@Z            1002bc30 f   imgui_draw.obj
 0001:0002ac30       ?ImMax@@YAHHH@Z            1002bc30 f   imgui.obj
 0001:0002ac60       ?ImMax@@YAMMM@Z            1002bc60 f   imgui_draw.obj
 0001:0002ac60       ?ImMax@@YAMMM@Z            1002bc60 f   imgui.obj
 0001:0002ac90       ?ImMin@@YA?AUImVec2@@ABU1@0@Z 1002bc90 f   imgui.obj
 0001:0002ad10       ?ImMin@@YAHHH@Z            1002bd10 f   imgui.obj
 0001:0002ad40       ?ImMin@@YAMMM@Z            1002bd40 f   imgui_draw.obj
 0001:0002ad40       ?ImMin@@YAMMM@Z            1002bd40 f   imgui.obj
 0001:0002ad70       ?ImSaturate@@YAMM@Z        1002bd70 f   imgui.obj
 0001:0002b310       ?ImTextCharToUtf8@@YAHPADHI@Z 1002c310 f   imgui.obj
 0001:0002b510       ?ImTextCountUtf8BytesFromChar@@YAHI@Z 1002c510 f   imgui.obj
 0001:0002b720       ?ImeSetInputScreenPosFn_DefaultImpl@@YAXHH@Z 1002c720 f   imgui.obj
 0001:0002b900       ?InputTextCalcTextLenAndLineCount@@YAHPBDPAPBD@Z 1002c900 f   imgui.obj
 0001:0002b990       ?InputTextCalcTextSizeW@@YA?AUImVec2@@PBG0PAPBGPAU1@_N@Z 1002c990 f   imgui.obj
 0001:0002e550       ?InputTextFilterCharacter@@YA_NPAIHP6AHPAUImGuiTextEditCallbackData@@@ZPAX@Z 1002f550 f   imgui.obj
 0001:0002ebc0       ?IsKeyPressedMap@@YA_NH_N@Z 1002fbc0 f   imgui.obj
 0001:0002ee20       ?IsWindowContentHoverable@@YA_NPAUImGuiWindow@@@Z 1002fe20 f   imgui.obj
 0001:0002f1d0       ?Items_ArrayGetter@@YA_NPAXHPAPBD@Z 100301d0 f   imgui.obj
 0001:0002f7f0       ?LoadIniSettingsFromDisk@@YAXPBD@Z 100307f0 f   imgui.obj
 0001:0002fb00       ?LogRenderedText@@YAXABUImVec2@@PBD1@Z 10030b00 f   imgui.obj
 0001:0002fd20       ?LowerBound@@YAPAUPair@ImGuiStorage@@AAV?$ImVector@UPair@ImGuiStorage@@@@I@Z 10030d20 f   imgui.obj
 0001:0002fda0       ?MarkIniSettingsDirty@@YAXPAUImGuiWindow@@@Z 10030da0 f   imgui.obj
 0001:00031300       ?OffsetNormToPixels@@YAMPAUImGuiWindow@@M@Z 10032300 f   imgui.obj
 0001:000316f0       ?PixelsToOffsetNorm@@YAMPAUImGuiWindow@@M@Z 100326f0 f   imgui.obj
 0001:00033d60       ?STB_TEXTEDIT_DELETECHARS@ImGuiStb@@YAXPAUImGuiTextEditState@@HH@Z 10034d60 f   imgui.obj
 0001:00033e10       ?STB_TEXTEDIT_GETCHAR@ImGuiStb@@YAGPBUImGuiTextEditState@@H@Z 10034e10 f   imgui.obj
 0001:00033e30       ?STB_TEXTEDIT_GETWIDTH@ImGuiStb@@YAMPAUImGuiTextEditState@@HH@Z 10034e30 f   imgui.obj
 0001:00033ec0       ?STB_TEXTEDIT_INSERTCHARS@ImGuiStb@@YA_NPAUImGuiTextEditState@@HPBGH@Z 10034ec0 f   imgui.obj
 0001:00033fc0       ?STB_TEXTEDIT_KEYTOTEXT@ImGuiStb@@YAHH@Z 10034fc0 f   imgui.obj
 0001:00033ff0       ?STB_TEXTEDIT_LAYOUTROW@ImGuiStb@@YAXPAUStbTexteditRow@1@PAUImGuiTextEditState@@H@Z 10034ff0 f   imgui.obj
 0001:00034090       ?STB_TEXTEDIT_MOVEWORDLEFT_IMPL@ImGuiStb@@YAHPAUImGuiTextEditState@@H@Z 10035090 f   imgui.obj
 0001:000340e0       ?STB_TEXTEDIT_MOVEWORDRIGHT_IMPL@ImGuiStb@@YAHPAUImGuiTextEditState@@H@Z 100350e0 f   imgui.obj
 0001:00034140       ?STB_TEXTEDIT_STRINGLEN@ImGuiStb@@YAHPBUImGuiTextEditState@@@Z 10035140 f   imgui.obj
 0001:00034260       ?SaveIniSettingsToDisk@@YAXPBD@Z 10035260 f   imgui.obj
 0001:00034460       ?Scrollbar@@YAXPAUImGuiWindow@@_N@Z 10035460 f   imgui.obj
 0001:00035dd0       ?SetClipboardTextFn_DefaultImpl@@YAXPAXPBD@Z 10036dd0 f   imgui.obj
 0001:00036000       ?SetCurrentFont@@YAXPAUImFont@@@Z 10037000 f   imgui.obj
 0001:000360b0       ?SetCurrentWindow@@YAXPAUImGuiWindow@@@Z 100370b0 f   imgui.obj
 0001:000361d0       ?SetCursorPosYAndSetupDummyPrevLine@@YAXMM@Z 100371d0 f   imgui.obj
 0001:000364f0       ?SetWindowCollapsed@@YAXPAUImGuiWindow@@_NH@Z 100374f0 f   imgui.obj
 0001:00036550       ?SetWindowPos@@YAXPAUImGuiWindow@@ABUImVec2@@H@Z 10037550 f   imgui.obj
 0001:00036640       ?SetWindowScrollY@@YAXPAUImGuiWindow@@M@Z 10037640 f   imgui.obj
 0001:00036690       ?SetWindowSize@@YAXPAUImGuiWindow@@ABUImVec2@@H@Z 10037690 f   imgui.obj
 0001:00037600       ?SliderBehaviorCalcRatioFromValue@@YAMMMMMM@Z 10038600 f   imgui.obj
 0001:00038c50       ?is_separator@ImGuiStb@@YA_NI@Z 10039c50 f   imgui.obj
 0001:00038cc0       ?is_word_boundary_from_right@ImGuiStb@@YAHPAUImGuiTextEditState@@H@Z 10039cc0 f   imgui.obj
 0001:00039630       ?stb_text_create_undo_record@ImGuiStb@@YAPAUStbUndoRecord@1@PAUStbUndoState@1@H@Z 1003a630 f   imgui.obj
 0001:000396e0       ?stb_text_createundo@ImGuiStb@@YAPAGPAUStbUndoState@1@HHH@Z 1003a6e0 f   imgui.obj
 0001:00039780       ?stb_text_locate_coord@ImGuiStb@@YAHPAUImGuiTextEditState@@MM@Z 1003a780 f   imgui.obj
 0001:00039950       ?stb_text_makeundo_delete@ImGuiStb@@YAXPAUImGuiTextEditState@@PAUSTB_TexteditState@1@HH@Z 1003a950 f   imgui.obj
 0001:000399c0       ?stb_text_makeundo_insert@ImGuiStb@@YAXPAUSTB_TexteditState@1@HH@Z 1003a9c0 f   imgui.obj
 0001:000399e0       ?stb_text_makeundo_replace@ImGuiStb@@YAXPAUImGuiTextEditState@@PAUSTB_TexteditState@1@HHH@Z 1003a9e0 f   imgui.obj
 0001:00039a50       ?stb_text_redo@ImGuiStb@@YAXPAUImGuiTextEditState@@PAUSTB_TexteditState@1@@Z 1003aa50 f   imgui.obj
 0001:00039c50       ?stb_text_undo@ImGuiStb@@YAXPAUImGuiTextEditState@@PAUSTB_TexteditState@1@@Z 1003ac50 f   imgui.obj
 0001:00039e90       ?stb_textedit_clamp@ImGuiStb@@YAXPAUImGuiTextEditState@@PAUSTB_TexteditState@1@@Z 1003ae90 f   imgui.obj
 0001:00039f10       ?stb_textedit_clear_state@ImGuiStb@@YAXPAUSTB_TexteditState@1@H@Z 1003af10 f   imgui.obj
 0001:00039fa0       ?stb_textedit_click@ImGuiStb@@YAXPAUImGuiTextEditState@@PAUSTB_TexteditState@1@MM@Z 1003afa0 f   imgui.obj
 0001:00039ff0       ?stb_textedit_cut@ImGuiStb@@YAHPAUImGuiTextEditState@@PAUSTB_TexteditState@1@@Z 1003aff0 f   imgui.obj
 0001:0003a030       ?stb_textedit_delete@ImGuiStb@@YAXPAUImGuiTextEditState@@PAUSTB_TexteditState@1@HH@Z 1003b030 f   imgui.obj
 0001:0003a070       ?stb_textedit_delete_selection@ImGuiStb@@YAXPAUImGuiTextEditState@@PAUSTB_TexteditState@1@@Z 1003b070 f   imgui.obj
 0001:0003a130       ?stb_textedit_discard_redo@ImGuiStb@@YAXPAUStbUndoState@1@@Z 1003b130 f   imgui.obj
 0001:0003a290       ?stb_textedit_discard_undo@ImGuiStb@@YAXPAUStbUndoState@1@@Z 1003b290 f   imgui.obj
 0001:0003a3b0       ?stb_textedit_drag@ImGuiStb@@YAXPAUImGuiTextEditState@@PAUSTB_TexteditState@1@MM@Z 1003b3b0 f   imgui.obj
 0001:0003a410       ?stb_textedit_find_charpos@ImGuiStb@@YAXPAUStbFindState@1@PAUImGuiTextEditState@@HH@Z 1003b410 f   imgui.obj
 0001:0003a610       ?stb_textedit_flush_redo@ImGuiStb@@YAXPAUStbUndoState@1@@Z 1003b610 f   imgui.obj
 0001:0003a640       ?stb_textedit_initialize_state@ImGuiStb@@YAXPAUSTB_TexteditState@1@H@Z 1003b640 f   imgui.obj
 0001:0003a660       ?stb_textedit_key@ImGuiStb@@YAXPAUImGuiTextEditState@@PAUSTB_TexteditState@1@H@Z 1003b660 f   imgui.obj
 0001:0003b1f0       $LN100                     1003c1f0     imgui.obj
 0001:0003b228       $LN101                     1003c228     imgui.obj
 0001:0003b260       ?stb_textedit_move_to_first@ImGuiStb@@YAXPAUSTB_TexteditState@1@@Z 1003c260 f   imgui.obj
 0001:0003b2a0       ?stb_textedit_move_to_last@ImGuiStb@@YAXPAUImGuiTextEditState@@PAUSTB_TexteditState@1@@Z 1003c2a0 f   imgui.obj
 0001:0003b2f0       ?stb_textedit_paste@ImGuiStb@@YAHPAUImGuiTextEditState@@PAUSTB_TexteditState@1@PBGH@Z 1003c2f0 f   imgui.obj
 0001:0003b3a0       ?stb_textedit_prep_selection_at_cursor@ImGuiStb@@YAXPAUSTB_TexteditState@1@@Z 1003c3a0 f   imgui.obj
 0001:0003b3e0       ?stb_textedit_sortselection@ImGuiStb@@YAXPAUSTB_TexteditState@1@@Z 1003c3e0 f   imgui.obj
 0001:0003f790       ?Decode85@@YAXPBEPAE@Z     10040790 f   imgui_draw.obj
 0001:0003f8d0       ?Decode85Byte@@YAID@Z      100408d0 f   imgui_draw.obj
 0001:0003f960       ?GetDefaultCompressedFontDataTTFBase85@@YAPBDXZ 10040960 f   imgui_draw.obj
 0001:00041150       ?ImInvLength@@YAMABUImVec2@@M@Z 10042150 f   imgui_draw.obj
 0001:000411c0       ?ImUpperPowerOfTwo@@YAHH@Z 100421c0 f   imgui_draw.obj
 0001:00042dd0       ?rect_height_compare@@YAHPBX0@Z 10043dd0 f   imgui_draw.obj
 0001:00042e60       ?rect_original_order@@YAHPBX0@Z 10043e60 f   imgui_draw.obj
 0001:000430b0       ?stb__lit@@YAXPAEI@Z       100440b0 f   imgui_draw.obj
 0001:00043120       ?stb__match@@YAXPAEI@Z     10044120 f   imgui_draw.obj
 0001:000431b0       ?stb_adler32@@YAIIPAEI@Z   100441b0 f   imgui_draw.obj
 0001:00043390       ?stb_decompress@@YAIPAE0I@Z 10044390 f   imgui_draw.obj
 0001:00043580       ?stb_decompress_length@@YAIPAE@Z 10044580 f   imgui_draw.obj
 0001:000435d0       ?stb_decompress_token@@YAPAEPAE@Z 100445d0 f   imgui_draw.obj
 0001:000439c0       ?stbrp__skyline_find_best_pos@@YA?AUstbrp__findresult@@PAUstbrp_context@@HH@Z 100449c0 f   imgui_draw.obj
 0001:00043c00       ?stbrp__skyline_find_min_y@@YAHPAUstbrp_context@@PAUstbrp_node@@HHPAH@Z 10044c00 f   imgui_draw.obj
 0001:00043d00       ?stbrp__skyline_pack_rectangle@@YA?AUstbrp__findresult@@PAUstbrp_context@@HH@Z 10044d00 f   imgui_draw.obj
 0001:00043e70       ?stbtt_FlattenCurves@@YAPAUstbtt__point@@PAUstbtt_vertex@@HMPAPAHPAHPAX@Z 10044e70 f   imgui_draw.obj
 0001:0004429c       $LN25                      1004529c     imgui_draw.obj
 0001:000442b0       ?stbtt_GetFontOffsetForIndex_internal@@YAHPAEH@Z 100452b0 f   imgui_draw.obj
 0001:000443e0       ?stbtt_InitFont_internal@@YAHPAUstbtt_fontinfo@@PAEH@Z 100453e0 f   imgui_draw.obj
 0001:00044b30       ?stbtt__GetGlyfOffset@@YAHPBUstbtt_fontinfo@@H@Z 10045b30 f   imgui_draw.obj
 0001:00044c30       ?stbtt__GetGlyphInfoT2@@YAHPBUstbtt_fontinfo@@HPAH111@Z 10045c30 f   imgui_draw.obj
 0001:00044d40       ?stbtt__GetGlyphShapeT2@@YAHPBUstbtt_fontinfo@@HPAPAUstbtt_vertex@@@Z 10045d40 f   imgui_draw.obj
 0001:00044e60       ?stbtt__GetGlyphShapeTT@@YAHPBUstbtt_fontinfo@@HPAPAUstbtt_vertex@@@Z 10045e60 f   imgui_draw.obj
 0001:00045c30       ?stbtt__add_point@@YAXPAUstbtt__point@@HMM@Z 10046c30 f   imgui_draw.obj
 0001:00045c60       ?stbtt__buf_get8@@YAEPAUstbtt__buf@@@Z 10046c60 f   imgui_draw.obj
 0001:00045ca0       ?stbtt__buf_get@@YAIPAUstbtt__buf@@H@Z 10046ca0 f   imgui_draw.obj
 0001:00045cf0       ?stbtt__buf_peek8@@YAEPAUstbtt__buf@@@Z 10046cf0 f   imgui_draw.obj
 0001:00045d20       ?stbtt__buf_range@@YA?AUstbtt__buf@@PBU1@HH@Z 10046d20 f   imgui_draw.obj
 0001:00045dd0       ?stbtt__buf_seek@@YAXPAUstbtt__buf@@H@Z 10046dd0 f   imgui_draw.obj
 0001:00045e10       ?stbtt__buf_skip@@YAXPAUstbtt__buf@@H@Z 10046e10 f   imgui_draw.obj
 0001:00045e30       ?stbtt__cff_get_index@@YA?AUstbtt__buf@@PAU1@@Z 10046e30 f   imgui_draw.obj
 0001:00045ef0       ?stbtt__cff_index_count@@YAHPAUstbtt__buf@@@Z 10046ef0 f   imgui_draw.obj
 0001:00045f20       ?stbtt__cff_index_get@@YA?AUstbtt__buf@@U1@H@Z 10046f20 f   imgui_draw.obj
 0001:00045ff0       ?stbtt__cff_int@@YAIPAUstbtt__buf@@@Z 10046ff0 f   imgui_draw.obj
 0001:000460d0       ?stbtt__cff_skip_operand@@YAXPAUstbtt__buf@@@Z 100470d0 f   imgui_draw.obj
 0001:00046150       ?stbtt__cid_get_glyph_subrs@@YA?AUstbtt__buf@@PBUstbtt_fontinfo@@H@Z 10047150 f   imgui_draw.obj
 0001:00046320       ?stbtt__close_shape@@YAHPAUstbtt_vertex@@HHHHHHHHH@Z 10047320 f   imgui_draw.obj
 0001:00046410       ?stbtt__csctx_close_shape@@YAXPAUstbtt__csctx@@@Z 10047410 f   imgui_draw.obj
 0001:00046470       ?stbtt__csctx_rccurve_to@@YAXPAUstbtt__csctx@@MMMMMM@Z 10047470 f   imgui_draw.obj
 0001:00046520       ?stbtt__csctx_rline_to@@YAXPAUstbtt__csctx@@MM@Z 10047520 f   imgui_draw.obj
 0001:00046580       ?stbtt__csctx_rmove_to@@YAXPAUstbtt__csctx@@MM@Z 10047580 f   imgui_draw.obj
 0001:00046620       ?stbtt__csctx_v@@YAXPAUstbtt__csctx@@EHHHHHH@Z 10047620 f   imgui_draw.obj
 0001:000466e0       ?stbtt__dict_get@@YA?AUstbtt__buf@@PAU1@H@Z 100476e0 f   imgui_draw.obj
 0001:00046800       ?stbtt__dict_get_ints@@YAXPAUstbtt__buf@@HHPAI@Z 10047800 f   imgui_draw.obj
 0001:00046880       ?stbtt__fill_active_edges_new@@YAXPAM0HPAUstbtt__active_edge@@M@Z 10047880 f   imgui_draw.obj
 0001:00047300       ?stbtt__find_table@@YAIPAEIPBD@Z 10048300 f   imgui_draw.obj
 0001:00047410       ?stbtt__get_subr@@YA?AUstbtt__buf@@U1@H@Z 10048410 f   imgui_draw.obj
 0001:000474f0       ?stbtt__get_subrs@@YA?AUstbtt__buf@@U1@0@Z 100484f0 f   imgui_draw.obj
 0001:00047680       ?stbtt__h_prefilter@@YAXPAEHHHI@Z 10048680 f   imgui_draw.obj
 0001:00047934       $LN31                      10048934     imgui_draw.obj
 0001:00047950       ?stbtt__handle_clipped_edge@@YAXPAMHPAUstbtt__active_edge@@MMMM@Z 10048950 f   imgui_draw.obj
 0001:00047b00       ?stbtt__hheap_alloc@@YAPAXPAUstbtt__hheap@@IPAX@Z 10048b00 f   imgui_draw.obj
 0001:00047bd0       ?stbtt__hheap_cleanup@@YAXPAUstbtt__hheap@@PAX@Z 10048bd0 f   imgui_draw.obj
 0001:00047c10       ?stbtt__hheap_free@@YAXPAUstbtt__hheap@@PAX@Z 10048c10 f   imgui_draw.obj
 0001:00047c30       ?stbtt__isfont@@YAHPAE@Z   10048c30 f   imgui_draw.obj
 0001:00047e90       ?stbtt__new_active@@YAPAUstbtt__active_edge@@PAUstbtt__hheap@@PAUstbtt__edge@@HMPAX@Z 10048e90 f   imgui_draw.obj
 0001:00047fc0       ?stbtt__new_buf@@YA?AUstbtt__buf@@PBXI@Z 10048fc0 f   imgui_draw.obj
 0001:00048000       ?stbtt__oversample_shift@@YAMH@Z 10049000 f   imgui_draw.obj
 0001:00048040       ?stbtt__rasterize@@YAXPAUstbtt__bitmap@@PAUstbtt__point@@PAHHMMMMHHHPAX@Z 10049040 f   imgui_draw.obj
 0001:00048310       ?stbtt__rasterize_sorted_edges@@YAXPAUstbtt__bitmap@@PAUstbtt__edge@@HHHHPAX@Z 10049310 f   imgui_draw.obj
 0001:00048730       ?stbtt__run_charstring@@YAHPBUstbtt_fontinfo@@HPAUstbtt__csctx@@@Z 10049730 f   imgui_draw.obj
 0001:00049cdc       $LN104                     1004acdc     imgui_draw.obj
 0001:00049d2c       $LN103                     1004ad2c     imgui_draw.obj
 0001:00049d4c       $LN105                     1004ad4c     imgui_draw.obj
 0001:00049d60       ?stbtt__sort_edges@@YAXPAUstbtt__edge@@H@Z 1004ad60 f   imgui_draw.obj
 0001:00049d90       ?stbtt__sort_edges_ins_sort@@YAXPAUstbtt__edge@@H@Z 1004ad90 f   imgui_draw.obj
 0001:00049eb0       ?stbtt__sort_edges_quicksort@@YAXPAUstbtt__edge@@H@Z 1004aeb0 f   imgui_draw.obj
 0001:0004a200       ?stbtt__tesselate_cubic@@YAXPAUstbtt__point@@PAHMMMMMMMMMH@Z 1004b200 f   imgui_draw.obj
 0001:0004a5b0       ?stbtt__tesselate_curve@@YAHPAUstbtt__point@@PAHMMMMMMMH@Z 1004b5b0 f   imgui_draw.obj
 0001:0004a7b0       ?stbtt__track_vertex@@YAXPAUstbtt__csctx@@HH@Z 1004b7b0 f   imgui_draw.obj
 0001:0004a840       ?stbtt__v_prefilter@@YAXPAEHHHI@Z 1004b840 f   imgui_draw.obj
 0001:0004ab44       $LN31                      1004bb44     imgui_draw.obj
 0001:0004ab60       ?stbtt_setvertex@@YAXPAUstbtt_vertex@@EHHHH@Z 1004bb60 f   imgui_draw.obj
 0001:0004aba0       ?ttULONG@@YAIPAE@Z         1004bba0 f   imgui_draw.obj
 0001:0004aba0       ?ttLONG@@YAHPAE@Z          1004bba0 f   imgui_draw.obj
 0001:0004abf0       ?ttUSHORT@@YAGPAE@Z        1004bbf0 f   imgui_draw.obj
 0001:0004abf0       ?ttSHORT@@YAFPAE@Z         1004bbf0 f   imgui_draw.obj
 0001:0004ac80       _stbrp_init_target         1004bc80 f   imgui_draw.obj
 0001:0004adb0       _stbrp_pack_rects          1004bdb0 f   imgui_draw.obj
 0001:0004af90       _stbrp_setup_allow_out_of_mem 1004bf90 f   imgui_draw.obj
 0001:0004afd0       _stbtt_FindGlyphIndex      1004bfd0 f   imgui_draw.obj
 0001:0004b3c0       _stbtt_GetFontOffsetForIndex 1004c3c0 f   imgui_draw.obj
 0001:0004b3e0       _stbtt_GetFontVMetrics     1004c3e0 f   imgui_draw.obj
 0001:0004b460       _stbtt_GetGlyphBitmapBox   1004c460 f   imgui_draw.obj
 0001:0004b4b0       _stbtt_GetGlyphBitmapBoxSubpixel 1004c4b0 f   imgui_draw.obj
 0001:0004b620       _stbtt_GetGlyphBox         1004c620 f   imgui_draw.obj
 0001:0004b710       _stbtt_GetGlyphHMetrics    1004c710 f   imgui_draw.obj
 0001:0004b800       _stbtt_GetGlyphShape       1004c800 f   imgui_draw.obj
 0001:0004b840       _stbtt_GetPackedQuad       1004c840 f   imgui_draw.obj
 0001:0004ba40       _stbtt_InitFont            1004ca40 f   imgui_draw.obj
 0001:0004ba60       _stbtt_MakeGlyphBitmapSubpixel 1004ca60 f   imgui_draw.obj
 0001:0004bb60       _stbtt_PackBegin           1004cb60 f   imgui_draw.obj
 0001:0004bc80       _stbtt_PackEnd             1004cc80 f   imgui_draw.obj
 0001:0004bcb0       _stbtt_PackFontRangesGatherRects 1004ccb0 f   imgui_draw.obj
 0001:0004bed0       _stbtt_PackFontRangesRenderIntoRects 1004ced0 f   imgui_draw.obj
 0001:0004c460       _stbtt_PackSetOversampling 1004d460 f   imgui_draw.obj
 0001:0004c490       _stbtt_Rasterize           1004d490 f   imgui_draw.obj
 0001:0004c570       _stbtt_ScaleForMappingEmToPixels 1004d570 f   imgui_draw.obj
 0001:0004c5b0       _stbtt_ScaleForPixelHeight 1004d5b0 f   imgui_draw.obj
 0001:00050a30       ??$?RVdirectory_entry@filesystem@std@@@<lambda_bea2c85d2d76a7d41383a900013bf5c9>@@QBE?AV?$basic_string@DU?$char_traits@D@std@@V?$allocator@D@2@@std@@ABVdirectory_entry@filesystem@2@@Z 10051a30 f   config_system.obj
 0001:0005135e       __catch$??$_Emplace_reallocate@AAPBD@?$vector@V?$basic_string@DU?$char_traits@D@std@@V?$allocator@D@2@@std@@V?$allocator@V?$basic_string@DU?$char_traits@D@std@@V?$allocator@D@2@@std@@@2@@std@@QAEPAV?$basic_string@DU?$char_traits@D@std@@V?$allocator@D@2@@1@QAV21@AAPBD@Z$0 1005235e f i config_system.obj
 0001:0005155e       __catch$??$_Emplace_reallocate@V?$basic_string@DU?$char_traits@D@std@@V?$allocator@D@2@@std@@@?$vector@V?$basic_string@DU?$char_traits@D@std@@V?$allocator@D@2@@std@@V?$allocator@V?$basic_string@DU?$char_traits@D@std@@V?$allocator@D@2@@std@@@2@@std@@QAEPAV?$basic_string@DU?$char_traits@D@std@@V?$allocator@D@2@@1@QAV21@$$QAV21@@Z$0 1005255e f i config_system.obj
 0001:00052bd0       ??$transform@Vdirectory_iterator@filesystem@std@@V?$back_insert_iterator@V?$vector@V?$basic_string@DU?$char_traits@D@std@@V?$allocator@D@2@@std@@V?$allocator@V?$basic_string@DU?$char_traits@D@std@@V?$allocator@D@2@@std@@@2@@std@@@3@V<lambda_bea2c85d2d76a7d41383a900013bf5c9>@@@std@@YA?AV?$back_insert_iterator@V?$vector@V?$basic_string@DU?$char_traits@D@std@@V?$allocator@D@2@@std@@V?$allocator@V?$basic_string@DU?$char_traits@D@std@@V?$allocator@D@2@@std@@@2@@std@@@0@Vdirectory_iterator@filesystem@0@0V10@V<lambda_bea2c85d2d76a7d41383a900013bf5c9>@@@Z 10053bd0 f   config_system.obj
 0001:00059e60       ?<lambda_invoker_cdecl>@<lambda_0c4c841431b0a4df57a8980f483f76db>@@CA_NPAXHPAPBD@Z 1005ae60 f   menu_system.obj
 0001:00059fb0       ??B<lambda_0c4c841431b0a4df57a8980f483f76db>@@QBEP6A_NPAXHPAPBD@ZXZ 1005afb0 f   menu_system.obj
 0001:00059fc0       ??R<lambda_0c4c841431b0a4df57a8980f483f76db>@@QBE_NPAXHPAPBD@Z 1005afc0 f   menu_system.obj
 0001:0005add4       $LN17                      1005bdd4     menu_system.obj
 0001:0005de2d       __catch$??$?6U?$char_traits@D@std@@@std@@YAAAV?$basic_ostream@DU?$char_traits@D@std@@@0@AAV10@PBD@Z$0 1005ee2d f i Interfaces.obj
 0001:000619fe       __catch$??$_Buynode@PBDABV?$shared_ptr@UNode@NetvarTree@@@std@@@?$_List_buy@U?$pair@$$CBV?$basic_string@DU?$char_traits@D@std@@V?$allocator@D@2@@std@@V?$shared_ptr@UNode@NetvarTree@@@2@@std@@V?$allocator@U?$pair@$$CBV?$basic_string@DU?$char_traits@D@std@@V?$allocator@D@2@@std@@V?$shared_ptr@UNode@NetvarTree@@@2@@std@@@2@@std@@QAEPAU?$_List_node@U?$pair@$$CBV?$basic_string@DU?$char_traits@D@std@@V?$allocator@D@2@@std@@V?$shared_ptr@UNode@NetvarTree@@@2@@std@@PAX@1@PAU21@0$$QAPBDABV?$shared_ptr@UNode@NetvarTree@@@1@@Z$0 100629fe f i NetvarManager.obj
 0001:00062325       ??$_Runtime_dynamic_link@P6GHPAXW4_FILE_INFO_BY_HANDLE_CLASS@@0K@Z@?A0xb24c12bc@@YGP6GHPAXW4_FILE_INFO_BY_HANDLE_CLASS@@0K@ZQCR6GH010K@ZQB_WQBDQ6GH010K@Z@Z 10063325 f   msvcprt:filesystem.obj
 0001:00062391       ?_Not_supported_SetFileInformationByHandle@?A0xb24c12bc@@YGHPAXW4_FILE_INFO_BY_HANDLE_CLASS@@0K@Z 10063391 f   msvcprt:filesystem.obj
 0001:00062391       ?_Not_supported_GetFileInformationByHandleEx@?A0xb24c12bc@@YGHPAXW4_FILE_INFO_BY_HANDLE_CLASS@@0K@Z 10063391 f   msvcprt:filesystem.obj
 0001:00062ac0       $$000000                   10063ac0     MSVCRT:ftol3.obj
 0001:00062fec       ?find_pe_section@@YAPAU_IMAGE_SECTION_HEADER@@QAEI@Z 10063fec f   MSVCRT:utility.obj
 0001:00063360       $$000000                   10064360     MSVCRT:lldiv.obj
 0001:00063410       $$000000                   10064410     MSVCRT:llmul.obj
 0001:0006363f       ?__scrt_initialize_thread_safe_statics@@YAHXZ 1006463f f   MSVCRT:thread_safe_statics.obj
 0001:00063666       ?__scrt_initialize_thread_safe_statics_platform_specific@@YAXXZ 10064666 f   MSVCRT:thread_safe_statics.obj
 0001:00063755       ?__scrt_uninitialize_thread_safe_statics@@YAXXZ 10064755 f   MSVCRT:thread_safe_statics.obj
 0001:000638e0       $$000000                   100648e0     MSVCRT:chkstk.obj
 0001:00063910       $$000000                   10064910     MSVCRT:ftol2.obj
 0001:000639d0       $$000000                   100649d0     MSVCRT:alloca16.obj
 0001:00063a00       $$000000                   10064a00     MSVCRT:llshl.obj
 0001:00063a1f       ?dllmain_crt_dispatch@@YGHQAUHINSTANCE__@@KQAX@Z 10064a1f f   MSVCRT:dll_dllmain.obj
 0001:00063a72       ?dllmain_crt_process_attach@@YAHQAUHINSTANCE__@@QAX@Z 10064a72 f   MSVCRT:dll_dllmain.obj
 0001:00063b7c       ?dllmain_crt_process_detach@@YAH_N@Z 10064b7c f   MSVCRT:dll_dllmain.obj
 0001:00063c0e       ?dllmain_dispatch@@YAHQAUHINSTANCE__@@KQAX@Z 10064c0e f   MSVCRT:dll_dllmain.obj
 0001:00063d14       ?dllmain_raw@@YGHQAUHINSTANCE__@@KQAX@Z 10064d14 f   MSVCRT:dll_dllmain.obj
 0001:00063d70       $$000000                   10064d70     MSVCRT:sehprolg4.obj
 0001:0006419b       ___get_entropy             1006519b f   MSVCRT:gs_support.obj
 0001:000643d0       __ehhandler$?data@?$basic_string@_WU?$char_traits@_W@std@@V?$allocator@_W@2@@std@@QAEPA_WXZ 100653d0 f   config_system.obj
 0001:000643d0       __ehhandler$??1?$ImVector@UCustomRect@ImFontAtlas@@@@QAE@XZ 100653d0 f   imgui_draw.obj
 0001:000643d0       __ehhandler$??1?$basic_string@DU?$char_traits@D@std@@V?$allocator@D@2@@std@@QAE@XZ 100653d0 f   c_hooks.obj
 0001:000643d0       __ehhandler$??1?$_List_alloc@U?$_List_base_types@U?$pair@$$CBV?$basic_string@DU?$char_traits@D@std@@V?$allocator@D@2@@std@@V?$shared_ptr@UNode@NetvarTree@@@2@@std@@V?$allocator@U?$pair@$$CBV?$basic_string@DU?$char_traits@D@std@@V?$allocator@D@2@@std@@V?$shared_ptr@UNode@NetvarTree@@@2@@std@@@2@@std@@@std@@QAE@XZ 100653d0 f   c_hooks.obj
 0001:000643d0       __ehhandler$??1ImFont@@QAE@XZ 100653d0 f   imgui_draw.obj
 0001:000643d0       __ehhandler$??1?$_Uninitialized_backout_al@PAV?$basic_string@DU?$char_traits@D@std@@V?$allocator@D@2@@std@@V?$allocator@V?$basic_string@DU?$char_traits@D@std@@V?$allocator@D@2@@std@@@2@@std@@QAE@XZ 100653d0 f   config_system.obj
 0001:000643d0       __ehhandler$??$?0U?$default_delete@V_Facet_base@std@@@std@@$0A@@?$unique_ptr@V_Facet_base@std@@U?$default_delete@V_Facet_base@std@@@2@@std@@QAE@PAV_Facet_base@1@@Z 100653d0 f   config_system.obj
 0001:000643d0       __ehhandler$??1?$list@U?$pair@$$CBV?$basic_string@DU?$char_traits@D@std@@V?$allocator@D@2@@std@@V?$shared_ptr@UNode@NetvarTree@@@2@@std@@V?$allocator@U?$pair@$$CBV?$basic_string@DU?$char_traits@D@std@@V?$allocator@D@2@@std@@V?$shared_ptr@UNode@NetvarTree@@@2@@std@@@2@@std@@QAE@XZ 100653d0 f   c_hooks.obj
 0001:000643d0       __ehhandler$?c_str@?$basic_string@DU?$char_traits@D@std@@V?$allocator@D@2@@std@@QBEPBDXZ 100653d0 f   c_ragebot.obj
 0001:000643d0       __ehhandler$??$_Freenode0@V?$allocator@U?$_List_node@U?$pair@$$CBV?$basic_string@DU?$char_traits@D@std@@V?$allocator@D@2@@std@@V?$shared_ptr@UNode@NetvarTree@@@2@@std@@PAX@std@@@std@@@?$_List_node@U?$pair@$$CBV?$basic_string@DU?$char_traits@D@std@@V?$allocator@D@2@@std@@V?$shared_ptr@UNode@NetvarTree@@@2@@std@@PAX@std@@SAXAAV?$allocator@U?$_List_node@U?$pair@$$CBV?$basic_string@DU?$char_traits@D@std@@V?$allocator@D@2@@std@@V?$shared_ptr@UNode@NetvarTree@@@2@@std@@PAX@std@@@1@PAU01@@Z 100653d0 f   c_hooks.obj
 0001:000643d0       __ehhandler$??1?$vector@V?$_List_unchecked_iterator@V?$_List_val@U?$_List_simple_types@U?$pair@$$CBV?$basic_string@DU?$char_traits@D@std@@V?$allocator@D@2@@std@@V?$shared_ptr@UNode@NetvarTree@@@2@@std@@@std@@@std@@@std@@V?$allocator@V?$_List_unchecked_iterator@V?$_List_val@U?$_List_simple_types@U?$pair@$$CBV?$basic_string@DU?$char_traits@D@std@@V?$allocator@D@2@@std@@V?$shared_ptr@UNode@NetvarTree@@@2@@std@@@std@@@std@@@std@@@2@@std@@QAE@XZ 100653d0 f   c_hooks.obj
 0001:000643d0       __ehhandler$??1?$shared_ptr@UNode@NetvarTree@@@std@@QAE@XZ 100653d0 f   c_hooks.obj
 0001:000643d0       __ehhandler$??0?$vector@HV?$allocator@H@std@@@std@@QAE@XZ 100653d0 f   c_ragebot.obj
 0001:000643d0       __ehhandler$??1?$ImVector@I@@QAE@XZ 100653d0 f   imgui.obj
 0001:000643d0       __ehhandler$??1?$ImVector@UImGuiColumnData@@@@QAE@XZ 100653d0 f   imgui.obj
 0001:000643d0       __ehhandler$??1?$ImVector@UImGuiGroupData@@@@QAE@XZ 100653d0 f   imgui.obj
 0001:000643d0       __ehhandler$??1Legitbot@@QAE@XZ 100653d0 f   Legitbot.obj
 0001:000643d0       __ehhandler$??1?$deque@UPlayerRecords@@V?$allocator@UPlayerRecords@@@std@@@std@@QAE@XZ 100653d0 f   LagComp.obj
 0001:000643d0       __ehhandler$??1LagComp@@QAE@XZ 100653d0 f   LagComp.obj
 0001:000643d0       __ehhandler$??$?0PAIU?$default_delete@$$BY0A@I@std@@$0A@X@?$unique_ptr@$$BY0A@IU?$default_delete@$$BY0A@I@std@@@std@@QAE@PAI@Z 100653d0 f   c_hooks.obj
 0001:000643d0       __ehhandler$??1?$_Deque_alloc@U?$_Deque_base_types@ULegitPlayerRecords@@V?$allocator@ULegitPlayerRecords@@@std@@@std@@@std@@QAE@XZ 100653d0 f   Legitbot.obj
 0001:000643d0       __ehhandler$??1?$ImVector@_N@@QAE@XZ 100653d0 f   imgui.obj
 0001:000643d0       __ehhandler$?c_str@?$basic_string@_WU?$char_traits@_W@std@@V?$allocator@_W@2@@std@@QBEPB_WXZ 100653d0 f   config_system.obj
 0001:000643d0       __ehhandler$??1?$ImVector@PAUImDrawList@@@@QAE@XZ 100653d0 f   imgui.obj
 0001:000643d0       __ehhandler$??1?$ImVector@UImGuiPopupRef@@@@QAE@XZ 100653d0 f   imgui.obj
 0001:000643d0       __ehhandler$??1?$ImVector@UImGuiStyleMod@@@@QAE@XZ 100653d0 f   imgui.obj
 0001:000643d0       __ehhandler$??1?$ImVector@UImGuiColMod@@@@QAE@XZ 100653d0 f   imgui.obj
 0001:000643d0       __ehhandler$??1?$ImVector@UImGuiIniData@@@@QAE@XZ 100653d0 f   imgui.obj
 0001:000643d0       __ehhandler$??1?$basic_string@_WU?$char_traits@_W@std@@V?$allocator@_W@2@@std@@QAE@XZ 100653d0 f   config_system.obj
 0001:000643d0       __ehhandler$??1?$ImVector@M@@QAE@XZ 100653d0 f   imgui.obj
 0001:000643d0       __ehhandler$??1?$ImVector@PAUImFont@@@@QAE@XZ 100653d0 f   imgui.obj
 0001:000643d0       __ehhandler$??1ImDrawList@@QAE@XZ 100653d0 f   imgui.obj
 0001:000643d0       __ehhandler$??1?$ImVector@UImDrawChannel@@@@QAE@XZ 100653d0 f   imgui.obj
 0001:000643d0       __ehhandler$??1?$ImVector@UImVec2@@@@QAE@XZ 100653d0 f   imgui.obj
 0001:000643d0       __ehhandler$??1?$ImVector@PAX@@QAE@XZ 100653d0 f   imgui.obj
 0001:000643d0       __ehhandler$??1?$ImVector@UImVec4@@@@QAE@XZ 100653d0 f   imgui.obj
 0001:000643d0       __ehhandler$??1?$ImVector@UImDrawVert@@@@QAE@XZ 100653d0 f   imgui.obj
 0001:000643d0       __ehhandler$??1?$ImVector@G@@QAE@XZ 100653d0 f   imgui.obj
 0001:000643d0       __ehhandler$??1?$ImVector@UImDrawCmd@@@@QAE@XZ 100653d0 f   imgui.obj
 0001:000643d0       __ehhandler$??1?$ImVector@UPair@ImGuiStorage@@@@QAE@XZ 100653d0 f   imgui.obj
 0001:000643d0       __ehhandler$??1?$ImVector@D@@QAE@XZ 100653d0 f   imgui.obj
 0001:000643d0       __ehhandler$??$?0U?$default_delete@VVMTHook@@@std@@$0A@@?$unique_ptr@VVMTHook@@U?$default_delete@VVMTHook@@@std@@@std@@QAE@PAVVMTHook@@@Z 100653d0 f   c_hooks.obj
 0001:000643d0       __ehhandler$??1ImFontAtlas@@QAE@XZ 100653d0 f   imgui_draw.obj
 0001:000643d0       __ehhandler$??$?0U?$default_delete@VNetvarTree@@@std@@$0A@@?$unique_ptr@VNetvarTree@@U?$default_delete@VNetvarTree@@@std@@@std@@QAE@PAVNetvarTree@@@Z 100653d0 f   c_hooks.obj
 0001:000643d0       __ehhandler$??1?$deque@ULegitPlayerRecords@@V?$allocator@ULegitPlayerRecords@@@std@@@std@@QAE@XZ 100653d0 f   Legitbot.obj
 0001:000643d0       __ehhandler$??0?$shared_ptr@U_Dir_enum_impl@filesystem@std@@@std@@QAE@ABV01@@Z 100653d0 f   config_system.obj
 0001:000643d0       __ehhandler$??0?$shared_ptr@U_Dir_enum_impl@filesystem@std@@@std@@QAE@$$QAV01@@Z 100653d0 f   config_system.obj
 0001:000643d0       __ehhandler$??0?$basic_string@_WU?$char_traits@_W@std@@V?$allocator@_W@2@@std@@QAE@XZ 100653d0 f   config_system.obj
 0001:000643d0       __ehhandler$??1?$ImVector@Ustbrp_rect@@@@QAE@XZ 100653d0 f   imgui_draw.obj
 0001:000643d0       __ehhandler$?_Skip_dots@_Dir_enum_impl@filesystem@std@@SA?AW4__std_win_error@@W4__std_fs_dir_handle@@AAU__std_fs_find_data@@@Z 100653d0 f   config_system.obj
 0001:000643d0       __ehhandler$??1?$shared_ptr@U_Dir_enum_impl@filesystem@std@@@std@@QAE@XZ 100653d0 f   config_system.obj
 0001:000643d0       __ehhandler$??$?0U?$default_delete@VNetvarTree@@@std@@$0A@@?$unique_ptr@VNetvarTree@@U?$default_delete@VNetvarTree@@@std@@@std@@QAE@XZ 100653d0 f   NetvarManager.obj
 0001:000643d0       __ehhandler$??1?$vector@HV?$allocator@H@std@@@std@@QAE@XZ 100653d0 f   c_ragebot.obj
 0001:000643d0       __ehhandler$??1sentry@?$basic_ostream@DU?$char_traits@D@std@@@std@@QAE@XZ 100653d0 f   Interfaces.obj
 0001:000643d0       __ehhandler$??1?$basic_filebuf@DU?$char_traits@D@std@@@std@@UAE@XZ 100653d0 f   config_system.obj
 0001:000643d0       __ehhandler$?data@?$basic_string@_WU?$char_traits@_W@std@@V?$allocator@_W@2@@std@@QBEPB_WXZ 100653d0 f   config_system.obj
 0001:000643d0       __ehhandler$??1ImGuiContext@@QAE@XZ 100653d0 f   imgui.obj
 0001:000643d0       __ehhandler$?data@?$basic_string@DU?$char_traits@D@std@@V?$allocator@D@2@@std@@QAEPADXZ 100653d0 f   config_system.obj
 0001:000643d0       __ehhandler$?data@?$basic_string@DU?$char_traits@D@std@@V?$allocator@D@2@@std@@QBEPBDXZ 100653d0 f   config_system.obj
 0001:000643d0       __ehhandler$??0?$vector@V?$basic_string@DU?$char_traits@D@std@@V?$allocator@D@2@@std@@V?$allocator@V?$basic_string@DU?$char_traits@D@std@@V?$allocator@D@2@@std@@@2@@std@@QAE@XZ 100653d0 f   config_system.obj
 0001:000643d0       __ehhandler$??0?$basic_string@DU?$char_traits@D@std@@V?$allocator@D@2@@std@@QAE@ABV?$allocator@D@1@@Z 100653d0 f   config_system.obj
 0001:000643d0       __ehhandler$??1?$vector@V?$basic_string@DU?$char_traits@D@std@@V?$allocator@D@2@@std@@V?$allocator@V?$basic_string@DU?$char_traits@D@std@@V?$allocator@D@2@@std@@@2@@std@@QAE@XZ 100653d0 f   config_system.obj
 0001:000643d0       __ehhandler$??$?0U?$default_delete@$$BY0A@I@std@@$0A@@?$unique_ptr@$$BY0A@IU?$default_delete@$$BY0A@I@std@@@std@@QAE@$$T@Z 100653d0 f   c_hooks.obj
 0001:000643d0       __ehhandler$??$?0U?$default_delete@VVMTHook@@@std@@$0A@@?$unique_ptr@VVMTHook@@U?$default_delete@VVMTHook@@@std@@@std@@QAE@XZ 100653d0 f   c_hooks.obj
 0001:000643d0       __ehhandler$??1?$unique_ptr@$$BY0A@IU?$default_delete@$$BY0A@I@std@@@std@@QAE@XZ 100653d0 f   c_hooks.obj
 0001:000643d0       __ehhandler$??1?$ImVector@UImFontConfig@@@@QAE@XZ 100653d0 f   imgui_draw.obj
 0001:000643d0       __ehhandler$??0?$shared_ptr@UNode@NetvarTree@@@std@@QAE@$$QAV01@@Z 100653d0 f   NetvarManager.obj
 0001:000643d0       __ehhandler$??0?$basic_string@DU?$char_traits@D@std@@V?$allocator@D@2@@std@@QAE@XZ 100653d0 f   config_system.obj
 0001:000643d0       __ehhandler$??1?$_Uninitialized_backout_al@PAV?$_List_unchecked_iterator@V?$_List_val@U?$_List_simple_types@U?$pair@$$CBV?$basic_string@DU?$char_traits@D@std@@V?$allocator@D@2@@std@@V?$shared_ptr@UNode@NetvarTree@@@2@@std@@@std@@@std@@@std@@V?$allocator@V?$_List_unchecked_iterator@V?$_List_val@U?$_List_simple_types@U?$pair@$$CBV?$basic_string@DU?$char_traits@D@std@@V?$allocator@D@2@@std@@V?$shared_ptr@UNode@NetvarTree@@@2@@std@@@std@@@std@@@std@@@2@@std@@QAE@XZ 100653d0 f   c_ragebot.obj
 0001:000643d0       __ehhandler$??1?$ImVector@PAUImGuiWindow@@@@QAE@XZ 100653d0 f   imgui.obj
 0001:000643d0       __ehhandler$??1?$ImVector@UGlyph@ImFont@@@@QAE@XZ 100653d0 f   imgui_draw.obj
 0001:000643d0       __ehhandler$??$?0U?$default_delete@VShadowVTManager@@@std@@$0A@@?$unique_ptr@VShadowVTManager@@U?$default_delete@VShadowVTManager@@@std@@@std@@QAE@XZ 100653d0 f   c_hooks.obj
 0001:000643d0       __ehhandler$??0?$shared_ptr@UNode@NetvarTree@@@std@@QAE@ABV01@@Z 100653d0 f   NetvarManager.obj
 0001:000643d0       __ehhandler$??1?$_Deque_alloc@U?$_Deque_base_types@UPlayerRecords@@V?$allocator@UPlayerRecords@@@std@@@std@@@std@@QAE@XZ 100653d0 f   LagComp.obj
 0001:000643d0       __ehhandler$??1c_hooks@@QAE@XZ 100653d0 f   c_hooks.obj
 0001:000643d0       __ehhandler$??0c_hooks@@QAE@XZ 100653d0 f   c_hooks.obj
 0001:000643d0       __ehhandler$??0?$vector@V?$_List_unchecked_iterator@V?$_List_val@U?$_List_simple_types@U?$pair@$$CBV?$basic_string@DU?$char_traits@D@std@@V?$allocator@D@2@@std@@V?$shared_ptr@UNode@NetvarTree@@@2@@std@@@std@@@std@@@std@@V?$allocator@V?$_List_unchecked_iterator@V?$_List_val@U?$_List_simple_types@U?$pair@$$CBV?$basic_string@DU?$char_traits@D@std@@V?$allocator@D@2@@std@@V?$shared_ptr@UNode@NetvarTree@@@2@@std@@@std@@@std@@@std@@@2@@std@@QAE@ABV?$allocator@V?$_List_unchecked_iterator@V?$_List_val@U?$_List_simple_types@U?$pair@$$CBV?$basic_string@DU?$char_traits@D@std@@V?$allocator@D@2@@std@@V?$shared_ptr@UNode@NetvarTree@@@2@@std@@@std@@@std@@@std@@@1@@Z 100653d0 f   NetvarManager.obj
 0001:000643f0       __unwindfunclet$??$make_unique@VNetvarTree@@$$V$0A@@std@@YA?AV?$unique_ptr@VNetvarTree@@U?$default_delete@VNetvarTree@@@std@@@0@XZ$0 100653f0 f   c_hooks.obj
 0001:000643ff       __ehhandler$??$make_unique@VNetvarTree@@$$V$0A@@std@@YA?AV?$unique_ptr@VNetvarTree@@U?$default_delete@VNetvarTree@@@std@@@0@XZ 100653ff f   c_hooks.obj
 0001:00064420       __unwindfunclet$??$make_unique@VVMTHook@@AAPAVIPanel@@$0A@@std@@YA?AV?$unique_ptr@VVMTHook@@U?$default_delete@VVMTHook@@@std@@@0@AAPAVIPanel@@@Z$0 10065420 f   c_hooks.obj
 0001:00064420       __unwindfunclet$??$make_unique@VVMTHook@@PAPAK$0A@@std@@YA?AV?$unique_ptr@VVMTHook@@U?$default_delete@VVMTHook@@@std@@@0@$$QAPAPAK@Z$0 10065420 f   c_hooks.obj
 0001:00064420       __unwindfunclet$??$make_unique@VVMTHook@@AAPAVIClientMode@@$0A@@std@@YA?AV?$unique_ptr@VVMTHook@@U?$default_delete@VVMTHook@@@std@@@0@AAPAVIClientMode@@@Z$0 10065420 f   c_hooks.obj
 0001:00064420       __unwindfunclet$??$make_unique@VVMTHook@@AAPAVIVRenderView@@$0A@@std@@YA?AV?$unique_ptr@VVMTHook@@U?$default_delete@VVMTHook@@@std@@@0@AAPAVIVRenderView@@@Z$0 10065420 f   c_hooks.obj
 0001:00064420       __unwindfunclet$??$make_unique@VVMTHook@@AAPAVIBaseClientDLL@@$0A@@std@@YA?AV?$unique_ptr@VVMTHook@@U?$default_delete@VVMTHook@@@std@@@0@AAPAVIBaseClientDLL@@@Z$0 10065420 f   c_hooks.obj
 0001:00064420       __unwindfunclet$??$make_unique@VVMTHook@@AAPAVCModelRender@@$0A@@std@@YA?AV?$unique_ptr@VVMTHook@@U?$default_delete@VVMTHook@@@std@@@0@AAPAVCModelRender@@@Z$0 10065420 f   c_hooks.obj
 0001:00064420       __unwindfunclet$??$make_unique@VVMTHook@@AAPAVISurface@@$0A@@std@@YA?AV?$unique_ptr@VVMTHook@@U?$default_delete@VVMTHook@@@std@@@0@AAPAVISurface@@@Z$0 10065420 f   c_hooks.obj
 0001:0006442f       __ehhandler$??$make_unique@VVMTHook@@AAPAVIVRenderView@@$0A@@std@@YA?AV?$unique_ptr@VVMTHook@@U?$default_delete@VVMTHook@@@std@@@0@AAPAVIVRenderView@@@Z 1006542f f   c_hooks.obj
 0001:0006442f       __ehhandler$??$make_unique@VVMTHook@@AAPAVCModelRender@@$0A@@std@@YA?AV?$unique_ptr@VVMTHook@@U?$default_delete@VVMTHook@@@std@@@0@AAPAVCModelRender@@@Z 1006542f f   c_hooks.obj
 0001:0006442f       __ehhandler$??$make_unique@VVMTHook@@PAPAK$0A@@std@@YA?AV?$unique_ptr@VVMTHook@@U?$default_delete@VVMTHook@@@std@@@0@$$QAPAPAK@Z 1006542f f   c_hooks.obj
 0001:0006442f       __ehhandler$??$make_unique@VVMTHook@@AAPAVISurface@@$0A@@std@@YA?AV?$unique_ptr@VVMTHook@@U?$default_delete@VVMTHook@@@std@@@0@AAPAVISurface@@@Z 1006542f f   c_hooks.obj
 0001:0006442f       __ehhandler$??$make_unique@VVMTHook@@AAPAVIClientMode@@$0A@@std@@YA?AV?$unique_ptr@VVMTHook@@U?$default_delete@VVMTHook@@@std@@@0@AAPAVIClientMode@@@Z 1006542f f   c_hooks.obj
 0001:0006442f       __ehhandler$??$make_unique@VVMTHook@@AAPAVIBaseClientDLL@@$0A@@std@@YA?AV?$unique_ptr@VVMTHook@@U?$default_delete@VVMTHook@@@std@@@0@AAPAVIBaseClientDLL@@@Z 1006542f f   c_hooks.obj
 0001:0006442f       __ehhandler$??$make_unique@VVMTHook@@AAPAVIPanel@@$0A@@std@@YA?AV?$unique_ptr@VVMTHook@@U?$default_delete@VVMTHook@@@std@@@0@AAPAVIPanel@@@Z 1006542f f   c_hooks.obj
 0001:00064450       __unwindfunclet$??0?$basic_string@DU?$char_traits@D@std@@V?$allocator@D@2@@std@@QAE@QBD@Z$0 10065450 f   c_hooks.obj
 0001:00064450       __unwindfunclet$??$?0V?$basic_string_view@_WU?$char_traits@_W@std@@@std@@X@?$basic_string@_WU?$char_traits@_W@std@@V?$allocator@_W@2@@std@@QAE@ABV?$basic_string_view@_WU?$char_traits@_W@std@@@1@ABV?$allocator@_W@1@@Z$0 10065450 f   config_system.obj
 0001:00064450       __unwindfunclet$??0?$basic_string@DU?$char_traits@D@std@@V?$allocator@D@2@@std@@QAE@ID@Z$0 10065450 f   config_system.obj
 0001:00064458       __ehhandler$??$?0V?$basic_string_view@_WU?$char_traits@_W@std@@@std@@X@?$basic_string@_WU?$char_traits@_W@std@@V?$allocator@_W@2@@std@@QAE@ABV?$basic_string_view@_WU?$char_traits@_W@std@@@1@ABV?$allocator@_W@1@@Z 10065458 f   config_system.obj
 0001:00064458       __ehhandler$??0?$basic_string@DU?$char_traits@D@std@@V?$allocator@D@2@@std@@QAE@ID@Z 10065458 f   config_system.obj
 0001:00064458       __ehhandler$??0?$basic_string@DU?$char_traits@D@std@@V?$allocator@D@2@@std@@QAE@QBD@Z 10065458 f   c_hooks.obj
 0001:00064480       __unwindfunclet$??0VMTHook@@QAE@PAX@Z$0 10065480 f   c_hooks.obj
 0001:00064488       __ehhandler$??0VMTHook@@QAE@PAX@Z 10065488 f   c_hooks.obj
 0001:000644b0       __ehhandler$??0_Find_file_handle@filesystem@std@@QAE@$$QAU012@@Z 100654b0 f   config_system.obj
 0001:000644b0       __ehhandler$?_Destroy@?$_Ref_count_obj@U_Dir_enum_impl@filesystem@std@@@std@@EAEXXZ 100654b0 f   config_system.obj
 0001:000644b0       __ehhandler$??1ShadowVTManager@@QAE@XZ 100654b0 f   c_hooks.obj
 0001:000644b0       __ehhandler$?zero@?$duration@_JU?$ratio@$00$0DOI@@std@@@chrono@std@@SA?AV123@XZ 100654b0 f   dll_main.obj
 0001:000644b0       __ehhandler$??$?5U<unnamed-type-cfg>@c_config@@@?$ArchiveX@V?$basic_ifstream@DU?$char_traits@D@std@@@std@@@@QBEABV0@AAU<unnamed-type-cfg>@c_config@@@Z 100654b0 f   config_system.obj
 0001:000644b0       __ehhandler$??1_Fac_node@std@@QAE@XZ 100654b0 f   msvcprt:locale0_implib.obj
 0001:000644b0       __ehhandler$?end@?$basic_string@DU?$char_traits@D@std@@V?$allocator@D@2@@std@@QAE?AV?$_String_iterator@V?$_String_val@U?$_Simple_types@D@std@@@std@@@2@XZ 100654b0 f   c_esp.obj
 0001:000644b0       __ehhandler$?_Destroy@?$_Ref_count_obj@UNode@NetvarTree@@@std@@EAEXXZ 100654b0 f   NetvarManager.obj
 0001:000644b0       __ehhandler$?begin@?$basic_string@DU?$char_traits@D@std@@V?$allocator@D@2@@std@@QAE?AV?$_String_iterator@V?$_String_val@U?$_Simple_types@D@std@@@std@@@2@XZ 100654b0 f   c_esp.obj
 0001:000644b0       __ehhandler$?default_error_condition@_System_error_category@std@@UBE?AVerror_condition@2@H@Z 100654b0 f   config_system.obj
 0001:000644b0       __ehhandler$??$?6U<unnamed-type-cfg>@c_config@@@?$ArchiveX@V?$basic_ofstream@DU?$char_traits@D@std@@@std@@@@QBEABV0@ABU<unnamed-type-cfg>@c_config@@@Z 100654b0 f   config_system.obj
 0001:000644d0       __unwindfunclet$?Init@c_hooks@@SAXXZ$1 100654d0 f   c_hooks.obj
 0001:000644d8       __ehhandler$?Init@c_hooks@@SAXXZ 100654d8 f   c_hooks.obj
 0001:00064500       __unwindfunclet$?Restore@c_hooks@@SAXXZ$0 10065500 f   c_hooks.obj
 0001:00064508       __unwindfunclet$?Restore@c_hooks@@SAXXZ$1 10065508 f   c_hooks.obj
 0001:00064510       __ehhandler$?Restore@c_hooks@@SAXXZ 10065510 f   c_hooks.obj
 0001:00064540       __ehhandler$?RestoreTable@ShadowVTManager@@QAEXXZ 10065540 f   c_hooks.obj
 0001:00064560       __ehhandler$?remove_filename@path@filesystem@std@@QAEAAV123@XZ 10065560 f   config_system.obj
 0001:00064560       __ehhandler$?clear@?$list@U?$pair@$$CBV?$basic_string@DU?$char_traits@D@std@@V?$allocator@D@2@@std@@V?$shared_ptr@UNode@NetvarTree@@@2@@std@@V?$allocator@U?$pair@$$CBV?$basic_string@DU?$char_traits@D@std@@V?$allocator@D@2@@std@@V?$shared_ptr@UNode@NetvarTree@@@2@@std@@@2@@std@@QAEXXZ 10065560 f   c_hooks.obj
 0001:00064560       __ehhandler$?is_absolute@path@filesystem@std@@QBE_NXZ 10065560 f   config_system.obj
 0001:00064560       __ehhandler$??1locale@std@@QAE@XZ 10065560 f   config_system.obj
 0001:00064560       __ehhandler$?find@?$basic_string@DU?$char_traits@D@std@@V?$allocator@D@2@@std@@QBEIQBDI@Z 10065560 f   c_esp.obj
 0001:00064560       __ehhandler$?_Equal@?$basic_string@DU?$char_traits@D@std@@V?$allocator@D@2@@std@@QBE_NQBD@Z 10065560 f   config_system.obj
 0001:00064580       __ehhandler$?attach@@YGKPAX@Z 10065580 f   dll_main.obj
 0001:000645a0       __ehhandler$?_Assign_rv_contents_with_alloc_always_equal@?$basic_string@DU?$char_traits@D@std@@V?$allocator@D@2@@std@@QAEX$$QAV12@U?$integral_constant@_N$00@2@@Z 100655a0 f   c_ragebot.obj
 0001:000645a0       __ehhandler$?end@?$deque@UPlayerRecords@@V?$allocator@UPlayerRecords@@@std@@@std@@QAE?AV?$_Deque_iterator@V?$_Deque_val@U?$_Deque_simple_types@UPlayerRecords@@@std@@@std@@@2@XZ 100655a0 f   LagComp.obj
 0001:000645a0       __ehhandler$?_Assign_rv_contents_with_alloc_always_equal@?$basic_string@_WU?$char_traits@_W@std@@V?$allocator@_W@2@@std@@QAEX$$QAV12@U?$integral_constant@_N$00@2@@Z 100655a0 f   config_system.obj
 0001:000645a0       __ehhandler$?now@system_clock@chrono@std@@SA?AV?$time_point@Usystem_clock@chrono@std@@V?$duration@_JU?$ratio@$00$0JIJGIA@@std@@@23@@23@XZ 100655a0 f   dll_main.obj
 0001:000645a0       __ehhandler$??1_Sentry_base@?$basic_ostream@DU?$char_traits@D@std@@@std@@QAE@XZ 100655a0 f   Interfaces.obj
 0001:000645a0       __ehhandler$??B?$basic_string@_WU?$char_traits@_W@std@@V?$allocator@_W@2@@std@@QBE?AV?$basic_string_view@_WU?$char_traits@_W@std@@@1@XZ 100655a0 f   config_system.obj
 0001:000645a0       __ehhandler$?end@?$deque@ULegitPlayerRecords@@V?$allocator@ULegitPlayerRecords@@@std@@@std@@QAE?AV?$_Deque_iterator@V?$_Deque_val@U?$_Deque_simple_types@ULegitPlayerRecords@@@std@@@std@@@2@XZ 100655a0 f   Legitbot.obj
 0001:000645c0       __ehhandler$??0?$basic_string@_WU?$char_traits@_W@std@@V?$allocator@_W@2@@std@@QAE@$$QAV01@@Z 100655c0 f   config_system.obj
 0001:000645c0       __ehhandler$?begin@?$deque@ULegitPlayerRecords@@V?$allocator@ULegitPlayerRecords@@@std@@@std@@QAE?AV?$_Deque_iterator@V?$_Deque_val@U?$_Deque_simple_types@ULegitPlayerRecords@@@std@@@std@@@2@XZ 100655c0 f   Legitbot.obj
 0001:000645c0       __ehhandler$?begin@?$list@U?$pair@$$CBV?$basic_string@DU?$char_traits@D@std@@V?$allocator@D@2@@std@@V?$shared_ptr@UNode@NetvarTree@@@2@@std@@V?$allocator@U?$pair@$$CBV?$basic_string@DU?$char_traits@D@std@@V?$allocator@D@2@@std@@V?$shared_ptr@UNode@NetvarTree@@@2@@std@@@2@@std@@QAE?AV?$_List_iterator@V?$_List_val@U?$_List_simple_types@U?$pair@$$CBV?$basic_string@DU?$char_traits@D@std@@V?$allocator@D@2@@std@@V?$shared_ptr@UNode@NetvarTree@@@2@@std@@@std@@@std@@@2@XZ 100655c0 f   c_ragebot.obj
 0001:000645c0       __ehhandler$?end@?$list@U?$pair@$$CBV?$basic_string@DU?$char_traits@D@std@@V?$allocator@D@2@@std@@V?$shared_ptr@UNode@NetvarTree@@@2@@std@@V?$allocator@U?$pair@$$CBV?$basic_string@DU?$char_traits@D@std@@V?$allocator@D@2@@std@@V?$shared_ptr@UNode@NetvarTree@@@2@@std@@@2@@std@@QAE?AV?$_List_iterator@V?$_List_val@U?$_List_simple_types@U?$pair@$$CBV?$basic_string@DU?$char_traits@D@std@@V?$allocator@D@2@@std@@V?$shared_ptr@UNode@NetvarTree@@@2@@std@@@std@@@std@@@2@XZ 100655c0 f   c_ragebot.obj
 0001:000645c0       __ehhandler$?_Make_iter@?$list@U?$pair@$$CBV?$basic_string@DU?$char_traits@D@std@@V?$allocator@D@2@@std@@V?$shared_ptr@UNode@NetvarTree@@@2@@std@@V?$allocator@U?$pair@$$CBV?$basic_string@DU?$char_traits@D@std@@V?$allocator@D@2@@std@@V?$shared_ptr@UNode@NetvarTree@@@2@@std@@@2@@std@@QBE?AV?$_List_iterator@V?$_List_val@U?$_List_simple_types@U?$pair@$$CBV?$basic_string@DU?$char_traits@D@std@@V?$allocator@D@2@@std@@V?$shared_ptr@UNode@NetvarTree@@@2@@std@@@std@@@std@@@2@V?$_List_const_iterator@V?$_List_val@U?$_List_simple_types@U?$pair@$$CBV?$basic_string@DU?$char_traits@D@std@@V?$allocator@D@2@@std@@V?$shared_ptr@UNode@NetvarTree@@@2@@std@@@std@@@std@@@2@@Z 100655c0 f   c_ragebot.obj
 0001:000645c0       __ehhandler$??0?$basic_string@DU?$char_traits@D@std@@V?$allocator@D@2@@std@@QAE@$$QAV01@@Z 100655c0 f   c_ragebot.obj
 0001:000645c0       __ehhandler$?begin@?$deque@UPlayerRecords@@V?$allocator@UPlayerRecords@@@std@@@std@@QAE?AV?$_Deque_iterator@V?$_Deque_val@U?$_Deque_simple_types@UPlayerRecords@@@std@@@std@@@2@XZ 100655c0 f   c_ragebot.obj
 0001:000645c0       __ehhandler$??4?$basic_string@DU?$char_traits@D@std@@V?$allocator@D@2@@std@@QAEAAV01@$$QAV01@@Z 100655c0 f   imgui.obj
 0001:000645c0       __ehhandler$??$?0V?$basic_string@DU?$char_traits@D@std@@V?$allocator@D@2@@std@@$$V$0A@@?$tuple@$$QAV?$basic_string@DU?$char_traits@D@std@@V?$allocator@D@2@@std@@@std@@QAE@$$QAV?$basic_string@DU?$char_traits@D@std@@V?$allocator@D@2@@1@@Z 100655c0 f   c_ragebot.obj
 0001:000645c0       __ehhandler$?__scrt_initialize_thread_safe_statics_platform_specific@@YAXXZ 100655c0 f   MSVCRT:thread_safe_statics.obj
 0001:000645c0       __ehhandler$?begin@?$vector@V?$basic_string@DU?$char_traits@D@std@@V?$allocator@D@2@@std@@V?$allocator@V?$basic_string@DU?$char_traits@D@std@@V?$allocator@D@2@@std@@@2@@std@@QBE?AV?$_Vector_const_iterator@V?$_Vector_val@U?$_Simple_types@V?$basic_string@DU?$char_traits@D@std@@V?$allocator@D@2@@std@@@std@@@std@@@2@XZ 100655c0 f   config_system.obj
 0001:000645c0       __ehhandler$?end@?$vector@V?$basic_string@DU?$char_traits@D@std@@V?$allocator@D@2@@std@@V?$allocator@V?$basic_string@DU?$char_traits@D@std@@V?$allocator@D@2@@std@@@2@@std@@QBE?AV?$_Vector_const_iterator@V?$_Vector_val@U?$_Simple_types@V?$basic_string@DU?$char_traits@D@std@@V?$allocator@D@2@@std@@@std@@@std@@@2@XZ 100655c0 f   config_system.obj
 0001:000645c0       __ehhandler$??4?$basic_string@_WU?$char_traits@_W@std@@V?$allocator@_W@2@@std@@QAEAAV01@$$QAV01@@Z 100655c0 f   config_system.obj
 0001:000645e0       __unwindfunclet$??$GetOffset@PBD@NetvarTree@@QAEHPBD0@Z$0 100655e0 f   c_ragebot.obj
 0001:000645e0       __unwindfunclet$??$GetOffset@PBDPBD@NetvarTree@@QAEHPBD00@Z$0 100655e0 f   c_ragebot.obj
 0001:000645e8       __ehhandler$??$GetOffset@PBDPBD@NetvarTree@@QAEHPBD00@Z 100655e8 f   c_ragebot.obj
 0001:000645e8       __ehhandler$??$GetOffset@PBD@NetvarTree@@QAEHPBD0@Z 100655e8 f   c_ragebot.obj
 0001:00064610       __unwindfunclet$??0_System_error@std@@IAE@Verror_code@1@ABV?$basic_string@DU?$char_traits@D@std@@V?$allocator@D@2@@1@@Z$1 10065610 f   config_system.obj
 0001:00064610       __unwindfunclet$?message@_System_error_category@std@@UBE?AV?$basic_string@DU?$char_traits@D@std@@V?$allocator@D@2@@2@H@Z$0 10065610 f   config_system.obj
 0001:00064610       __unwindfunclet$??$GetOffsetRecursive@PBD@NetvarTree@@AAEHAAV?$unordered_map@V?$basic_string@DU?$char_traits@D@std@@V?$allocator@D@2@@std@@V?$shared_ptr@UNode@NetvarTree@@@2@U?$hash@V?$basic_string@DU?$char_traits@D@std@@V?$allocator@D@2@@std@@@2@U?$equal_to@V?$basic_string@DU?$char_traits@D@std@@V?$allocator@D@2@@std@@@2@V?$allocator@U?$pair@$$CBV?$basic_string@DU?$char_traits@D@std@@V?$allocator@D@2@@std@@V?$shared_ptr@UNode@NetvarTree@@@2@@std@@@2@@std@@HPBD1@Z$0 10065610 f   c_ragebot.obj
 0001:00064610       __unwindfunclet$?IsKnifeorNade@C_BaseEntity@@QAE_NXZ$0 10065610 f   CEntity.obj
 0001:00064618       __ehhandler$?IsKnifeorNade@C_BaseEntity@@QAE_NXZ 10065618 f   CEntity.obj
 0001:00064618       __ehhandler$?message@_System_error_category@std@@UBE?AV?$basic_string@DU?$char_traits@D@std@@V?$allocator@D@2@@2@H@Z 10065618 f   config_system.obj
 0001:00064618       __ehhandler$??0_System_error@std@@IAE@Verror_code@1@ABV?$basic_string@DU?$char_traits@D@std@@V?$allocator@D@2@@1@@Z 10065618 f   config_system.obj
 0001:00064618       __ehhandler$??$GetOffsetRecursive@PBD@NetvarTree@@AAEHAAV?$unordered_map@V?$basic_string@DU?$char_traits@D@std@@V?$allocator@D@2@@std@@V?$shared_ptr@UNode@NetvarTree@@@2@U?$hash@V?$basic_string@DU?$char_traits@D@std@@V?$allocator@D@2@@std@@@2@U?$equal_to@V?$basic_string@DU?$char_traits@D@std@@V?$allocator@D@2@@std@@@2@V?$allocator@U?$pair@$$CBV?$basic_string@DU?$char_traits@D@std@@V?$allocator@D@2@@std@@V?$shared_ptr@UNode@NetvarTree@@@2@@std@@@2@@std@@HPBD1@Z 10065618 f   c_ragebot.obj
 0001:00064640       __ehhandler$??$_Buynode@ABUpiecewise_construct_t@std@@V?$tuple@$$QAV?$basic_string@DU?$char_traits@D@std@@V?$allocator@D@2@@std@@@2@V?$tuple@$$V@2@@?$_List_buy@U?$pair@$$CBV?$basic_string@DU?$char_traits@D@std@@V?$allocator@D@2@@std@@V?$shared_ptr@UNode@NetvarTree@@@2@@std@@V?$allocator@U?$pair@$$CBV?$basic_string@DU?$char_traits@D@std@@V?$allocator@D@2@@std@@V?$shared_ptr@UNode@NetvarTree@@@2@@std@@@2@@std@@QAEPAU?$_List_node@U?$pair@$$CBV?$basic_string@DU?$char_traits@D@std@@V?$allocator@D@2@@std@@V?$shared_ptr@UNode@NetvarTree@@@2@@std@@PAX@1@PAU21@0ABUpiecewise_construct_t@1@$$QAV?$tuple@$$QAV?$basic_string@DU?$char_traits@D@std@@V?$allocator@D@2@@std@@@1@$$QAV?$tuple@$$V@1@@Z 10065640 f   c_ragebot.obj
 0001:00064660       __ehhandler$??$_Emplace_reallocate@H@?$vector@HV?$allocator@H@std@@@std@@QAEPAHQAH$$QAH@Z 10065660 f   c_ragebot.obj
 0001:00064680       __ehhandler$??$_Insert@AAU?$pair@$$CBV?$basic_string@DU?$char_traits@D@std@@V?$allocator@D@2@@std@@V?$shared_ptr@UNode@NetvarTree@@@2@@std@@V?$_List_unchecked_iterator@V?$_List_val@U?$_List_simple_types@U?$pair@$$CBV?$basic_string@DU?$char_traits@D@std@@V?$allocator@D@2@@std@@V?$shared_ptr@UNode@NetvarTree@@@2@@std@@@std@@@std@@@2@@?$_Hash@V?$_Umap_traits@V?$basic_string@DU?$char_traits@D@std@@V?$allocator@D@2@@std@@V?$shared_ptr@UNode@NetvarTree@@@2@V?$_Uhash_compare@V?$basic_string@DU?$char_traits@D@std@@V?$allocator@D@2@@std@@U?$hash@V?$basic_string@DU?$char_traits@D@std@@V?$allocator@D@2@@std@@@2@U?$equal_to@V?$basic_string@DU?$char_traits@D@std@@V?$allocator@D@2@@std@@@2@@2@V?$allocator@U?$pair@$$CBV?$basic_string@DU?$char_traits@D@std@@V?$allocator@D@2@@std@@V?$shared_ptr@UNode@NetvarTree@@@2@@std@@@2@$0A@@std@@@std@@IAE?AU?$pair@V?$_List_iterator@V?$_List_val@U?$_List_simple_types@U?$pair@$$CBV?$basic_string@DU?$char_traits@D@std@@V?$allocator@D@2@@std@@V?$shared_ptr@UNode@NetvarTree@@@2@@std@@@std@@@std@@@std@@_N@1@AAU?$pair@$$CBV?$basic_string@DU?$char_traits@D@std@@V?$allocator@D@2@@std@@V?$shared_ptr@UNode@NetvarTree@@@2@@1@V?$_List_unchecked_iterator@V?$_List_val@U?$_List_simple_types@U?$pair@$$CBV?$basic_string@DU?$char_traits@D@std@@V?$allocator@D@2@@std@@V?$shared_ptr@UNode@NetvarTree@@@2@@std@@@std@@@std@@@1@@Z 10065680 f   c_ragebot.obj
 0001:000646a0       __unwindfunclet$??$_Uninit_alloc_fill_n1@PAV?$_List_unchecked_iterator@V?$_List_val@U?$_List_simple_types@U?$pair@$$CBV?$basic_string@DU?$char_traits@D@std@@V?$allocator@D@2@@std@@V?$shared_ptr@UNode@NetvarTree@@@2@@std@@@std@@@std@@@std@@IV?$allocator@V?$_List_unchecked_iterator@V?$_List_val@U?$_List_simple_types@U?$pair@$$CBV?$basic_string@DU?$char_traits@D@std@@V?$allocator@D@2@@std@@V?$shared_ptr@UNode@NetvarTree@@@2@@std@@@std@@@std@@@std@@@2@@std@@YAPAV?$_List_unchecked_iterator@V?$_List_val@U?$_List_simple_types@U?$pair@$$CBV?$basic_string@DU?$char_traits@D@std@@V?$allocator@D@2@@std@@V?$shared_ptr@UNode@NetvarTree@@@2@@std@@@std@@@std@@@0@QAV10@IABV10@AAV?$allocator@V?$_List_unchecked_iterator@V?$_List_val@U?$_List_simple_types@U?$pair@$$CBV?$basic_string@DU?$char_traits@D@std@@V?$allocator@D@2@@std@@V?$shared_ptr@UNode@NetvarTree@@@2@@std@@@std@@@std@@@std@@@0@U?$integral_constant@_N$0A@@0@@Z$0 100656a0 f   c_ragebot.obj
 0001:000646a0       __unwindfunclet$??$_Uninitialized_move_al_unchecked@PAV?$_List_unchecked_iterator@V?$_List_val@U?$_List_simple_types@U?$pair@$$CBV?$basic_string@DU?$char_traits@D@std@@V?$allocator@D@2@@std@@V?$shared_ptr@UNode@NetvarTree@@@2@@std@@@std@@@std@@@std@@PAV12@V?$allocator@V?$_List_unchecked_iterator@V?$_List_val@U?$_List_simple_types@U?$pair@$$CBV?$basic_string@DU?$char_traits@D@std@@V?$allocator@D@2@@std@@V?$shared_ptr@UNode@NetvarTree@@@2@@std@@@std@@@std@@@std@@@2@@std@@YAPAV?$_List_unchecked_iterator@V?$_List_val@U?$_List_simple_types@U?$pair@$$CBV?$basic_string@DU?$char_traits@D@std@@V?$allocator@D@2@@std@@V?$shared_ptr@UNode@NetvarTree@@@2@@std@@@std@@@std@@@0@PAV10@QAV10@1AAV?$allocator@V?$_List_unchecked_iterator@V?$_List_val@U?$_List_simple_types@U?$pair@$$CBV?$basic_string@DU?$char_traits@D@std@@V?$allocator@D@2@@std@@V?$shared_ptr@UNode@NetvarTree@@@2@@std@@@std@@@std@@@std@@@0@U_General_ptr_iterator_tag@0@U_Unused_parameter@0@@Z$0 100656a0 f   c_ragebot.obj
 0001:000646a8       __ehhandler$??$_Uninit_alloc_fill_n1@PAV?$_List_unchecked_iterator@V?$_List_val@U?$_List_simple_types@U?$pair@$$CBV?$basic_string@DU?$char_traits@D@std@@V?$allocator@D@2@@std@@V?$shared_ptr@UNode@NetvarTree@@@2@@std@@@std@@@std@@@std@@IV?$allocator@V?$_List_unchecked_iterator@V?$_List_val@U?$_List_simple_types@U?$pair@$$CBV?$basic_string@DU?$char_traits@D@std@@V?$allocator@D@2@@std@@V?$shared_ptr@UNode@NetvarTree@@@2@@std@@@std@@@std@@@std@@@2@@std@@YAPAV?$_List_unchecked_iterator@V?$_List_val@U?$_List_simple_types@U?$pair@$$CBV?$basic_string@DU?$char_traits@D@std@@V?$allocator@D@2@@std@@V?$shared_ptr@UNode@NetvarTree@@@2@@std@@@std@@@std@@@0@QAV10@IABV10@AAV?$allocator@V?$_List_unchecked_iterator@V?$_List_val@U?$_List_simple_types@U?$pair@$$CBV?$basic_string@DU?$char_traits@D@std@@V?$allocator@D@2@@std@@V?$shared_ptr@UNode@NetvarTree@@@2@@std@@@std@@@std@@@std@@@0@U?$integral_constant@_N$0A@@0@@Z 100656a8 f   c_ragebot.obj
 0001:000646a8       __ehhandler$??$_Uninitialized_move_al_unchecked@PAV?$_List_unchecked_iterator@V?$_List_val@U?$_List_simple_types@U?$pair@$$CBV?$basic_string@DU?$char_traits@D@std@@V?$allocator@D@2@@std@@V?$shared_ptr@UNode@NetvarTree@@@2@@std@@@std@@@std@@@std@@PAV12@V?$allocator@V?$_List_unchecked_iterator@V?$_List_val@U?$_List_simple_types@U?$pair@$$CBV?$basic_string@DU?$char_traits@D@std@@V?$allocator@D@2@@std@@V?$shared_ptr@UNode@NetvarTree@@@2@@std@@@std@@@std@@@std@@@2@@std@@YAPAV?$_List_unchecked_iterator@V?$_List_val@U?$_List_simple_types@U?$pair@$$CBV?$basic_string@DU?$char_traits@D@std@@V?$allocator@D@2@@std@@V?$shared_ptr@UNode@NetvarTree@@@2@@std@@@std@@@std@@@0@PAV10@QAV10@1AAV?$allocator@V?$_List_unchecked_iterator@V?$_List_val@U?$_List_simple_types@U?$pair@$$CBV?$basic_string@DU?$char_traits@D@std@@V?$allocator@D@2@@std@@V?$shared_ptr@UNode@NetvarTree@@@2@@std@@@std@@@std@@@std@@@0@U_General_ptr_iterator_tag@0@U_Unused_parameter@0@@Z 100656a8 f   c_ragebot.obj
 0001:000646d0       __unwindfunclet$??0?$_Deque_const_iterator@V?$_Deque_val@U?$_Deque_simple_types@UPlayerRecords@@@std@@@std@@@std@@QAE@IPBU_Container_base12@1@@Z$0 100656d0 f   c_ragebot.obj
 0001:000646d0       __unwindfunclet$??0?$_Deque_const_iterator@V?$_Deque_val@U?$_Deque_simple_types@ULegitPlayerRecords@@@std@@@std@@@std@@QAE@IPBU_Container_base12@1@@Z$0 100656d0 f   Legitbot.obj
 0001:000646d8       __ehhandler$??0?$_Deque_const_iterator@V?$_Deque_val@U?$_Deque_simple_types@ULegitPlayerRecords@@@std@@@std@@@std@@QAE@IPBU_Container_base12@1@@Z 100656d8 f   Legitbot.obj
 0001:000646d8       __ehhandler$??0?$_Deque_const_iterator@V?$_Deque_val@U?$_Deque_simple_types@UPlayerRecords@@@std@@@std@@@std@@QAE@IPBU_Container_base12@1@@Z 100656d8 f   c_ragebot.obj
 0001:00064700       __unwindfunclet$??H?$_Deque_iterator@V?$_Deque_val@U?$_Deque_simple_types@ULegitPlayerRecords@@@std@@@std@@@std@@QBE?AV01@H@Z$0 10065700 f   Legitbot.obj
 0001:00064700       __unwindfunclet$??H?$_Deque_iterator@V?$_Deque_val@U?$_Deque_simple_types@UPlayerRecords@@@std@@@std@@@std@@QBE?AV01@H@Z$0 10065700 f   c_ragebot.obj
 0001:00064708       __ehhandler$??H?$_Deque_iterator@V?$_Deque_val@U?$_Deque_simple_types@ULegitPlayerRecords@@@std@@@std@@@std@@QBE?AV01@H@Z 10065708 f   Legitbot.obj
 0001:00064708       __ehhandler$??H?$_Deque_iterator@V?$_Deque_val@U?$_Deque_simple_types@UPlayerRecords@@@std@@@std@@@std@@QBE?AV01@H@Z 10065708 f   c_ragebot.obj
 0001:00064730       __unwindfunclet$?GetActiveWeapon@C_BaseEntity@@QAEPAVC_BaseCombatWeapon@@XZ$0 10065730 f   c_ragebot.obj
 0001:0006473c       __ehhandler$?GetActiveWeapon@C_BaseEntity@@QAEPAVC_BaseCombatWeapon@@XZ 1006573c f   c_ragebot.obj
 0001:00064760       __unwindfunclet$?GetEyeAngles@C_BaseEntity@@QAE?AVVector@@XZ$0 10065760 f   c_ragebot.obj
 0001:0006476c       __ehhandler$?GetEyeAngles@C_BaseEntity@@QAE?AVVector@@XZ 1006576c f   c_ragebot.obj
 0001:00064790       __unwindfunclet$?GetFlags@C_BaseEntity@@QAE?AW4EntityFlags@@XZ$0 10065790 f   c_ragebot.obj
 0001:0006479c       __ehhandler$?GetFlags@C_BaseEntity@@QAE?AW4EntityFlags@@XZ 1006579c f   c_ragebot.obj
 0001:000647c0       __unwindfunclet$?GetHealth@C_BaseEntity@@QAEHXZ$0 100657c0 f   c_ragebot.obj
 0001:000647cc       __ehhandler$?GetHealth@C_BaseEntity@@QAEHXZ 100657cc f   c_ragebot.obj
 0001:000647f0       __unwindfunclet$?GetLastShotTime@C_BaseCombatWeapon@@QAEMXZ$0 100657f0 f   c_ragebot.obj
 0001:000647fc       __ehhandler$?GetLastShotTime@C_BaseCombatWeapon@@QAEMXZ 100657fc f   c_ragebot.obj
 0001:00064820       __unwindfunclet$?GetLifeState@C_BaseEntity@@QAE_NXZ$0 10065820 f   c_ragebot.obj
 0001:0006482c       __ehhandler$?GetLifeState@C_BaseEntity@@QAE_NXZ 1006582c f   c_ragebot.obj
 0001:00064850       __unwindfunclet$?GetNextPrimaryAttack@C_BaseCombatWeapon@@QAEMXZ$0 10065850 f   c_ragebot.obj
 0001:0006485c       __ehhandler$?GetNextPrimaryAttack@C_BaseCombatWeapon@@QAEMXZ 1006585c f   c_ragebot.obj
 0001:00064880       __unwindfunclet$?GetOffsetRecursive@NetvarTree@@CAHAAV?$unordered_map@V?$basic_string@DU?$char_traits@D@std@@V?$allocator@D@2@@std@@V?$shared_ptr@UNode@NetvarTree@@@2@U?$hash@V?$basic_string@DU?$char_traits@D@std@@V?$allocator@D@2@@std@@@2@U?$equal_to@V?$basic_string@DU?$char_traits@D@std@@V?$allocator@D@2@@std@@@2@V?$allocator@U?$pair@$$CBV?$basic_string@DU?$char_traits@D@std@@V?$allocator@D@2@@std@@V?$shared_ptr@UNode@NetvarTree@@@2@@std@@@2@@std@@HPBD@Z$0 10065880 f   c_ragebot.obj
 0001:00064880       __unwindfunclet$??0system_error@std@@QAE@Verror_code@1@@Z$0 10065880 f   config_system.obj
 0001:00064888       __ehhandler$??0system_error@std@@QAE@Verror_code@1@@Z 10065888 f   config_system.obj
 0001:00064888       __ehhandler$?GetOffsetRecursive@NetvarTree@@CAHAAV?$unordered_map@V?$basic_string@DU?$char_traits@D@std@@V?$allocator@D@2@@std@@V?$shared_ptr@UNode@NetvarTree@@@2@U?$hash@V?$basic_string@DU?$char_traits@D@std@@V?$allocator@D@2@@std@@@2@U?$equal_to@V?$basic_string@DU?$char_traits@D@std@@V?$allocator@D@2@@std@@@2@V?$allocator@U?$pair@$$CBV?$basic_string@DU?$char_traits@D@std@@V?$allocator@D@2@@std@@V?$shared_ptr@UNode@NetvarTree@@@2@@std@@@2@@std@@HPBD@Z 10065888 f   c_ragebot.obj
 0001:000648b0       __unwindfunclet$?GetOrigin@C_BaseEntity@@QAE?AVVector@@XZ$0 100658b0 f   c_ragebot.obj
 0001:000648bc       __ehhandler$?GetOrigin@C_BaseEntity@@QAE?AVVector@@XZ 100658bc f   c_ragebot.obj
 0001:000648e0       __unwindfunclet$?GetSimulationTime@C_BaseEntity@@QAEMXZ$0 100658e0 f   c_ragebot.obj
 0001:000648ec       __ehhandler$?GetSimulationTime@C_BaseEntity@@QAEMXZ 100658ec f   c_ragebot.obj
 0001:00064910       __unwindfunclet$?GetTeam@C_BaseEntity@@QAEHXZ$0 10065910 f   c_ragebot.obj
 0001:0006491c       __ehhandler$?GetTeam@C_BaseEntity@@QAEHXZ 1006591c f   c_ragebot.obj
 0001:00064940       __unwindfunclet$?GetTickBase@C_BaseEntity@@QAEHXZ$0 10065940 f   c_ragebot.obj
 0001:0006494c       __ehhandler$?GetTickBase@C_BaseEntity@@QAEHXZ 1006594c f   c_ragebot.obj
 0001:00064970       __unwindfunclet$?GetVelocity@C_BaseEntity@@QAE?AVVector@@XZ$0 10065970 f   c_ragebot.obj
 0001:0006497c       __ehhandler$?GetVelocity@C_BaseEntity@@QAE?AVVector@@XZ 1006597c f   c_ragebot.obj
 0001:000649a0       __unwindfunclet$?Hitscan@c_aimbot@@QAE?AVVector@@PAVC_BaseEntity@@@Z$0 100659a0 f   c_ragebot.obj
 0001:000649ab       __ehhandler$?Hitscan@c_aimbot@@QAE?AVVector@@PAVC_BaseEntity@@@Z 100659ab f   c_ragebot.obj
 0001:000649e0       __ehhandler$?_Buynode0@?$_List_alloc@U?$_List_base_types@U?$pair@$$CBV?$basic_string@DU?$char_traits@D@std@@V?$allocator@D@2@@std@@V?$shared_ptr@UNode@NetvarTree@@@2@@std@@V?$allocator@U?$pair@$$CBV?$basic_string@DU?$char_traits@D@std@@V?$allocator@D@2@@std@@V?$shared_ptr@UNode@NetvarTree@@@2@@std@@@2@@std@@@std@@QAEPAU?$_List_node@U?$pair@$$CBV?$basic_string@DU?$char_traits@D@std@@V?$allocator@D@2@@std@@V?$shared_ptr@UNode@NetvarTree@@@2@@std@@PAX@2@PAU32@0@Z 100659e0 f   c_ragebot.obj
 0001:00064a00       __ehhandler$?_Equal@?$basic_string@DU?$char_traits@D@std@@V?$allocator@D@2@@std@@QBE_NABV12@@Z 10065a00 f   c_ragebot.obj
 0001:00064a20       __ehhandler$?_Reallocate_exactly@?$vector@V?$_List_unchecked_iterator@V?$_List_val@U?$_List_simple_types@U?$pair@$$CBV?$basic_string@DU?$char_traits@D@std@@V?$allocator@D@2@@std@@V?$shared_ptr@UNode@NetvarTree@@@2@@std@@@std@@@std@@@std@@V?$allocator@V?$_List_unchecked_iterator@V?$_List_val@U?$_List_simple_types@U?$pair@$$CBV?$basic_string@DU?$char_traits@D@std@@V?$allocator@D@2@@std@@V?$shared_ptr@UNode@NetvarTree@@@2@@std@@@std@@@std@@@std@@@2@@std@@AAEXI@Z 10065a20 f   c_ragebot.obj
 0001:00064a40       __unwindfunclet$?at@?$deque@UPlayerRecords@@V?$allocator@UPlayerRecords@@@std@@@std@@QAEAAUPlayerRecords@@I@Z$0 10065a40 f   c_ragebot.obj
 0001:00064a40       __unwindfunclet$?at@?$deque@ULegitPlayerRecords@@V?$allocator@ULegitPlayerRecords@@@std@@@std@@QAEAAULegitPlayerRecords@@I@Z$0 10065a40 f   Legitbot.obj
 0001:00064a48       __unwindfunclet$?at@?$deque@UPlayerRecords@@V?$allocator@UPlayerRecords@@@std@@@std@@QAEAAUPlayerRecords@@I@Z$1 10065a48 f   c_ragebot.obj
 0001:00064a48       __unwindfunclet$?at@?$deque@ULegitPlayerRecords@@V?$allocator@ULegitPlayerRecords@@@std@@@std@@QAEAAULegitPlayerRecords@@I@Z$1 10065a48 f   Legitbot.obj
 0001:00064a50       __ehhandler$?at@?$deque@UPlayerRecords@@V?$allocator@UPlayerRecords@@@std@@@std@@QAEAAUPlayerRecords@@I@Z 10065a50 f   c_ragebot.obj
 0001:00064a50       __ehhandler$?at@?$deque@ULegitPlayerRecords@@V?$allocator@ULegitPlayerRecords@@@std@@@std@@QAEAAULegitPlayerRecords@@I@Z 10065a50 f   Legitbot.obj
 0001:00064a70       __unwindfunclet$?ArmorValue@C_BaseEntity@@QAEHXZ$0 10065a70 f   Autowall.obj
 0001:00064a7c       __ehhandler$?ArmorValue@C_BaseEntity@@QAEHXZ 10065a7c f   Autowall.obj
 0001:00064aa0       __unwindfunclet$?HasHelmet@C_BaseEntity@@QAE_NXZ$0 10065aa0 f   Autowall.obj
 0001:00064aac       __ehhandler$?HasHelmet@C_BaseEntity@@QAE_NXZ 10065aac f   Autowall.obj
 0001:00064ad0       __unwindfunclet$?TraceToExitalt@@YA_NAAVVector@@AAUC_Trace@@V1@2PAU2@@Z$0 10065ad0 f   Autowall.obj
 0001:00064adc       __ehhandler$?TraceToExitalt@@YA_NAAVVector@@AAUC_Trace@@V1@2PAU2@@Z 10065adc f   Autowall.obj
 0001:00064b00       __unwindfunclet$?UTIL_ClipTraceToPlayers@@YAXABVVector@@0IPAVITraceFilter@@PAUC_Trace@@@Z$0 10065b00 f   Autowall.obj
 0001:00064b0c       __ehhandler$?UTIL_ClipTraceToPlayers@@YAXABVVector@@0IPAVITraceFilter@@PAUC_Trace@@@Z 10065b0c f   Autowall.obj
 0001:00064b30       __unwindfunclet$?SetCurrentCommand@C_BaseEntity@@QAEXPAVCUserCmd@@@Z$0 10065b30 f   EnginePrediction.obj
 0001:00064b3c       __ehhandler$?SetCurrentCommand@C_BaseEntity@@QAEXPAVCUserCmd@@@Z 10065b3c f   EnginePrediction.obj
 0001:00064b60       __unwindfunclet$??$move@V?$_Deque_iterator@V?$_Deque_val@U?$_Deque_simple_types@ULegitPlayerRecords@@@std@@@std@@@std@@V12@@std@@YA?AV?$_Deque_iterator@V?$_Deque_val@U?$_Deque_simple_types@ULegitPlayerRecords@@@std@@@std@@@0@V10@00@Z$0 10065b60 f   Legitbot.obj
 0001:00064b60       __unwindfunclet$??$move@V?$_Deque_iterator@V?$_Deque_val@U?$_Deque_simple_types@UPlayerRecords@@@std@@@std@@@std@@V12@@std@@YA?AV?$_Deque_iterator@V?$_Deque_val@U?$_Deque_simple_types@UPlayerRecords@@@std@@@std@@@0@V10@00@Z$0 10065b60 f   LagComp.obj
 0001:00064b60       __unwindfunclet$??$move_backward@V?$_Deque_iterator@V?$_Deque_val@U?$_Deque_simple_types@ULegitPlayerRecords@@@std@@@std@@@std@@V12@@std@@YA?AV?$_Deque_iterator@V?$_Deque_val@U?$_Deque_simple_types@ULegitPlayerRecords@@@std@@@std@@@0@V10@00@Z$0 10065b60 f   Legitbot.obj
 0001:00064b60       __unwindfunclet$??$move_backward@V?$_Deque_iterator@V?$_Deque_val@U?$_Deque_simple_types@UPlayerRecords@@@std@@@std@@@std@@V12@@std@@YA?AV?$_Deque_iterator@V?$_Deque_val@U?$_Deque_simple_types@UPlayerRecords@@@std@@@std@@@0@V10@00@Z$0 10065b60 f   LagComp.obj
 0001:00064b68       __unwindfunclet$??$move@V?$_Deque_iterator@V?$_Deque_val@U?$_Deque_simple_types@ULegitPlayerRecords@@@std@@@std@@@std@@V12@@std@@YA?AV?$_Deque_iterator@V?$_Deque_val@U?$_Deque_simple_types@ULegitPlayerRecords@@@std@@@std@@@0@V10@00@Z$1 10065b68 f   Legitbot.obj
 0001:00064b68       __unwindfunclet$??$move_backward@V?$_Deque_iterator@V?$_Deque_val@U?$_Deque_simple_types@ULegitPlayerRecords@@@std@@@std@@@std@@V12@@std@@YA?AV?$_Deque_iterator@V?$_Deque_val@U?$_Deque_simple_types@ULegitPlayerRecords@@@std@@@std@@@0@V10@00@Z$1 10065b68 f   Legitbot.obj
 0001:00064b68       __unwindfunclet$??$move_backward@V?$_Deque_iterator@V?$_Deque_val@U?$_Deque_simple_types@UPlayerRecords@@@std@@@std@@@std@@V12@@std@@YA?AV?$_Deque_iterator@V?$_Deque_val@U?$_Deque_simple_types@UPlayerRecords@@@std@@@std@@@0@V10@00@Z$1 10065b68 f   LagComp.obj
 0001:00064b68       __unwindfunclet$??$move@V?$_Deque_iterator@V?$_Deque_val@U?$_Deque_simple_types@UPlayerRecords@@@std@@@std@@@std@@V12@@std@@YA?AV?$_Deque_iterator@V?$_Deque_val@U?$_Deque_simple_types@UPlayerRecords@@@std@@@std@@@0@V10@00@Z$1 10065b68 f   LagComp.obj
 0001:00064b70       __unwindfunclet$??$move@V?$_Deque_iterator@V?$_Deque_val@U?$_Deque_simple_types@ULegitPlayerRecords@@@std@@@std@@@std@@V12@@std@@YA?AV?$_Deque_iterator@V?$_Deque_val@U?$_Deque_simple_types@ULegitPlayerRecords@@@std@@@std@@@0@V10@00@Z$2 10065b70 f   Legitbot.obj
 0001:00064b70       __unwindfunclet$??$move@V?$_Deque_iterator@V?$_Deque_val@U?$_Deque_simple_types@UPlayerRecords@@@std@@@std@@@std@@V12@@std@@YA?AV?$_Deque_iterator@V?$_Deque_val@U?$_Deque_simple_types@UPlayerRecords@@@std@@@std@@@0@V10@00@Z$2 10065b70 f   LagComp.obj
 0001:00064b70       __unwindfunclet$??$move_backward@V?$_Deque_iterator@V?$_Deque_val@U?$_Deque_simple_types@ULegitPlayerRecords@@@std@@@std@@@std@@V12@@std@@YA?AV?$_Deque_iterator@V?$_Deque_val@U?$_Deque_simple_types@ULegitPlayerRecords@@@std@@@std@@@0@V10@00@Z$2 10065b70 f   Legitbot.obj
 0001:00064b70       __unwindfunclet$??$move_backward@V?$_Deque_iterator@V?$_Deque_val@U?$_Deque_simple_types@UPlayerRecords@@@std@@@std@@@std@@V12@@std@@YA?AV?$_Deque_iterator@V?$_Deque_val@U?$_Deque_simple_types@UPlayerRecords@@@std@@@std@@@0@V10@00@Z$2 10065b70 f   LagComp.obj
 0001:00064b78       __ehhandler$??$move@V?$_Deque_iterator@V?$_Deque_val@U?$_Deque_simple_types@ULegitPlayerRecords@@@std@@@std@@@std@@V12@@std@@YA?AV?$_Deque_iterator@V?$_Deque_val@U?$_Deque_simple_types@ULegitPlayerRecords@@@std@@@std@@@0@V10@00@Z 10065b78 f   Legitbot.obj
 0001:00064b78       __ehhandler$??$move_backward@V?$_Deque_iterator@V?$_Deque_val@U?$_Deque_simple_types@UPlayerRecords@@@std@@@std@@@std@@V12@@std@@YA?AV?$_Deque_iterator@V?$_Deque_val@U?$_Deque_simple_types@UPlayerRecords@@@std@@@std@@@0@V10@00@Z 10065b78 f   LagComp.obj
 0001:00064b78       __ehhandler$??$move@V?$_Deque_iterator@V?$_Deque_val@U?$_Deque_simple_types@UPlayerRecords@@@std@@@std@@@std@@V12@@std@@YA?AV?$_Deque_iterator@V?$_Deque_val@U?$_Deque_simple_types@UPlayerRecords@@@std@@@std@@@0@V10@00@Z 10065b78 f   LagComp.obj
 0001:00064b78       __ehhandler$??$move_backward@V?$_Deque_iterator@V?$_Deque_val@U?$_Deque_simple_types@ULegitPlayerRecords@@@std@@@std@@@std@@V12@@std@@YA?AV?$_Deque_iterator@V?$_Deque_val@U?$_Deque_simple_types@ULegitPlayerRecords@@@std@@@std@@@0@V10@00@Z 10065b78 f   Legitbot.obj
 0001:00064ba0       __unwindfunclet$??H?$_Deque_const_iterator@V?$_Deque_val@U?$_Deque_simple_types@UPlayerRecords@@@std@@@std@@@std@@QBE?AV01@H@Z$0 10065ba0 f   LagComp.obj
 0001:00064ba0       __unwindfunclet$??H?$_Deque_const_iterator@V?$_Deque_val@U?$_Deque_simple_types@ULegitPlayerRecords@@@std@@@std@@@std@@QBE?AV01@H@Z$0 10065ba0 f   Legitbot.obj
 0001:00064ba8       __ehhandler$??H?$_Deque_const_iterator@V?$_Deque_val@U?$_Deque_simple_types@ULegitPlayerRecords@@@std@@@std@@@std@@QBE?AV01@H@Z 10065ba8 f   Legitbot.obj
 0001:00064ba8       __ehhandler$??H?$_Deque_const_iterator@V?$_Deque_val@U?$_Deque_simple_types@UPlayerRecords@@@std@@@std@@@std@@QBE?AV01@H@Z 10065ba8 f   LagComp.obj
 0001:00064bd0       __unwindfunclet$?ClearRecords@LagComp@@QAEXH@Z$0 10065bd0 f   LagComp.obj
 0001:00064bd8       __unwindfunclet$?ClearRecords@LagComp@@QAEXH@Z$1 10065bd8 f   LagComp.obj
 0001:00064be0       __ehhandler$?ClearRecords@LagComp@@QAEXH@Z 10065be0 f   LagComp.obj
 0001:00064c00       __unwindfunclet$?StoreRecord@LagComp@@QAEXPAVC_BaseEntity@@@Z$0 10065c00 f   LagComp.obj
 0001:00064c0b       __unwindfunclet$?StoreRecord@LagComp@@QAEXPAVC_BaseEntity@@@Z$1 10065c0b f   LagComp.obj
 0001:00064c16       __ehhandler$?StoreRecord@LagComp@@QAEXPAVC_BaseEntity@@@Z 10065c16 f   LagComp.obj
 0001:00064c40       __unwindfunclet$?_Make_iter@?$deque@ULegitPlayerRecords@@V?$allocator@ULegitPlayerRecords@@@std@@@std@@QBE?AV?$_Deque_iterator@V?$_Deque_val@U?$_Deque_simple_types@ULegitPlayerRecords@@@std@@@std@@@2@V?$_Deque_const_iterator@V?$_Deque_val@U?$_Deque_simple_types@ULegitPlayerRecords@@@std@@@std@@@2@@Z$0 10065c40 f   Legitbot.obj
 0001:00064c40       __unwindfunclet$?_Make_iter@?$deque@UPlayerRecords@@V?$allocator@UPlayerRecords@@@std@@@std@@QBE?AV?$_Deque_iterator@V?$_Deque_val@U?$_Deque_simple_types@UPlayerRecords@@@std@@@std@@@2@V?$_Deque_const_iterator@V?$_Deque_val@U?$_Deque_simple_types@UPlayerRecords@@@std@@@std@@@2@@Z$0 10065c40 f   LagComp.obj
 0001:00064c48       __ehhandler$?_Make_iter@?$deque@UPlayerRecords@@V?$allocator@UPlayerRecords@@@std@@@std@@QBE?AV?$_Deque_iterator@V?$_Deque_val@U?$_Deque_simple_types@UPlayerRecords@@@std@@@std@@@2@V?$_Deque_const_iterator@V?$_Deque_val@U?$_Deque_simple_types@UPlayerRecords@@@std@@@std@@@2@@Z 10065c48 f   LagComp.obj
 0001:00064c48       __ehhandler$?_Make_iter@?$deque@ULegitPlayerRecords@@V?$allocator@ULegitPlayerRecords@@@std@@@std@@QBE?AV?$_Deque_iterator@V?$_Deque_val@U?$_Deque_simple_types@ULegitPlayerRecords@@@std@@@std@@@2@V?$_Deque_const_iterator@V?$_Deque_val@U?$_Deque_simple_types@ULegitPlayerRecords@@@std@@@std@@@2@@Z 10065c48 f   Legitbot.obj
 0001:00064c70       __unwindfunclet$?erase@?$deque@ULegitPlayerRecords@@V?$allocator@ULegitPlayerRecords@@@std@@@std@@QAE?AV?$_Deque_iterator@V?$_Deque_val@U?$_Deque_simple_types@ULegitPlayerRecords@@@std@@@std@@@2@V?$_Deque_const_iterator@V?$_Deque_val@U?$_Deque_simple_types@ULegitPlayerRecords@@@std@@@std@@@2@0@Z$0 10065c70 f   Legitbot.obj
 0001:00064c70       __unwindfunclet$?erase@?$deque@UPlayerRecords@@V?$allocator@UPlayerRecords@@@std@@@std@@QAE?AV?$_Deque_iterator@V?$_Deque_val@U?$_Deque_simple_types@UPlayerRecords@@@std@@@std@@@2@V?$_Deque_const_iterator@V?$_Deque_val@U?$_Deque_simple_types@UPlayerRecords@@@std@@@std@@@2@0@Z$0 10065c70 f   LagComp.obj
 0001:00064c78       __unwindfunclet$?erase@?$deque@UPlayerRecords@@V?$allocator@UPlayerRecords@@@std@@@std@@QAE?AV?$_Deque_iterator@V?$_Deque_val@U?$_Deque_simple_types@UPlayerRecords@@@std@@@std@@@2@V?$_Deque_const_iterator@V?$_Deque_val@U?$_Deque_simple_types@UPlayerRecords@@@std@@@std@@@2@0@Z$1 10065c78 f   LagComp.obj
 0001:00064c78       __unwindfunclet$?erase@?$deque@ULegitPlayerRecords@@V?$allocator@ULegitPlayerRecords@@@std@@@std@@QAE?AV?$_Deque_iterator@V?$_Deque_val@U?$_Deque_simple_types@ULegitPlayerRecords@@@std@@@std@@@2@V?$_Deque_const_iterator@V?$_Deque_val@U?$_Deque_simple_types@ULegitPlayerRecords@@@std@@@std@@@2@0@Z$1 10065c78 f   Legitbot.obj
 0001:00064c80       __unwindfunclet$?erase@?$deque@UPlayerRecords@@V?$allocator@UPlayerRecords@@@std@@@std@@QAE?AV?$_Deque_iterator@V?$_Deque_val@U?$_Deque_simple_types@UPlayerRecords@@@std@@@std@@@2@V?$_Deque_const_iterator@V?$_Deque_val@U?$_Deque_simple_types@UPlayerRecords@@@std@@@std@@@2@0@Z$3 10065c80 f   LagComp.obj
 0001:00064c80       __unwindfunclet$?erase@?$deque@ULegitPlayerRecords@@V?$allocator@ULegitPlayerRecords@@@std@@@std@@QAE?AV?$_Deque_iterator@V?$_Deque_val@U?$_Deque_simple_types@ULegitPlayerRecords@@@std@@@std@@@2@V?$_Deque_const_iterator@V?$_Deque_val@U?$_Deque_simple_types@ULegitPlayerRecords@@@std@@@std@@@2@0@Z$3 10065c80 f   Legitbot.obj
 0001:00064c88       __unwindfunclet$?erase@?$deque@UPlayerRecords@@V?$allocator@UPlayerRecords@@@std@@@std@@QAE?AV?$_Deque_iterator@V?$_Deque_val@U?$_Deque_simple_types@UPlayerRecords@@@std@@@std@@@2@V?$_Deque_const_iterator@V?$_Deque_val@U?$_Deque_simple_types@UPlayerRecords@@@std@@@std@@@2@0@Z$5 10065c88 f   LagComp.obj
 0001:00064c88       __unwindfunclet$?erase@?$deque@ULegitPlayerRecords@@V?$allocator@ULegitPlayerRecords@@@std@@@std@@QAE?AV?$_Deque_iterator@V?$_Deque_val@U?$_Deque_simple_types@ULegitPlayerRecords@@@std@@@std@@@2@V?$_Deque_const_iterator@V?$_Deque_val@U?$_Deque_simple_types@ULegitPlayerRecords@@@std@@@std@@@2@0@Z$5 10065c88 f   Legitbot.obj
 0001:00064c90       __unwindfunclet$?erase@?$deque@UPlayerRecords@@V?$allocator@UPlayerRecords@@@std@@@std@@QAE?AV?$_Deque_iterator@V?$_Deque_val@U?$_Deque_simple_types@UPlayerRecords@@@std@@@std@@@2@V?$_Deque_const_iterator@V?$_Deque_val@U?$_Deque_simple_types@UPlayerRecords@@@std@@@std@@@2@0@Z$6 10065c90 f   LagComp.obj
 0001:00064c90       __unwindfunclet$?erase@?$deque@ULegitPlayerRecords@@V?$allocator@ULegitPlayerRecords@@@std@@@std@@QAE?AV?$_Deque_iterator@V?$_Deque_val@U?$_Deque_simple_types@ULegitPlayerRecords@@@std@@@std@@@2@V?$_Deque_const_iterator@V?$_Deque_val@U?$_Deque_simple_types@ULegitPlayerRecords@@@std@@@std@@@2@0@Z$6 10065c90 f   Legitbot.obj
 0001:00064c9b       __unwindfunclet$?erase@?$deque@ULegitPlayerRecords@@V?$allocator@ULegitPlayerRecords@@@std@@@std@@QAE?AV?$_Deque_iterator@V?$_Deque_val@U?$_Deque_simple_types@ULegitPlayerRecords@@@std@@@std@@@2@V?$_Deque_const_iterator@V?$_Deque_val@U?$_Deque_simple_types@ULegitPlayerRecords@@@std@@@std@@@2@0@Z$7 10065c9b f   Legitbot.obj
 0001:00064c9b       __unwindfunclet$?erase@?$deque@UPlayerRecords@@V?$allocator@UPlayerRecords@@@std@@@std@@QAE?AV?$_Deque_iterator@V?$_Deque_val@U?$_Deque_simple_types@UPlayerRecords@@@std@@@std@@@2@V?$_Deque_const_iterator@V?$_Deque_val@U?$_Deque_simple_types@UPlayerRecords@@@std@@@std@@@2@0@Z$7 10065c9b f   LagComp.obj
 0001:00064ca6       __unwindfunclet$?erase@?$deque@ULegitPlayerRecords@@V?$allocator@ULegitPlayerRecords@@@std@@@std@@QAE?AV?$_Deque_iterator@V?$_Deque_val@U?$_Deque_simple_types@ULegitPlayerRecords@@@std@@@std@@@2@V?$_Deque_const_iterator@V?$_Deque_val@U?$_Deque_simple_types@ULegitPlayerRecords@@@std@@@std@@@2@0@Z$16 10065ca6 f   Legitbot.obj
 0001:00064ca6       __unwindfunclet$?erase@?$deque@UPlayerRecords@@V?$allocator@UPlayerRecords@@@std@@@std@@QAE?AV?$_Deque_iterator@V?$_Deque_val@U?$_Deque_simple_types@UPlayerRecords@@@std@@@std@@@2@V?$_Deque_const_iterator@V?$_Deque_val@U?$_Deque_simple_types@UPlayerRecords@@@std@@@std@@@2@0@Z$16 10065ca6 f   LagComp.obj
 0001:00064cb1       __ehhandler$?erase@?$deque@UPlayerRecords@@V?$allocator@UPlayerRecords@@@std@@@std@@QAE?AV?$_Deque_iterator@V?$_Deque_val@U?$_Deque_simple_types@UPlayerRecords@@@std@@@std@@@2@V?$_Deque_const_iterator@V?$_Deque_val@U?$_Deque_simple_types@UPlayerRecords@@@std@@@std@@@2@0@Z 10065cb1 f   LagComp.obj
 0001:00064cb1       __ehhandler$?erase@?$deque@ULegitPlayerRecords@@V?$allocator@ULegitPlayerRecords@@@std@@@std@@QAE?AV?$_Deque_iterator@V?$_Deque_val@U?$_Deque_simple_types@ULegitPlayerRecords@@@std@@@std@@@2@V?$_Deque_const_iterator@V?$_Deque_val@U?$_Deque_simple_types@ULegitPlayerRecords@@@std@@@std@@@2@0@Z 10065cb1 f   Legitbot.obj
 0001:00064cd0       __unwindfunclet$?erase@?$deque@UPlayerRecords@@V?$allocator@UPlayerRecords@@@std@@@std@@QAE?AV?$_Deque_iterator@V?$_Deque_val@U?$_Deque_simple_types@UPlayerRecords@@@std@@@std@@@2@V?$_Deque_const_iterator@V?$_Deque_val@U?$_Deque_simple_types@UPlayerRecords@@@std@@@std@@@2@@Z$0 10065cd0 f   LagComp.obj
 0001:00064cd0       __unwindfunclet$?erase@?$deque@ULegitPlayerRecords@@V?$allocator@ULegitPlayerRecords@@@std@@@std@@QAE?AV?$_Deque_iterator@V?$_Deque_val@U?$_Deque_simple_types@ULegitPlayerRecords@@@std@@@std@@@2@V?$_Deque_const_iterator@V?$_Deque_val@U?$_Deque_simple_types@ULegitPlayerRecords@@@std@@@std@@@2@@Z$0 10065cd0 f   Legitbot.obj
 0001:00064cd8       __ehhandler$?erase@?$deque@ULegitPlayerRecords@@V?$allocator@ULegitPlayerRecords@@@std@@@std@@QAE?AV?$_Deque_iterator@V?$_Deque_val@U?$_Deque_simple_types@ULegitPlayerRecords@@@std@@@std@@@2@V?$_Deque_const_iterator@V?$_Deque_val@U?$_Deque_simple_types@ULegitPlayerRecords@@@std@@@std@@@2@@Z 10065cd8 f   Legitbot.obj
 0001:00064cd8       __ehhandler$?erase@?$deque@UPlayerRecords@@V?$allocator@UPlayerRecords@@@std@@@std@@QAE?AV?$_Deque_iterator@V?$_Deque_val@U?$_Deque_simple_types@UPlayerRecords@@@std@@@std@@@2@V?$_Deque_const_iterator@V?$_Deque_val@U?$_Deque_simple_types@UPlayerRecords@@@std@@@std@@@2@@Z 10065cd8 f   LagComp.obj
 0001:00064d00       __unwindfunclet$?OnCreateMove@Legitbot@@QAEXXZ$0 10065d00 f   Legitbot.obj
 0001:00064d0b       __unwindfunclet$?OnCreateMove@Legitbot@@QAEXXZ$1 10065d0b f   Legitbot.obj
 0001:00064d16       __ehhandler$?OnCreateMove@Legitbot@@QAEXXZ 10065d16 f   Legitbot.obj
 0001:00064d40       __unwindfunclet$?AnimationFix@Resolver@@AAEXPAVC_BaseEntity@@@Z$0 10065d40 f   Resolver.obj
 0001:00064d4c       __ehhandler$?AnimationFix@Resolver@@AAEXPAVC_BaseEntity@@@Z 10065d4c f   Resolver.obj
 0001:00064d70       __unwindfunclet$?ClientAnimations@C_BaseEntity@@QAEX_N@Z$0 10065d70 f   Resolver.obj
 0001:00064d7c       __ehhandler$?ClientAnimations@C_BaseEntity@@QAEX_N@Z 10065d7c f   Resolver.obj
 0001:00064da0       __unwindfunclet$?GetLowerBodyYaw@C_BaseEntity@@QAEMXZ$0 10065da0 f   Resolver.obj
 0001:00064dac       __ehhandler$?GetLowerBodyYaw@C_BaseEntity@@QAEMXZ 10065dac f   Resolver.obj
 0001:00064dd0       __unwindfunclet$?SetLowerBodyYaw@C_BaseEntity@@QAEXM@Z$0 10065dd0 f   Resolver.obj
 0001:00064ddc       __ehhandler$?SetLowerBodyYaw@C_BaseEntity@@QAEXM@Z 10065ddc f   Resolver.obj
 0001:00064e00       __unwindfunclet$??$?0PADX@?$basic_string@DU?$char_traits@D@std@@V?$allocator@D@2@@std@@QAE@PAD0ABV?$allocator@D@1@@Z$0 10065e00 f   c_esp.obj
 0001:00064e08       __ehhandler$??$?0PADX@?$basic_string@DU?$char_traits@D@std@@V?$allocator@D@2@@std@@QAE@PAD0ABV?$allocator@D@1@@Z 10065e08 f   c_esp.obj
 0001:00064e30       __unwindfunclet$??0?$basic_string@_WU?$char_traits@_W@std@@V?$allocator@_W@2@@std@@QAE@ABV01@@Z$0 10065e30 f   config_system.obj
 0001:00064e30       __unwindfunclet$??0?$basic_string@DU?$char_traits@D@std@@V?$allocator@D@2@@std@@QAE@ABV01@@Z$0 10065e30 f   c_esp.obj
 0001:00064e38       __ehhandler$??0?$basic_string@_WU?$char_traits@_W@std@@V?$allocator@_W@2@@std@@QAE@ABV01@@Z 10065e38 f   config_system.obj
 0001:00064e38       __ehhandler$??0?$basic_string@DU?$char_traits@D@std@@V?$allocator@D@2@@std@@QAE@ABV01@@Z 10065e38 f   c_esp.obj
 0001:00064e60       __unwindfunclet$?GetAmmo@C_BaseCombatWeapon@@QAEHXZ$0 10065e60 f   c_esp.obj
 0001:00064e6c       __ehhandler$?GetAmmo@C_BaseCombatWeapon@@QAEHXZ 10065e6c f   c_esp.obj
 0001:00064e90       __unwindfunclet$?RenderHealth@c_esp@@AAEXPAVC_BaseEntity@@@Z$0 10065e90 f   c_esp.obj
 0001:00064e98       __unwindfunclet$?RenderHealth@c_esp@@AAEXPAVC_BaseEntity@@@Z$1 10065e98 f   c_esp.obj
 0001:00064ea0       __ehhandler$?RenderHealth@c_esp@@AAEXPAVC_BaseEntity@@@Z 10065ea0 f   c_esp.obj
 0001:00064ed0       __unwindfunclet$?RenderWeaponName@c_esp@@AAEXPAVC_BaseEntity@@@Z$0 10065ed0 f   c_esp.obj
 0001:00064edb       __unwindfunclet$?RenderWeaponName@c_esp@@AAEXPAVC_BaseEntity@@@Z$1 10065edb f   c_esp.obj
 0001:00064ee6       __unwindfunclet$?RenderWeaponName@c_esp@@AAEXPAVC_BaseEntity@@@Z$3 10065ee6 f   c_esp.obj
 0001:00064ef1       __unwindfunclet$?RenderWeaponName@c_esp@@AAEXPAVC_BaseEntity@@@Z$4 10065ef1 f   c_esp.obj
 0001:00064efc       __ehhandler$?RenderWeaponName@c_esp@@AAEXPAVC_BaseEntity@@@Z 10065efc f   c_esp.obj
 0001:00064f30       __unwindfunclet$?clean_name@@YA?AV?$basic_string@DU?$char_traits@D@std@@V?$allocator@D@2@@std@@V12@@Z$0 10065f30 f   c_esp.obj
 0001:00064f38       __unwindfunclet$?clean_name@@YA?AV?$basic_string@DU?$char_traits@D@std@@V?$allocator@D@2@@std@@V12@@Z$1 10065f38 f   c_esp.obj
 0001:00064f40       __ehhandler$?clean_name@@YA?AV?$basic_string@DU?$char_traits@D@std@@V?$allocator@D@2@@std@@V12@@Z 10065f40 f   c_esp.obj
 0001:00064f70       __unwindfunclet$?m_iPrimaryReserveAmmoCount@C_BaseCombatWeapon@@QAEHXZ$0 10065f70 f   c_esp.obj
 0001:00064f7c       __ehhandler$?m_iPrimaryReserveAmmoCount@C_BaseCombatWeapon@@QAEHXZ 10065f7c f   c_esp.obj
 0001:00064fa0       __unwindfunclet$??0ImDrawList@@QAE@XZ$0 10065fa0 f   imgui.obj
 0001:00064fa8       __unwindfunclet$??0ImDrawList@@QAE@XZ$1 10065fa8 f   imgui.obj
 0001:00064fb3       __unwindfunclet$??0ImDrawList@@QAE@XZ$2 10065fb3 f   imgui.obj
 0001:00064fbe       __unwindfunclet$??0ImDrawList@@QAE@XZ$3 10065fbe f   imgui.obj
 0001:00064fc9       __unwindfunclet$??0ImDrawList@@QAE@XZ$4 10065fc9 f   imgui.obj
 0001:00064fd4       __unwindfunclet$??0ImDrawList@@QAE@XZ$5 10065fd4 f   imgui.obj
 0001:00064fdf       __unwindfunclet$??0ImDrawList@@QAE@XZ$6 10065fdf f   imgui.obj
 0001:00064fea       __ehhandler$??0ImDrawList@@QAE@XZ 10065fea f   imgui.obj
 0001:00065010       __unwindfunclet$??0ImGuiContext@@QAE@XZ$0 10066010 f   imgui.obj
 0001:0006501e       __unwindfunclet$??0ImGuiContext@@QAE@XZ$1 1006601e f   imgui.obj
 0001:0006502c       __unwindfunclet$??0ImGuiContext@@QAE@XZ$2 1006602c f   imgui.obj
 0001:0006503a       __unwindfunclet$??0ImGuiContext@@QAE@XZ$3 1006603a f   imgui.obj
 0001:00065048       __unwindfunclet$??0ImGuiContext@@QAE@XZ$4 10066048 f   imgui.obj
 0001:00065056       __unwindfunclet$??0ImGuiContext@@QAE@XZ$5 10066056 f   imgui.obj
 0001:00065064       __unwindfunclet$??0ImGuiContext@@QAE@XZ$6 10066064 f   imgui.obj
 0001:00065072       __unwindfunclet$??0ImGuiContext@@QAE@XZ$7 10066072 f   imgui.obj
 0001:00065080       __unwindfunclet$??0ImGuiContext@@QAE@XZ$8 10066080 f   imgui.obj
 0001:0006508e       __unwindfunclet$??0ImGuiContext@@QAE@XZ$9 1006608e f   imgui.obj
 0001:000650a6       __unwindfunclet$??0ImGuiContext@@QAE@XZ$10 100660a6 f   imgui.obj
 0001:000650b4       __unwindfunclet$??0ImGuiContext@@QAE@XZ$11 100660b4 f   imgui.obj
 0001:000650c2       __unwindfunclet$??0ImGuiContext@@QAE@XZ$12 100660c2 f   imgui.obj
 0001:000650d0       __unwindfunclet$??0ImGuiContext@@QAE@XZ$13 100660d0 f   imgui.obj
 0001:000650de       __ehhandler$??0ImGuiContext@@QAE@XZ 100660de f   imgui.obj
 0001:00065100       __unwindfunclet$??0ImGuiDrawContext@@QAE@XZ$0 10066100 f   imgui.obj
 0001:0006510b       __unwindfunclet$??0ImGuiDrawContext@@QAE@XZ$1 1006610b f   imgui.obj
 0001:00065116       __unwindfunclet$??0ImGuiDrawContext@@QAE@XZ$2 10066116 f   imgui.obj
 0001:00065124       __unwindfunclet$??0ImGuiDrawContext@@QAE@XZ$3 10066124 f   imgui.obj
 0001:00065132       __unwindfunclet$??0ImGuiDrawContext@@QAE@XZ$4 10066132 f   imgui.obj
 0001:00065140       __unwindfunclet$??0ImGuiDrawContext@@QAE@XZ$5 10066140 f   imgui.obj
 0001:0006514e       __unwindfunclet$??0ImGuiDrawContext@@QAE@XZ$6 1006614e f   imgui.obj
 0001:0006515c       __ehhandler$??0ImGuiDrawContext@@QAE@XZ 1006615c f   imgui.obj
 0001:00065180       __unwindfunclet$??0ImGuiTextBuffer@@QAE@XZ$0 10066180 f   imgui.obj
 0001:00065188       __ehhandler$??0ImGuiTextBuffer@@QAE@XZ 10066188 f   imgui.obj
 0001:000651b0       __unwindfunclet$??0ImGuiTextEditState@@QAE@XZ$0 100661b0 f   imgui.obj
 0001:000651bb       __unwindfunclet$??0ImGuiTextEditState@@QAE@XZ$1 100661bb f   imgui.obj
 0001:000651c6       __ehhandler$??0ImGuiTextEditState@@QAE@XZ 100661c6 f   imgui.obj
 0001:000651f0       __unwindfunclet$??0ImGuiWindow@@QAE@PBD@Z$0 100661f0 f   imgui.obj
 0001:000651fe       __unwindfunclet$??0ImGuiWindow@@QAE@PBD@Z$1 100661fe f   imgui.obj
 0001:0006520c       __unwindfunclet$??0ImGuiWindow@@QAE@PBD@Z$2 1006620c f   imgui.obj
 0001:0006521a       __unwindfunclet$??0ImGuiWindow@@QAE@PBD@Z$3 1006621a f   imgui.obj
 0001:00065238       __ehhandler$??0ImGuiWindow@@QAE@PBD@Z 10066238 f   imgui.obj
 0001:00065260       __unwindfunclet$?CreateContext@ImGui@@YAPAUImGuiContext@@P6APAXI@ZP6AXPAX@Z@Z$0 10066260 f   imgui.obj
 0001:00065278       __ehhandler$?CreateContext@ImGui@@YAPAUImGuiContext@@P6APAXI@ZP6AXPAX@Z@Z 10066278 f   imgui.obj
 0001:000652a0       __unwindfunclet$?CreateNewWindow@@YAPAUImGuiWindow@@PBDUImVec2@@H@Z$0 100662a0 f   imgui.obj
 0001:000652b8       __ehhandler$?CreateNewWindow@@YAPAUImGuiWindow@@PBDUImVec2@@H@Z 100662b8 f   imgui.obj
 0001:000652e0       __unwindfunclet$?EndChild@ImGui@@YAX_N@Z$0 100662e0 f   imgui.obj
 0001:000652e8       __ehhandler$?EndChild@ImGui@@YAX_N@Z 100662e8 f   imgui.obj
 0001:00065310       __unwindfunclet$?GetClipboardTextFn_DefaultImpl@@YAPBDPAX@Z$0 10066310 f   imgui.obj
 0001:0006531c       __ehhandler$?GetClipboardTextFn_DefaultImpl@@YAPBDPAX@Z 1006631c f   imgui.obj
 0001:00065340       __unwindfunclet$?ImFileOpen@@YAPAU_iobuf@@PBD0@Z$0 10066340 f   imgui.obj
 0001:00065348       __ehhandler$?ImFileOpen@@YAPAU_iobuf@@PBD0@Z 10066348 f   imgui.obj
 0001:00065370       __unwindfunclet$?ListBox@ImGui@@YA_NPBDPAHP6A_NPAXHPAPBD@Z2HH@Z$0 10066370 f   imgui.obj
 0001:00065378       __ehhandler$?ListBox@ImGui@@YA_NPBDPAHP6A_NPAXHPAPBD@Z2HH@Z 10066378 f   imgui.obj
 0001:000653a0       __unwindfunclet$?NewFrame@ImGui@@YAXXZ$0 100663a0 f   imgui.obj
 0001:000653c1       __ehhandler$?NewFrame@ImGui@@YAXXZ 100663c1 f   imgui.obj
 0001:000653e0       __unwindfunclet$??0ImDrawChannel@@QAE@XZ$0 100663e0 f   imgui_draw.obj
 0001:000653e8       __ehhandler$??0ImDrawChannel@@QAE@XZ 100663e8 f   imgui_draw.obj
 0001:00065410       __unwindfunclet$??0ImFont@@QAE@XZ$0 10066410 f   imgui_draw.obj
 0001:0006541b       __unwindfunclet$??0ImFont@@QAE@XZ$1 1006641b f   imgui_draw.obj
 0001:00065426       __unwindfunclet$??0ImFont@@QAE@XZ$2 10066426 f   imgui_draw.obj
 0001:00065431       __ehhandler$??0ImFont@@QAE@XZ 10066431 f   imgui_draw.obj
 0001:00065450       __unwindfunclet$??0ImFontAtlas@@QAE@XZ$0 10066450 f   imgui_draw.obj
 0001:0006545b       __unwindfunclet$??0ImFontAtlas@@QAE@XZ$1 1006645b f   imgui_draw.obj
 0001:00065466       __unwindfunclet$??0ImFontAtlas@@QAE@XZ$2 10066466 f   imgui_draw.obj
 0001:00065471       __ehhandler$??0ImFontAtlas@@QAE@XZ 10066471 f   imgui_draw.obj
 0001:00065490       __unwindfunclet$?AddFont@ImFontAtlas@@QAEPAUImFont@@PBUImFontConfig@@@Z$0 10066490 f   imgui_draw.obj
 0001:000654a8       __ehhandler$?AddFont@ImFontAtlas@@QAEPAUImFont@@PBUImFontConfig@@@Z 100664a8 f   imgui_draw.obj
 0001:000654d0       __unwindfunclet$?ChannelsSplit@ImDrawList@@QAEXH@Z$0 100664d0 f   imgui_draw.obj
 0001:000654e8       __ehhandler$?ChannelsSplit@ImDrawList@@QAEXH@Z 100664e8 f   imgui_draw.obj
 0001:00065510       __unwindfunclet$?ImFontAtlasBuildPackCustomRects@@YAXPAUImFontAtlas@@PAX@Z$0 10066510 f   imgui_draw.obj
 0001:00065518       __ehhandler$?ImFontAtlasBuildPackCustomRects@@YAXPAUImFontAtlas@@PAX@Z 10066518 f   imgui_draw.obj
 0001:00065540       __unwindfunclet$?PathArcToFast@ImDrawList@@QAEXABUImVec2@@MHH@Z$0 10066540 f   imgui_draw.obj
 0001:0006554c       __ehhandler$?PathArcToFast@ImDrawList@@QAEXABUImVec2@@MHH@Z 1006654c f   imgui_draw.obj
 0001:00065570       __unwindfunclet$?CreateMove@c_hooks@@SI_NPAVIClientMode@@PAXMPAVCUserCmd@@@Z$0 10066570 f   createmove_hook.obj
 0001:0006557c       __ehhandler$?CreateMove@c_hooks@@SI_NPAVIClientMode@@PAXMPAVCUserCmd@@@Z 1006657c f   createmove_hook.obj
 0001:000655a0       __unwindfunclet$?Hooked_EndScene@c_hooks@@SGXPAUIDirect3DDevice9@@@Z$0 100665a0 f   directx_preset_hook.obj
 0001:000655ac       __ehhandler$?Hooked_EndScene@c_hooks@@SGXPAUIDirect3DDevice9@@@Z 100665ac f   directx_preset_hook.obj
 0001:000655d0       __unwindfunclet$?Hooked_EndScene_Reset@c_hooks@@SGXPAUIDirect3DDevice9@@PAU_D3DPRESENT_PARAMETERS_@@@Z$0 100665d0 f   directx_preset_hook.obj
 0001:000655dc       __ehhandler$?Hooked_EndScene_Reset@c_hooks@@SGXPAUIDirect3DDevice9@@PAU_D3DPRESENT_PARAMETERS_@@@Z 100665dc f   directx_preset_hook.obj
 0001:00065600       __unwindfunclet$?DrawModelExecute@c_hooks@@SIXPAX0PAVIMatRenderContext@@ABUDrawModelState_t@@ABUModelRenderInfo_t@@PAVmatrix3x4_t@@@Z$0 10066600 f   dme_hook.obj
 0001:0006560c       __ehhandler$?DrawModelExecute@c_hooks@@SIXPAX0PAVIMatRenderContext@@ABUDrawModelState_t@@ABUModelRenderInfo_t@@PAVmatrix3x4_t@@@Z 1006660c f   dme_hook.obj
 0001:00065630       __unwindfunclet$?FrameStageNotify@c_hooks@@SGXW4ClientFrameStage_t@@@Z$0 10066630 f   fsn_hook.obj
 0001:0006563c       __ehhandler$?FrameStageNotify@c_hooks@@SGXW4ClientFrameStage_t@@@Z 1006663c f   fsn_hook.obj
 0001:00065660       __unwindfunclet$?LockCursor@c_hooks@@SIXPAVISurface@@PAX@Z$0 10066660 f   lock_cursor_hook.obj
 0001:0006566c       __ehhandler$?LockCursor@c_hooks@@SIXPAVISurface@@PAX@Z 1006666c f   lock_cursor_hook.obj
 0001:00065690       __unwindfunclet$?IsScoped@C_BaseEntity@@QAE_NXZ$0 10066690 f   oview_hook.obj
 0001:0006569c       __ehhandler$?IsScoped@C_BaseEntity@@QAE_NXZ 1006669c f   oview_hook.obj
 0001:000656c0       __unwindfunclet$?OverrideView@c_hooks@@SIXPAX0PAVCViewSetup@@@Z$0 100666c0 f   oview_hook.obj
 0001:000656cc       __ehhandler$?OverrideView@c_hooks@@SIXPAX0PAVCViewSetup@@@Z 100666cc f   oview_hook.obj
 0001:000656f0       __unwindfunclet$?PaintTraverse@c_hooks@@SIXPAXHI_N1@Z$0 100666f0 f   painttraverse_hook.obj
 0001:000656fc       __ehhandler$?PaintTraverse@c_hooks@@SIXPAXHI_N1@Z 100666fc f   painttraverse_hook.obj
 0001:00065720       __unwindfunclet$?SceneEnd@c_hooks@@SIXPAX0@Z$0 10066720 f   sceneend_hook.obj
 0001:0006572c       __ehhandler$?SceneEnd@c_hooks@@SIXPAX0@Z 1006672c f   sceneend_hook.obj
 0001:00065750       __unwindfunclet$??$?0U_Creator@_Dir_enum_impl@filesystem@std@@ABW4directory_options@23@@?$_Ref_count_obj@U_Dir_enum_impl@filesystem@std@@@std@@QAE@$$QAU_Creator@_Dir_enum_impl@filesystem@1@ABW4directory_options@41@@Z$0 10066750 f   config_system.obj
 0001:00065758       __ehhandler$??$?0U_Creator@_Dir_enum_impl@filesystem@std@@ABW4directory_options@23@@?$_Ref_count_obj@U_Dir_enum_impl@filesystem@std@@@std@@QAE@$$QAU_Creator@_Dir_enum_impl@filesystem@1@ABW4directory_options@41@@Z 10066758 f   config_system.obj
 0001:00065780       __unwindfunclet$??$?RVdirectory_entry@filesystem@std@@@<lambda_bea2c85d2d76a7d41383a900013bf5c9>@@QBE?AV?$basic_string@DU?$char_traits@D@std@@V?$allocator@D@2@@std@@ABVdirectory_entry@filesystem@2@@Z$0 10066780 f   config_system.obj
 0001:00065788       __ehhandler$??$?RVdirectory_entry@filesystem@std@@@<lambda_bea2c85d2d76a7d41383a900013bf5c9>@@QBE?AV?$basic_string@DU?$char_traits@D@std@@V?$allocator@D@2@@std@@ABVdirectory_entry@filesystem@2@@Z 10066788 f   config_system.obj
 0001:000657b0       __unwindfunclet$??$?_0PBD$0A@@path@filesystem@std@@QAEAAV012@ABQBD@Z$0 100667b0 f   config_system.obj
 0001:000657b0       __unwindfunclet$??$?_0V?$basic_string_view@_WU?$char_traits@_W@std@@@std@@$0A@@path@filesystem@std@@QAEAAV012@ABV?$basic_string_view@_WU?$char_traits@_W@std@@@2@@Z$0 100667b0 f   config_system.obj
 0001:000657b8       __ehhandler$??$?_0V?$basic_string_view@_WU?$char_traits@_W@std@@@std@@$0A@@path@filesystem@std@@QAEAAV012@ABV?$basic_string_view@_WU?$char_traits@_W@std@@@2@@Z 100667b8 f   config_system.obj
 0001:000657b8       __ehhandler$??$?_0PBD$0A@@path@filesystem@std@@QAEAAV012@ABQBD@Z 100667b8 f   config_system.obj
 0001:000657e0       __unwindfunclet$??$_Convert_wide_to_narrow@U?$char_traits@D@std@@V?$allocator@D@2@@filesystem@std@@YA?AV?$basic_string@DU?$char_traits@D@std@@V?$allocator@D@2@@1@W4__std_code_page@@V?$basic_string_view@_WU?$char_traits@_W@std@@@1@ABV?$allocator@D@1@@Z$0 100667e0 f   config_system.obj
 0001:000657e8       __ehhandler$??$_Convert_wide_to_narrow@U?$char_traits@D@std@@V?$allocator@D@2@@filesystem@std@@YA?AV?$basic_string@DU?$char_traits@D@std@@V?$allocator@D@2@@1@W4__std_code_page@@V?$basic_string_view@_WU?$char_traits@_W@std@@@1@ABV?$allocator@D@1@@Z 100667e8 f   config_system.obj
 0001:00065810       __ehhandler$??$_Emplace_reallocate@AAPBD@?$vector@V?$basic_string@DU?$char_traits@D@std@@V?$allocator@D@2@@std@@V?$allocator@V?$basic_string@DU?$char_traits@D@std@@V?$allocator@D@2@@std@@@2@@std@@QAEPAV?$basic_string@DU?$char_traits@D@std@@V?$allocator@D@2@@1@QAV21@AAPBD@Z 10066810 f   config_system.obj
 0001:00065830       __ehhandler$??$_Emplace_reallocate@V?$basic_string@DU?$char_traits@D@std@@V?$allocator@D@2@@std@@@?$vector@V?$basic_string@DU?$char_traits@D@std@@V?$allocator@D@2@@std@@V?$allocator@V?$basic_string@DU?$char_traits@D@std@@V?$allocator@D@2@@std@@@2@@std@@QAEPAV?$basic_string@DU?$char_traits@D@std@@V?$allocator@D@2@@1@QAV21@$$QAV21@@Z 10066830 f   config_system.obj
 0001:00065850       __unwindfunclet$??$_Initialize_dir_enum@U_Dir_enum_impl@filesystem@std@@@_Dir_enum_impl@filesystem@std@@SA?AW4__std_win_error@@AAV?$shared_ptr@U_Dir_enum_impl@filesystem@std@@@2@ABVpath@12@W4directory_options@12@@Z$0 10066850 f   config_system.obj
 0001:0006585b       __ehhandler$??$_Initialize_dir_enum@U_Dir_enum_impl@filesystem@std@@@_Dir_enum_impl@filesystem@std@@SA?AW4__std_win_error@@AAV?$shared_ptr@U_Dir_enum_impl@filesystem@std@@@2@ABVpath@12@W4directory_options@12@@Z 1006685b f   config_system.obj
 0001:00065890       __unwindfunclet$??$_Uninitialized_move_al_unchecked@PAV?$basic_string@DU?$char_traits@D@std@@V?$allocator@D@2@@std@@PAV12@V?$allocator@V?$basic_string@DU?$char_traits@D@std@@V?$allocator@D@2@@std@@@2@@std@@YAPAV?$basic_string@DU?$char_traits@D@std@@V?$allocator@D@2@@0@PAV10@QAV10@1AAV?$allocator@V?$basic_string@DU?$char_traits@D@std@@V?$allocator@D@2@@std@@@0@U_General_ptr_iterator_tag@0@U_Unused_parameter@0@@Z$0 10066890 f   config_system.obj
 0001:00065898       __ehhandler$??$_Uninitialized_move_al_unchecked@PAV?$basic_string@DU?$char_traits@D@std@@V?$allocator@D@2@@std@@PAV12@V?$allocator@V?$basic_string@DU?$char_traits@D@std@@V?$allocator@D@2@@std@@@2@@std@@YAPAV?$basic_string@DU?$char_traits@D@std@@V?$allocator@D@2@@0@PAV10@QAV10@1AAV?$allocator@V?$basic_string@DU?$char_traits@D@std@@V?$allocator@D@2@@std@@@0@U_General_ptr_iterator_tag@0@U_Unused_parameter@0@@Z 10066898 f   config_system.obj
 0001:000658c0       __unwindfunclet$??$make_shared@U_Dir_enum_impl@filesystem@std@@U_Creator@123@ABW4directory_options@23@@std@@YA?AV?$shared_ptr@U_Dir_enum_impl@filesystem@std@@@0@$$QAU_Creator@_Dir_enum_impl@filesystem@0@ABW4directory_options@40@@Z$0 100668c0 f   config_system.obj
 0001:000658cf       __unwindfunclet$??$make_shared@U_Dir_enum_impl@filesystem@std@@U_Creator@123@ABW4directory_options@23@@std@@YA?AV?$shared_ptr@U_Dir_enum_impl@filesystem@std@@@0@$$QAU_Creator@_Dir_enum_impl@filesystem@0@ABW4directory_options@40@@Z$1 100668cf f   config_system.obj
 0001:000658d7       __ehhandler$??$make_shared@U_Dir_enum_impl@filesystem@std@@U_Creator@123@ABW4directory_options@23@@std@@YA?AV?$shared_ptr@U_Dir_enum_impl@filesystem@std@@@0@$$QAU_Creator@_Dir_enum_impl@filesystem@0@ABW4directory_options@40@@Z 100668d7 f   config_system.obj
 0001:00065900       __unwindfunclet$??$transform@Vdirectory_iterator@filesystem@std@@V?$back_insert_iterator@V?$vector@V?$basic_string@DU?$char_traits@D@std@@V?$allocator@D@2@@std@@V?$allocator@V?$basic_string@DU?$char_traits@D@std@@V?$allocator@D@2@@std@@@2@@std@@@3@V<lambda_bea2c85d2d76a7d41383a900013bf5c9>@@@std@@YA?AV?$back_insert_iterator@V?$vector@V?$basic_string@DU?$char_traits@D@std@@V?$allocator@D@2@@std@@V?$allocator@V?$basic_string@DU?$char_traits@D@std@@V?$allocator@D@2@@std@@@2@@std@@@0@Vdirectory_iterator@filesystem@0@0V10@V<lambda_bea2c85d2d76a7d41383a900013bf5c9>@@@Z$0 10066900 f   config_system.obj
 0001:00065908       __unwindfunclet$??$transform@Vdirectory_iterator@filesystem@std@@V?$back_insert_iterator@V?$vector@V?$basic_string@DU?$char_traits@D@std@@V?$allocator@D@2@@std@@V?$allocator@V?$basic_string@DU?$char_traits@D@std@@V?$allocator@D@2@@std@@@2@@std@@@3@V<lambda_bea2c85d2d76a7d41383a900013bf5c9>@@@std@@YA?AV?$back_insert_iterator@V?$vector@V?$basic_string@DU?$char_traits@D@std@@V?$allocator@D@2@@std@@V?$allocator@V?$basic_string@DU?$char_traits@D@std@@V?$allocator@D@2@@std@@@2@@std@@@0@Vdirectory_iterator@filesystem@0@0V10@V<lambda_bea2c85d2d76a7d41383a900013bf5c9>@@@Z$1 10066908 f   config_system.obj
 0001:00065910       __unwindfunclet$??$transform@Vdirectory_iterator@filesystem@std@@V?$back_insert_iterator@V?$vector@V?$basic_string@DU?$char_traits@D@std@@V?$allocator@D@2@@std@@V?$allocator@V?$basic_string@DU?$char_traits@D@std@@V?$allocator@D@2@@std@@@2@@std@@@3@V<lambda_bea2c85d2d76a7d41383a900013bf5c9>@@@std@@YA?AV?$back_insert_iterator@V?$vector@V?$basic_string@DU?$char_traits@D@std@@V?$allocator@D@2@@std@@V?$allocator@V?$basic_string@DU?$char_traits@D@std@@V?$allocator@D@2@@std@@@2@@std@@@0@Vdirectory_iterator@filesystem@0@0V10@V<lambda_bea2c85d2d76a7d41383a900013bf5c9>@@@Z$2 10066910 f   config_system.obj
 0001:00065918       __unwindfunclet$??$transform@Vdirectory_iterator@filesystem@std@@V?$back_insert_iterator@V?$vector@V?$basic_string@DU?$char_traits@D@std@@V?$allocator@D@2@@std@@V?$allocator@V?$basic_string@DU?$char_traits@D@std@@V?$allocator@D@2@@std@@@2@@std@@@3@V<lambda_bea2c85d2d76a7d41383a900013bf5c9>@@@std@@YA?AV?$back_insert_iterator@V?$vector@V?$basic_string@DU?$char_traits@D@std@@V?$allocator@D@2@@std@@V?$allocator@V?$basic_string@DU?$char_traits@D@std@@V?$allocator@D@2@@std@@@2@@std@@@0@Vdirectory_iterator@filesystem@0@0V10@V<lambda_bea2c85d2d76a7d41383a900013bf5c9>@@@Z$3 10066918 f   config_system.obj
 0001:00065920       __unwindfunclet$??$transform@Vdirectory_iterator@filesystem@std@@V?$back_insert_iterator@V?$vector@V?$basic_string@DU?$char_traits@D@std@@V?$allocator@D@2@@std@@V?$allocator@V?$basic_string@DU?$char_traits@D@std@@V?$allocator@D@2@@std@@@2@@std@@@3@V<lambda_bea2c85d2d76a7d41383a900013bf5c9>@@@std@@YA?AV?$back_insert_iterator@V?$vector@V?$basic_string@DU?$char_traits@D@std@@V?$allocator@D@2@@std@@V?$allocator@V?$basic_string@DU?$char_traits@D@std@@V?$allocator@D@2@@std@@@2@@std@@@0@Vdirectory_iterator@filesystem@0@0V10@V<lambda_bea2c85d2d76a7d41383a900013bf5c9>@@@Z$4 10066920 f   config_system.obj
 0001:00065928       __ehhandler$??$transform@Vdirectory_iterator@filesystem@std@@V?$back_insert_iterator@V?$vector@V?$basic_string@DU?$char_traits@D@std@@V?$allocator@D@2@@std@@V?$allocator@V?$basic_string@DU?$char_traits@D@std@@V?$allocator@D@2@@std@@@2@@std@@@3@V<lambda_bea2c85d2d76a7d41383a900013bf5c9>@@@std@@YA?AV?$back_insert_iterator@V?$vector@V?$basic_string@DU?$char_traits@D@std@@V?$allocator@D@2@@std@@V?$allocator@V?$basic_string@DU?$char_traits@D@std@@V?$allocator@D@2@@std@@@2@@std@@@0@Vdirectory_iterator@filesystem@0@0V10@V<lambda_bea2c85d2d76a7d41383a900013bf5c9>@@@Z 10066928 f   config_system.obj
 0001:00065950       __unwindfunclet$??$use_facet@V?$codecvt@DDU_Mbstatet@@@std@@@std@@YAABV?$codecvt@DDU_Mbstatet@@@0@ABVlocale@0@@Z$0 10066950 f   config_system.obj
 0001:00065959       __unwindfunclet$??$use_facet@V?$codecvt@DDU_Mbstatet@@@std@@@std@@YAABV?$codecvt@DDU_Mbstatet@@@0@ABVlocale@0@@Z$1 10066959 f   config_system.obj
 0001:00065961       __ehhandler$??$use_facet@V?$codecvt@DDU_Mbstatet@@@std@@@std@@YAABV?$codecvt@DDU_Mbstatet@@@0@ABVlocale@0@@Z 10066961 f   config_system.obj
 0001:00065980       __unwindfunclet$??0?$basic_filebuf@DU?$char_traits@D@std@@@std@@QAE@PAU_iobuf@@@Z$0 10066980 f   config_system.obj
 0001:00065989       __ehhandler$??0?$basic_filebuf@DU?$char_traits@D@std@@@std@@QAE@PAU_iobuf@@@Z 10066989 f   config_system.obj
 0001:000659b0       __unwindfunclet$??0?$basic_ifstream@DU?$char_traits@D@std@@@std@@QAE@PB_WHH@Z$0 100669b0 f   config_system.obj
 0001:000659cd       __unwindfunclet$??0?$basic_ifstream@DU?$char_traits@D@std@@@std@@QAE@PB_WHH@Z$1 100669cd f   config_system.obj
 0001:000659d9       __unwindfunclet$??0?$basic_ifstream@DU?$char_traits@D@std@@@std@@QAE@PB_WHH@Z$2 100669d9 f   config_system.obj
 0001:000659e4       __ehhandler$??0?$basic_ifstream@DU?$char_traits@D@std@@@std@@QAE@PB_WHH@Z 100669e4 f   config_system.obj
 0001:00065a00       __unwindfunclet$??0?$basic_ofstream@DU?$char_traits@D@std@@@std@@QAE@PBDHH@Z$0 10066a00 f   Interfaces.obj
 0001:00065a00       __unwindfunclet$??0?$basic_ofstream@DU?$char_traits@D@std@@@std@@QAE@PB_WHH@Z$0 10066a00 f   config_system.obj
 0001:00065a1d       __unwindfunclet$??0?$basic_ofstream@DU?$char_traits@D@std@@@std@@QAE@PB_WHH@Z$1 10066a1d f   config_system.obj
 0001:00065a1d       __unwindfunclet$??0?$basic_ofstream@DU?$char_traits@D@std@@@std@@QAE@PBDHH@Z$1 10066a1d f   Interfaces.obj
 0001:00065a29       __unwindfunclet$??0?$basic_ofstream@DU?$char_traits@D@std@@@std@@QAE@PB_WHH@Z$2 10066a29 f   config_system.obj
 0001:00065a29       __unwindfunclet$??0?$basic_ofstream@DU?$char_traits@D@std@@@std@@QAE@PBDHH@Z$2 10066a29 f   Interfaces.obj
 0001:00065a34       __ehhandler$??0?$basic_ofstream@DU?$char_traits@D@std@@@std@@QAE@PBDHH@Z 10066a34 f   Interfaces.obj
 0001:00065a34       __ehhandler$??0?$basic_ofstream@DU?$char_traits@D@std@@@std@@QAE@PB_WHH@Z 10066a34 f   config_system.obj
 0001:00065a50       __unwindfunclet$??0_Creator@_Dir_enum_impl@filesystem@std@@QAE@ABVpath@23@W4directory_options@23@@Z$0 10066a50 f   config_system.obj
 0001:00065a58       __unwindfunclet$??0_Creator@_Dir_enum_impl@filesystem@std@@QAE@ABVpath@23@W4directory_options@23@@Z$1 10066a58 f   config_system.obj
 0001:00065a63       __ehhandler$??0_Creator@_Dir_enum_impl@filesystem@std@@QAE@ABVpath@23@W4directory_options@23@@Z 10066a63 f   config_system.obj
 0001:00065a80       __unwindfunclet$??0_Dir_enum_impl@filesystem@std@@QAE@$$QAU_Creator@012@W4directory_options@12@@Z$0 10066a80 f   config_system.obj
 0001:00065a88       __unwindfunclet$??0_Dir_enum_impl@filesystem@std@@QAE@$$QAU_Creator@012@W4directory_options@12@@Z$1 10066a88 f   config_system.obj
 0001:00065a93       __ehhandler$??0_Dir_enum_impl@filesystem@std@@QAE@$$QAU_Creator@012@W4directory_options@12@@Z 10066a93 f   config_system.obj
 0001:00065ab0       __unwindfunclet$??0directory_iterator@filesystem@std@@QAE@ABVpath@12@@Z$0 10066ab0 f   config_system.obj
 0001:00065ab8       __ehhandler$??0directory_iterator@filesystem@std@@QAE@ABVpath@12@@Z 10066ab8 f   config_system.obj
 0001:00065ae0       __unwindfunclet$??0filesystem_error@filesystem@std@@QAE@ABV012@@Z$0 10066ae0 f   config_system.obj
 0001:00065ae8       __unwindfunclet$??0filesystem_error@filesystem@std@@QAE@ABV012@@Z$1 10066ae8 f   config_system.obj
 0001:00065af3       __unwindfunclet$??0filesystem_error@filesystem@std@@QAE@ABV012@@Z$2 10066af3 f   config_system.obj
 0001:00065afe       __ehhandler$??0filesystem_error@filesystem@std@@QAE@ABV012@@Z 10066afe f   config_system.obj
 0001:00065b20       __unwindfunclet$??0filesystem_error@filesystem@std@@QAE@ABV?$basic_string@DU?$char_traits@D@std@@V?$allocator@D@2@@2@ABVpath@12@1Verror_code@2@@Z$0 10066b20 f   config_system.obj
 0001:00065b28       __unwindfunclet$??0filesystem_error@filesystem@std@@QAE@ABV?$basic_string@DU?$char_traits@D@std@@V?$allocator@D@2@@2@ABVpath@12@1Verror_code@2@@Z$1 10066b28 f   config_system.obj
 0001:00065b33       __unwindfunclet$??0filesystem_error@filesystem@std@@QAE@ABV?$basic_string@DU?$char_traits@D@std@@V?$allocator@D@2@@2@ABVpath@12@1Verror_code@2@@Z$2 10066b33 f   config_system.obj
 0001:00065b3e       __ehhandler$??0filesystem_error@filesystem@std@@QAE@ABV?$basic_string@DU?$char_traits@D@std@@V?$allocator@D@2@@2@ABVpath@12@1Verror_code@2@@Z 10066b3e f   config_system.obj
 0001:00065b60       __unwindfunclet$??0filesystem_error@filesystem@std@@QAE@ABV?$basic_string@DU?$char_traits@D@std@@V?$allocator@D@2@@2@ABVpath@12@Verror_code@2@@Z$0 10066b60 f   config_system.obj
 0001:00065b68       __unwindfunclet$??0filesystem_error@filesystem@std@@QAE@ABV?$basic_string@DU?$char_traits@D@std@@V?$allocator@D@2@@2@ABVpath@12@Verror_code@2@@Z$1 10066b68 f   config_system.obj
 0001:00065b73       __unwindfunclet$??0filesystem_error@filesystem@std@@QAE@ABV?$basic_string@DU?$char_traits@D@std@@V?$allocator@D@2@@2@ABVpath@12@Verror_code@2@@Z$2 10066b73 f   config_system.obj
 0001:00065b7e       __unwindfunclet$??0filesystem_error@filesystem@std@@QAE@ABV?$basic_string@DU?$char_traits@D@std@@V?$allocator@D@2@@2@ABVpath@12@Verror_code@2@@Z$3 10066b7e f   config_system.obj
 0001:00065b86       __ehhandler$??0filesystem_error@filesystem@std@@QAE@ABV?$basic_string@DU?$char_traits@D@std@@V?$allocator@D@2@@2@ABVpath@12@Verror_code@2@@Z 10066b86 f   config_system.obj
 0001:00065bb0       __unwindfunclet$??0filesystem_error@filesystem@std@@QAE@ABV?$basic_string@DU?$char_traits@D@std@@V?$allocator@D@2@@2@Verror_code@2@@Z$0 10066bb0 f   config_system.obj
 0001:00065bb8       __unwindfunclet$??0filesystem_error@filesystem@std@@QAE@ABV?$basic_string@DU?$char_traits@D@std@@V?$allocator@D@2@@2@Verror_code@2@@Z$1 10066bb8 f   config_system.obj
 0001:00065bc3       __unwindfunclet$??0filesystem_error@filesystem@std@@QAE@ABV?$basic_string@DU?$char_traits@D@std@@V?$allocator@D@2@@2@Verror_code@2@@Z$2 10066bc3 f   config_system.obj
 0001:00065bce       __ehhandler$??0filesystem_error@filesystem@std@@QAE@ABV?$basic_string@DU?$char_traits@D@std@@V?$allocator@D@2@@2@Verror_code@2@@Z 10066bce f   config_system.obj
 0001:00065bf0       __unwindfunclet$??Kfilesystem@std@@YA?AVpath@01@ABV201@0@Z$0 10066bf0 f   config_system.obj
 0001:00065bf8       __ehhandler$??Kfilesystem@std@@YA?AVpath@01@ABV201@0@Z 10066bf8 f   config_system.obj
 0001:00065c20       __unwindfunclet$?_Convert_narrow_to_wide@filesystem@std@@YA?AV?$basic_string@_WU?$char_traits@_W@std@@V?$allocator@_W@2@@2@W4__std_code_page@@V?$basic_string_view@DU?$char_traits@D@std@@@2@@Z$0 10066c20 f   config_system.obj
 0001:00065c28       __ehhandler$?_Convert_narrow_to_wide@filesystem@std@@YA?AV?$basic_string@_WU?$char_traits@_W@std@@V?$allocator@_W@2@@2@W4__std_code_page@@V?$basic_string_view@DU?$char_traits@D@std@@@2@@Z 10066c28 f   config_system.obj
 0001:00065c50       __unwindfunclet$?_Makestr@_System_error@std@@CA?AV?$basic_string@DU?$char_traits@D@std@@V?$allocator@D@2@@2@Verror_code@2@V32@@Z$0 10066c50 f   config_system.obj
 0001:00065c58       __unwindfunclet$?_Makestr@_System_error@std@@CA?AV?$basic_string@DU?$char_traits@D@std@@V?$allocator@D@2@@2@Verror_code@2@V32@@Z$1 10066c58 f   config_system.obj
 0001:00065c60       __ehhandler$?_Makestr@_System_error@std@@CA?AV?$basic_string@DU?$char_traits@D@std@@V?$allocator@D@2@@2@Verror_code@2@V32@@Z 10066c60 f   config_system.obj
 0001:00065c90       __unwindfunclet$?_Pretty_message@filesystem_error@filesystem@std@@CA?AV?$basic_string@DU?$char_traits@D@std@@V?$allocator@D@2@@3@V?$basic_string_view@DU?$char_traits@D@std@@@3@ABVpath@23@1@Z$0 10066c90 f   config_system.obj
 0001:00065c98       __unwindfunclet$?_Pretty_message@filesystem_error@filesystem@std@@CA?AV?$basic_string@DU?$char_traits@D@std@@V?$allocator@D@2@@3@V?$basic_string_view@DU?$char_traits@D@std@@@3@ABVpath@23@1@Z$1 10066c98 f   config_system.obj
 0001:00065ca0       __unwindfunclet$?_Pretty_message@filesystem_error@filesystem@std@@CA?AV?$basic_string@DU?$char_traits@D@std@@V?$allocator@D@2@@3@V?$basic_string_view@DU?$char_traits@D@std@@@3@ABVpath@23@1@Z$2 10066ca0 f   config_system.obj
 0001:00065ca8       __ehhandler$?_Pretty_message@filesystem_error@filesystem@std@@CA?AV?$basic_string@DU?$char_traits@D@std@@V?$allocator@D@2@@3@V?$basic_string_view@DU?$char_traits@D@std@@@3@ABVpath@23@1@Z 10066ca8 f   config_system.obj
 0001:00065cd0       __unwindfunclet$?_Refresh@_Dir_enum_impl@filesystem@std@@QAEXABU__std_fs_find_data@@@Z$0 10066cd0 f   config_system.obj
 0001:00065cd8       __ehhandler$?_Refresh@_Dir_enum_impl@filesystem@std@@QAEXABU__std_fs_find_data@@@Z 10066cd8 f   config_system.obj
 0001:00065d00       __unwindfunclet$?_Throw_fs_error@filesystem@std@@YAXPBDW4__std_win_error@@@Z$0 10066d00 f   config_system.obj
 0001:00065d08       __ehhandler$?_Throw_fs_error@filesystem@std@@YAXPBDW4__std_win_error@@@Z 10066d08 f   config_system.obj
 0001:00065d30       __unwindfunclet$?_Throw_fs_error@filesystem@std@@YAXPBDW4__std_win_error@@ABVpath@12@2@Z$0 10066d30 f   config_system.obj
 0001:00065d30       __unwindfunclet$?_Throw_fs_error@filesystem@std@@YAXPBDW4__std_win_error@@ABVpath@12@@Z$0 10066d30 f   config_system.obj
 0001:00065d38       __ehhandler$?_Throw_fs_error@filesystem@std@@YAXPBDW4__std_win_error@@ABVpath@12@2@Z 10066d38 f   config_system.obj
 0001:00065d38       __ehhandler$?_Throw_fs_error@filesystem@std@@YAXPBDW4__std_win_error@@ABVpath@12@@Z 10066d38 f   config_system.obj
 0001:00065d60       __ehhandler$?add@c_config@@QAEXPBD@Z 10066d60 f   config_system.obj
 0001:00065d60       __ehhandler$?run@c_config@@QAEXPBD@Z 10066d60 f   config_system.obj
 0001:00065d80       __ehhandler$?system_category@std@@YAABVerror_category@1@XZ 10066d80 f   config_system.obj
 0001:00065d80       __ehhandler$?generic_category@std@@YAABVerror_category@1@XZ 10066d80 f   config_system.obj
 0001:00065da0       __ehhandler$?load@c_config@@QAEXI@Z 10066da0 f   config_system.obj
 0001:00065dd0       __unwindfunclet$?open@?$basic_filebuf@DU?$char_traits@D@std@@@std@@QAEPAV12@PB_WHH@Z$0 10066dd0 f   config_system.obj
 0001:00065dd0       __unwindfunclet$?open@?$basic_filebuf@DU?$char_traits@D@std@@@std@@QAEPAV12@PBDHH@Z$0 10066dd0 f   Interfaces.obj
 0001:00065dd8       __ehhandler$?open@?$basic_filebuf@DU?$char_traits@D@std@@@std@@QAEPAV12@PBDHH@Z 10066dd8 f   Interfaces.obj
 0001:00065dd8       __ehhandler$?open@?$basic_filebuf@DU?$char_traits@D@std@@@std@@QAEPAV12@PB_WHH@Z 10066dd8 f   config_system.obj
 0001:00065e00       __ehhandler$?remove@c_config@@QAEXI@Z 10066e00 f   config_system.obj
 0001:00065e30       __ehhandler$?rename@c_config@@QAEXIPBD@Z 10066e30 f   config_system.obj
 0001:00065e60       __ehhandler$?save@c_config@@QBEXI@Z 10066e60 f   config_system.obj
 0001:00065e90       __unwindfunclet$?uflow@?$basic_filebuf@DU?$char_traits@D@std@@@std@@MAEHXZ$0 10066e90 f   config_system.obj
 0001:00065e98       __ehhandler$?uflow@?$basic_filebuf@DU?$char_traits@D@std@@@std@@MAEHXZ 10066e98 f   config_system.obj
 0001:00065ec0       __unwindfunclet$?FireRate@C_BaseEntity@@QAEMXZ$0 10066ec0 f   CEntity.obj
 0001:00065ec8       __ehhandler$?FireRate@C_BaseEntity@@QAEMXZ 10066ec8 f   CEntity.obj
 0001:00065ef0       __unwindfunclet$?SetAbsAngles@C_BaseEntity@@QAEXVVector@@@Z$0 10066ef0 f   CEntity.obj
 0001:00065efc       __ehhandler$?SetAbsAngles@C_BaseEntity@@QAEXVVector@@@Z 10066efc f   CEntity.obj
 0001:00065f20       __unwindfunclet$?SetAbsOrigin@C_BaseEntity@@QAEXVVector@@@Z$0 10066f20 f   CEntity.obj
 0001:00065f2c       __ehhandler$?SetAbsOrigin@C_BaseEntity@@QAEXVVector@@@Z 10066f2c f   CEntity.obj
 0001:00065f50       __unwindfunclet$??$?6U?$char_traits@D@std@@@std@@YAAAV?$basic_ostream@DU?$char_traits@D@std@@@0@AAV10@PBD@Z$2 10066f50 f   Interfaces.obj
 0001:00065f5b       __ehhandler$??$?6U?$char_traits@D@std@@@std@@YAAAV?$basic_ostream@DU?$char_traits@D@std@@@0@AAV10@PBD@Z 10066f5b f   Interfaces.obj
 0001:00065f80       __unwindfunclet$??$CaptureInterface@VIGameEventManager@@@interfaces@@YAPAVIGameEventManager@@PBD0@Z$0 10066f80 f   Interfaces.obj
 0001:00065f88       __ehhandler$??$CaptureInterface@VIGameEventManager@@@interfaces@@YAPAVIGameEventManager@@PBD0@Z 10066f88 f   Interfaces.obj
 0001:00065fb0       __unwindfunclet$??$FindClass@VICVar@@@interfaces@@YAPAVICVar@@V?$basic_string@DU?$char_traits@D@std@@V?$allocator@D@2@@std@@0_N@Z$0 10066fb0 f   Interfaces.obj
 0001:00065fb0       __unwindfunclet$??$FindClass@VIEngineTrace@@@interfaces@@YAPAVIEngineTrace@@V?$basic_string@DU?$char_traits@D@std@@V?$allocator@D@2@@std@@0_N@Z$0 10066fb0 f   Interfaces.obj
 0001:00065fb0       __unwindfunclet$??$FindClass@VIGameMovement@@@interfaces@@YAPAVIGameMovement@@V?$basic_string@DU?$char_traits@D@std@@V?$allocator@D@2@@std@@0_N@Z$0 10066fb0 f   Interfaces.obj
 0001:00065fb0       __unwindfunclet$??$FindClass@VISurface@@@interfaces@@YAPAVISurface@@V?$basic_string@DU?$char_traits@D@std@@V?$allocator@D@2@@std@@0_N@Z$0 10066fb0 f   Interfaces.obj
 0001:00065fb0       __unwindfunclet$??$FindClass@VIPhysicsSurfaceProps@@@interfaces@@YAPAVIPhysicsSurfaceProps@@V?$basic_string@DU?$char_traits@D@std@@V?$allocator@D@2@@std@@0_N@Z$0 10066fb0 f   Interfaces.obj
 0001:00065fb0       __unwindfunclet$??$FindClass@VIClientEntityList@@@interfaces@@YAPAVIClientEntityList@@V?$basic_string@DU?$char_traits@D@std@@V?$allocator@D@2@@std@@0_N@Z$0 10066fb0 f   Interfaces.obj
 0001:00065fb0       __unwindfunclet$??$FindClass@VIVModelInfo@@@interfaces@@YAPAVIVModelInfo@@V?$basic_string@DU?$char_traits@D@std@@V?$allocator@D@2@@std@@0_N@Z$0 10066fb0 f   Interfaces.obj
 0001:00065fb0       __unwindfunclet$??$FindClass@VIVRenderView@@@interfaces@@YAPAVIVRenderView@@V?$basic_string@DU?$char_traits@D@std@@V?$allocator@D@2@@std@@0_N@Z$0 10066fb0 f   Interfaces.obj
 0001:00065fb0       __unwindfunclet$??$FindClass@VCPrediction@@@interfaces@@YAPAVCPrediction@@V?$basic_string@DU?$char_traits@D@std@@V?$allocator@D@2@@std@@0_N@Z$0 10066fb0 f   Interfaces.obj
 0001:00065fb0       __unwindfunclet$??$FindClass@VCModelRender@@@interfaces@@YAPAVCModelRender@@V?$basic_string@DU?$char_traits@D@std@@V?$allocator@D@2@@std@@0_N@Z$0 10066fb0 f   Interfaces.obj
 0001:00065fb0       __unwindfunclet$??$FindClass@VIVEngineClient@@@interfaces@@YAPAVIVEngineClient@@V?$basic_string@DU?$char_traits@D@std@@V?$allocator@D@2@@std@@0_N@Z$0 10066fb0 f   Interfaces.obj
 0001:00065fb0       __unwindfunclet$??$FindClass@VIPanel@@@interfaces@@YAPAVIPanel@@V?$basic_string@DU?$char_traits@D@std@@V?$allocator@D@2@@std@@0_N@Z$0 10066fb0 f   Interfaces.obj
 0001:00065fb0       __unwindfunclet$??$FindClass@VIBaseClientDLL@@@interfaces@@YAPAVIBaseClientDLL@@V?$basic_string@DU?$char_traits@D@std@@V?$allocator@D@2@@std@@0_N@Z$0 10066fb0 f   Interfaces.obj
 0001:00065fb0       __unwindfunclet$??$FindClass@VIMaterialSystem@@@interfaces@@YAPAVIMaterialSystem@@V?$basic_string@DU?$char_traits@D@std@@V?$allocator@D@2@@std@@0_N@Z$0 10066fb0 f   Interfaces.obj
 0001:00065fb8       __unwindfunclet$??$FindClass@VCModelRender@@@interfaces@@YAPAVCModelRender@@V?$basic_string@DU?$char_traits@D@std@@V?$allocator@D@2@@std@@0_N@Z$1 10066fb8 f   Interfaces.obj
 0001:00065fb8       __unwindfunclet$??$FindClass@VIMaterialSystem@@@interfaces@@YAPAVIMaterialSystem@@V?$basic_string@DU?$char_traits@D@std@@V?$allocator@D@2@@std@@0_N@Z$1 10066fb8 f   Interfaces.obj
 0001:00065fb8       __unwindfunclet$??$FindClass@VIVRenderView@@@interfaces@@YAPAVIVRenderView@@V?$basic_string@DU?$char_traits@D@std@@V?$allocator@D@2@@std@@0_N@Z$1 10066fb8 f   Interfaces.obj
 0001:00065fb8       __unwindfunclet$??$FindClass@VICVar@@@interfaces@@YAPAVICVar@@V?$basic_string@DU?$char_traits@D@std@@V?$allocator@D@2@@std@@0_N@Z$1 10066fb8 f   Interfaces.obj
 0001:00065fb8       __unwindfunclet$??$FindClass@VCPrediction@@@interfaces@@YAPAVCPrediction@@V?$basic_string@DU?$char_traits@D@std@@V?$allocator@D@2@@std@@0_N@Z$1 10066fb8 f   Interfaces.obj
 0001:00065fb8       __unwindfunclet$??$FindClass@VIVModelInfo@@@interfaces@@YAPAVIVModelInfo@@V?$basic_string@DU?$char_traits@D@std@@V?$allocator@D@2@@std@@0_N@Z$1 10066fb8 f   Interfaces.obj
 0001:00065fb8       __unwindfunclet$??$FindClass@VIVEngineClient@@@interfaces@@YAPAVIVEngineClient@@V?$basic_string@DU?$char_traits@D@std@@V?$allocator@D@2@@std@@0_N@Z$1 10066fb8 f   Interfaces.obj
 0001:00065fb8       __unwindfunclet$??$FindClass@VIPhysicsSurfaceProps@@@interfaces@@YAPAVIPhysicsSurfaceProps@@V?$basic_string@DU?$char_traits@D@std@@V?$allocator@D@2@@std@@0_N@Z$1 10066fb8 f   Interfaces.obj
 0001:00065fb8       __unwindfunclet$??$FindClass@VIPanel@@@interfaces@@YAPAVIPanel@@V?$basic_string@DU?$char_traits@D@std@@V?$allocator@D@2@@std@@0_N@Z$1 10066fb8 f   Interfaces.obj
 0001:00065fb8       __unwindfunclet$??$FindClass@VIEngineTrace@@@interfaces@@YAPAVIEngineTrace@@V?$basic_string@DU?$char_traits@D@std@@V?$allocator@D@2@@std@@0_N@Z$1 10066fb8 f   Interfaces.obj
 0001:00065fb8       __unwindfunclet$??$FindClass@VIClientEntityList@@@interfaces@@YAPAVIClientEntityList@@V?$basic_string@DU?$char_traits@D@std@@V?$allocator@D@2@@std@@0_N@Z$1 10066fb8 f   Interfaces.obj
 0001:00065fb8       __unwindfunclet$??$FindClass@VIBaseClientDLL@@@interfaces@@YAPAVIBaseClientDLL@@V?$basic_string@DU?$char_traits@D@std@@V?$allocator@D@2@@std@@0_N@Z$1 10066fb8 f   Interfaces.obj
 0001:00065fb8       __unwindfunclet$??$FindClass@VISurface@@@interfaces@@YAPAVISurface@@V?$basic_string@DU?$char_traits@D@std@@V?$allocator@D@2@@std@@0_N@Z$1 10066fb8 f   Interfaces.obj
 0001:00065fb8       __unwindfunclet$??$FindClass@VIGameMovement@@@interfaces@@YAPAVIGameMovement@@V?$basic_string@DU?$char_traits@D@std@@V?$allocator@D@2@@std@@0_N@Z$1 10066fb8 f   Interfaces.obj
 0001:00065fc0       __ehhandler$??$FindClass@VIClientEntityList@@@interfaces@@YAPAVIClientEntityList@@V?$basic_string@DU?$char_traits@D@std@@V?$allocator@D@2@@std@@0_N@Z 10066fc0 f   Interfaces.obj
 0001:00065fc0       __ehhandler$??$FindClass@VIVModelInfo@@@interfaces@@YAPAVIVModelInfo@@V?$basic_string@DU?$char_traits@D@std@@V?$allocator@D@2@@std@@0_N@Z 10066fc0 f   Interfaces.obj
 0001:00065fc0       __ehhandler$??$FindClass@VIVEngineClient@@@interfaces@@YAPAVIVEngineClient@@V?$basic_string@DU?$char_traits@D@std@@V?$allocator@D@2@@std@@0_N@Z 10066fc0 f   Interfaces.obj
 0001:00065fc0       __ehhandler$??$FindClass@VIBaseClientDLL@@@interfaces@@YAPAVIBaseClientDLL@@V?$basic_string@DU?$char_traits@D@std@@V?$allocator@D@2@@std@@0_N@Z 10066fc0 f   Interfaces.obj
 0001:00065fc0       __ehhandler$??$FindClass@VIVRenderView@@@interfaces@@YAPAVIVRenderView@@V?$basic_string@DU?$char_traits@D@std@@V?$allocator@D@2@@std@@0_N@Z 10066fc0 f   Interfaces.obj
 0001:00065fc0       __ehhandler$??$FindClass@VCModelRender@@@interfaces@@YAPAVCModelRender@@V?$basic_string@DU?$char_traits@D@std@@V?$allocator@D@2@@std@@0_N@Z 10066fc0 f   Interfaces.obj
 0001:00065fc0       __ehhandler$??$FindClass@VICVar@@@interfaces@@YAPAVICVar@@V?$basic_string@DU?$char_traits@D@std@@V?$allocator@D@2@@std@@0_N@Z 10066fc0 f   Interfaces.obj
 0001:00065fc0       __ehhandler$??$FindClass@VIEngineTrace@@@interfaces@@YAPAVIEngineTrace@@V?$basic_string@DU?$char_traits@D@std@@V?$allocator@D@2@@std@@0_N@Z 10066fc0 f   Interfaces.obj
 0001:00065fc0       __ehhandler$??$FindClass@VCPrediction@@@interfaces@@YAPAVCPrediction@@V?$basic_string@DU?$char_traits@D@std@@V?$allocator@D@2@@std@@0_N@Z 10066fc0 f   Interfaces.obj
 0001:00065fc0       __ehhandler$??$FindClass@VISurface@@@interfaces@@YAPAVISurface@@V?$basic_string@DU?$char_traits@D@std@@V?$allocator@D@2@@std@@0_N@Z 10066fc0 f   Interfaces.obj
 0001:00065fc0       __ehhandler$??$FindClass@VIMaterialSystem@@@interfaces@@YAPAVIMaterialSystem@@V?$basic_string@DU?$char_traits@D@std@@V?$allocator@D@2@@std@@0_N@Z 10066fc0 f   Interfaces.obj
 0001:00065fc0       __ehhandler$??$FindClass@VIGameMovement@@@interfaces@@YAPAVIGameMovement@@V?$basic_string@DU?$char_traits@D@std@@V?$allocator@D@2@@std@@0_N@Z 10066fc0 f   Interfaces.obj
 0001:00065fc0       __ehhandler$??$FindClass@VIPanel@@@interfaces@@YAPAVIPanel@@V?$basic_string@DU?$char_traits@D@std@@V?$allocator@D@2@@std@@0_N@Z 10066fc0 f   Interfaces.obj
 0001:00065fc0       __ehhandler$??$FindClass@VIPhysicsSurfaceProps@@@interfaces@@YAPAVIPhysicsSurfaceProps@@V?$basic_string@DU?$char_traits@D@std@@V?$allocator@D@2@@std@@0_N@Z 10066fc0 f   Interfaces.obj
 0001:00065ff0       __unwindfunclet$??0sentry@?$basic_ostream@DU?$char_traits@D@std@@@std@@QAE@AAV12@@Z$0 10066ff0 f   Interfaces.obj
 0001:00065ff8       __ehhandler$??0sentry@?$basic_ostream@DU?$char_traits@D@std@@@std@@QAE@AAV12@@Z 10066ff8 f   Interfaces.obj
 0001:00066020       __unwindfunclet$?Init@interfaces@@YAXXZ$0 10067020 f   Interfaces.obj
 0001:00066028       __unwindfunclet$?Init@interfaces@@YAXXZ$2 10067028 f   Interfaces.obj
 0001:00066030       __unwindfunclet$?Init@interfaces@@YAXXZ$4 10067030 f   Interfaces.obj
 0001:00066038       __unwindfunclet$?Init@interfaces@@YAXXZ$6 10067038 f   Interfaces.obj
 0001:00066040       __unwindfunclet$?Init@interfaces@@YAXXZ$8 10067040 f   Interfaces.obj
 0001:0006604b       __unwindfunclet$?Init@interfaces@@YAXXZ$10 1006704b f   Interfaces.obj
 0001:00066056       __unwindfunclet$?Init@interfaces@@YAXXZ$12 10067056 f   Interfaces.obj
 0001:00066061       __unwindfunclet$?Init@interfaces@@YAXXZ$14 10067061 f   Interfaces.obj
 0001:0006606c       __unwindfunclet$?Init@interfaces@@YAXXZ$16 1006706c f   Interfaces.obj
 0001:00066077       __unwindfunclet$?Init@interfaces@@YAXXZ$18 10067077 f   Interfaces.obj
 0001:00066082       __unwindfunclet$?Init@interfaces@@YAXXZ$20 10067082 f   Interfaces.obj
 0001:0006608d       __unwindfunclet$?Init@interfaces@@YAXXZ$22 1006708d f   Interfaces.obj
 0001:00066098       __unwindfunclet$?Init@interfaces@@YAXXZ$24 10067098 f   Interfaces.obj
 0001:000660a3       __unwindfunclet$?Init@interfaces@@YAXXZ$26 100670a3 f   Interfaces.obj
 0001:000660ae       __unwindfunclet$?Init@interfaces@@YAXXZ$28 100670ae f   Interfaces.obj
 0001:000660b9       __unwindfunclet$?Init@interfaces@@YAXXZ$29 100670b9 f   Interfaces.obj
 0001:000660c4       __ehhandler$?Init@interfaces@@YAXXZ 100670c4 f   Interfaces.obj
 0001:000660f0       __unwindfunclet$??$?0H@?$_Ref_count_obj@UNode@NetvarTree@@@std@@QAE@$$QAH@Z$0 100670f0 f   NetvarManager.obj
 0001:000660f8       __ehhandler$??$?0H@?$_Ref_count_obj@UNode@NetvarTree@@@std@@QAE@$$QAH@Z 100670f8 f   NetvarManager.obj
 0001:00066120       __ehhandler$??$_Buynode@PBDABV?$shared_ptr@UNode@NetvarTree@@@std@@@?$_List_buy@U?$pair@$$CBV?$basic_string@DU?$char_traits@D@std@@V?$allocator@D@2@@std@@V?$shared_ptr@UNode@NetvarTree@@@2@@std@@V?$allocator@U?$pair@$$CBV?$basic_string@DU?$char_traits@D@std@@V?$allocator@D@2@@std@@V?$shared_ptr@UNode@NetvarTree@@@2@@std@@@2@@std@@QAEPAU?$_List_node@U?$pair@$$CBV?$basic_string@DU?$char_traits@D@std@@V?$allocator@D@2@@std@@V?$shared_ptr@UNode@NetvarTree@@@2@@std@@PAX@1@PAU21@0$$QAPBDABV?$shared_ptr@UNode@NetvarTree@@@1@@Z 10067120 f   NetvarManager.obj
 0001:00066140       __unwindfunclet$??$make_shared@UNode@NetvarTree@@H@std@@YA?AV?$shared_ptr@UNode@NetvarTree@@@0@$$QAH@Z$0 10067140 f   NetvarManager.obj
 0001:0006614f       __unwindfunclet$??$make_shared@UNode@NetvarTree@@H@std@@YA?AV?$shared_ptr@UNode@NetvarTree@@@0@$$QAH@Z$1 1006714f f   NetvarManager.obj
 0001:00066157       __ehhandler$??$make_shared@UNode@NetvarTree@@H@std@@YA?AV?$shared_ptr@UNode@NetvarTree@@@0@$$QAH@Z 10067157 f   NetvarManager.obj
 0001:00066180       __unwindfunclet$??0?$_Hash@V?$_Umap_traits@V?$basic_string@DU?$char_traits@D@std@@V?$allocator@D@2@@std@@V?$shared_ptr@UNode@NetvarTree@@@2@V?$_Uhash_compare@V?$basic_string@DU?$char_traits@D@std@@V?$allocator@D@2@@std@@U?$hash@V?$basic_string@DU?$char_traits@D@std@@V?$allocator@D@2@@std@@@2@U?$equal_to@V?$basic_string@DU?$char_traits@D@std@@V?$allocator@D@2@@std@@@2@@2@V?$allocator@U?$pair@$$CBV?$basic_string@DU?$char_traits@D@std@@V?$allocator@D@2@@std@@V?$shared_ptr@UNode@NetvarTree@@@2@@std@@@2@$0A@@std@@@std@@QAE@ABV?$_Uhash_compare@V?$basic_string@DU?$char_traits@D@std@@V?$allocator@D@2@@std@@U?$hash@V?$basic_string@DU?$char_traits@D@std@@V?$allocator@D@2@@std@@@2@U?$equal_to@V?$basic_string@DU?$char_traits@D@std@@V?$allocator@D@2@@std@@@2@@1@ABV?$allocator@U?$pair@$$CBV?$basic_string@DU?$char_traits@D@std@@V?$allocator@D@2@@std@@V?$shared_ptr@UNode@NetvarTree@@@2@@std@@@1@@Z$0 10067180 f   NetvarManager.obj
 0001:0006618b       __unwindfunclet$??0?$_Hash@V?$_Umap_traits@V?$basic_string@DU?$char_traits@D@std@@V?$allocator@D@2@@std@@V?$shared_ptr@UNode@NetvarTree@@@2@V?$_Uhash_compare@V?$basic_string@DU?$char_traits@D@std@@V?$allocator@D@2@@std@@U?$hash@V?$basic_string@DU?$char_traits@D@std@@V?$allocator@D@2@@std@@@2@U?$equal_to@V?$basic_string@DU?$char_traits@D@std@@V?$allocator@D@2@@std@@@2@@2@V?$allocator@U?$pair@$$CBV?$basic_string@DU?$char_traits@D@std@@V?$allocator@D@2@@std@@V?$shared_ptr@UNode@NetvarTree@@@2@@std@@@2@$0A@@std@@@std@@QAE@ABV?$_Uhash_compare@V?$basic_string@DU?$char_traits@D@std@@V?$allocator@D@2@@std@@U?$hash@V?$basic_string@DU?$char_traits@D@std@@V?$allocator@D@2@@std@@@2@U?$equal_to@V?$basic_string@DU?$char_traits@D@std@@V?$allocator@D@2@@std@@@2@@1@ABV?$allocator@U?$pair@$$CBV?$basic_string@DU?$char_traits@D@std@@V?$allocator@D@2@@std@@V?$shared_ptr@UNode@NetvarTree@@@2@@std@@@1@@Z$1 1006718b f   NetvarManager.obj
 0001:00066196       __ehhandler$??0?$_Hash@V?$_Umap_traits@V?$basic_string@DU?$char_traits@D@std@@V?$allocator@D@2@@std@@V?$shared_ptr@UNode@NetvarTree@@@2@V?$_Uhash_compare@V?$basic_string@DU?$char_traits@D@std@@V?$allocator@D@2@@std@@U?$hash@V?$basic_string@DU?$char_traits@D@std@@V?$allocator@D@2@@std@@@2@U?$equal_to@V?$basic_string@DU?$char_traits@D@std@@V?$allocator@D@2@@std@@@2@@2@V?$allocator@U?$pair@$$CBV?$basic_string@DU?$char_traits@D@std@@V?$allocator@D@2@@std@@V?$shared_ptr@UNode@NetvarTree@@@2@@std@@@2@$0A@@std@@@std@@QAE@ABV?$_Uhash_compare@V?$basic_string@DU?$char_traits@D@std@@V?$allocator@D@2@@std@@U?$hash@V?$basic_string@DU?$char_traits@D@std@@V?$allocator@D@2@@std@@@2@U?$equal_to@V?$basic_string@DU?$char_traits@D@std@@V?$allocator@D@2@@std@@@2@@1@ABV?$allocator@U?$pair@$$CBV?$basic_string@DU?$char_traits@D@std@@V?$allocator@D@2@@std@@V?$shared_ptr@UNode@NetvarTree@@@2@@std@@@1@@Z 10067196 f   NetvarManager.obj
 0001:000661c0       __unwindfunclet$??0NetvarTree@@QAE@XZ$0 100671c0 f   NetvarManager.obj
 0001:000661c8       __unwindfunclet$??0NetvarTree@@QAE@XZ$1 100671c8 f   NetvarManager.obj
 0001:000661d0       __ehhandler$??0NetvarTree@@QAE@XZ 100671d0 f   NetvarManager.obj
 0001:000661f0       __unwindfunclet$?PopulateNodes@NetvarTree@@AAEXPAVRecvTable@@PAV?$unordered_map@V?$basic_string@DU?$char_traits@D@std@@V?$allocator@D@2@@std@@V?$shared_ptr@UNode@NetvarTree@@@2@U?$hash@V?$basic_string@DU?$char_traits@D@std@@V?$allocator@D@2@@std@@@2@U?$equal_to@V?$basic_string@DU?$char_traits@D@std@@V?$allocator@D@2@@std@@@2@V?$allocator@U?$pair@$$CBV?$basic_string@DU?$char_traits@D@std@@V?$allocator@D@2@@std@@V?$shared_ptr@UNode@NetvarTree@@@2@@std@@@2@@std@@@Z$0 100671f0 f   NetvarManager.obj
 0001:000661f8       __ehhandler$?PopulateNodes@NetvarTree@@AAEXPAVRecvTable@@PAV?$unordered_map@V?$basic_string@DU?$char_traits@D@std@@V?$allocator@D@2@@std@@V?$shared_ptr@UNode@NetvarTree@@@2@U?$hash@V?$basic_string@DU?$char_traits@D@std@@V?$allocator@D@2@@std@@@2@U?$equal_to@V?$basic_string@DU?$char_traits@D@std@@V?$allocator@D@2@@std@@@2@V?$allocator@U?$pair@$$CBV?$basic_string@DU?$char_traits@D@std@@V?$allocator@D@2@@std@@V?$shared_ptr@UNode@NetvarTree@@@2@@std@@@2@@std@@@Z 100671f8 f   NetvarManager.obj
 0001:00066213       __ehhandler$___std_fs_get_stats@16 10067213 f   msvcprt:filesystem.obj
 0001:0006623b       __ehhandler$___std_fs_remove@4 1006723b f   msvcprt:filesystem.obj
 0001:00066260       ??__Fg_Event@@YAXXZ        10067260 f   c_hooks.obj
 0001:00066270       ??__Fhooks@@YAXXZ          10067270 f   c_hooks.obj
 0001:00066280       ??__Fg_LagComp@@YAXXZ      10067280 f   LagComp.obj
 0001:00066290       ??__Fg_Legitbot@@YAXXZ     10067290 f   Legitbot.obj
 0001:000662a0       ??__FGImDefaultContext@@YAXXZ 100672a0 f   imgui.obj
 0001:000662b0       ??__FGImDefaultFontAtlas@@YAXXZ 100672b0 f   imgui.obj
 0001:000662c0       ??__Fbuf_local@?1??GetClipboardTextFn_DefaultImpl@@YAPBDPAX@Z@YAXXZ 100672c0 f   imgui.obj
 0001:000662d0       ??__Fgalaxy_vars@@YAXXZ    100672d0 f   config_system.obj
 0001:000662e0       ??__Fg_pNetvars@@YAXXZ     100672e0 f   NetvarManager.obj
 0001:000662ef       ??__F_Fac_tidy_reg@std@@YAXXZ 100672ef f   msvcprt:locale0_implib.obj
 0002:00000368       ?_Fac_tidy_reg$initializer$@std@@3P6AXXZA 10068368     msvcprt:locale0_implib.obj
 0002:0000036c       ?vec2_origin$initializer$@@3P6AXXZA 1006836c     other_esp.obj
 0002:00000370       ?vec2_origin$initializer$@@3P6AXXZA 10068370     c_hooks.obj
 0002:00000374       ?hooks$initializer$@@3P6AXXZA 10068374     c_hooks.obj
 0002:00000378       ?g_Event$initializer$@@3P6AXXZA 10068378     c_hooks.obj
 0002:0000037c       ?vec2_origin$initializer$@@3P6AXXZA 1006837c     dll_main.obj
 0002:00000380       ?vec2_origin$initializer$@@3P6AXXZA 10068380     c_ragebot.obj
 0002:00000384       ?aimbot$initializer$@@3P6AXXZA 10068384     c_ragebot.obj
 0002:00000388       ?vec2_origin$initializer$@@3P6AXXZA 10068388     Autowall.obj
 0002:0000038c       ?vec2_origin$initializer$@@3P6AXXZA 1006838c     EnginePrediction.obj
 0002:00000390       ?vec2_origin$initializer$@@3P6AXXZA 10068390     LagComp.obj
 0002:00000394       ?g_LagComp$initializer$@@3P6AXXZA 10068394     LagComp.obj
 0002:00000398       ?vec2_origin$initializer$@@3P6AXXZA 10068398     AntiAim.obj
 0002:0000039c       ?vec2_origin$initializer$@@3P6AXXZA 1006839c     Legitbot.obj
 0002:000003a0       ?g_Legitbot$initializer$@@3P6AXXZA 100683a0     Legitbot.obj
 0002:000003a4       ?vec2_origin$initializer$@@3P6AXXZA 100683a4     Resolver.obj
 0002:000003a8       ?g_Resolver$initializer$@@3P6AXXZA 100683a8     Resolver.obj
 0002:000003ac       ?vec2_origin$initializer$@@3P6AXXZA 100683ac     c_esp.obj
 0002:000003b0       ?esp$initializer$@@3P6AXXZA 100683b0     c_esp.obj
 0002:000003b4       ?GImDefaultFontAtlas$initializer$@@3P6AXXZA 100683b4     imgui.obj
 0002:000003b8       ?GImDefaultContext$initializer$@@3P6AXXZA 100683b8     imgui.obj
 0002:000003bc       ?GNullClipRect$initializer$@@3P6AXXZA 100683bc     imgui_draw.obj
 0002:000003c0       ?vec2_origin$initializer$@@3P6AXXZA 100683c0     bone_processing_hook.obj
 0002:000003c4       ?vec2_origin$initializer$@@3P6AXXZA 100683c4     createmove_hook.obj
 0002:000003c8       ?vec2_origin$initializer$@@3P6AXXZA 100683c8     directx_preset_hook.obj
 0002:000003cc       ?vec2_origin$initializer$@@3P6AXXZA 100683cc     dme_hook.obj
 0002:000003d0       ?vec2_origin$initializer$@@3P6AXXZA 100683d0     event_hook.obj
 0002:000003d4       ?vec2_origin$initializer$@@3P6AXXZA 100683d4     fsn_hook.obj
 0002:000003d8       ?vec2_origin$initializer$@@3P6AXXZA 100683d8     hooking_init.obj
 0002:000003dc       ?vec2_origin$initializer$@@3P6AXXZA 100683dc     lock_cursor_hook.obj
 0002:000003e0       ?vec2_origin$initializer$@@3P6AXXZA 100683e0     oview_hook.obj
 0002:000003e4       ?vec2_origin$initializer$@@3P6AXXZA 100683e4     painttraverse_hook.obj
 0002:000003e8       ?vec2_origin$initializer$@@3P6AXXZA 100683e8     sceneend_hook.obj
 0002:000003ec       ?vec2_origin$initializer$@@3P6AXXZA 100683ec     wndproc_hook.obj
 0002:000003f0       ?galaxy_vars$initializer$@@3P6AXXZA 100683f0     config_system.obj
 0002:000003f4       ?vec2_origin$initializer$@@3P6AXXZA 100683f4     menu_system.obj
 0002:000003f8       ?w_printf$initializer$@XorCompileTime@@3P6AXXZA 100683f8     menu_system.obj
 0002:000003fc       ?w_printf_s$initializer$@XorCompileTime@@3P6AXXZA 100683fc     menu_system.obj
 0002:00000400       ?w_sprintf$initializer$@XorCompileTime@@3P6AXXZA 10068400     menu_system.obj
 0002:00000404       ?w_sprintf_s$initializer$@XorCompileTime@@3P6AXXZA 10068404     menu_system.obj
 0002:00000408       ?menu$initializer$@@3P6AXXZA 10068408     menu_system.obj
 0002:0000040c       ?vec2_origin$initializer$@@3P6AXXZA 1006840c     CEntity.obj
 0002:00000410       ?vec2_origin$initializer$@@3P6AXXZA 10068410     GlobalVars.obj
 0002:00000414       ?OriginalView$initializer$@g@@3P6AXXZA 10068414     GlobalVars.obj
 0002:00000418       ?EnemyEyeAngs$initializer$@g@@3P6AXXZA 10068418     GlobalVars.obj
 0002:0000041c       ?AimbotHitbox$initializer$@g@@3P6AXXZA 1006841c     GlobalVars.obj
 0002:00000420       ?RealAngle$initializer$@g@@3P6AXXZA 10068420     GlobalVars.obj
 0002:00000424       ?FakeAngle$initializer$@g@@3P6AXXZA 10068424     GlobalVars.obj
 0002:00000428       ?vec2_origin$initializer$@@3P6AXXZA 10068428     Interfaces.obj
 0002:0000042c       ?vec2_origin$initializer$@@3P6AXXZA 1006842c     Math.obj
 0002:00000430       ?g_pNetvars$initializer$@@3P6AXXZA 10068430     NetvarManager.obj
 0002:0000043c       ?__scrt_initialize_tss_var@@3P6AHXZA 1006843c     MSVCRT:thread_safe_statics.obj
 0002:00000460       $SG179260                  10068460     other_esp.obj
 0002:0000047c       $SG179264                  1006847c     other_esp.obj
 0002:00000484       $SG179265                  10068484     other_esp.obj
 0002:00000490       $SG179270                  10068490     other_esp.obj
 0002:0000049c       $SG179272                  1006849c     other_esp.obj
 0002:000004a4       $SG179306                  100684a4     other_esp.obj
 0002:000004cc       $SG182435                  100684cc     c_hooks.obj
 0002:000004f0       $SG182436                  100684f0     c_hooks.obj
 0002:00000504       $SG182524                  10068504     c_hooks.obj
 0002:00000518       $SG182530                  10068518     c_hooks.obj
 0002:00000534       $SG182531                  10068534     c_hooks.obj
 0002:000005cc       $SG178819                  100685cc     dll_main.obj
 0002:000005f0       $SG178821                  100685f0     dll_main.obj
 0002:00000604       $SG178822                  10068604     dll_main.obj
 0002:00000610       $SG159684                  10068610     c_ragebot.obj
 0002:00000624       $SG160460                  10068624     c_ragebot.obj
 0002:00000840       $SG140859                  10068840     Autowall.obj
 0002:00000860       $SG140860                  10068860     Autowall.obj
 0002:00000880       $SG140861                  10068880     Autowall.obj
 0002:00000894       $SG140948                  10068894     Autowall.obj
 0002:000008b4       $SG140949                  100688b4     Autowall.obj
 0002:0000093c       $SG157505                  1006893c     EnginePrediction.obj
 0002:0000096c       $SG157506                  1006896c     EnginePrediction.obj
 0002:00000980       $SG157507                  10068980     EnginePrediction.obj
 0002:0000099c       $SG157508                  1006899c     EnginePrediction.obj
 0002:000009c4       $SG159645                  100689c4     LagComp.obj
 0002:000009d4       $SG159646                  100689d4     LagComp.obj
 0002:000009e8       $SG159647                  100689e8     LagComp.obj
 0002:000009fc       $SG159649                  100689fc     LagComp.obj
 0002:00000a0c       $SG159651                  10068a0c     LagComp.obj
 0002:00000a18       $SG159652                  10068a18     LagComp.obj
 0002:00000a34       $SG159653                  10068a34     LagComp.obj
 0002:00000b18       $SG160219                  10068b18     c_esp.obj
 0002:00000b1f       $SG160271                  10068b1f     c_esp.obj
 0002:00000b20       $SG160269                  10068b20     c_esp.obj
 0002:00000b31       $SG160318                  10068b31     c_esp.obj
 0002:00000b80       $SG131423                  10068b80     imgui.obj
 0002:00000b87       $SG133833                  10068b87     imgui.obj
 0002:00000b88       $SG131443                  10068b88     imgui.obj
 0002:00000b8b       $SG135589                  10068b8b     imgui.obj
 0002:00000b8c       $SG131457                  10068b8c     imgui.obj
 0002:00000b8f       $SG135591                  10068b8f     imgui.obj
 0002:00000b90       $SG131471                  10068b90     imgui.obj
 0002:00000b9b       $SG128270                  10068b9b     imgui.obj
 0002:00000b9c       $SG131472                  10068b9c     imgui.obj
 0002:00000ba7       $SG128562                  10068ba7     imgui.obj
 0002:00000ba8       $SG131473                  10068ba8     imgui.obj
 0002:00000bb4       $SG131474                  10068bb4     imgui.obj
 0002:00000bc5       $SG129085                  10068bc5     imgui.obj
 0002:00000bc8       $SG131475                  10068bc8     imgui.obj
 0002:00000bd0       $SG131570                  10068bd0     imgui.obj
 0002:00000bd4       $SG131571                  10068bd4     imgui.obj
 0002:00000bd8       $SG131578                  10068bd8     imgui.obj
 0002:00000bdc       $SG131837                  10068bdc     imgui.obj
 0002:00000be0       $SG131838                  10068be0     imgui.obj
 0002:00000be8       $SG131842                  10068be8     imgui.obj
 0002:00000bec       $SG131843                  10068bec     imgui.obj
 0002:00000bf4       $SG131903                  10068bf4     imgui.obj
 0002:00000bf8       $SG131908                  10068bf8     imgui.obj
 0002:00000bfc       $SG131912                  10068bfc     imgui.obj
 0002:00000c00       $SG131916                  10068c00     imgui.obj
 0002:00000c04       $SG131919                  10068c04     imgui.obj
 0002:00000c08       $SG132126                  10068c08     imgui.obj
 0002:00000c10       $SG132169                  10068c10     imgui.obj
 0002:00000c18       $SG132186                  10068c18     imgui.obj
 0002:00000c24       $SG132201                  10068c24     imgui.obj
 0002:00000c2c       $SG132217                  10068c2c     imgui.obj
 0002:00000c34       $SG132235                  10068c34     imgui.obj
 0002:00000c38       $SG132276                  10068c38     imgui.obj
 0002:00000c3c       $SG132376                  10068c3c     imgui.obj
 0002:00000c44       $SG132402                  10068c44     imgui.obj
 0002:00000c48       $SG132445                  10068c48     imgui.obj
 0002:00000c50       $SG132446                  10068c50     imgui.obj
 0002:00000c58       $SG132462                  10068c58     imgui.obj
 0002:00000c60       $SG132480                  10068c60     imgui.obj
 0002:00000c64       $SG132519                  10068c64     imgui.obj
 0002:00000c6c       $SG132520                  10068c6c     imgui.obj
 0002:00000c74       $SG132608                  10068c74     imgui.obj
 0002:00000c88       $SG132610                  10068c88     imgui.obj
 0002:00000c94       $SG132729                  10068c94     imgui.obj
 0002:00000c9c       $SG132793                  10068c9c     imgui.obj
 0002:00000ca0       $SG132794                  10068ca0     imgui.obj
 0002:00000ca4       $SG132852                  10068ca4     imgui.obj
 0002:00000ca8       $SG132853                  10068ca8     imgui.obj
 0002:00000cac       $SG133639                  10068cac     imgui.obj
 0002:00000cb8       $SG133745                  10068cb8     imgui.obj
 0002:00000cc4       $SG133836                  10068cc4     imgui.obj
 0002:00000cc8       $SG133838                  10068cc8     imgui.obj
 0002:00000ccc       $SG133855                  10068ccc     imgui.obj
 0002:00000cd0       $SG133856                  10068cd0     imgui.obj
 0002:00000cd8       $SG133868                  10068cd8     imgui.obj
 0002:00000ce0       $SG133869                  10068ce0     imgui.obj
 0002:00000ce4       $SG133885                  10068ce4     imgui.obj
 0002:00000ce8       $SG133918                  10068ce8     imgui.obj
 0002:00000cec       $SG134001                  10068cec     imgui.obj
 0002:00000cf4       $SG134005                  10068cf4     imgui.obj
 0002:00000d04       $SG134167                  10068d04     imgui.obj
 0002:00000d14       $SG134367                  10068d14     imgui.obj
 0002:00000d24       $SG134416                  10068d24     imgui.obj
 0002:00000d34       $SG134430                  10068d34     imgui.obj
 0002:00000d40       $SG134495                  10068d40     imgui.obj
 0002:00000d48       $SG134536                  10068d48     imgui.obj
 0002:00000d54       $SG134539                  10068d54     imgui.obj
 0002:00000d8c       $SG134682                  10068d8c     imgui.obj
 0002:00000d94       $SG134685                  10068d94     imgui.obj
 0002:00000d98       $SG134540                  10068d98     imgui.obj
 0002:00000ddc       $SG134687                  10068ddc     imgui.obj
 0002:00000de0       $SG134689                  10068de0     imgui.obj
 0002:00000de4       $SG134693                  10068de4     imgui.obj
 0002:00000dec       $SG134695                  10068dec     imgui.obj
 0002:00000df8       $SG134717                  10068df8     imgui.obj
 0002:00000e00       $SG134723                  10068e00     imgui.obj
 0002:00000e10       $SG134724                  10068e10     imgui.obj
 0002:00000e20       $SG134727                  10068e20     imgui.obj
 0002:00000e2c       $SG134791                  10068e2c     imgui.obj
 0002:00000e34       $SG134792                  10068e34     imgui.obj
 0002:00000e3c       $SG134793                  10068e3c     imgui.obj
 0002:00000e40       $SG134794                  10068e40     imgui.obj
 0002:00000e44       $SG134795                  10068e44     imgui.obj
 0002:00000e48       $SG134796                  10068e48     imgui.obj
 0002:00000e4c       $SG134797                  10068e4c     imgui.obj
 0002:00000e54       $SG134798                  10068e54     imgui.obj
 0002:00000e5c       $SG134799                  10068e5c     imgui.obj
 0002:00000e64       $SG134800                  10068e64     imgui.obj
 0002:00000e6c       $SG134801                  10068e6c     imgui.obj
 0002:00000e74       $SG134802                  10068e74     imgui.obj
 0002:00000e7c       $SG134803                  10068e7c     imgui.obj
 0002:00000e84       $SG134804                  10068e84     imgui.obj
 0002:00000e8c       $SG134805                  10068e8c     imgui.obj
 0002:00000e94       $SG134806                  10068e94     imgui.obj
 0002:00000e9c       $SG134807                  10068e9c     imgui.obj
 0002:00000ea4       $SG134808                  10068ea4     imgui.obj
 0002:00000eac       $SG134809                  10068eac     imgui.obj
 0002:00000eb4       $SG134810                  10068eb4     imgui.obj
 0002:00000ebc       $SG134811                  10068ebc     imgui.obj
 0002:00000ec4       $SG134812                  10068ec4     imgui.obj
 0002:00000ecc       $SG134813                  10068ecc     imgui.obj
 0002:00000ed4       $SG134814                  10068ed4     imgui.obj
 0002:00000edc       $SG134815                  10068edc     imgui.obj
 0002:00000ee4       $SG134816                  10068ee4     imgui.obj
 0002:00000eec       $SG134817                  10068eec     imgui.obj
 0002:00000ef4       $SG134818                  10068ef4     imgui.obj
 0002:00000efc       $SG134819                  10068efc     imgui.obj
 0002:00000f04       $SG134820                  10068f04     imgui.obj
 0002:00000f0c       $SG134826                  10068f0c     imgui.obj
 0002:00000f14       $SG134830                  10068f14     imgui.obj
 0002:00000f24       $SG134832                  10068f24     imgui.obj
 0002:00000f2c       $SG134834                  10068f2c     imgui.obj
 0002:00000f34       $SG134836                  10068f34     imgui.obj
 0002:00000f3c       $SG134837                  10068f3c     imgui.obj
 0002:00000f48       $SG135106                  10068f48     imgui.obj
 0002:00000f4c       $SG135108                  10068f4c     imgui.obj
 0002:00000f50       $SG135122                  10068f50     imgui.obj
 0002:00000f58       $SG135142                  10068f58     imgui.obj
 0002:00000f7c       $SG135303                  10068f7c     imgui.obj
 0002:00000f84       $SG135366                  10068f84     imgui.obj
 0002:00000f90       $SG135372                  10068f90     imgui.obj
 0002:00000f9c       $SG135384                  10068f9c     imgui.obj
 0002:00000fa4       $SG135385                  10068fa4     imgui.obj
 0002:00000fac       $SG135386                  10068fac     imgui.obj
 0002:00000fb4       $SG135391                  10068fb4     imgui.obj
 0002:00000fbc       $SG135396                  10068fbc     imgui.obj
 0002:00000fc4       $SG135406                  10068fc4     imgui.obj
 0002:00000fcc       $SG135407                  10068fcc     imgui.obj
 0002:00000fd8       ?KeyNames@@3QBQBDB         10068fd8     imgui.obj
 0002:00001270       $SG127378                  10069270     imgui.obj
 0002:00001278       $SG127379                  10069278     imgui.obj
 0002:00001284       $SG127380                  10069284     imgui.obj
 0002:00001290       $SG127381                  10069290     imgui.obj
 0002:0000129c       $SG135574                  1006929c     imgui.obj
 0002:000012ac       $SG127382                  100692ac     imgui.obj
 0002:000012b8       $SG135575                  100692b8     imgui.obj
 0002:000012c4       $SG127383                  100692c4     imgui.obj
 0002:000012d0       $SG135576                  100692d0     imgui.obj
 0002:00001300       $SG127384                  10069300     imgui.obj
 0002:0000130c       $SG135577                  1006930c     imgui.obj
 0002:00001334       $SG127385                  10069334     imgui.obj
 0002:0000133c       $SG135578                  1006933c     imgui.obj
 0002:0000134c       $SG127386                  1006934c     imgui.obj
 0002:00001354       $SG135579                  10069354     imgui.obj
 0002:00001388       $SG127387                  10069388     imgui.obj
 0002:00001390       $SG135580                  10069390     imgui.obj
 0002:00001398       $SG127388                  10069398     imgui.obj
 0002:000013a0       $SG127389                  100693a0     imgui.obj
 0002:000013a8       $SG135582                  100693a8     imgui.obj
 0002:000013c0       $SG127390                  100693c0     imgui.obj
 0002:000013cc       $SG135583                  100693cc     imgui.obj
 0002:000013d8       $SG127391                  100693d8     imgui.obj
 0002:000013e4       $SG135584                  100693e4     imgui.obj
 0002:000013f0       $SG127392                  100693f0     imgui.obj
 0002:000013f8       $SG127393                  100693f8     imgui.obj
 0002:00001400       $SG135586                  10069400     imgui.obj
 0002:00001418       $SG127394                  10069418     imgui.obj
 0002:00001424       $SG135587                  10069424     imgui.obj
 0002:0000142c       $SG127395                  1006942c     imgui.obj
 0002:00001438       $SG135588                  10069438     imgui.obj
 0002:00001444       $SG127396                  10069444     imgui.obj
 0002:0000144c       $SG127397                  1006944c     imgui.obj
 0002:00001458       $SG135590                  10069458     imgui.obj
 0002:00001468       $SG127398                  10069468     imgui.obj
 0002:00001474       $SG127399                  10069474     imgui.obj
 0002:0000147c       $SG135592                  1006947c     imgui.obj
 0002:00001484       $SG127400                  10069484     imgui.obj
 0002:0000148c       $SG135593                  1006948c     imgui.obj
 0002:000014ac       $SG127401                  100694ac     imgui.obj
 0002:000014b8       $SG127402                  100694b8     imgui.obj
 0002:000014c4       $SG135595                  100694c4     imgui.obj
 0002:000014d0       $SG127403                  100694d0     imgui.obj
 0002:000014dc       $SG135596                  100694dc     imgui.obj
 0002:000014e4       $SG127404                  100694e4     imgui.obj
 0002:000014ec       $SG135597                  100694ec     imgui.obj
 0002:00001500       $SG127405                  10069500     imgui.obj
 0002:0000150c       $SG135598                  1006950c     imgui.obj
 0002:00001514       $SG127406                  10069514     imgui.obj
 0002:00001520       $SG135599                  10069520     imgui.obj
 0002:00001538       $SG127407                  10069538     imgui.obj
 0002:00001548       $SG135600                  10069548     imgui.obj
 0002:00001564       $SG127408                  10069564     imgui.obj
 0002:00001570       $SG135601                  10069570     imgui.obj
 0002:00001588       $SG127409                  10069588     imgui.obj
 0002:00001598       $SG135602                  10069598     imgui.obj
 0002:000015a0       $SG127410                  100695a0     imgui.obj
 0002:000015ac       $SG135603                  100695ac     imgui.obj
 0002:000015c4       $SG127411                  100695c4     imgui.obj
 0002:000015d0       $SG135604                  100695d0     imgui.obj
 0002:000015d8       $SG127412                  100695d8     imgui.obj
 0002:000015e0       $SG135605                  100695e0     imgui.obj
 0002:000015f0       $SG127413                  100695f0     imgui.obj
 0002:000015f8       $SG127414                  100695f8     imgui.obj
 0002:00001600       $SG127415                  10069600     imgui.obj
 0002:00001608       $SG127416                  10069608     imgui.obj
 0002:00001610       $SG127417                  10069610     imgui.obj
 0002:0000161c       $SG127418                  1006961c     imgui.obj
 0002:00001624       $SG127419                  10069624     imgui.obj
 0002:00001630       $SG127420                  10069630     imgui.obj
 0002:0000163c       $SG127421                  1006963c     imgui.obj
 0002:00001648       $SG127422                  10069648     imgui.obj
 0002:00001654       $SG127423                  10069654     imgui.obj
 0002:00001660       $SG127424                  10069660     imgui.obj
 0002:0000166c       $SG127425                  1006966c     imgui.obj
 0002:00001674       $SG127426                  10069674     imgui.obj
 0002:00001678       $SG127427                  10069678     imgui.obj
 0002:0000167c       $SG127428                  1006967c     imgui.obj
 0002:00001680       $SG127429                  10069680     imgui.obj
 0002:00001684       $SG127430                  10069684     imgui.obj
 0002:00001688       $SG127431                  10069688     imgui.obj
 0002:0000168c       $SG127432                  1006968c     imgui.obj
 0002:00001690       $SG127433                  10069690     imgui.obj
 0002:00001694       $SG127434                  10069694     imgui.obj
 0002:00001698       $SG127435                  10069698     imgui.obj
 0002:0000169c       $SG127436                  1006969c     imgui.obj
 0002:000016a4       $SG127437                  100696a4     imgui.obj
 0002:000016ac       $SG127438                  100696ac     imgui.obj
 0002:000016b4       $SG127439                  100696b4     imgui.obj
 0002:000016bc       $SG127440                  100696bc     imgui.obj
 0002:000016c4       $SG127441                  100696c4     imgui.obj
 0002:000016cc       $SG127442                  100696cc     imgui.obj
 0002:000016d4       $SG127443                  100696d4     imgui.obj
 0002:000016d8       $SG127444                  100696d8     imgui.obj
 0002:000016dc       $SG127445                  100696dc     imgui.obj
 0002:000016e0       $SG127446                  100696e0     imgui.obj
 0002:000016e4       $SG127447                  100696e4     imgui.obj
 0002:000016e8       $SG127448                  100696e8     imgui.obj
 0002:000016ec       $SG127449                  100696ec     imgui.obj
 0002:000016f0       $SG127450                  100696f0     imgui.obj
 0002:000016f4       $SG127451                  100696f4     imgui.obj
 0002:000016f8       $SG127452                  100696f8     imgui.obj
 0002:000016fc       $SG127453                  100696fc     imgui.obj
 0002:00001700       $SG127454                  10069700     imgui.obj
 0002:00001704       $SG127455                  10069704     imgui.obj
 0002:00001708       $SG127456                  10069708     imgui.obj
 0002:0000170c       $SG127457                  1006970c     imgui.obj
 0002:00001710       $SG127458                  10069710     imgui.obj
 0002:00001714       $SG127459                  10069714     imgui.obj
 0002:00001718       $SG127460                  10069718     imgui.obj
 0002:0000171c       $SG127461                  1006971c     imgui.obj
 0002:00001720       $SG127462                  10069720     imgui.obj
 0002:00001724       $SG127463                  10069724     imgui.obj
 0002:00001728       $SG127464                  10069728     imgui.obj
 0002:0000172c       $SG127465                  1006972c     imgui.obj
 0002:00001730       $SG127466                  10069730     imgui.obj
 0002:00001734       $SG127467                  10069734     imgui.obj
 0002:00001738       $SG127468                  10069738     imgui.obj
 0002:0000173c       $SG127469                  1006973c     imgui.obj
 0002:00001744       $SG127470                  10069744     imgui.obj
 0002:0000174c       $SG127471                  1006974c     imgui.obj
 0002:00001754       $SG127472                  10069754     imgui.obj
 0002:0000175c       $SG127473                  1006975c     imgui.obj
 0002:00001768       $SG127474                  10069768     imgui.obj
 0002:00001774       $SG127475                  10069774     imgui.obj
 0002:00001780       $SG127476                  10069780     imgui.obj
 0002:0000178c       $SG127477                  1006978c     imgui.obj
 0002:00001798       $SG127478                  10069798     imgui.obj
 0002:000017a4       $SG127479                  100697a4     imgui.obj
 0002:000017b0       $SG127480                  100697b0     imgui.obj
 0002:000017bc       $SG127481                  100697bc     imgui.obj
 0002:000017c8       $SG127482                  100697c8     imgui.obj
 0002:000017d4       $SG127483                  100697d4     imgui.obj
 0002:000017e0       $SG127484                  100697e0     imgui.obj
 0002:000017ec       $SG127485                  100697ec     imgui.obj
 0002:000017f4       $SG127486                  100697f4     imgui.obj
 0002:00001804       $SG127487                  10069804     imgui.obj
 0002:00001810       $SG127488                  10069810     imgui.obj
 0002:0000181c       $SG127489                  1006981c     imgui.obj
 0002:00001828       $SG127490                  10069828     imgui.obj
 0002:00001830       $SG127491                  10069830     imgui.obj
 0002:00001838       $SG127492                  10069838     imgui.obj
 0002:00001840       $SG127493                  10069840     imgui.obj
 0002:00001848       $SG127494                  10069848     imgui.obj
 0002:00001850       $SG127495                  10069850     imgui.obj
 0002:00001858       $SG127496                  10069858     imgui.obj
 0002:00001860       $SG127497                  10069860     imgui.obj
 0002:00001868       $SG127498                  10069868     imgui.obj
 0002:00001870       $SG127499                  10069870     imgui.obj
 0002:00001878       $SG127500                  10069878     imgui.obj
 0002:00001880       $SG127501                  10069880     imgui.obj
 0002:00001888       $SG127502                  10069888     imgui.obj
 0002:00001890       $SG127503                  10069890     imgui.obj
 0002:00001898       $SG127504                  10069898     imgui.obj
 0002:000018a0       $SG127505                  100698a0     imgui.obj
 0002:000018a8       $SG127506                  100698a8     imgui.obj
 0002:000018b0       $SG127507                  100698b0     imgui.obj
 0002:000018b8       $SG127508                  100698b8     imgui.obj
 0002:000018c0       $SG127509                  100698c0     imgui.obj
 0002:000018c8       $SG127510                  100698c8     imgui.obj
 0002:000018d0       $SG127511                  100698d0     imgui.obj
 0002:000018d8       $SG127512                  100698d8     imgui.obj
 0002:000018e0       $SG127513                  100698e0     imgui.obj
 0002:000018e8       $SG127514                  100698e8     imgui.obj
 0002:000018f0       $SG127515                  100698f0     imgui.obj
 0002:000018f8       $SG127516                  100698f8     imgui.obj
 0002:00001900       $SG127517                  10069900     imgui.obj
 0002:00001908       $SG127518                  10069908     imgui.obj
 0002:00001910       $SG127519                  10069910     imgui.obj
 0002:00001918       $SG127520                  10069918     imgui.obj
 0002:00001920       $SG127521                  10069920     imgui.obj
 0002:00001928       $SG127522                  10069928     imgui.obj
 0002:00001934       $SG127523                  10069934     imgui.obj
 0002:00001940       $SG127524                  10069940     imgui.obj
 0002:00001954       $SG127525                  10069954     imgui.obj
 0002:00001968       $SG127526                  10069968     imgui.obj
 0002:0000197c       $SG127527                  1006997c     imgui.obj
 0002:0000198c       $SG127528                  1006998c     imgui.obj
 0002:0000199c       $SG127529                  1006999c     imgui.obj
 0002:000019a4       $SG127530                  100699a4     imgui.obj
 0002:000019ac       $SG127531                  100699ac     imgui.obj
 0002:000019b4       $SG127532                  100699b4     imgui.obj
 0002:000019bc       $SG127533                  100699bc     imgui.obj
 0002:000019c4       $SG127534                  100699c4     imgui.obj
 0002:000019cc       $SG127535                  100699cc     imgui.obj
 0002:000019d4       $SG127536                  100699d4     imgui.obj
 0002:000019dc       $SG127537                  100699dc     imgui.obj
 0002:000019e4       $SG127538                  100699e4     imgui.obj
 0002:000019f0       $SG127539                  100699f0     imgui.obj
 0002:000019fc       $SG127540                  100699fc     imgui.obj
 0002:00001a08       $SG127541                  10069a08     imgui.obj
 0002:00001a14       $SG127542                  10069a14     imgui.obj
 0002:00001a20       $SG127543                  10069a20     imgui.obj
 0002:00001a2c       $SG127623                  10069a2c     imgui.obj
 0002:00001a38       $SG127624                  10069a38     imgui.obj
 0002:00001a48       $SG128391                  10069a48     imgui.obj
 0002:00001a50       $SG128569                  10069a50     imgui.obj
 0002:00001a5c       $SG128734                  10069a5c     imgui.obj
 0002:00001a64       $SG128808                  10069a64     imgui.obj
 0002:00001a68       $SG128812                  10069a68     imgui.obj
 0002:00001a70       $SG128817                  10069a70     imgui.obj
 0002:00001a7c       $SG128820                  10069a7c     imgui.obj
 0002:00001a88       $SG128822                  10069a88     imgui.obj
 0002:00001a98       $SG128848                  10069a98     imgui.obj
 0002:00001a9c       $SG128852                  10069a9c     imgui.obj
 0002:00001aa0       $SG128853                  10069aa0     imgui.obj
 0002:00001aa8       $SG128854                  10069aa8     imgui.obj
 0002:00001ab4       $SG128855                  10069ab4     imgui.obj
 0002:00001ac0       $SG128856                  10069ac0     imgui.obj
 0002:00001ad0       $SG128857                  10069ad0     imgui.obj
 0002:00001ad4       $SG129086                  10069ad4     imgui.obj
 0002:00001ae0       $SG129087                  10069ae0     imgui.obj
 0002:00001ae8       $SG129473                  10069ae8     imgui.obj
 0002:00001af8       $SG129477                  10069af8     imgui.obj
 0002:00001b08       $SG129509                  10069b08     imgui.obj
 0002:00001b10       $SG129584                  10069b10     imgui.obj
 0002:00001b1c       $SG129585                  10069b1c     imgui.obj
 0002:00001b2c       $SG129632                  10069b2c     imgui.obj
 0002:00001b3c       $SG129641                  10069b3c     imgui.obj
 0002:00001b4c       $SG129667                  10069b4c     imgui.obj
 0002:00001b58       $SG129668                  10069b58     imgui.obj
 0002:00001b60       $SG129888                  10069b60     imgui.obj
 0002:00001b64       $SG129889                  10069b64     imgui.obj
 0002:00001b68       $SG130283                  10069b68     imgui.obj
 0002:00001b70       $SG130313                  10069b70     imgui.obj
 0002:00001b78       $SG130382                  10069b78     imgui.obj
 0002:00001b84       $SG130383                  10069b84     imgui.obj
 0002:00001b90       ?GStyleVarInfo@@3QBUImGuiStyleVarInfo@@B 10069b90     imgui.obj
 0002:00001bf0       $SG130611                  10069bf0     imgui.obj
 0002:00001bf8       $SG130613                  10069bf8     imgui.obj
 0002:00001c08       $SG130615                  10069c08     imgui.obj
 0002:00001c14       $SG130617                  10069c14     imgui.obj
 0002:00001c24       $SG130619                  10069c24     imgui.obj
 0002:00001c2c       $SG130621                  10069c2c     imgui.obj
 0002:00001c34       $SG130623                  10069c34     imgui.obj
 0002:00001c44       $SG130625                  10069c44     imgui.obj
 0002:00001c4c       $SG130627                  10069c4c     imgui.obj
 0002:00001c5c       $SG130629                  10069c5c     imgui.obj
 0002:00001c6c       $SG130631                  10069c6c     imgui.obj
 0002:00001c74       $SG130633                  10069c74     imgui.obj
 0002:00001c88       $SG130635                  10069c88     imgui.obj
 0002:00001c98       $SG130637                  10069c98     imgui.obj
 0002:00001ca4       $SG130639                  10069ca4     imgui.obj
 0002:00001cb0       $SG130641                  10069cb0     imgui.obj
 0002:00001cc0       $SG130643                  10069cc0     imgui.obj
 0002:00001cd8       $SG130645                  10069cd8     imgui.obj
 0002:00001cec       $SG130647                  10069cec     imgui.obj
 0002:00001cf4       $SG130649                  10069cf4     imgui.obj
 0002:00001d00       $SG130651                  10069d00     imgui.obj
 0002:00001d0c       $SG130653                  10069d0c     imgui.obj
 0002:00001d20       $SG130655                  10069d20     imgui.obj
 0002:00001d28       $SG130657                  10069d28     imgui.obj
 0002:00001d38       $SG130659                  10069d38     imgui.obj
 0002:00001d48       $SG130661                  10069d48     imgui.obj
 0002:00001d50       $SG130663                  10069d50     imgui.obj
 0002:00001d60       $SG130665                  10069d60     imgui.obj
 0002:00001d70       $SG130667                  10069d70     imgui.obj
 0002:00001d7c       $SG130669                  10069d7c     imgui.obj
 0002:00001d90       $SG130671                  10069d90     imgui.obj
 0002:00001da0       $SG130673                  10069da0     imgui.obj
 0002:00001dac       $SG130675                  10069dac     imgui.obj
 0002:00001dc0       $SG130677                  10069dc0     imgui.obj
 0002:00001dd4       $SG130679                  10069dd4     imgui.obj
 0002:00001de0       $SG130681                  10069de0     imgui.obj
 0002:00001df4       $SG130683                  10069df4     imgui.obj
 0002:00001e08       $SG130685                  10069e08     imgui.obj
 0002:00001e14       $SG130687                  10069e14     imgui.obj
 0002:00001e28       $SG130689                  10069e28     imgui.obj
 0002:00001e38       $SG130691                  10069e38     imgui.obj
 0002:00001e50       $SG130693                  10069e50     imgui.obj
 0002:00001e60       $SG130695                  10069e60     imgui.obj
 0002:00001e78       $SG130696                  10069e78     imgui.obj
 0002:00001e8c       ?min_steps@?1??GetMinimumStepAtDecimalPrecision@@YAMH@Z@4QBMB 10069e8c     imgui.obj
 0002:00001ff8       $SG16417                   10069ff8     imgui_draw.obj
 0002:00002000       $SG16470                   1006a000     imgui_draw.obj
 0002:00002008       $SG16472                   1006a008     imgui_draw.obj
 0002:00002010       ?FONT_ATLAS_DEFAULT_TEX_DATA_PIXELS@@3QBDB 1006a010     imgui_draw.obj
 0002:00002990       $SG17489                   1006a990     imgui_draw.obj
 0002:000029a8       $SG17510                   1006a9a8     imgui_draw.obj
 0002:000029ac       $SG17513                   1006a9ac     imgui_draw.obj
 0002:000029b8       ?proggy_clean_ttf_compressed_data_base85@@3QBDB 1006a9b8     imgui_draw.obj
 0002:00005888       $SG14521                   1006d888     imgui_draw.obj
 0002:00005890       $SG14522                   1006d890     imgui_draw.obj
 0002:00005898       $SG14523                   1006d898     imgui_draw.obj
 0002:000058a0       $SG14524                   1006d8a0     imgui_draw.obj
 0002:000058a8       $SG14526                   1006d8a8     imgui_draw.obj
 0002:000058b0       $SG14527                   1006d8b0     imgui_draw.obj
 0002:000058b8       $SG14528                   1006d8b8     imgui_draw.obj
 0002:000058c0       $SG14529                   1006d8c0     imgui_draw.obj
 0002:000058c8       $SG14532                   1006d8c8     imgui_draw.obj
 0002:000058d0       $SG14533                   1006d8d0     imgui_draw.obj
 0002:000058d8       $SG14534                   1006d8d8     imgui_draw.obj
 0002:000058e0       $SG14535                   1006d8e0     imgui_draw.obj
 0002:000058e8       $SG14556                   1006d8e8     imgui_draw.obj
 0002:000058f0       $SG14557                   1006d8f0     imgui_draw.obj
 0002:000058f8       $SG14558                   1006d8f8     imgui_draw.obj
 0002:00005900       $SG14559                   1006d900     imgui_draw.obj
 0002:00005908       $SG14568                   1006d908     imgui_draw.obj
 0002:00005910       $SG14569                   1006d910     imgui_draw.obj
 0002:00005918       $SG14570                   1006d918     imgui_draw.obj
 0002:00005920       $SG14571                   1006d920     imgui_draw.obj
 0002:00005928       $SG14629                   1006d928     imgui_draw.obj
 0002:00005930       $SG14630                   1006d930     imgui_draw.obj
 0002:00005938       $SG14631                   1006d938     imgui_draw.obj
 0002:00005940       $SG14632                   1006d940     imgui_draw.obj
 0002:00005948       $SG14633                   1006d948     imgui_draw.obj
 0002:00005950       $SG14634                   1006d950     imgui_draw.obj
 0002:00005958       $SG14635                   1006d958     imgui_draw.obj
 0002:00005960       $SG14641                   1006d960     imgui_draw.obj
 0002:00005968       $SG14647                   1006d968     imgui_draw.obj
 0002:00005970       ?ranges@?1??GetGlyphRangesDefault@ImFontAtlas@@QAEPBGXZ@4QBGB 1006d970     imgui_draw.obj
 0002:000059f8       $SG180497                  1006d9f8     dme_hook.obj
 0002:00005a04       $SG180628                  1006da04     dme_hook.obj
 0002:00005a0c       $SG180629                  1006da0c     dme_hook.obj
 0002:00005a18       $SG180630                  1006da18     dme_hook.obj
 0002:00005a1c       $SG180631                  1006da1c     dme_hook.obj
 0002:00005a28       $SG180672                  1006da28     dme_hook.obj
 0002:00005a38       $SG180673                  1006da38     dme_hook.obj
 0002:00005a48       $SG180674                  1006da48     dme_hook.obj
 0002:00005a58       $SG180675                  1006da58     dme_hook.obj
 0002:00005a68       $SG180676                  1006da68     dme_hook.obj
 0002:00005a78       $SG180677                  1006da78     dme_hook.obj
 0002:00005a8c       $SG180691                  1006da8c     dme_hook.obj
 0002:00005a9c       $SG180693                  1006da9c     dme_hook.obj
 0002:00005aac       $SG180697                  1006daac     dme_hook.obj
 0002:00005abc       $SG180498                  1006dabc     event_hook.obj
 0002:00005ac8       $SG180501                  1006dac8     event_hook.obj
 0002:00005af4       $SG182302                  1006daf4     hooking_init.obj
 0002:00005b00       $SG182306                  1006db00     hooking_init.obj
 0002:00005b14       $SG182307                  1006db14     hooking_init.obj
 0002:00005b1c       $SG182308                  1006db1c     hooking_init.obj
 0002:00005b30       $SG182309                  1006db30     hooking_init.obj
 0002:00005b54       $SG180510                  1006db54     painttraverse_hook.obj
 0002:00005b5c       $SG180515                  1006db5c     painttraverse_hook.obj
 0002:00005d50       $SG158173                  1006dd50     menu_system.obj
 0002:00005d59       $SG178219                  1006dd59     menu_system.obj
 0002:00005d5a       $SG178221                  1006dd5a     menu_system.obj
 0002:00005d60       ?SmallestPixel_compressed_data@@3QBIB 1006dd60     menu_system.obj
 0002:00008624       $SG177978                  10070624     menu_system.obj
 0002:00008634       $SG177989                  10070634     menu_system.obj
 0002:00008654       $SG178002                  10070654     menu_system.obj
 0002:0000865c       $SG178003                  1007065c     menu_system.obj
 0002:00008664       $SG178004                  10070664     menu_system.obj
 0002:0000866c       $SG178005                  1007066c     menu_system.obj
 0002:00008674       $SG178018                  10070674     menu_system.obj
 0002:00008688       $SG178019                  10070688     menu_system.obj
 0002:00008698       $SG178020                  10070698     menu_system.obj
 0002:000086a8       $SG178021                  100706a8     menu_system.obj
 0002:000086c0       $SG178022                  100706c0     menu_system.obj
 0002:000086c8       $SG178023                  100706c8     menu_system.obj
 0002:000086d4       $SG178024                  100706d4     menu_system.obj
 0002:000086dc       $SG178025                  100706dc     menu_system.obj
 0002:000086ec       $SG178026                  100706ec     menu_system.obj
 0002:000086f8       $SG178027                  100706f8     menu_system.obj
 0002:00008700       $SG178028                  10070700     menu_system.obj
 0002:0000870c       $SG178029                  1007070c     menu_system.obj
 0002:00008714       $SG178030                  10070714     menu_system.obj
 0002:00008720       $SG178031                  10070720     menu_system.obj
 0002:00008734       $SG178032                  10070734     menu_system.obj
 0002:0000874c       $SG178033                  1007074c     menu_system.obj
 0002:0000875c       $SG178057                  1007075c     menu_system.obj
 0002:00008770       $SG178058                  10070770     menu_system.obj
 0002:00008780       $SG178059                  10070780     menu_system.obj
 0002:00008790       $SG178060                  10070790     menu_system.obj
 0002:000087a0       $SG178061                  100707a0     menu_system.obj
 0002:000087a8       $SG178062                  100707a8     menu_system.obj
 0002:000087b8       $SG178063                  100707b8     menu_system.obj
 0002:000087c4       $SG178064                  100707c4     menu_system.obj
 0002:000087cc       $SG178065                  100707cc     menu_system.obj
 0002:000087d8       $SG178066                  100707d8     menu_system.obj
 0002:000087e8       $SG178067                  100707e8     menu_system.obj
 0002:000087fc       $SG178069                  100707fc     menu_system.obj
 0002:00008804       $SG178071                  10070804     menu_system.obj
 0002:0000880c       $SG178073                  1007080c     menu_system.obj
 0002:00008814       $SG178075                  10070814     menu_system.obj
 0002:0000881c       $SG178076                  1007081c     menu_system.obj
 0002:00008828       $SG178077                  10070828     menu_system.obj
 0002:0000882c       $SG178078                  1007082c     menu_system.obj
 0002:00008834       $SG178080                  10070834     menu_system.obj
 0002:00008840       $SG178081                  10070840     menu_system.obj
 0002:00008854       $SG178082                  10070854     menu_system.obj
 0002:0000886c       $SG178083                  1007086c     menu_system.obj
 0002:00008888       $SG178084                  10070888     menu_system.obj
 0002:0000889c       $SG178085                  1007089c     menu_system.obj
 0002:000088b4       $SG178086                  100708b4     menu_system.obj
 0002:000088d0       $SG178088                  100708d0     menu_system.obj
 0002:000088dc       $SG178089                  100708dc     menu_system.obj
 0002:000088f4       $SG178090                  100708f4     menu_system.obj
 0002:00008910       $SG178091                  10070910     menu_system.obj
 0002:00008924       $SG178092                  10070924     menu_system.obj
 0002:00008938       $SG178093                  10070938     menu_system.obj
 0002:00008954       $SG178096                  10070954     menu_system.obj
 0002:00008968       $SG178097                  10070968     menu_system.obj
 0002:0000897c       $SG178098                  1007097c     menu_system.obj
 0002:00008984       $SG178099                  10070984     menu_system.obj
 0002:00008994       $SG178100                  10070994     menu_system.obj
 0002:000089a0       $SG178101                  100709a0     menu_system.obj
 0002:000089ac       $SG178102                  100709ac     menu_system.obj
 0002:000089b4       $SG178111                  100709b4     menu_system.obj
 0002:000089bc       $SG178112                  100709bc     menu_system.obj
 0002:000089c4       $SG178113                  100709c4     menu_system.obj
 0002:000089cc       $SG178216                  100709cc     menu_system.obj
 0002:000089e0       $SG178224                  100709e0     menu_system.obj
 0002:000089e8       $SG178226                  100709e8     menu_system.obj
 0002:000089f0       $SG178229                  100709f0     menu_system.obj
 0002:000089f8       $SG178231                  100709f8     menu_system.obj
 0002:00008a00       $SG178233                  10070a00     menu_system.obj
 0002:00008a08       $SG178234                  10070a08     menu_system.obj
 0002:00008a24       $SG178235                  10070a24     menu_system.obj
 0002:00008a40       $SG178286                  10070a40     menu_system.obj
 0002:00008a4c       $SG178287                  10070a4c     menu_system.obj
 0002:00008a58       $SG178288                  10070a58     menu_system.obj
 0002:00008a60       $SG178290                  10070a60     menu_system.obj
 0002:00008a68       $SG178292                  10070a68     menu_system.obj
 0002:00008a74       $SG178294                  10070a74     menu_system.obj
 0002:00008a7c       $SG178296                  10070a7c     menu_system.obj
 0002:00008a84       $SG178298                  10070a84     menu_system.obj
 0002:00008a94       $SG178300                  10070a94     menu_system.obj
 0002:00008a9c       $SG178315                  10070a9c     menu_system.obj
 0002:00008aac       $SG178318                  10070aac     menu_system.obj
 0002:00008af8       $SG138634                  10070af8     CEntity.obj
 0002:00008b08       $SG138635                  10070b08     CEntity.obj
 0002:00008b18       $SG138636                  10070b18     CEntity.obj
 0002:00008b2c       $SG138651                  10070b2c     CEntity.obj
 0002:00008b54       $SG138652                  10070b54     CEntity.obj
 0002:00008b68       $SG138667                  10070b68     CEntity.obj
 0002:00008ba0       $SG138668                  10070ba0     CEntity.obj
 0002:00008bb4       $SG138772                  10070bb4     CEntity.obj
 0002:00008bc4       $SG138776                  10070bc4     CEntity.obj
 0002:00008bd8       $SG138780                  10070bd8     CEntity.obj
 0002:00008be8       $SG138784                  10070be8     CEntity.obj
 0002:00008bfc       $SG138788                  10070bfc     CEntity.obj
 0002:00008c10       $SG138792                  10070c10     CEntity.obj
 0002:00008c24       $SG138795                  10070c24     CEntity.obj
 0002:00008c34       $SG139043                  10070c34     CEntity.obj
 0002:00008c44       $SG139047                  10070c44     CEntity.obj
 0002:00008c54       $SG139051                  10070c54     CEntity.obj
 0002:00008c60       $SG139055                  10070c60     CEntity.obj
 0002:00008c6c       $SG139059                  10070c6c     CEntity.obj
 0002:00008c7c       $SG139063                  10070c7c     CEntity.obj
 0002:00008c90       $SG139067                  10070c90     CEntity.obj
 0002:00008ca0       $SG139071                  10070ca0     CEntity.obj
 0002:00008cac       $SG139075                  10070cac     CEntity.obj
 0002:00008cbc       $SG139079                  10070cbc     CEntity.obj
 0002:00008cc8       $SG139083                  10070cc8     CEntity.obj
 0002:00008cd8       $SG139087                  10070cd8     CEntity.obj
 0002:00008ce8       $SG139091                  10070ce8     CEntity.obj
 0002:00008cf8       $SG139095                  10070cf8     CEntity.obj
 0002:00008d04       $SG139099                  10070d04     CEntity.obj
 0002:00008d14       $SG139103                  10070d14     CEntity.obj
 0002:00008d20       $SG139107                  10070d20     CEntity.obj
 0002:00008d2c       $SG139111                  10070d2c     CEntity.obj
 0002:00008d3c       $SG139115                  10070d3c     CEntity.obj
 0002:00008d48       $SG139119                  10070d48     CEntity.obj
 0002:00008d58       $SG139123                  10070d58     CEntity.obj
 0002:00008d64       $SG139127                  10070d64     CEntity.obj
 0002:00008d70       $SG139131                  10070d70     CEntity.obj
 0002:00008d7c       $SG139135                  10070d7c     CEntity.obj
 0002:00008d8c       $SG139139                  10070d8c     CEntity.obj
 0002:00008d9c       $SG139143                  10070d9c     CEntity.obj
 0002:00008da8       $SG139147                  10070da8     CEntity.obj
 0002:00008db8       $SG139151                  10070db8     CEntity.obj
 0002:00008dc8       $SG139155                  10070dc8     CEntity.obj
 0002:00008e00       ?pulCRCTable@@3QBKB        10070e00     checksum_crc.obj
 0002:00009200       $SG141934                  10071200     Interfaces.obj
 0002:00009208       $SG141935                  10071208     Interfaces.obj
 0002:0000921c       $SG141936                  1007121c     Interfaces.obj
 0002:00009230       $SG141937                  10071230     Interfaces.obj
 0002:00009244       $SG141938                  10071244     Interfaces.obj
 0002:00009254       $SG141939                  10071254     Interfaces.obj
 0002:00009260       $SG141940                  10071260     Interfaces.obj
 0002:00009274       $SG141941                  10071274     Interfaces.obj
 0002:00009288       $SG141942                  10071288     Interfaces.obj
 0002:00009298       $SG141943                  10071298     Interfaces.obj
 0002:000092ac       $SG141944                  100712ac     Interfaces.obj
 0002:000092c8       $SG141945                  100712c8     Interfaces.obj
 0002:000092dc       $SG141946                  100712dc     Interfaces.obj
 0002:000092f4       $SG141947                  100712f4     Interfaces.obj
 0002:00009300       $SG141948                  10071300     Interfaces.obj
 0002:00009310       $SG141949                  10071310     Interfaces.obj
 0002:00009324       $SG141950                  10071324     Interfaces.obj
 0002:00009338       $SG141951                  10071338     Interfaces.obj
 0002:00009344       $SG141952                  10071344     Interfaces.obj
 0002:0000935c       $SG141953                  1007135c     Interfaces.obj
 0002:0000936c       $SG141954                  1007136c     Interfaces.obj
 0002:00009378       $SG141955                  10071378     Interfaces.obj
 0002:00009384       $SG141956                  10071384     Interfaces.obj
 0002:00009390       $SG141957                  10071390     Interfaces.obj
 0002:0000939c       $SG141958                  1007139c     Interfaces.obj
 0002:000093b0       $SG141959                  100713b0     Interfaces.obj
 0002:000093bc       $SG141960                  100713bc     Interfaces.obj
 0002:000093cc       $SG141961                  100713cc     Interfaces.obj
 0002:000093d8       $SG141962                  100713d8     Interfaces.obj
 0002:000093e8       $SG141963                  100713e8     Interfaces.obj
 0002:000093fc       $SG141964                  100713fc     Interfaces.obj
 0002:00009410       $SG141965                  10071410     Interfaces.obj
 0002:00009420       $SG141966                  10071420     Interfaces.obj
 0002:000094f0       $SG141967                  100714f0     Interfaces.obj
 0002:00009510       $SG141968                  10071510     Interfaces.obj
 0002:000095f8       $SG141969                  100715f8     Interfaces.obj
 0002:0000961c       $SG154083                  1007161c     Interfaces.obj
 0002:0000962c       $SG154084                  1007162c     Interfaces.obj
 0002:00009634       $SG154087                  10071634     Interfaces.obj
 0002:0000963c       $SG154107                  1007163c     Interfaces.obj
 0002:0000964c       $SG154108                  1007164c     Interfaces.obj
 0002:00009654       $SG154111                  10071654     Interfaces.obj
 0002:0000965c       $SG154131                  1007165c     Interfaces.obj
 0002:0000966c       $SG154132                  1007166c     Interfaces.obj
 0002:00009674       $SG154135                  10071674     Interfaces.obj
 0002:0000967c       $SG154155                  1007167c     Interfaces.obj
 0002:0000968c       $SG154156                  1007168c     Interfaces.obj
 0002:00009694       $SG154159                  10071694     Interfaces.obj
 0002:0000969c       $SG154179                  1007169c     Interfaces.obj
 0002:000096ac       $SG154180                  100716ac     Interfaces.obj
 0002:000096b4       $SG154183                  100716b4     Interfaces.obj
 0002:000096bc       $SG154192                  100716bc     Interfaces.obj
 0002:000096cc       $SG154193                  100716cc     Interfaces.obj
 0002:000096e8       $SG154212                  100716e8     Interfaces.obj
 0002:000096f8       $SG154213                  100716f8     Interfaces.obj
 0002:00009700       $SG154216                  10071700     Interfaces.obj
 0002:00009708       $SG154236                  10071708     Interfaces.obj
 0002:00009718       $SG154237                  10071718     Interfaces.obj
 0002:00009720       $SG154240                  10071720     Interfaces.obj
 0002:00009728       $SG154260                  10071728     Interfaces.obj
 0002:00009738       $SG154261                  10071738     Interfaces.obj
 0002:00009740       $SG154264                  10071740     Interfaces.obj
 0002:00009748       $SG154284                  10071748     Interfaces.obj
 0002:00009758       $SG154285                  10071758     Interfaces.obj
 0002:00009760       $SG154288                  10071760     Interfaces.obj
 0002:00009768       $SG154308                  10071768     Interfaces.obj
 0002:00009778       $SG154309                  10071778     Interfaces.obj
 0002:00009780       $SG154312                  10071780     Interfaces.obj
 0002:00009788       $SG154332                  10071788     Interfaces.obj
 0002:00009798       $SG154333                  10071798     Interfaces.obj
 0002:000097a0       $SG154336                  100717a0     Interfaces.obj
 0002:000097a8       $SG154356                  100717a8     Interfaces.obj
 0002:000097b8       $SG154357                  100717b8     Interfaces.obj
 0002:000097c0       $SG154360                  100717c0     Interfaces.obj
 0002:000097c8       $SG154380                  100717c8     Interfaces.obj
 0002:000097d8       $SG154381                  100717d8     Interfaces.obj
 0002:000097e0       $SG154384                  100717e0     Interfaces.obj
 0002:000097e8       $SG154404                  100717e8     Interfaces.obj
 0002:000097f8       $SG154405                  100717f8     Interfaces.obj
 0002:00009800       $SG154408                  10071800     Interfaces.obj
 0002:00009808       $SG124468                  10071808     Math.obj
 0002:00009814       $SG124469                  10071814     Math.obj
 0002:00009820       $SG124483                  10071820     Math.obj
 0002:0000982c       $SG124484                  1007182c     Math.obj
 0002:000098e0       _Int32ToUInt32             100718e0     MSVCRT:ftol3.obj
 0002:000098e8       _DP2to32                   100718e8     MSVCRT:ftol3.obj
 0002:000098f0       _MantissaMask              100718f0     MSVCRT:ftol3.obj
 0002:000098f8       _IntegerBit                100718f8     MSVCRT:ftol3.obj
 0002:00009900       _SignBit64                 10071900     MSVCRT:ftol3.obj
 0002:00009908       _MinFP64                   10071908     MSVCRT:ftol3.obj
 0002:00009910       _MinInt64                  10071910     MSVCRT:ftol3.obj
 0002:00009918       _MaxInt64                  10071918     MSVCRT:ftol3.obj
 0002:00009920       _MaxUInt64                 10071920     MSVCRT:ftol3.obj
 0002:00009928       _MaxFP32                   10071928     MSVCRT:ftol3.obj
 0002:00009930       _MinFP32                   10071930     MSVCRT:ftol3.obj
 0002:00009938       _MinSubInexact             10071938     MSVCRT:ftol3.obj
 0002:00009940       _FpExcptTable              10071940     MSVCRT:ftol3.obj
 0002:00009950       _i1075                     10071950     MSVCRT:ftol3.obj
 0002:00009954       _i1087                     10071954     MSVCRT:ftol3.obj
 0002:00009958       _x0800                     10071958     MSVCRT:ftol3.obj
 0002:0000995c       _x17FF                     1007195c     MSVCRT:ftol3.obj
 0002:00009960       _CWMask                    10071960     MSVCRT:ftol3.obj
 0002:0000996c       _GS_ExceptionPointers      1007196c     MSVCRT:gs_report.obj
 0002:0000a9b8       __unwindtable$??$?0V?$basic_string_view@_WU?$char_traits@_W@std@@@std@@X@?$basic_string@_WU?$char_traits@_W@std@@V?$allocator@_W@2@@std@@QAE@ABV?$basic_string_view@_WU?$char_traits@_W@std@@@1@ABV?$allocator@_W@1@@Z 100729b8     config_system.obj
 0002:0000a9b8       __unwindtable$??0?$basic_string@DU?$char_traits@D@std@@V?$allocator@D@2@@std@@QAE@QBD@Z 100729b8     c_hooks.obj
 0002:0000a9b8       __unwindtable$??0?$basic_string@DU?$char_traits@D@std@@V?$allocator@D@2@@std@@QAE@ID@Z 100729b8     config_system.obj
 0002:0000a9c0       __ehfuncinfo$??$?0V?$basic_string_view@_WU?$char_traits@_W@std@@@std@@X@?$basic_string@_WU?$char_traits@_W@std@@V?$allocator@_W@2@@std@@QAE@ABV?$basic_string_view@_WU?$char_traits@_W@std@@@1@ABV?$allocator@_W@1@@Z 100729c0     config_system.obj
 0002:0000a9c0       __ehfuncinfo$??0?$basic_string@DU?$char_traits@D@std@@V?$allocator@D@2@@std@@QAE@QBD@Z 100729c0     c_hooks.obj
 0002:0000a9c0       __ehfuncinfo$??0?$basic_string@DU?$char_traits@D@std@@V?$allocator@D@2@@std@@QAE@ID@Z 100729c0     config_system.obj
 0002:0000a9e4       __ehfuncinfo$??1?$ImVector@UCustomRect@ImFontAtlas@@@@QAE@XZ 100729e4     imgui_draw.obj
 0002:0000a9e4       __ehfuncinfo$?generic_category@std@@YAABVerror_category@1@XZ 100729e4     config_system.obj
 0002:0000a9e4       __ehfuncinfo$??1locale@std@@QAE@XZ 100729e4     config_system.obj
 0002:0000a9e4       __ehfuncinfo$?_Equal@?$basic_string@DU?$char_traits@D@std@@V?$allocator@D@2@@std@@QBE_NQBD@Z 100729e4     config_system.obj
 0002:0000a9e4       __ehfuncinfo$?data@?$basic_string@DU?$char_traits@D@std@@V?$allocator@D@2@@std@@QAEPADXZ 100729e4     config_system.obj
 0002:0000a9e4       __ehfuncinfo$?data@?$basic_string@DU?$char_traits@D@std@@V?$allocator@D@2@@std@@QBEPBDXZ 100729e4     config_system.obj
 0002:0000a9e4       __ehfuncinfo$??1?$ImVector@UImDrawVert@@@@QAE@XZ 100729e4     imgui.obj
 0002:0000a9e4       __ehfuncinfo$??1?$ImVector@UPair@ImGuiStorage@@@@QAE@XZ 100729e4     imgui.obj
 0002:0000a9e4       __ehfuncinfo$??0?$basic_string@DU?$char_traits@D@std@@V?$allocator@D@2@@std@@QAE@ABV?$allocator@D@1@@Z 100729e4     config_system.obj
 0002:0000a9e4       __ehfuncinfo$??0?$basic_string@DU?$char_traits@D@std@@V?$allocator@D@2@@std@@QAE@XZ 100729e4     config_system.obj
 0002:0000a9e4       __ehfuncinfo$?zero@?$duration@_JU?$ratio@$00$0DOI@@std@@@chrono@std@@SA?AV123@XZ 100729e4     dll_main.obj
 0002:0000a9e4       __ehfuncinfo$?now@system_clock@chrono@std@@SA?AV?$time_point@Usystem_clock@chrono@std@@V?$duration@_JU?$ratio@$00$0JIJGIA@@std@@@23@@23@XZ 100729e4     dll_main.obj
 0002:0000a9e4       __ehfuncinfo$??1_Fac_node@std@@QAE@XZ 100729e4     msvcprt:locale0_implib.obj
 0002:0000a9e4       __ehfuncinfo$___std_fs_remove@4 100729e4     msvcprt:filesystem.obj
 0002:0000a9e4       __ehfuncinfo$??$?0U?$default_delete@VNetvarTree@@@std@@$0A@@?$unique_ptr@VNetvarTree@@U?$default_delete@VNetvarTree@@@std@@@std@@QAE@PAVNetvarTree@@@Z 100729e4     c_hooks.obj
 0002:0000a9e4       __ehfuncinfo$??$?0U?$default_delete@VVMTHook@@@std@@$0A@@?$unique_ptr@VVMTHook@@U?$default_delete@VVMTHook@@@std@@@std@@QAE@PAVVMTHook@@@Z 100729e4     c_hooks.obj
 0002:0000a9e4       __ehfuncinfo$??$?0PAIU?$default_delete@$$BY0A@I@std@@$0A@X@?$unique_ptr@$$BY0A@IU?$default_delete@$$BY0A@I@std@@@std@@QAE@PAI@Z 100729e4     c_hooks.obj
 0002:0000a9e4       __ehfuncinfo$??$_Freenode0@V?$allocator@U?$_List_node@U?$pair@$$CBV?$basic_string@DU?$char_traits@D@std@@V?$allocator@D@2@@std@@V?$shared_ptr@UNode@NetvarTree@@@2@@std@@PAX@std@@@std@@@?$_List_node@U?$pair@$$CBV?$basic_string@DU?$char_traits@D@std@@V?$allocator@D@2@@std@@V?$shared_ptr@UNode@NetvarTree@@@2@@std@@PAX@std@@SAXAAV?$allocator@U?$_List_node@U?$pair@$$CBV?$basic_string@DU?$char_traits@D@std@@V?$allocator@D@2@@std@@V?$shared_ptr@UNode@NetvarTree@@@2@@std@@PAX@std@@@1@PAU01@@Z 100729e4     c_hooks.obj
 0002:0000a9e4       __ehfuncinfo$??1?$ImVector@UImGuiStyleMod@@@@QAE@XZ 100729e4     imgui.obj
 0002:0000a9e4       __ehfuncinfo$??1?$ImVector@UImGuiPopupRef@@@@QAE@XZ 100729e4     imgui.obj
 0002:0000a9e4       __ehfuncinfo$?_Make_iter@?$list@U?$pair@$$CBV?$basic_string@DU?$char_traits@D@std@@V?$allocator@D@2@@std@@V?$shared_ptr@UNode@NetvarTree@@@2@@std@@V?$allocator@U?$pair@$$CBV?$basic_string@DU?$char_traits@D@std@@V?$allocator@D@2@@std@@V?$shared_ptr@UNode@NetvarTree@@@2@@std@@@2@@std@@QBE?AV?$_List_iterator@V?$_List_val@U?$_List_simple_types@U?$pair@$$CBV?$basic_string@DU?$char_traits@D@std@@V?$allocator@D@2@@std@@V?$shared_ptr@UNode@NetvarTree@@@2@@std@@@std@@@std@@@2@V?$_List_const_iterator@V?$_List_val@U?$_List_simple_types@U?$pair@$$CBV?$basic_string@DU?$char_traits@D@std@@V?$allocator@D@2@@std@@V?$shared_ptr@UNode@NetvarTree@@@2@@std@@@std@@@std@@@2@@Z 100729e4     c_ragebot.obj
 0002:0000a9e4       __ehfuncinfo$??1?$ImVector@UImFontConfig@@@@QAE@XZ 100729e4     imgui_draw.obj
 0002:0000a9e4       __ehfuncinfo$??1?$ImVector@D@@QAE@XZ 100729e4     imgui.obj
 0002:0000a9e4       __ehfuncinfo$??1?$ImVector@UImVec4@@@@QAE@XZ 100729e4     imgui.obj
 0002:0000a9e4       __ehfuncinfo$??1?$ImVector@PAX@@QAE@XZ 100729e4     imgui.obj
 0002:0000a9e4       __ehfuncinfo$??1?$ImVector@PAUImDrawList@@@@QAE@XZ 100729e4     imgui.obj
 0002:0000a9e4       __ehfuncinfo$??1?$ImVector@UImVec2@@@@QAE@XZ 100729e4     imgui.obj
 0002:0000a9e4       __ehfuncinfo$?end@?$list@U?$pair@$$CBV?$basic_string@DU?$char_traits@D@std@@V?$allocator@D@2@@std@@V?$shared_ptr@UNode@NetvarTree@@@2@@std@@V?$allocator@U?$pair@$$CBV?$basic_string@DU?$char_traits@D@std@@V?$allocator@D@2@@std@@V?$shared_ptr@UNode@NetvarTree@@@2@@std@@@2@@std@@QAE?AV?$_List_iterator@V?$_List_val@U?$_List_simple_types@U?$pair@$$CBV?$basic_string@DU?$char_traits@D@std@@V?$allocator@D@2@@std@@V?$shared_ptr@UNode@NetvarTree@@@2@@std@@@std@@@std@@@2@XZ 100729e4     c_ragebot.obj
 0002:0000a9e4       __ehfuncinfo$?begin@?$list@U?$pair@$$CBV?$basic_string@DU?$char_traits@D@std@@V?$allocator@D@2@@std@@V?$shared_ptr@UNode@NetvarTree@@@2@@std@@V?$allocator@U?$pair@$$CBV?$basic_string@DU?$char_traits@D@std@@V?$allocator@D@2@@std@@V?$shared_ptr@UNode@NetvarTree@@@2@@std@@@2@@std@@QAE?AV?$_List_iterator@V?$_List_val@U?$_List_simple_types@U?$pair@$$CBV?$basic_string@DU?$char_traits@D@std@@V?$allocator@D@2@@std@@V?$shared_ptr@UNode@NetvarTree@@@2@@std@@@std@@@std@@@2@XZ 100729e4     c_ragebot.obj
 0002:0000a9e4       __ehfuncinfo$??1?$_Deque_alloc@U?$_Deque_base_types@UPlayerRecords@@V?$allocator@UPlayerRecords@@@std@@@std@@@std@@QAE@XZ 100729e4     LagComp.obj
 0002:0000a9e4       __ehfuncinfo$??$?0U?$default_delete@V_Facet_base@std@@@std@@$0A@@?$unique_ptr@V_Facet_base@std@@U?$default_delete@V_Facet_base@std@@@2@@std@@QAE@PAV_Facet_base@1@@Z 100729e4     config_system.obj
 0002:0000a9e4       __ehfuncinfo$?_Equal@?$basic_string@DU?$char_traits@D@std@@V?$allocator@D@2@@std@@QBE_NABV12@@Z 100729e4     c_ragebot.obj
 0002:0000a9e4       __ehfuncinfo$?c_str@?$basic_string@DU?$char_traits@D@std@@V?$allocator@D@2@@std@@QBEPBDXZ 100729e4     c_ragebot.obj
 0002:0000a9e4       __ehfuncinfo$?_Assign_rv_contents_with_alloc_always_equal@?$basic_string@DU?$char_traits@D@std@@V?$allocator@D@2@@std@@QAEX$$QAV12@U?$integral_constant@_N$00@2@@Z 100729e4     c_ragebot.obj
 0002:0000a9e4       __ehfuncinfo$??0?$basic_string@DU?$char_traits@D@std@@V?$allocator@D@2@@std@@QAE@$$QAV01@@Z 100729e4     c_ragebot.obj
 0002:0000a9e4       __ehfuncinfo$??1_Sentry_base@?$basic_ostream@DU?$char_traits@D@std@@@std@@QAE@XZ 100729e4     Interfaces.obj
 0002:0000a9e4       __ehfuncinfo$??1?$ImVector@UGlyph@ImFont@@@@QAE@XZ 100729e4     imgui_draw.obj
 0002:0000a9e4       __ehfuncinfo$??1ImFont@@QAE@XZ 100729e4     imgui_draw.obj
 0002:0000a9e4       __ehfuncinfo$??1ImGuiContext@@QAE@XZ 100729e4     imgui.obj
 0002:0000a9e4       __ehfuncinfo$??1?$ImVector@UImDrawCmd@@@@QAE@XZ 100729e4     imgui.obj
 0002:0000a9e4       __ehfuncinfo$??$?5U<unnamed-type-cfg>@c_config@@@?$ArchiveX@V?$basic_ifstream@DU?$char_traits@D@std@@@std@@@@QBEABV0@AAU<unnamed-type-cfg>@c_config@@@Z 100729e4     config_system.obj
 0002:0000a9e4       __ehfuncinfo$??1sentry@?$basic_ostream@DU?$char_traits@D@std@@@std@@QAE@XZ 100729e4     Interfaces.obj
 0002:0000a9e4       __ehfuncinfo$??1?$ImVector@UImGuiGroupData@@@@QAE@XZ 100729e4     imgui.obj
 0002:0000a9e4       __ehfuncinfo$??1?$ImVector@UImGuiColumnData@@@@QAE@XZ 100729e4     imgui.obj
 0002:0000a9e4       __ehfuncinfo$?begin@?$deque@UPlayerRecords@@V?$allocator@UPlayerRecords@@@std@@@std@@QAE?AV?$_Deque_iterator@V?$_Deque_val@U?$_Deque_simple_types@UPlayerRecords@@@std@@@std@@@2@XZ 100729e4     c_ragebot.obj
 0002:0000a9e4       __ehfuncinfo$??1ShadowVTManager@@QAE@XZ 100729e4     c_hooks.obj
 0002:0000a9e4       __ehfuncinfo$??$?0U?$default_delete@$$BY0A@I@std@@$0A@@?$unique_ptr@$$BY0A@IU?$default_delete@$$BY0A@I@std@@@std@@QAE@$$T@Z 100729e4     c_hooks.obj
 0002:0000a9e4       __ehfuncinfo$??1?$ImVector@UImDrawChannel@@@@QAE@XZ 100729e4     imgui.obj
 0002:0000a9e4       __ehfuncinfo$?end@?$vector@V?$basic_string@DU?$char_traits@D@std@@V?$allocator@D@2@@std@@V?$allocator@V?$basic_string@DU?$char_traits@D@std@@V?$allocator@D@2@@std@@@2@@std@@QBE?AV?$_Vector_const_iterator@V?$_Vector_val@U?$_Simple_types@V?$basic_string@DU?$char_traits@D@std@@V?$allocator@D@2@@std@@@std@@@std@@@2@XZ 100729e4     config_system.obj
 0002:0000a9e4       __ehfuncinfo$??1?$unique_ptr@$$BY0A@IU?$default_delete@$$BY0A@I@std@@@std@@QAE@XZ 100729e4     c_hooks.obj
 0002:0000a9e4       __ehfuncinfo$??0?$vector@HV?$allocator@H@std@@@std@@QAE@XZ 100729e4     c_ragebot.obj
 0002:0000a9e4       __ehfuncinfo$??0?$vector@V?$_List_unchecked_iterator@V?$_List_val@U?$_List_simple_types@U?$pair@$$CBV?$basic_string@DU?$char_traits@D@std@@V?$allocator@D@2@@std@@V?$shared_ptr@UNode@NetvarTree@@@2@@std@@@std@@@std@@@std@@V?$allocator@V?$_List_unchecked_iterator@V?$_List_val@U?$_List_simple_types@U?$pair@$$CBV?$basic_string@DU?$char_traits@D@std@@V?$allocator@D@2@@std@@V?$shared_ptr@UNode@NetvarTree@@@2@@std@@@std@@@std@@@std@@@2@@std@@QAE@ABV?$allocator@V?$_List_unchecked_iterator@V?$_List_val@U?$_List_simple_types@U?$pair@$$CBV?$basic_string@DU?$char_traits@D@std@@V?$allocator@D@2@@std@@V?$shared_ptr@UNode@NetvarTree@@@2@@std@@@std@@@std@@@std@@@1@@Z 100729e4     NetvarManager.obj
 0002:0000a9e4       __ehfuncinfo$??1c_hooks@@QAE@XZ 100729e4     c_hooks.obj
 0002:0000a9e4       __ehfuncinfo$??0c_hooks@@QAE@XZ 100729e4     c_hooks.obj
 0002:0000a9e4       __ehfuncinfo$??$?0U?$default_delete@VShadowVTManager@@@std@@$0A@@?$unique_ptr@VShadowVTManager@@U?$default_delete@VShadowVTManager@@@std@@@std@@QAE@XZ 100729e4     c_hooks.obj
 0002:0000a9e4       __ehfuncinfo$??$?0U?$default_delete@VVMTHook@@@std@@$0A@@?$unique_ptr@VVMTHook@@U?$default_delete@VVMTHook@@@std@@@std@@QAE@XZ 100729e4     c_hooks.obj
 0002:0000a9e4       __ehfuncinfo$?is_absolute@path@filesystem@std@@QBE_NXZ 100729e4     config_system.obj
 0002:0000a9e4       __ehfuncinfo$?remove_filename@path@filesystem@std@@QAEAAV123@XZ 100729e4     config_system.obj
 0002:0000a9e4       __ehfuncinfo$??0_Find_file_handle@filesystem@std@@QAE@$$QAU012@@Z 100729e4     config_system.obj
 0002:0000a9e4       __ehfuncinfo$??0?$shared_ptr@UNode@NetvarTree@@@std@@QAE@ABV01@@Z 100729e4     NetvarManager.obj
 0002:0000a9e4       __ehfuncinfo$??1?$shared_ptr@UNode@NetvarTree@@@std@@QAE@XZ 100729e4     c_hooks.obj
 0002:0000a9e4       __ehfuncinfo$?begin@?$vector@V?$basic_string@DU?$char_traits@D@std@@V?$allocator@D@2@@std@@V?$allocator@V?$basic_string@DU?$char_traits@D@std@@V?$allocator@D@2@@std@@@2@@std@@QBE?AV?$_Vector_const_iterator@V?$_Vector_val@U?$_Simple_types@V?$basic_string@DU?$char_traits@D@std@@V?$allocator@D@2@@std@@@std@@@std@@@2@XZ 100729e4     config_system.obj
 0002:0000a9e4       __ehfuncinfo$??$?0U?$default_delete@VNetvarTree@@@std@@$0A@@?$unique_ptr@VNetvarTree@@U?$default_delete@VNetvarTree@@@std@@@std@@QAE@XZ 100729e4     NetvarManager.obj
 0002:0000a9e4       __ehfuncinfo$??1?$vector@V?$basic_string@DU?$char_traits@D@std@@V?$allocator@D@2@@std@@V?$allocator@V?$basic_string@DU?$char_traits@D@std@@V?$allocator@D@2@@std@@@2@@std@@QAE@XZ 100729e4     config_system.obj
 0002:0000a9e4       __ehfuncinfo$??0?$vector@V?$basic_string@DU?$char_traits@D@std@@V?$allocator@D@2@@std@@V?$allocator@V?$basic_string@DU?$char_traits@D@std@@V?$allocator@D@2@@std@@@2@@std@@QAE@XZ 100729e4     config_system.obj
 0002:0000a9e4       __ehfuncinfo$?rename@c_config@@QAEXIPBD@Z 100729e4     config_system.obj
 0002:0000a9e4       __ehfuncinfo$?remove@c_config@@QAEXI@Z 100729e4     config_system.obj
 0002:0000a9e4       __ehfuncinfo$?add@c_config@@QAEXPBD@Z 100729e4     config_system.obj
 0002:0000a9e4       __ehfuncinfo$?save@c_config@@QBEXI@Z 100729e4     config_system.obj
 0002:0000a9e4       __ehfuncinfo$?default_error_condition@_System_error_category@std@@UBE?AVerror_condition@2@H@Z 100729e4     config_system.obj
 0002:0000a9e4       __ehfuncinfo$?load@c_config@@QAEXI@Z 100729e4     config_system.obj
 0002:0000a9e4       __ehfuncinfo$?run@c_config@@QAEXPBD@Z 100729e4     config_system.obj
 0002:0000a9e4       __ehfuncinfo$??0?$basic_string@_WU?$char_traits@_W@std@@V?$allocator@_W@2@@std@@QAE@XZ 100729e4     config_system.obj
 0002:0000a9e4       __ehfuncinfo$??0?$basic_string@_WU?$char_traits@_W@std@@V?$allocator@_W@2@@std@@QAE@$$QAV01@@Z 100729e4     config_system.obj
 0002:0000a9e4       __ehfuncinfo$??4?$basic_string@_WU?$char_traits@_W@std@@V?$allocator@_W@2@@std@@QAEAAV01@$$QAV01@@Z 100729e4     config_system.obj
 0002:0000a9e4       __ehfuncinfo$??1?$vector@V?$_List_unchecked_iterator@V?$_List_val@U?$_List_simple_types@U?$pair@$$CBV?$basic_string@DU?$char_traits@D@std@@V?$allocator@D@2@@std@@V?$shared_ptr@UNode@NetvarTree@@@2@@std@@@std@@@std@@@std@@V?$allocator@V?$_List_unchecked_iterator@V?$_List_val@U?$_List_simple_types@U?$pair@$$CBV?$basic_string@DU?$char_traits@D@std@@V?$allocator@D@2@@std@@V?$shared_ptr@UNode@NetvarTree@@@2@@std@@@std@@@std@@@std@@@2@@std@@QAE@XZ 100729e4     c_hooks.obj
 0002:0000a9e4       __ehfuncinfo$?clear@?$list@U?$pair@$$CBV?$basic_string@DU?$char_traits@D@std@@V?$allocator@D@2@@std@@V?$shared_ptr@UNode@NetvarTree@@@2@@std@@V?$allocator@U?$pair@$$CBV?$basic_string@DU?$char_traits@D@std@@V?$allocator@D@2@@std@@V?$shared_ptr@UNode@NetvarTree@@@2@@std@@@2@@std@@QAEXXZ 100729e4     c_hooks.obj
 0002:0000a9e4       __ehfuncinfo$??1?$list@U?$pair@$$CBV?$basic_string@DU?$char_traits@D@std@@V?$allocator@D@2@@std@@V?$shared_ptr@UNode@NetvarTree@@@2@@std@@V?$allocator@U?$pair@$$CBV?$basic_string@DU?$char_traits@D@std@@V?$allocator@D@2@@std@@V?$shared_ptr@UNode@NetvarTree@@@2@@std@@@2@@std@@QAE@XZ 100729e4     c_hooks.obj
 0002:0000a9e4       __ehfuncinfo$??1?$_List_alloc@U?$_List_base_types@U?$pair@$$CBV?$basic_string@DU?$char_traits@D@std@@V?$allocator@D@2@@std@@V?$shared_ptr@UNode@NetvarTree@@@2@@std@@V?$allocator@U?$pair@$$CBV?$basic_string@DU?$char_traits@D@std@@V?$allocator@D@2@@std@@V?$shared_ptr@UNode@NetvarTree@@@2@@std@@@2@@std@@@std@@QAE@XZ 100729e4     c_hooks.obj
 0002:0000a9e4       __ehfuncinfo$??1?$basic_string@DU?$char_traits@D@std@@V?$allocator@D@2@@std@@QAE@XZ 100729e4     c_hooks.obj
 0002:0000a9e4       __ehfuncinfo$??$?6U<unnamed-type-cfg>@c_config@@@?$ArchiveX@V?$basic_ofstream@DU?$char_traits@D@std@@@std@@@@QBEABV0@ABU<unnamed-type-cfg>@c_config@@@Z 100729e4     config_system.obj
 0002:0000a9e4       __ehfuncinfo$??1?$ImVector@_N@@QAE@XZ 100729e4     imgui.obj
 0002:0000a9e4       __ehfuncinfo$??1ImFontAtlas@@QAE@XZ 100729e4     imgui_draw.obj
 0002:0000a9e4       __ehfuncinfo$??1ImDrawList@@QAE@XZ 100729e4     imgui.obj
 0002:0000a9e4       __ehfuncinfo$??1?$ImVector@I@@QAE@XZ 100729e4     imgui.obj
 0002:0000a9e4       __ehfuncinfo$??1?$ImVector@PAUImFont@@@@QAE@XZ 100729e4     imgui.obj
 0002:0000a9e4       __ehfuncinfo$??1?$vector@HV?$allocator@H@std@@@std@@QAE@XZ 100729e4     c_ragebot.obj
 0002:0000a9e4       __ehfuncinfo$??1?$ImVector@M@@QAE@XZ 100729e4     imgui.obj
 0002:0000a9e4       __ehfuncinfo$??1?$ImVector@UImGuiColMod@@@@QAE@XZ 100729e4     imgui.obj
 0002:0000a9e4       __ehfuncinfo$??1LagComp@@QAE@XZ 100729e4     LagComp.obj
 0002:0000a9e4       __ehfuncinfo$??$?0V?$basic_string@DU?$char_traits@D@std@@V?$allocator@D@2@@std@@$$V$0A@@?$tuple@$$QAV?$basic_string@DU?$char_traits@D@std@@V?$allocator@D@2@@std@@@std@@QAE@$$QAV?$basic_string@DU?$char_traits@D@std@@V?$allocator@D@2@@1@@Z 100729e4     c_ragebot.obj
 0002:0000a9e4       __ehfuncinfo$?_Destroy@?$_Ref_count_obj@U_Dir_enum_impl@filesystem@std@@@std@@EAEXXZ 100729e4     config_system.obj
 0002:0000a9e4       __ehfuncinfo$??4?$basic_string@DU?$char_traits@D@std@@V?$allocator@D@2@@std@@QAEAAV01@$$QAV01@@Z 100729e4     imgui.obj
 0002:0000a9e4       __ehfuncinfo$??1?$ImVector@G@@QAE@XZ 100729e4     imgui.obj
 0002:0000a9e4       __ehfuncinfo$?end@?$deque@UPlayerRecords@@V?$allocator@UPlayerRecords@@@std@@@std@@QAE?AV?$_Deque_iterator@V?$_Deque_val@U?$_Deque_simple_types@UPlayerRecords@@@std@@@std@@@2@XZ 100729e4     LagComp.obj
 0002:0000a9e4       __ehfuncinfo$??1?$ImVector@Ustbrp_rect@@@@QAE@XZ 100729e4     imgui_draw.obj
 0002:0000a9e4       __ehfuncinfo$??1?$deque@UPlayerRecords@@V?$allocator@UPlayerRecords@@@std@@@std@@QAE@XZ 100729e4     LagComp.obj
 0002:0000a9e4       __ehfuncinfo$??1?$ImVector@PAUImGuiWindow@@@@QAE@XZ 100729e4     imgui.obj
 0002:0000a9e4       __ehfuncinfo$?system_category@std@@YAABVerror_category@1@XZ 100729e4     config_system.obj
 0002:0000a9e4       __ehfuncinfo$?_Assign_rv_contents_with_alloc_always_equal@?$basic_string@_WU?$char_traits@_W@std@@V?$allocator@_W@2@@std@@QAEX$$QAV12@U?$integral_constant@_N$00@2@@Z 100729e4     config_system.obj
 0002:0000a9e4       __ehfuncinfo$??1?$basic_string@_WU?$char_traits@_W@std@@V?$allocator@_W@2@@std@@QAE@XZ 100729e4     config_system.obj
 0002:0000a9e4       __ehfuncinfo$??B?$basic_string@_WU?$char_traits@_W@std@@V?$allocator@_W@2@@std@@QBE?AV?$basic_string_view@_WU?$char_traits@_W@std@@@1@XZ 100729e4     config_system.obj
 0002:0000a9e4       __ehfuncinfo$?c_str@?$basic_string@_WU?$char_traits@_W@std@@V?$allocator@_W@2@@std@@QBEPB_WXZ 100729e4     config_system.obj
 0002:0000a9e4       __ehfuncinfo$??1?$_Deque_alloc@U?$_Deque_base_types@ULegitPlayerRecords@@V?$allocator@ULegitPlayerRecords@@@std@@@std@@@std@@QAE@XZ 100729e4     Legitbot.obj
 0002:0000a9e4       __ehfuncinfo$??1?$deque@ULegitPlayerRecords@@V?$allocator@ULegitPlayerRecords@@@std@@@std@@QAE@XZ 100729e4     Legitbot.obj
 0002:0000a9e4       __ehfuncinfo$?begin@?$deque@ULegitPlayerRecords@@V?$allocator@ULegitPlayerRecords@@@std@@@std@@QAE?AV?$_Deque_iterator@V?$_Deque_val@U?$_Deque_simple_types@ULegitPlayerRecords@@@std@@@std@@@2@XZ 100729e4     Legitbot.obj
 0002:0000a9e4       __ehfuncinfo$?end@?$deque@ULegitPlayerRecords@@V?$allocator@ULegitPlayerRecords@@@std@@@std@@QAE?AV?$_Deque_iterator@V?$_Deque_val@U?$_Deque_simple_types@ULegitPlayerRecords@@@std@@@std@@@2@XZ 100729e4     Legitbot.obj
 0002:0000a9e4       __ehfuncinfo$??1Legitbot@@QAE@XZ 100729e4     Legitbot.obj
 0002:0000a9e4       __ehfuncinfo$??1?$shared_ptr@U_Dir_enum_impl@filesystem@std@@@std@@QAE@XZ 100729e4     config_system.obj
 0002:0000a9e4       __ehfuncinfo$??0?$shared_ptr@U_Dir_enum_impl@filesystem@std@@@std@@QAE@$$QAV01@@Z 100729e4     config_system.obj
 0002:0000a9e4       __ehfuncinfo$??0?$shared_ptr@U_Dir_enum_impl@filesystem@std@@@std@@QAE@ABV01@@Z 100729e4     config_system.obj
 0002:0000a9e4       __ehfuncinfo$?_Skip_dots@_Dir_enum_impl@filesystem@std@@SA?AW4__std_win_error@@W4__std_fs_dir_handle@@AAU__std_fs_find_data@@@Z 100729e4     config_system.obj
 0002:0000a9e4       __ehfuncinfo$??1?$basic_filebuf@DU?$char_traits@D@std@@@std@@UAE@XZ 100729e4     config_system.obj
 0002:0000a9e4       __ehfuncinfo$??1?$_Uninitialized_backout_al@PAV?$basic_string@DU?$char_traits@D@std@@V?$allocator@D@2@@std@@V?$allocator@V?$basic_string@DU?$char_traits@D@std@@V?$allocator@D@2@@std@@@2@@std@@QAE@XZ 100729e4     config_system.obj
 0002:0000a9e4       __ehfuncinfo$??1?$ImVector@UImGuiIniData@@@@QAE@XZ 100729e4     imgui.obj
 0002:0000a9e4       __ehfuncinfo$??1?$_Uninitialized_backout_al@PAV?$_List_unchecked_iterator@V?$_List_val@U?$_List_simple_types@U?$pair@$$CBV?$basic_string@DU?$char_traits@D@std@@V?$allocator@D@2@@std@@V?$shared_ptr@UNode@NetvarTree@@@2@@std@@@std@@@std@@@std@@V?$allocator@V?$_List_unchecked_iterator@V?$_List_val@U?$_List_simple_types@U?$pair@$$CBV?$basic_string@DU?$char_traits@D@std@@V?$allocator@D@2@@std@@V?$shared_ptr@UNode@NetvarTree@@@2@@std@@@std@@@std@@@std@@@2@@std@@QAE@XZ 100729e4     c_ragebot.obj
 0002:0000a9e4       __ehfuncinfo$?find@?$basic_string@DU?$char_traits@D@std@@V?$allocator@D@2@@std@@QBEIQBDI@Z 100729e4     c_esp.obj
 0002:0000a9e4       __ehfuncinfo$?end@?$basic_string@DU?$char_traits@D@std@@V?$allocator@D@2@@std@@QAE?AV?$_String_iterator@V?$_String_val@U?$_Simple_types@D@std@@@std@@@2@XZ 100729e4     c_esp.obj
 0002:0000a9e4       __ehfuncinfo$?begin@?$basic_string@DU?$char_traits@D@std@@V?$allocator@D@2@@std@@QAE?AV?$_String_iterator@V?$_String_val@U?$_Simple_types@D@std@@@std@@@2@XZ 100729e4     c_esp.obj
 0002:0000a9e4       __ehfuncinfo$?_Destroy@?$_Ref_count_obj@UNode@NetvarTree@@@std@@EAEXXZ 100729e4     NetvarManager.obj
 0002:0000a9e4       __ehfuncinfo$?__scrt_initialize_thread_safe_statics_platform_specific@@YAXXZ 100729e4     MSVCRT:thread_safe_statics.obj
 0002:0000a9e4       __ehfuncinfo$?data@?$basic_string@_WU?$char_traits@_W@std@@V?$allocator@_W@2@@std@@QBEPB_WXZ 100729e4     config_system.obj
 0002:0000a9e4       __ehfuncinfo$?data@?$basic_string@_WU?$char_traits@_W@std@@V?$allocator@_W@2@@std@@QAEPA_WXZ 100729e4     config_system.obj
 0002:0000a9e4       __ehfuncinfo$??0?$shared_ptr@UNode@NetvarTree@@@std@@QAE@$$QAV01@@Z 100729e4     NetvarManager.obj
 0002:0000aa08       __unwindtable$?Init@c_hooks@@SAXXZ 10072a08     c_hooks.obj
 0002:0000aa10       __ehfuncinfo$?Init@c_hooks@@SAXXZ 10072a10     c_hooks.obj
 0002:0000aa34       __unwindtable$?Restore@c_hooks@@SAXXZ 10072a34     c_hooks.obj
 0002:0000aa44       __ehfuncinfo$?Restore@c_hooks@@SAXXZ 10072a44     c_hooks.obj
 0002:0000aa68       __unwindtable$??0VMTHook@@QAE@PAX@Z 10072a68     c_hooks.obj
 0002:0000aa70       __ehfuncinfo$??0VMTHook@@QAE@PAX@Z 10072a70     c_hooks.obj
 0002:0000aa94       __catchsym$?RestoreTable@ShadowVTManager@@QAEXXZ$3 10072a94     c_hooks.obj
 0002:0000aaa4       __unwindtable$?RestoreTable@ShadowVTManager@@QAEXXZ 10072aa4     c_hooks.obj
 0002:0000aab4       __tryblocktable$?RestoreTable@ShadowVTManager@@QAEXXZ 10072ab4     c_hooks.obj
 0002:0000aac8       __ehfuncinfo$?RestoreTable@ShadowVTManager@@QAEXXZ 10072ac8     c_hooks.obj
 0002:0000aaec       __unwindtable$??$make_unique@VVMTHook@@PAPAK$0A@@std@@YA?AV?$unique_ptr@VVMTHook@@U?$default_delete@VVMTHook@@@std@@@0@$$QAPAPAK@Z 10072aec     c_hooks.obj
 0002:0000aaec       __unwindtable$??$make_unique@VVMTHook@@AAPAVIBaseClientDLL@@$0A@@std@@YA?AV?$unique_ptr@VVMTHook@@U?$default_delete@VVMTHook@@@std@@@0@AAPAVIBaseClientDLL@@@Z 10072aec     c_hooks.obj
 0002:0000aaec       __unwindtable$??$make_unique@VVMTHook@@AAPAVIVRenderView@@$0A@@std@@YA?AV?$unique_ptr@VVMTHook@@U?$default_delete@VVMTHook@@@std@@@0@AAPAVIVRenderView@@@Z 10072aec     c_hooks.obj
 0002:0000aaec       __unwindtable$??$make_unique@VVMTHook@@AAPAVIClientMode@@$0A@@std@@YA?AV?$unique_ptr@VVMTHook@@U?$default_delete@VVMTHook@@@std@@@0@AAPAVIClientMode@@@Z 10072aec     c_hooks.obj
 0002:0000aaec       __unwindtable$??$make_unique@VVMTHook@@AAPAVCModelRender@@$0A@@std@@YA?AV?$unique_ptr@VVMTHook@@U?$default_delete@VVMTHook@@@std@@@0@AAPAVCModelRender@@@Z 10072aec     c_hooks.obj
 0002:0000aaec       __unwindtable$??$make_unique@VVMTHook@@AAPAVISurface@@$0A@@std@@YA?AV?$unique_ptr@VVMTHook@@U?$default_delete@VVMTHook@@@std@@@0@AAPAVISurface@@@Z 10072aec     c_hooks.obj
 0002:0000aaec       __unwindtable$??$make_unique@VVMTHook@@AAPAVIPanel@@$0A@@std@@YA?AV?$unique_ptr@VVMTHook@@U?$default_delete@VVMTHook@@@std@@@0@AAPAVIPanel@@@Z 10072aec     c_hooks.obj
 0002:0000aaf4       __ehfuncinfo$??$make_unique@VVMTHook@@AAPAVIPanel@@$0A@@std@@YA?AV?$unique_ptr@VVMTHook@@U?$default_delete@VVMTHook@@@std@@@0@AAPAVIPanel@@@Z 10072af4     c_hooks.obj
 0002:0000aaf4       __ehfuncinfo$??$make_unique@VVMTHook@@AAPAVIBaseClientDLL@@$0A@@std@@YA?AV?$unique_ptr@VVMTHook@@U?$default_delete@VVMTHook@@@std@@@0@AAPAVIBaseClientDLL@@@Z 10072af4     c_hooks.obj
 0002:0000aaf4       __ehfuncinfo$??$make_unique@VVMTHook@@PAPAK$0A@@std@@YA?AV?$unique_ptr@VVMTHook@@U?$default_delete@VVMTHook@@@std@@@0@$$QAPAPAK@Z 10072af4     c_hooks.obj
 0002:0000aaf4       __ehfuncinfo$??$make_unique@VVMTHook@@AAPAVCModelRender@@$0A@@std@@YA?AV?$unique_ptr@VVMTHook@@U?$default_delete@VVMTHook@@@std@@@0@AAPAVCModelRender@@@Z 10072af4     c_hooks.obj
 0002:0000aaf4       __ehfuncinfo$??$make_unique@VVMTHook@@AAPAVISurface@@$0A@@std@@YA?AV?$unique_ptr@VVMTHook@@U?$default_delete@VVMTHook@@@std@@@0@AAPAVISurface@@@Z 10072af4     c_hooks.obj
 0002:0000aaf4       __ehfuncinfo$??$make_unique@VVMTHook@@AAPAVIVRenderView@@$0A@@std@@YA?AV?$unique_ptr@VVMTHook@@U?$default_delete@VVMTHook@@@std@@@0@AAPAVIVRenderView@@@Z 10072af4     c_hooks.obj
 0002:0000aaf4       __ehfuncinfo$??$make_unique@VVMTHook@@AAPAVIClientMode@@$0A@@std@@YA?AV?$unique_ptr@VVMTHook@@U?$default_delete@VVMTHook@@@std@@@0@AAPAVIClientMode@@@Z 10072af4     c_hooks.obj
 0002:0000ab18       __unwindtable$??$make_unique@VNetvarTree@@$$V$0A@@std@@YA?AV?$unique_ptr@VNetvarTree@@U?$default_delete@VNetvarTree@@@std@@@0@XZ 10072b18     c_hooks.obj
 0002:0000ab20       __ehfuncinfo$??$make_unique@VNetvarTree@@$$V$0A@@std@@YA?AV?$unique_ptr@VNetvarTree@@U?$default_delete@VNetvarTree@@@std@@@0@XZ 10072b20     c_hooks.obj
 0002:0000ab98       __catchsym$?attach@@YGKPAX@Z$2 10072b98     dll_main.obj
 0002:0000aba8       __unwindtable$?attach@@YGKPAX@Z 10072ba8     dll_main.obj
 0002:0000abb8       __tryblocktable$?attach@@YGKPAX@Z 10072bb8     dll_main.obj
 0002:0000abcc       __ehfuncinfo$?attach@@YGKPAX@Z 10072bcc     dll_main.obj
 0002:0000abf0       __catchsym$?_Buynode0@?$_List_alloc@U?$_List_base_types@U?$pair@$$CBV?$basic_string@DU?$char_traits@D@std@@V?$allocator@D@2@@std@@V?$shared_ptr@UNode@NetvarTree@@@2@@std@@V?$allocator@U?$pair@$$CBV?$basic_string@DU?$char_traits@D@std@@V?$allocator@D@2@@std@@V?$shared_ptr@UNode@NetvarTree@@@2@@std@@@2@@std@@@std@@QAEPAU?$_List_node@U?$pair@$$CBV?$basic_string@DU?$char_traits@D@std@@V?$allocator@D@2@@std@@V?$shared_ptr@UNode@NetvarTree@@@2@@std@@PAX@2@PAU32@0@Z$2 10072bf0     c_ragebot.obj
 0002:0000ac00       __unwindtable$?_Buynode0@?$_List_alloc@U?$_List_base_types@U?$pair@$$CBV?$basic_string@DU?$char_traits@D@std@@V?$allocator@D@2@@std@@V?$shared_ptr@UNode@NetvarTree@@@2@@std@@V?$allocator@U?$pair@$$CBV?$basic_string@DU?$char_traits@D@std@@V?$allocator@D@2@@std@@V?$shared_ptr@UNode@NetvarTree@@@2@@std@@@2@@std@@@std@@QAEPAU?$_List_node@U?$pair@$$CBV?$basic_string@DU?$char_traits@D@std@@V?$allocator@D@2@@std@@V?$shared_ptr@UNode@NetvarTree@@@2@@std@@PAX@2@PAU32@0@Z 10072c00     c_ragebot.obj
 0002:0000ac10       __tryblocktable$?_Buynode0@?$_List_alloc@U?$_List_base_types@U?$pair@$$CBV?$basic_string@DU?$char_traits@D@std@@V?$allocator@D@2@@std@@V?$shared_ptr@UNode@NetvarTree@@@2@@std@@V?$allocator@U?$pair@$$CBV?$basic_string@DU?$char_traits@D@std@@V?$allocator@D@2@@std@@V?$shared_ptr@UNode@NetvarTree@@@2@@std@@@2@@std@@@std@@QAEPAU?$_List_node@U?$pair@$$CBV?$basic_string@DU?$char_traits@D@std@@V?$allocator@D@2@@std@@V?$shared_ptr@UNode@NetvarTree@@@2@@std@@PAX@2@PAU32@0@Z 10072c10     c_ragebot.obj
 0002:0000ac24       __ehfuncinfo$?_Buynode0@?$_List_alloc@U?$_List_base_types@U?$pair@$$CBV?$basic_string@DU?$char_traits@D@std@@V?$allocator@D@2@@std@@V?$shared_ptr@UNode@NetvarTree@@@2@@std@@V?$allocator@U?$pair@$$CBV?$basic_string@DU?$char_traits@D@std@@V?$allocator@D@2@@std@@V?$shared_ptr@UNode@NetvarTree@@@2@@std@@@2@@std@@@std@@QAEPAU?$_List_node@U?$pair@$$CBV?$basic_string@DU?$char_traits@D@std@@V?$allocator@D@2@@std@@V?$shared_ptr@UNode@NetvarTree@@@2@@std@@PAX@2@PAU32@0@Z 10072c24     c_ragebot.obj
 0002:0000ac48       __catchsym$?_Reallocate_exactly@?$vector@V?$_List_unchecked_iterator@V?$_List_val@U?$_List_simple_types@U?$pair@$$CBV?$basic_string@DU?$char_traits@D@std@@V?$allocator@D@2@@std@@V?$shared_ptr@UNode@NetvarTree@@@2@@std@@@std@@@std@@@std@@V?$allocator@V?$_List_unchecked_iterator@V?$_List_val@U?$_List_simple_types@U?$pair@$$CBV?$basic_string@DU?$char_traits@D@std@@V?$allocator@D@2@@std@@V?$shared_ptr@UNode@NetvarTree@@@2@@std@@@std@@@std@@@std@@@2@@std@@AAEXI@Z$2 10072c48     c_ragebot.obj
 0002:0000ac58       __unwindtable$?_Reallocate_exactly@?$vector@V?$_List_unchecked_iterator@V?$_List_val@U?$_List_simple_types@U?$pair@$$CBV?$basic_string@DU?$char_traits@D@std@@V?$allocator@D@2@@std@@V?$shared_ptr@UNode@NetvarTree@@@2@@std@@@std@@@std@@@std@@V?$allocator@V?$_List_unchecked_iterator@V?$_List_val@U?$_List_simple_types@U?$pair@$$CBV?$basic_string@DU?$char_traits@D@std@@V?$allocator@D@2@@std@@V?$shared_ptr@UNode@NetvarTree@@@2@@std@@@std@@@std@@@std@@@2@@std@@AAEXI@Z 10072c58     c_ragebot.obj
 0002:0000ac68       __tryblocktable$?_Reallocate_exactly@?$vector@V?$_List_unchecked_iterator@V?$_List_val@U?$_List_simple_types@U?$pair@$$CBV?$basic_string@DU?$char_traits@D@std@@V?$allocator@D@2@@std@@V?$shared_ptr@UNode@NetvarTree@@@2@@std@@@std@@@std@@@std@@V?$allocator@V?$_List_unchecked_iterator@V?$_List_val@U?$_List_simple_types@U?$pair@$$CBV?$basic_string@DU?$char_traits@D@std@@V?$allocator@D@2@@std@@V?$shared_ptr@UNode@NetvarTree@@@2@@std@@@std@@@std@@@std@@@2@@std@@AAEXI@Z 10072c68     c_ragebot.obj
 0002:0000ac7c       __ehfuncinfo$?_Reallocate_exactly@?$vector@V?$_List_unchecked_iterator@V?$_List_val@U?$_List_simple_types@U?$pair@$$CBV?$basic_string@DU?$char_traits@D@std@@V?$allocator@D@2@@std@@V?$shared_ptr@UNode@NetvarTree@@@2@@std@@@std@@@std@@@std@@V?$allocator@V?$_List_unchecked_iterator@V?$_List_val@U?$_List_simple_types@U?$pair@$$CBV?$basic_string@DU?$char_traits@D@std@@V?$allocator@D@2@@std@@V?$shared_ptr@UNode@NetvarTree@@@2@@std@@@std@@@std@@@std@@@2@@std@@AAEXI@Z 10072c7c     c_ragebot.obj
 0002:0000aca0       __unwindtable$?GetOffsetRecursive@NetvarTree@@CAHAAV?$unordered_map@V?$basic_string@DU?$char_traits@D@std@@V?$allocator@D@2@@std@@V?$shared_ptr@UNode@NetvarTree@@@2@U?$hash@V?$basic_string@DU?$char_traits@D@std@@V?$allocator@D@2@@std@@@2@U?$equal_to@V?$basic_string@DU?$char_traits@D@std@@V?$allocator@D@2@@std@@@2@V?$allocator@U?$pair@$$CBV?$basic_string@DU?$char_traits@D@std@@V?$allocator@D@2@@std@@V?$shared_ptr@UNode@NetvarTree@@@2@@std@@@2@@std@@HPBD@Z 10072ca0     c_ragebot.obj
 0002:0000aca0       __unwindtable$??0system_error@std@@QAE@Verror_code@1@@Z 10072ca0     config_system.obj
 0002:0000aca8       __ehfuncinfo$?GetOffsetRecursive@NetvarTree@@CAHAAV?$unordered_map@V?$basic_string@DU?$char_traits@D@std@@V?$allocator@D@2@@std@@V?$shared_ptr@UNode@NetvarTree@@@2@U?$hash@V?$basic_string@DU?$char_traits@D@std@@V?$allocator@D@2@@std@@@2@U?$equal_to@V?$basic_string@DU?$char_traits@D@std@@V?$allocator@D@2@@std@@@2@V?$allocator@U?$pair@$$CBV?$basic_string@DU?$char_traits@D@std@@V?$allocator@D@2@@std@@V?$shared_ptr@UNode@NetvarTree@@@2@@std@@@2@@std@@HPBD@Z 10072ca8     c_ragebot.obj
 0002:0000aca8       __ehfuncinfo$??0system_error@std@@QAE@Verror_code@1@@Z 10072ca8     config_system.obj
 0002:0000accc       __unwindtable$?GetActiveWeapon@C_BaseEntity@@QAEPAVC_BaseCombatWeapon@@XZ 10072ccc     c_ragebot.obj
 0002:0000acd4       __ehfuncinfo$?GetActiveWeapon@C_BaseEntity@@QAEPAVC_BaseCombatWeapon@@XZ 10072cd4     c_ragebot.obj
 0002:0000acf8       __unwindtable$?GetTeam@C_BaseEntity@@QAEHXZ 10072cf8     c_ragebot.obj
 0002:0000ad00       __ehfuncinfo$?GetTeam@C_BaseEntity@@QAEHXZ 10072d00     c_ragebot.obj
 0002:0000ad24       __unwindtable$?GetFlags@C_BaseEntity@@QAE?AW4EntityFlags@@XZ 10072d24     c_ragebot.obj
 0002:0000ad2c       __ehfuncinfo$?GetFlags@C_BaseEntity@@QAE?AW4EntityFlags@@XZ 10072d2c     c_ragebot.obj
 0002:0000ad50       __unwindtable$?GetSimulationTime@C_BaseEntity@@QAEMXZ 10072d50     c_ragebot.obj
 0002:0000ad58       __ehfuncinfo$?GetSimulationTime@C_BaseEntity@@QAEMXZ 10072d58     c_ragebot.obj
 0002:0000ad7c       __unwindtable$?GetLifeState@C_BaseEntity@@QAE_NXZ 10072d7c     c_ragebot.obj
 0002:0000ad84       __ehfuncinfo$?GetLifeState@C_BaseEntity@@QAE_NXZ 10072d84     c_ragebot.obj
 0002:0000ada8       __unwindtable$?GetHealth@C_BaseEntity@@QAEHXZ 10072da8     c_ragebot.obj
 0002:0000adb0       __ehfuncinfo$?GetHealth@C_BaseEntity@@QAEHXZ 10072db0     c_ragebot.obj
 0002:0000add4       __unwindtable$?GetTickBase@C_BaseEntity@@QAEHXZ 10072dd4     c_ragebot.obj
 0002:0000addc       __ehfuncinfo$?GetTickBase@C_BaseEntity@@QAEHXZ 10072ddc     c_ragebot.obj
 0002:0000ae00       __unwindtable$?GetEyeAngles@C_BaseEntity@@QAE?AVVector@@XZ 10072e00     c_ragebot.obj
 0002:0000ae08       __ehfuncinfo$?GetEyeAngles@C_BaseEntity@@QAE?AVVector@@XZ 10072e08     c_ragebot.obj
 0002:0000ae2c       __unwindtable$?GetOrigin@C_BaseEntity@@QAE?AVVector@@XZ 10072e2c     c_ragebot.obj
 0002:0000ae34       __ehfuncinfo$?GetOrigin@C_BaseEntity@@QAE?AVVector@@XZ 10072e34     c_ragebot.obj
 0002:0000ae58       __unwindtable$?GetVelocity@C_BaseEntity@@QAE?AVVector@@XZ 10072e58     c_ragebot.obj
 0002:0000ae60       __ehfuncinfo$?GetVelocity@C_BaseEntity@@QAE?AVVector@@XZ 10072e60     c_ragebot.obj
 0002:0000ae84       __unwindtable$??$GetOffset@PBDPBD@NetvarTree@@QAEHPBD00@Z 10072e84     c_ragebot.obj
 0002:0000ae84       __unwindtable$??$GetOffset@PBD@NetvarTree@@QAEHPBD0@Z 10072e84     c_ragebot.obj
 0002:0000ae8c       __ehfuncinfo$??$GetOffset@PBDPBD@NetvarTree@@QAEHPBD00@Z 10072e8c     c_ragebot.obj
 0002:0000ae8c       __ehfuncinfo$??$GetOffset@PBD@NetvarTree@@QAEHPBD0@Z 10072e8c     c_ragebot.obj
 0002:0000aeb0       __unwindtable$?GetLastShotTime@C_BaseCombatWeapon@@QAEMXZ 10072eb0     c_ragebot.obj
 0002:0000aeb8       __ehfuncinfo$?GetLastShotTime@C_BaseCombatWeapon@@QAEMXZ 10072eb8     c_ragebot.obj
 0002:0000aedc       __unwindtable$?GetNextPrimaryAttack@C_BaseCombatWeapon@@QAEMXZ 10072edc     c_ragebot.obj
 0002:0000aee4       __ehfuncinfo$?GetNextPrimaryAttack@C_BaseCombatWeapon@@QAEMXZ 10072ee4     c_ragebot.obj
 0002:0000af08       __unwindtable$?at@?$deque@UPlayerRecords@@V?$allocator@UPlayerRecords@@@std@@@std@@QAEAAUPlayerRecords@@I@Z 10072f08     c_ragebot.obj
 0002:0000af08       __unwindtable$?at@?$deque@ULegitPlayerRecords@@V?$allocator@ULegitPlayerRecords@@@std@@@std@@QAEAAULegitPlayerRecords@@I@Z 10072f08     Legitbot.obj
 0002:0000af18       __ehfuncinfo$?at@?$deque@UPlayerRecords@@V?$allocator@UPlayerRecords@@@std@@@std@@QAEAAUPlayerRecords@@I@Z 10072f18     c_ragebot.obj
 0002:0000af18       __ehfuncinfo$?at@?$deque@ULegitPlayerRecords@@V?$allocator@ULegitPlayerRecords@@@std@@@std@@QAEAAULegitPlayerRecords@@I@Z 10072f18     Legitbot.obj
 0002:0000af3c       __unwindtable$?Hitscan@c_aimbot@@QAE?AVVector@@PAVC_BaseEntity@@@Z 10072f3c     c_ragebot.obj
 0002:0000af44       __ehfuncinfo$?Hitscan@c_aimbot@@QAE?AVVector@@PAVC_BaseEntity@@@Z 10072f44     c_ragebot.obj
 0002:0000af68       __catchsym$??$_Emplace_reallocate@H@?$vector@HV?$allocator@H@std@@@std@@QAEPAHQAH$$QAH@Z$2 10072f68     c_ragebot.obj
 0002:0000af78       __unwindtable$??$_Emplace_reallocate@H@?$vector@HV?$allocator@H@std@@@std@@QAEPAHQAH$$QAH@Z 10072f78     c_ragebot.obj
 0002:0000af88       __tryblocktable$??$_Emplace_reallocate@H@?$vector@HV?$allocator@H@std@@@std@@QAEPAHQAH$$QAH@Z 10072f88     c_ragebot.obj
 0002:0000af9c       __ehfuncinfo$??$_Emplace_reallocate@H@?$vector@HV?$allocator@H@std@@@std@@QAEPAHQAH$$QAH@Z 10072f9c     c_ragebot.obj
 0002:0000afc0       __unwindtable$??0?$_Deque_const_iterator@V?$_Deque_val@U?$_Deque_simple_types@UPlayerRecords@@@std@@@std@@@std@@QAE@IPBU_Container_base12@1@@Z 10072fc0     c_ragebot.obj
 0002:0000afc0       __unwindtable$??0?$_Deque_const_iterator@V?$_Deque_val@U?$_Deque_simple_types@ULegitPlayerRecords@@@std@@@std@@@std@@QAE@IPBU_Container_base12@1@@Z 10072fc0     Legitbot.obj
 0002:0000afc8       __ehfuncinfo$??0?$_Deque_const_iterator@V?$_Deque_val@U?$_Deque_simple_types@ULegitPlayerRecords@@@std@@@std@@@std@@QAE@IPBU_Container_base12@1@@Z 10072fc8     Legitbot.obj
 0002:0000afc8       __ehfuncinfo$??0?$_Deque_const_iterator@V?$_Deque_val@U?$_Deque_simple_types@UPlayerRecords@@@std@@@std@@@std@@QAE@IPBU_Container_base12@1@@Z 10072fc8     c_ragebot.obj
 0002:0000afec       __unwindtable$??H?$_Deque_iterator@V?$_Deque_val@U?$_Deque_simple_types@ULegitPlayerRecords@@@std@@@std@@@std@@QBE?AV01@H@Z 10072fec     Legitbot.obj
 0002:0000afec       __unwindtable$??H?$_Deque_iterator@V?$_Deque_val@U?$_Deque_simple_types@UPlayerRecords@@@std@@@std@@@std@@QBE?AV01@H@Z 10072fec     c_ragebot.obj
 0002:0000aff4       __ehfuncinfo$??H?$_Deque_iterator@V?$_Deque_val@U?$_Deque_simple_types@ULegitPlayerRecords@@@std@@@std@@@std@@QBE?AV01@H@Z 10072ff4     Legitbot.obj
 0002:0000aff4       __ehfuncinfo$??H?$_Deque_iterator@V?$_Deque_val@U?$_Deque_simple_types@UPlayerRecords@@@std@@@std@@@std@@QBE?AV01@H@Z 10072ff4     c_ragebot.obj
 0002:0000b018       __unwindtable$??$GetOffsetRecursive@PBD@NetvarTree@@AAEHAAV?$unordered_map@V?$basic_string@DU?$char_traits@D@std@@V?$allocator@D@2@@std@@V?$shared_ptr@UNode@NetvarTree@@@2@U?$hash@V?$basic_string@DU?$char_traits@D@std@@V?$allocator@D@2@@std@@@2@U?$equal_to@V?$basic_string@DU?$char_traits@D@std@@V?$allocator@D@2@@std@@@2@V?$allocator@U?$pair@$$CBV?$basic_string@DU?$char_traits@D@std@@V?$allocator@D@2@@std@@V?$shared_ptr@UNode@NetvarTree@@@2@@std@@@2@@std@@HPBD1@Z 10073018     c_ragebot.obj
 0002:0000b018       __unwindtable$??0_System_error@std@@IAE@Verror_code@1@ABV?$basic_string@DU?$char_traits@D@std@@V?$allocator@D@2@@1@@Z 10073018     config_system.obj
 0002:0000b018       __unwindtable$?message@_System_error_category@std@@UBE?AV?$basic_string@DU?$char_traits@D@std@@V?$allocator@D@2@@2@H@Z 10073018     config_system.obj
 0002:0000b018       __unwindtable$?IsKnifeorNade@C_BaseEntity@@QAE_NXZ 10073018     CEntity.obj
 0002:0000b020       __ehfuncinfo$??0_System_error@std@@IAE@Verror_code@1@ABV?$basic_string@DU?$char_traits@D@std@@V?$allocator@D@2@@1@@Z 10073020     config_system.obj
 0002:0000b020       __ehfuncinfo$??$GetOffsetRecursive@PBD@NetvarTree@@AAEHAAV?$unordered_map@V?$basic_string@DU?$char_traits@D@std@@V?$allocator@D@2@@std@@V?$shared_ptr@UNode@NetvarTree@@@2@U?$hash@V?$basic_string@DU?$char_traits@D@std@@V?$allocator@D@2@@std@@@2@U?$equal_to@V?$basic_string@DU?$char_traits@D@std@@V?$allocator@D@2@@std@@@2@V?$allocator@U?$pair@$$CBV?$basic_string@DU?$char_traits@D@std@@V?$allocator@D@2@@std@@V?$shared_ptr@UNode@NetvarTree@@@2@@std@@@2@@std@@HPBD1@Z 10073020     c_ragebot.obj
 0002:0000b020       __ehfuncinfo$?message@_System_error_category@std@@UBE?AV?$basic_string@DU?$char_traits@D@std@@V?$allocator@D@2@@2@H@Z 10073020     config_system.obj
 0002:0000b020       __ehfuncinfo$?IsKnifeorNade@C_BaseEntity@@QAE_NXZ 10073020     CEntity.obj
 0002:0000b044       __unwindtable$??$_Uninitialized_move_al_unchecked@PAV?$_List_unchecked_iterator@V?$_List_val@U?$_List_simple_types@U?$pair@$$CBV?$basic_string@DU?$char_traits@D@std@@V?$allocator@D@2@@std@@V?$shared_ptr@UNode@NetvarTree@@@2@@std@@@std@@@std@@@std@@PAV12@V?$allocator@V?$_List_unchecked_iterator@V?$_List_val@U?$_List_simple_types@U?$pair@$$CBV?$basic_string@DU?$char_traits@D@std@@V?$allocator@D@2@@std@@V?$shared_ptr@UNode@NetvarTree@@@2@@std@@@std@@@std@@@std@@@2@@std@@YAPAV?$_List_unchecked_iterator@V?$_List_val@U?$_List_simple_types@U?$pair@$$CBV?$basic_string@DU?$char_traits@D@std@@V?$allocator@D@2@@std@@V?$shared_ptr@UNode@NetvarTree@@@2@@std@@@std@@@std@@@0@PAV10@QAV10@1AAV?$allocator@V?$_List_unchecked_iterator@V?$_List_val@U?$_List_simple_types@U?$pair@$$CBV?$basic_string@DU?$char_traits@D@std@@V?$allocator@D@2@@std@@V?$shared_ptr@UNode@NetvarTree@@@2@@std@@@std@@@std@@@std@@@0@U_General_ptr_iterator_tag@0@U_Unused_parameter@0@@Z 10073044     c_ragebot.obj
 0002:0000b044       __unwindtable$??$_Uninit_alloc_fill_n1@PAV?$_List_unchecked_iterator@V?$_List_val@U?$_List_simple_types@U?$pair@$$CBV?$basic_string@DU?$char_traits@D@std@@V?$allocator@D@2@@std@@V?$shared_ptr@UNode@NetvarTree@@@2@@std@@@std@@@std@@@std@@IV?$allocator@V?$_List_unchecked_iterator@V?$_List_val@U?$_List_simple_types@U?$pair@$$CBV?$basic_string@DU?$char_traits@D@std@@V?$allocator@D@2@@std@@V?$shared_ptr@UNode@NetvarTree@@@2@@std@@@std@@@std@@@std@@@2@@std@@YAPAV?$_List_unchecked_iterator@V?$_List_val@U?$_List_simple_types@U?$pair@$$CBV?$basic_string@DU?$char_traits@D@std@@V?$allocator@D@2@@std@@V?$shared_ptr@UNode@NetvarTree@@@2@@std@@@std@@@std@@@0@QAV10@IABV10@AAV?$allocator@V?$_List_unchecked_iterator@V?$_List_val@U?$_List_simple_types@U?$pair@$$CBV?$basic_string@DU?$char_traits@D@std@@V?$allocator@D@2@@std@@V?$shared_ptr@UNode@NetvarTree@@@2@@std@@@std@@@std@@@std@@@0@U?$integral_constant@_N$0A@@0@@Z 10073044     c_ragebot.obj
 0002:0000b04c       __ehfuncinfo$??$_Uninit_alloc_fill_n1@PAV?$_List_unchecked_iterator@V?$_List_val@U?$_List_simple_types@U?$pair@$$CBV?$basic_string@DU?$char_traits@D@std@@V?$allocator@D@2@@std@@V?$shared_ptr@UNode@NetvarTree@@@2@@std@@@std@@@std@@@std@@IV?$allocator@V?$_List_unchecked_iterator@V?$_List_val@U?$_List_simple_types@U?$pair@$$CBV?$basic_string@DU?$char_traits@D@std@@V?$allocator@D@2@@std@@V?$shared_ptr@UNode@NetvarTree@@@2@@std@@@std@@@std@@@std@@@2@@std@@YAPAV?$_List_unchecked_iterator@V?$_List_val@U?$_List_simple_types@U?$pair@$$CBV?$basic_string@DU?$char_traits@D@std@@V?$allocator@D@2@@std@@V?$shared_ptr@UNode@NetvarTree@@@2@@std@@@std@@@std@@@0@QAV10@IABV10@AAV?$allocator@V?$_List_unchecked_iterator@V?$_List_val@U?$_List_simple_types@U?$pair@$$CBV?$basic_string@DU?$char_traits@D@std@@V?$allocator@D@2@@std@@V?$shared_ptr@UNode@NetvarTree@@@2@@std@@@std@@@std@@@std@@@0@U?$integral_constant@_N$0A@@0@@Z 1007304c     c_ragebot.obj
 0002:0000b04c       __ehfuncinfo$??$_Uninitialized_move_al_unchecked@PAV?$_List_unchecked_iterator@V?$_List_val@U?$_List_simple_types@U?$pair@$$CBV?$basic_string@DU?$char_traits@D@std@@V?$allocator@D@2@@std@@V?$shared_ptr@UNode@NetvarTree@@@2@@std@@@std@@@std@@@std@@PAV12@V?$allocator@V?$_List_unchecked_iterator@V?$_List_val@U?$_List_simple_types@U?$pair@$$CBV?$basic_string@DU?$char_traits@D@std@@V?$allocator@D@2@@std@@V?$shared_ptr@UNode@NetvarTree@@@2@@std@@@std@@@std@@@std@@@2@@std@@YAPAV?$_List_unchecked_iterator@V?$_List_val@U?$_List_simple_types@U?$pair@$$CBV?$basic_string@DU?$char_traits@D@std@@V?$allocator@D@2@@std@@V?$shared_ptr@UNode@NetvarTree@@@2@@std@@@std@@@std@@@0@PAV10@QAV10@1AAV?$allocator@V?$_List_unchecked_iterator@V?$_List_val@U?$_List_simple_types@U?$pair@$$CBV?$basic_string@DU?$char_traits@D@std@@V?$allocator@D@2@@std@@V?$shared_ptr@UNode@NetvarTree@@@2@@std@@@std@@@std@@@std@@@0@U_General_ptr_iterator_tag@0@U_Unused_parameter@0@@Z 1007304c     c_ragebot.obj
 0002:0000b070       __catchsym$??$_Insert@AAU?$pair@$$CBV?$basic_string@DU?$char_traits@D@std@@V?$allocator@D@2@@std@@V?$shared_ptr@UNode@NetvarTree@@@2@@std@@V?$_List_unchecked_iterator@V?$_List_val@U?$_List_simple_types@U?$pair@$$CBV?$basic_string@DU?$char_traits@D@std@@V?$allocator@D@2@@std@@V?$shared_ptr@UNode@NetvarTree@@@2@@std@@@std@@@std@@@2@@?$_Hash@V?$_Umap_traits@V?$basic_string@DU?$char_traits@D@std@@V?$allocator@D@2@@std@@V?$shared_ptr@UNode@NetvarTree@@@2@V?$_Uhash_compare@V?$basic_string@DU?$char_traits@D@std@@V?$allocator@D@2@@std@@U?$hash@V?$basic_string@DU?$char_traits@D@std@@V?$allocator@D@2@@std@@@2@U?$equal_to@V?$basic_string@DU?$char_traits@D@std@@V?$allocator@D@2@@std@@@2@@2@V?$allocator@U?$pair@$$CBV?$basic_string@DU?$char_traits@D@std@@V?$allocator@D@2@@std@@V?$shared_ptr@UNode@NetvarTree@@@2@@std@@@2@$0A@@std@@@std@@IAE?AU?$pair@V?$_List_iterator@V?$_List_val@U?$_List_simple_types@U?$pair@$$CBV?$basic_string@DU?$char_traits@D@std@@V?$allocator@D@2@@std@@V?$shared_ptr@UNode@NetvarTree@@@2@@std@@@std@@@std@@@std@@_N@1@AAU?$pair@$$CBV?$basic_string@DU?$char_traits@D@std@@V?$allocator@D@2@@std@@V?$shared_ptr@UNode@NetvarTree@@@2@@1@V?$_List_unchecked_iterator@V?$_List_val@U?$_List_simple_types@U?$pair@$$CBV?$basic_string@DU?$char_traits@D@std@@V?$allocator@D@2@@std@@V?$shared_ptr@UNode@NetvarTree@@@2@@std@@@std@@@std@@@1@@Z$5 10073070     c_ragebot.obj
 0002:0000b080       __catchsym$??$_Insert@AAU?$pair@$$CBV?$basic_string@DU?$char_traits@D@std@@V?$allocator@D@2@@std@@V?$shared_ptr@UNode@NetvarTree@@@2@@std@@V?$_List_unchecked_iterator@V?$_List_val@U?$_List_simple_types@U?$pair@$$CBV?$basic_string@DU?$char_traits@D@std@@V?$allocator@D@2@@std@@V?$shared_ptr@UNode@NetvarTree@@@2@@std@@@std@@@std@@@2@@?$_Hash@V?$_Umap_traits@V?$basic_string@DU?$char_traits@D@std@@V?$allocator@D@2@@std@@V?$shared_ptr@UNode@NetvarTree@@@2@V?$_Uhash_compare@V?$basic_string@DU?$char_traits@D@std@@V?$allocator@D@2@@std@@U?$hash@V?$basic_string@DU?$char_traits@D@std@@V?$allocator@D@2@@std@@@2@U?$equal_to@V?$basic_string@DU?$char_traits@D@std@@V?$allocator@D@2@@std@@@2@@2@V?$allocator@U?$pair@$$CBV?$basic_string@DU?$char_traits@D@std@@V?$allocator@D@2@@std@@V?$shared_ptr@UNode@NetvarTree@@@2@@std@@@2@$0A@@std@@@std@@IAE?AU?$pair@V?$_List_iterator@V?$_List_val@U?$_List_simple_types@U?$pair@$$CBV?$basic_string@DU?$char_traits@D@std@@V?$allocator@D@2@@std@@V?$shared_ptr@UNode@NetvarTree@@@2@@std@@@std@@@std@@@std@@_N@1@AAU?$pair@$$CBV?$basic_string@DU?$char_traits@D@std@@V?$allocator@D@2@@std@@V?$shared_ptr@UNode@NetvarTree@@@2@@1@V?$_List_unchecked_iterator@V?$_List_val@U?$_List_simple_types@U?$pair@$$CBV?$basic_string@DU?$char_traits@D@std@@V?$allocator@D@2@@std@@V?$shared_ptr@UNode@NetvarTree@@@2@@std@@@std@@@std@@@1@@Z$4 10073080     c_ragebot.obj
 0002:0000b090       __unwindtable$??$_Insert@AAU?$pair@$$CBV?$basic_string@DU?$char_traits@D@std@@V?$allocator@D@2@@std@@V?$shared_ptr@UNode@NetvarTree@@@2@@std@@V?$_List_unchecked_iterator@V?$_List_val@U?$_List_simple_types@U?$pair@$$CBV?$basic_string@DU?$char_traits@D@std@@V?$allocator@D@2@@std@@V?$shared_ptr@UNode@NetvarTree@@@2@@std@@@std@@@std@@@2@@?$_Hash@V?$_Umap_traits@V?$basic_string@DU?$char_traits@D@std@@V?$allocator@D@2@@std@@V?$shared_ptr@UNode@NetvarTree@@@2@V?$_Uhash_compare@V?$basic_string@DU?$char_traits@D@std@@V?$allocator@D@2@@std@@U?$hash@V?$basic_string@DU?$char_traits@D@std@@V?$allocator@D@2@@std@@@2@U?$equal_to@V?$basic_string@DU?$char_traits@D@std@@V?$allocator@D@2@@std@@@2@@2@V?$allocator@U?$pair@$$CBV?$basic_string@DU?$char_traits@D@std@@V?$allocator@D@2@@std@@V?$shared_ptr@UNode@NetvarTree@@@2@@std@@@2@$0A@@std@@@std@@IAE?AU?$pair@V?$_List_iterator@V?$_List_val@U?$_List_simple_types@U?$pair@$$CBV?$basic_string@DU?$char_traits@D@std@@V?$allocator@D@2@@std@@V?$shared_ptr@UNode@NetvarTree@@@2@@std@@@std@@@std@@@std@@_N@1@AAU?$pair@$$CBV?$basic_string@DU?$char_traits@D@std@@V?$allocator@D@2@@std@@V?$shared_ptr@UNode@NetvarTree@@@2@@1@V?$_List_unchecked_iterator@V?$_List_val@U?$_List_simple_types@U?$pair@$$CBV?$basic_string@DU?$char_traits@D@std@@V?$allocator@D@2@@std@@V?$shared_ptr@UNode@NetvarTree@@@2@@std@@@std@@@std@@@1@@Z 10073090     c_ragebot.obj
 0002:0000b0b0       __ehfuncinfo$??$_Insert@AAU?$pair@$$CBV?$basic_string@DU?$char_traits@D@std@@V?$allocator@D@2@@std@@V?$shared_ptr@UNode@NetvarTree@@@2@@std@@V?$_List_unchecked_iterator@V?$_List_val@U?$_List_simple_types@U?$pair@$$CBV?$basic_string@DU?$char_traits@D@std@@V?$allocator@D@2@@std@@V?$shared_ptr@UNode@NetvarTree@@@2@@std@@@std@@@std@@@2@@?$_Hash@V?$_Umap_traits@V?$basic_string@DU?$char_traits@D@std@@V?$allocator@D@2@@std@@V?$shared_ptr@UNode@NetvarTree@@@2@V?$_Uhash_compare@V?$basic_string@DU?$char_traits@D@std@@V?$allocator@D@2@@std@@U?$hash@V?$basic_string@DU?$char_traits@D@std@@V?$allocator@D@2@@std@@@2@U?$equal_to@V?$basic_string@DU?$char_traits@D@std@@V?$allocator@D@2@@std@@@2@@2@V?$allocator@U?$pair@$$CBV?$basic_string@DU?$char_traits@D@std@@V?$allocator@D@2@@std@@V?$shared_ptr@UNode@NetvarTree@@@2@@std@@@2@$0A@@std@@@std@@IAE?AU?$pair@V?$_List_iterator@V?$_List_val@U?$_List_simple_types@U?$pair@$$CBV?$basic_string@DU?$char_traits@D@std@@V?$allocator@D@2@@std@@V?$shared_ptr@UNode@NetvarTree@@@2@@std@@@std@@@std@@@std@@_N@1@AAU?$pair@$$CBV?$basic_string@DU?$char_traits@D@std@@V?$allocator@D@2@@std@@V?$shared_ptr@UNode@NetvarTree@@@2@@1@V?$_List_unchecked_iterator@V?$_List_val@U?$_List_simple_types@U?$pair@$$CBV?$basic_string@DU?$char_traits@D@std@@V?$allocator@D@2@@std@@V?$shared_ptr@UNode@NetvarTree@@@2@@std@@@std@@@std@@@1@@Z 100730b0     c_ragebot.obj
 0002:0000b0d4       __tryblocktable$??$_Insert@AAU?$pair@$$CBV?$basic_string@DU?$char_traits@D@std@@V?$allocator@D@2@@std@@V?$shared_ptr@UNode@NetvarTree@@@2@@std@@V?$_List_unchecked_iterator@V?$_List_val@U?$_List_simple_types@U?$pair@$$CBV?$basic_string@DU?$char_traits@D@std@@V?$allocator@D@2@@std@@V?$shared_ptr@UNode@NetvarTree@@@2@@std@@@std@@@std@@@2@@?$_Hash@V?$_Umap_traits@V?$basic_string@DU?$char_traits@D@std@@V?$allocator@D@2@@std@@V?$shared_ptr@UNode@NetvarTree@@@2@V?$_Uhash_compare@V?$basic_string@DU?$char_traits@D@std@@V?$allocator@D@2@@std@@U?$hash@V?$basic_string@DU?$char_traits@D@std@@V?$allocator@D@2@@std@@@2@U?$equal_to@V?$basic_string@DU?$char_traits@D@std@@V?$allocator@D@2@@std@@@2@@2@V?$allocator@U?$pair@$$CBV?$basic_string@DU?$char_traits@D@std@@V?$allocator@D@2@@std@@V?$shared_ptr@UNode@NetvarTree@@@2@@std@@@2@$0A@@std@@@std@@IAE?AU?$pair@V?$_List_iterator@V?$_List_val@U?$_List_simple_types@U?$pair@$$CBV?$basic_string@DU?$char_traits@D@std@@V?$allocator@D@2@@std@@V?$shared_ptr@UNode@NetvarTree@@@2@@std@@@std@@@std@@@std@@_N@1@AAU?$pair@$$CBV?$basic_string@DU?$char_traits@D@std@@V?$allocator@D@2@@std@@V?$shared_ptr@UNode@NetvarTree@@@2@@1@V?$_List_unchecked_iterator@V?$_List_val@U?$_List_simple_types@U?$pair@$$CBV?$basic_string@DU?$char_traits@D@std@@V?$allocator@D@2@@std@@V?$shared_ptr@UNode@NetvarTree@@@2@@std@@@std@@@std@@@1@@Z 100730d4     c_ragebot.obj
 0002:0000b0fc       __catchsym$??$_Buynode@ABUpiecewise_construct_t@std@@V?$tuple@$$QAV?$basic_string@DU?$char_traits@D@std@@V?$allocator@D@2@@std@@@2@V?$tuple@$$V@2@@?$_List_buy@U?$pair@$$CBV?$basic_string@DU?$char_traits@D@std@@V?$allocator@D@2@@std@@V?$shared_ptr@UNode@NetvarTree@@@2@@std@@V?$allocator@U?$pair@$$CBV?$basic_string@DU?$char_traits@D@std@@V?$allocator@D@2@@std@@V?$shared_ptr@UNode@NetvarTree@@@2@@std@@@2@@std@@QAEPAU?$_List_node@U?$pair@$$CBV?$basic_string@DU?$char_traits@D@std@@V?$allocator@D@2@@std@@V?$shared_ptr@UNode@NetvarTree@@@2@@std@@PAX@1@PAU21@0ABUpiecewise_construct_t@1@$$QAV?$tuple@$$QAV?$basic_string@DU?$char_traits@D@std@@V?$allocator@D@2@@std@@@1@$$QAV?$tuple@$$V@1@@Z$2 100730fc     c_ragebot.obj
 0002:0000b10c       __unwindtable$??$_Buynode@ABUpiecewise_construct_t@std@@V?$tuple@$$QAV?$basic_string@DU?$char_traits@D@std@@V?$allocator@D@2@@std@@@2@V?$tuple@$$V@2@@?$_List_buy@U?$pair@$$CBV?$basic_string@DU?$char_traits@D@std@@V?$allocator@D@2@@std@@V?$shared_ptr@UNode@NetvarTree@@@2@@std@@V?$allocator@U?$pair@$$CBV?$basic_string@DU?$char_traits@D@std@@V?$allocator@D@2@@std@@V?$shared_ptr@UNode@NetvarTree@@@2@@std@@@2@@std@@QAEPAU?$_List_node@U?$pair@$$CBV?$basic_string@DU?$char_traits@D@std@@V?$allocator@D@2@@std@@V?$shared_ptr@UNode@NetvarTree@@@2@@std@@PAX@1@PAU21@0ABUpiecewise_construct_t@1@$$QAV?$tuple@$$QAV?$basic_string@DU?$char_traits@D@std@@V?$allocator@D@2@@std@@@1@$$QAV?$tuple@$$V@1@@Z 1007310c     c_ragebot.obj
 0002:0000b11c       __tryblocktable$??$_Buynode@ABUpiecewise_construct_t@std@@V?$tuple@$$QAV?$basic_string@DU?$char_traits@D@std@@V?$allocator@D@2@@std@@@2@V?$tuple@$$V@2@@?$_List_buy@U?$pair@$$CBV?$basic_string@DU?$char_traits@D@std@@V?$allocator@D@2@@std@@V?$shared_ptr@UNode@NetvarTree@@@2@@std@@V?$allocator@U?$pair@$$CBV?$basic_string@DU?$char_traits@D@std@@V?$allocator@D@2@@std@@V?$shared_ptr@UNode@NetvarTree@@@2@@std@@@2@@std@@QAEPAU?$_List_node@U?$pair@$$CBV?$basic_string@DU?$char_traits@D@std@@V?$allocator@D@2@@std@@V?$shared_ptr@UNode@NetvarTree@@@2@@std@@PAX@1@PAU21@0ABUpiecewise_construct_t@1@$$QAV?$tuple@$$QAV?$basic_string@DU?$char_traits@D@std@@V?$allocator@D@2@@std@@@1@$$QAV?$tuple@$$V@1@@Z 1007311c     c_ragebot.obj
 0002:0000b130       __ehfuncinfo$??$_Buynode@ABUpiecewise_construct_t@std@@V?$tuple@$$QAV?$basic_string@DU?$char_traits@D@std@@V?$allocator@D@2@@std@@@2@V?$tuple@$$V@2@@?$_List_buy@U?$pair@$$CBV?$basic_string@DU?$char_traits@D@std@@V?$allocator@D@2@@std@@V?$shared_ptr@UNode@NetvarTree@@@2@@std@@V?$allocator@U?$pair@$$CBV?$basic_string@DU?$char_traits@D@std@@V?$allocator@D@2@@std@@V?$shared_ptr@UNode@NetvarTree@@@2@@std@@@2@@std@@QAEPAU?$_List_node@U?$pair@$$CBV?$basic_string@DU?$char_traits@D@std@@V?$allocator@D@2@@std@@V?$shared_ptr@UNode@NetvarTree@@@2@@std@@PAX@1@PAU21@0ABUpiecewise_construct_t@1@$$QAV?$tuple@$$QAV?$basic_string@DU?$char_traits@D@std@@V?$allocator@D@2@@std@@@1@$$QAV?$tuple@$$V@1@@Z 10073130     c_ragebot.obj
 0002:0000b154       __unwindtable$?ArmorValue@C_BaseEntity@@QAEHXZ 10073154     Autowall.obj
 0002:0000b15c       __ehfuncinfo$?ArmorValue@C_BaseEntity@@QAEHXZ 1007315c     Autowall.obj
 0002:0000b180       __unwindtable$?HasHelmet@C_BaseEntity@@QAE_NXZ 10073180     Autowall.obj
 0002:0000b188       __ehfuncinfo$?HasHelmet@C_BaseEntity@@QAE_NXZ 10073188     Autowall.obj
 0002:0000b1ac       __unwindtable$?UTIL_ClipTraceToPlayers@@YAXABVVector@@0IPAVITraceFilter@@PAUC_Trace@@@Z 100731ac     Autowall.obj
 0002:0000b1b4       __ehfuncinfo$?UTIL_ClipTraceToPlayers@@YAXABVVector@@0IPAVITraceFilter@@PAUC_Trace@@@Z 100731b4     Autowall.obj
 0002:0000b1d8       __unwindtable$?TraceToExitalt@@YA_NAAVVector@@AAUC_Trace@@V1@2PAU2@@Z 100731d8     Autowall.obj
 0002:0000b1e0       __ehfuncinfo$?TraceToExitalt@@YA_NAAVVector@@AAUC_Trace@@V1@2PAU2@@Z 100731e0     Autowall.obj
 0002:0000b204       __unwindtable$?SetCurrentCommand@C_BaseEntity@@QAEXPAVCUserCmd@@@Z 10073204     EnginePrediction.obj
 0002:0000b20c       __ehfuncinfo$?SetCurrentCommand@C_BaseEntity@@QAEXPAVCUserCmd@@@Z 1007320c     EnginePrediction.obj
 0002:0000b230       __unwindtable$?_Make_iter@?$deque@ULegitPlayerRecords@@V?$allocator@ULegitPlayerRecords@@@std@@@std@@QBE?AV?$_Deque_iterator@V?$_Deque_val@U?$_Deque_simple_types@ULegitPlayerRecords@@@std@@@std@@@2@V?$_Deque_const_iterator@V?$_Deque_val@U?$_Deque_simple_types@ULegitPlayerRecords@@@std@@@std@@@2@@Z 10073230     Legitbot.obj
 0002:0000b230       __unwindtable$?_Make_iter@?$deque@UPlayerRecords@@V?$allocator@UPlayerRecords@@@std@@@std@@QBE?AV?$_Deque_iterator@V?$_Deque_val@U?$_Deque_simple_types@UPlayerRecords@@@std@@@std@@@2@V?$_Deque_const_iterator@V?$_Deque_val@U?$_Deque_simple_types@UPlayerRecords@@@std@@@std@@@2@@Z 10073230     LagComp.obj
 0002:0000b238       __ehfuncinfo$?_Make_iter@?$deque@UPlayerRecords@@V?$allocator@UPlayerRecords@@@std@@@std@@QBE?AV?$_Deque_iterator@V?$_Deque_val@U?$_Deque_simple_types@UPlayerRecords@@@std@@@std@@@2@V?$_Deque_const_iterator@V?$_Deque_val@U?$_Deque_simple_types@UPlayerRecords@@@std@@@std@@@2@@Z 10073238     LagComp.obj
 0002:0000b238       __ehfuncinfo$?_Make_iter@?$deque@ULegitPlayerRecords@@V?$allocator@ULegitPlayerRecords@@@std@@@std@@QBE?AV?$_Deque_iterator@V?$_Deque_val@U?$_Deque_simple_types@ULegitPlayerRecords@@@std@@@std@@@2@V?$_Deque_const_iterator@V?$_Deque_val@U?$_Deque_simple_types@ULegitPlayerRecords@@@std@@@std@@@2@@Z 10073238     Legitbot.obj
 0002:0000b25c       __unwindtable$?erase@?$deque@ULegitPlayerRecords@@V?$allocator@ULegitPlayerRecords@@@std@@@std@@QAE?AV?$_Deque_iterator@V?$_Deque_val@U?$_Deque_simple_types@ULegitPlayerRecords@@@std@@@std@@@2@V?$_Deque_const_iterator@V?$_Deque_val@U?$_Deque_simple_types@ULegitPlayerRecords@@@std@@@std@@@2@@Z 1007325c     Legitbot.obj
 0002:0000b25c       __unwindtable$?erase@?$deque@UPlayerRecords@@V?$allocator@UPlayerRecords@@@std@@@std@@QAE?AV?$_Deque_iterator@V?$_Deque_val@U?$_Deque_simple_types@UPlayerRecords@@@std@@@std@@@2@V?$_Deque_const_iterator@V?$_Deque_val@U?$_Deque_simple_types@UPlayerRecords@@@std@@@std@@@2@@Z 1007325c     LagComp.obj
 0002:0000b264       __ehfuncinfo$?erase@?$deque@UPlayerRecords@@V?$allocator@UPlayerRecords@@@std@@@std@@QAE?AV?$_Deque_iterator@V?$_Deque_val@U?$_Deque_simple_types@UPlayerRecords@@@std@@@std@@@2@V?$_Deque_const_iterator@V?$_Deque_val@U?$_Deque_simple_types@UPlayerRecords@@@std@@@std@@@2@@Z 10073264     LagComp.obj
 0002:0000b264       __ehfuncinfo$?erase@?$deque@ULegitPlayerRecords@@V?$allocator@ULegitPlayerRecords@@@std@@@std@@QAE?AV?$_Deque_iterator@V?$_Deque_val@U?$_Deque_simple_types@ULegitPlayerRecords@@@std@@@std@@@2@V?$_Deque_const_iterator@V?$_Deque_val@U?$_Deque_simple_types@ULegitPlayerRecords@@@std@@@std@@@2@@Z 10073264     Legitbot.obj
 0002:0000b288       __ehfuncinfo$?erase@?$deque@ULegitPlayerRecords@@V?$allocator@ULegitPlayerRecords@@@std@@@std@@QAE?AV?$_Deque_iterator@V?$_Deque_val@U?$_Deque_simple_types@ULegitPlayerRecords@@@std@@@std@@@2@V?$_Deque_const_iterator@V?$_Deque_val@U?$_Deque_simple_types@ULegitPlayerRecords@@@std@@@std@@@2@0@Z 10073288     Legitbot.obj
 0002:0000b288       __ehfuncinfo$?erase@?$deque@UPlayerRecords@@V?$allocator@UPlayerRecords@@@std@@@std@@QAE?AV?$_Deque_iterator@V?$_Deque_val@U?$_Deque_simple_types@UPlayerRecords@@@std@@@std@@@2@V?$_Deque_const_iterator@V?$_Deque_val@U?$_Deque_simple_types@UPlayerRecords@@@std@@@std@@@2@0@Z 10073288     LagComp.obj
 0002:0000b2ac       __unwindtable$?erase@?$deque@UPlayerRecords@@V?$allocator@UPlayerRecords@@@std@@@std@@QAE?AV?$_Deque_iterator@V?$_Deque_val@U?$_Deque_simple_types@UPlayerRecords@@@std@@@std@@@2@V?$_Deque_const_iterator@V?$_Deque_val@U?$_Deque_simple_types@UPlayerRecords@@@std@@@std@@@2@0@Z 100732ac     LagComp.obj
 0002:0000b2ac       __unwindtable$?erase@?$deque@ULegitPlayerRecords@@V?$allocator@ULegitPlayerRecords@@@std@@@std@@QAE?AV?$_Deque_iterator@V?$_Deque_val@U?$_Deque_simple_types@ULegitPlayerRecords@@@std@@@std@@@2@V?$_Deque_const_iterator@V?$_Deque_val@U?$_Deque_simple_types@ULegitPlayerRecords@@@std@@@std@@@2@0@Z 100732ac     Legitbot.obj
 0002:0000b2e4       __unwindtable$?StoreRecord@LagComp@@QAEXPAVC_BaseEntity@@@Z 100732e4     LagComp.obj
 0002:0000b2f4       __ehfuncinfo$?StoreRecord@LagComp@@QAEXPAVC_BaseEntity@@@Z 100732f4     LagComp.obj
 0002:0000b318       __unwindtable$?ClearRecords@LagComp@@QAEXH@Z 10073318     LagComp.obj
 0002:0000b328       __ehfuncinfo$?ClearRecords@LagComp@@QAEXH@Z 10073328     LagComp.obj
 0002:0000b34c       __unwindtable$??H?$_Deque_const_iterator@V?$_Deque_val@U?$_Deque_simple_types@UPlayerRecords@@@std@@@std@@@std@@QBE?AV01@H@Z 1007334c     LagComp.obj
 0002:0000b34c       __unwindtable$??H?$_Deque_const_iterator@V?$_Deque_val@U?$_Deque_simple_types@ULegitPlayerRecords@@@std@@@std@@@std@@QBE?AV01@H@Z 1007334c     Legitbot.obj
 0002:0000b354       __ehfuncinfo$??H?$_Deque_const_iterator@V?$_Deque_val@U?$_Deque_simple_types@ULegitPlayerRecords@@@std@@@std@@@std@@QBE?AV01@H@Z 10073354     Legitbot.obj
 0002:0000b354       __ehfuncinfo$??H?$_Deque_const_iterator@V?$_Deque_val@U?$_Deque_simple_types@UPlayerRecords@@@std@@@std@@@std@@QBE?AV01@H@Z 10073354     LagComp.obj
 0002:0000b378       __unwindtable$??$move_backward@V?$_Deque_iterator@V?$_Deque_val@U?$_Deque_simple_types@ULegitPlayerRecords@@@std@@@std@@@std@@V12@@std@@YA?AV?$_Deque_iterator@V?$_Deque_val@U?$_Deque_simple_types@ULegitPlayerRecords@@@std@@@std@@@0@V10@00@Z 10073378     Legitbot.obj
 0002:0000b378       __unwindtable$??$move@V?$_Deque_iterator@V?$_Deque_val@U?$_Deque_simple_types@UPlayerRecords@@@std@@@std@@@std@@V12@@std@@YA?AV?$_Deque_iterator@V?$_Deque_val@U?$_Deque_simple_types@UPlayerRecords@@@std@@@std@@@0@V10@00@Z 10073378     LagComp.obj
 0002:0000b378       __unwindtable$??$move_backward@V?$_Deque_iterator@V?$_Deque_val@U?$_Deque_simple_types@UPlayerRecords@@@std@@@std@@@std@@V12@@std@@YA?AV?$_Deque_iterator@V?$_Deque_val@U?$_Deque_simple_types@UPlayerRecords@@@std@@@std@@@0@V10@00@Z 10073378     LagComp.obj
 0002:0000b378       __unwindtable$??$move@V?$_Deque_iterator@V?$_Deque_val@U?$_Deque_simple_types@ULegitPlayerRecords@@@std@@@std@@@std@@V12@@std@@YA?AV?$_Deque_iterator@V?$_Deque_val@U?$_Deque_simple_types@ULegitPlayerRecords@@@std@@@std@@@0@V10@00@Z 10073378     Legitbot.obj
 0002:0000b390       __ehfuncinfo$??$move@V?$_Deque_iterator@V?$_Deque_val@U?$_Deque_simple_types@ULegitPlayerRecords@@@std@@@std@@@std@@V12@@std@@YA?AV?$_Deque_iterator@V?$_Deque_val@U?$_Deque_simple_types@ULegitPlayerRecords@@@std@@@std@@@0@V10@00@Z 10073390     Legitbot.obj
 0002:0000b390       __ehfuncinfo$??$move_backward@V?$_Deque_iterator@V?$_Deque_val@U?$_Deque_simple_types@ULegitPlayerRecords@@@std@@@std@@@std@@V12@@std@@YA?AV?$_Deque_iterator@V?$_Deque_val@U?$_Deque_simple_types@ULegitPlayerRecords@@@std@@@std@@@0@V10@00@Z 10073390     Legitbot.obj
 0002:0000b390       __ehfuncinfo$??$move_backward@V?$_Deque_iterator@V?$_Deque_val@U?$_Deque_simple_types@UPlayerRecords@@@std@@@std@@@std@@V12@@std@@YA?AV?$_Deque_iterator@V?$_Deque_val@U?$_Deque_simple_types@UPlayerRecords@@@std@@@std@@@0@V10@00@Z 10073390     LagComp.obj
 0002:0000b390       __ehfuncinfo$??$move@V?$_Deque_iterator@V?$_Deque_val@U?$_Deque_simple_types@UPlayerRecords@@@std@@@std@@@std@@V12@@std@@YA?AV?$_Deque_iterator@V?$_Deque_val@U?$_Deque_simple_types@UPlayerRecords@@@std@@@std@@@0@V10@00@Z 10073390     LagComp.obj
 0002:0000b3b4       __unwindtable$?OnCreateMove@Legitbot@@QAEXXZ 100733b4     Legitbot.obj
 0002:0000b3c4       __ehfuncinfo$?OnCreateMove@Legitbot@@QAEXXZ 100733c4     Legitbot.obj
 0002:0000b3e8       __unwindtable$?ClientAnimations@C_BaseEntity@@QAEX_N@Z 100733e8     Resolver.obj
 0002:0000b3f0       __ehfuncinfo$?ClientAnimations@C_BaseEntity@@QAEX_N@Z 100733f0     Resolver.obj
 0002:0000b414       __unwindtable$?GetLowerBodyYaw@C_BaseEntity@@QAEMXZ 10073414     Resolver.obj
 0002:0000b41c       __ehfuncinfo$?GetLowerBodyYaw@C_BaseEntity@@QAEMXZ 1007341c     Resolver.obj
 0002:0000b440       __unwindtable$?SetLowerBodyYaw@C_BaseEntity@@QAEXM@Z 10073440     Resolver.obj
 0002:0000b448       __ehfuncinfo$?SetLowerBodyYaw@C_BaseEntity@@QAEXM@Z 10073448     Resolver.obj
 0002:0000b46c       __unwindtable$?AnimationFix@Resolver@@AAEXPAVC_BaseEntity@@@Z 1007346c     Resolver.obj
 0002:0000b474       __ehfuncinfo$?AnimationFix@Resolver@@AAEXPAVC_BaseEntity@@@Z 10073474     Resolver.obj
 0002:0000b498       __unwindtable$??0?$basic_string@DU?$char_traits@D@std@@V?$allocator@D@2@@std@@QAE@ABV01@@Z 10073498     c_esp.obj
 0002:0000b498       __unwindtable$??0?$basic_string@_WU?$char_traits@_W@std@@V?$allocator@_W@2@@std@@QAE@ABV01@@Z 10073498     config_system.obj
 0002:0000b4a0       __ehfuncinfo$??0?$basic_string@DU?$char_traits@D@std@@V?$allocator@D@2@@std@@QAE@ABV01@@Z 100734a0     c_esp.obj
 0002:0000b4a0       __ehfuncinfo$??0?$basic_string@_WU?$char_traits@_W@std@@V?$allocator@_W@2@@std@@QAE@ABV01@@Z 100734a0     config_system.obj
 0002:0000b4c4       __unwindtable$?GetAmmo@C_BaseCombatWeapon@@QAEHXZ 100734c4     c_esp.obj
 0002:0000b4cc       __ehfuncinfo$?GetAmmo@C_BaseCombatWeapon@@QAEHXZ 100734cc     c_esp.obj
 0002:0000b4f0       __unwindtable$?m_iPrimaryReserveAmmoCount@C_BaseCombatWeapon@@QAEHXZ 100734f0     c_esp.obj
 0002:0000b4f8       __ehfuncinfo$?m_iPrimaryReserveAmmoCount@C_BaseCombatWeapon@@QAEHXZ 100734f8     c_esp.obj
 0002:0000b51c       __unwindtable$?RenderWeaponName@c_esp@@AAEXPAVC_BaseEntity@@@Z 1007351c     c_esp.obj
 0002:0000b53c       __ehfuncinfo$?RenderWeaponName@c_esp@@AAEXPAVC_BaseEntity@@@Z 1007353c     c_esp.obj
 0002:0000b560       __unwindtable$?RenderHealth@c_esp@@AAEXPAVC_BaseEntity@@@Z 10073560     c_esp.obj
 0002:0000b578       __ehfuncinfo$?RenderHealth@c_esp@@AAEXPAVC_BaseEntity@@@Z 10073578     c_esp.obj
 0002:0000b59c       __unwindtable$?clean_name@@YA?AV?$basic_string@DU?$char_traits@D@std@@V?$allocator@D@2@@std@@V12@@Z 1007359c     c_esp.obj
 0002:0000b5ac       __ehfuncinfo$?clean_name@@YA?AV?$basic_string@DU?$char_traits@D@std@@V?$allocator@D@2@@std@@V12@@Z 100735ac     c_esp.obj
 0002:0000b5d0       __unwindtable$??$?0PADX@?$basic_string@DU?$char_traits@D@std@@V?$allocator@D@2@@std@@QAE@PAD0ABV?$allocator@D@1@@Z 100735d0     c_esp.obj
 0002:0000b5d8       __ehfuncinfo$??$?0PADX@?$basic_string@DU?$char_traits@D@std@@V?$allocator@D@2@@std@@QAE@PAD0ABV?$allocator@D@1@@Z 100735d8     c_esp.obj
 0002:0000b5fc       __unwindtable$?NewFrame@ImGui@@YAXXZ 100735fc     imgui.obj
 0002:0000b604       __ehfuncinfo$?NewFrame@ImGui@@YAXXZ 10073604     imgui.obj
 0002:0000b628       __unwindtable$?EndChild@ImGui@@YAX_N@Z 10073628     imgui.obj
 0002:0000b630       __ehfuncinfo$?EndChild@ImGui@@YAX_N@Z 10073630     imgui.obj
 0002:0000b654       __unwindtable$?ListBox@ImGui@@YA_NPBDPAHP6A_NPAXHPAPBD@Z2HH@Z 10073654     imgui.obj
 0002:0000b65c       __ehfuncinfo$?ListBox@ImGui@@YA_NPBDPAHP6A_NPAXHPAPBD@Z2HH@Z 1007365c     imgui.obj
 0002:0000b680       __unwindtable$?CreateContext@ImGui@@YAPAUImGuiContext@@P6APAXI@ZP6AXPAX@Z@Z 10073680     imgui.obj
 0002:0000b688       __ehfuncinfo$?CreateContext@ImGui@@YAPAUImGuiContext@@P6APAXI@ZP6AXPAX@Z@Z 10073688     imgui.obj
 0002:0000b6ac       __unwindtable$??0ImGuiTextBuffer@@QAE@XZ 100736ac     imgui.obj
 0002:0000b6b4       __ehfuncinfo$??0ImGuiTextBuffer@@QAE@XZ 100736b4     imgui.obj
 0002:0000b6d8       __ehfuncinfo$??0ImDrawList@@QAE@XZ 100736d8     imgui.obj
 0002:0000b6fc       __unwindtable$??0ImDrawList@@QAE@XZ 100736fc     imgui.obj
 0002:0000b734       __unwindtable$?ImFileOpen@@YAPAU_iobuf@@PBD0@Z 10073734     imgui.obj
 0002:0000b73c       __ehfuncinfo$?ImFileOpen@@YAPAU_iobuf@@PBD0@Z 1007373c     imgui.obj
 0002:0000b760       __unwindtable$??0ImGuiTextEditState@@QAE@XZ 10073760     imgui.obj
 0002:0000b770       __ehfuncinfo$??0ImGuiTextEditState@@QAE@XZ 10073770     imgui.obj
 0002:0000b794       __ehfuncinfo$??0ImGuiContext@@QAE@XZ 10073794     imgui.obj
 0002:0000b7b8       __unwindtable$??0ImGuiContext@@QAE@XZ 100737b8     imgui.obj
 0002:0000b828       __ehfuncinfo$??0ImGuiDrawContext@@QAE@XZ 10073828     imgui.obj
 0002:0000b84c       __unwindtable$??0ImGuiDrawContext@@QAE@XZ 1007384c     imgui.obj
 0002:0000b884       __unwindtable$??0ImGuiWindow@@QAE@PBD@Z 10073884     imgui.obj
 0002:0000b8a4       __ehfuncinfo$??0ImGuiWindow@@QAE@PBD@Z 100738a4     imgui.obj
 0002:0000b8c8       __unwindtable$?CreateNewWindow@@YAPAUImGuiWindow@@PBDUImVec2@@H@Z 100738c8     imgui.obj
 0002:0000b8d0       __ehfuncinfo$?CreateNewWindow@@YAPAUImGuiWindow@@PBDUImVec2@@H@Z 100738d0     imgui.obj
 0002:0000b8f4       __unwindtable$?GetClipboardTextFn_DefaultImpl@@YAPBDPAX@Z 100738f4     imgui.obj
 0002:0000b8fc       __ehfuncinfo$?GetClipboardTextFn_DefaultImpl@@YAPBDPAX@Z 100738fc     imgui.obj
 0002:0000b920       __unwindtable$??0ImDrawChannel@@QAE@XZ 10073920     imgui_draw.obj
 0002:0000b928       __ehfuncinfo$??0ImDrawChannel@@QAE@XZ 10073928     imgui_draw.obj
 0002:0000b94c       __unwindtable$?PathArcToFast@ImDrawList@@QAEXABUImVec2@@MHH@Z 1007394c     imgui_draw.obj
 0002:0000b954       __ehfuncinfo$?PathArcToFast@ImDrawList@@QAEXABUImVec2@@MHH@Z 10073954     imgui_draw.obj
 0002:0000b978       __unwindtable$?ChannelsSplit@ImDrawList@@QAEXH@Z 10073978     imgui_draw.obj
 0002:0000b980       __ehfuncinfo$?ChannelsSplit@ImDrawList@@QAEXH@Z 10073980     imgui_draw.obj
 0002:0000b9a4       __unwindtable$??0ImFontAtlas@@QAE@XZ 100739a4     imgui_draw.obj
 0002:0000b9bc       __ehfuncinfo$??0ImFontAtlas@@QAE@XZ 100739bc     imgui_draw.obj
 0002:0000b9e0       __unwindtable$?AddFont@ImFontAtlas@@QAEPAUImFont@@PBUImFontConfig@@@Z 100739e0     imgui_draw.obj
 0002:0000b9e8       __ehfuncinfo$?AddFont@ImFontAtlas@@QAEPAUImFont@@PBUImFontConfig@@@Z 100739e8     imgui_draw.obj
 0002:0000ba0c       __unwindtable$??0ImFont@@QAE@XZ 10073a0c     imgui_draw.obj
 0002:0000ba24       __ehfuncinfo$??0ImFont@@QAE@XZ 10073a24     imgui_draw.obj
 0002:0000ba48       __unwindtable$?ImFontAtlasBuildPackCustomRects@@YAXPAUImFontAtlas@@PAX@Z 10073a48     imgui_draw.obj
 0002:0000ba50       __ehfuncinfo$?ImFontAtlasBuildPackCustomRects@@YAXPAUImFontAtlas@@PAX@Z 10073a50     imgui_draw.obj
 0002:0000ba74       __unwindtable$?CreateMove@c_hooks@@SI_NPAVIClientMode@@PAXMPAVCUserCmd@@@Z 10073a74     createmove_hook.obj
 0002:0000ba7c       __ehfuncinfo$?CreateMove@c_hooks@@SI_NPAVIClientMode@@PAXMPAVCUserCmd@@@Z 10073a7c     createmove_hook.obj
 0002:0000baa0       __unwindtable$?Hooked_EndScene@c_hooks@@SGXPAUIDirect3DDevice9@@@Z 10073aa0     directx_preset_hook.obj
 0002:0000baa8       __ehfuncinfo$?Hooked_EndScene@c_hooks@@SGXPAUIDirect3DDevice9@@@Z 10073aa8     directx_preset_hook.obj
 0002:0000bacc       __unwindtable$?Hooked_EndScene_Reset@c_hooks@@SGXPAUIDirect3DDevice9@@PAU_D3DPRESENT_PARAMETERS_@@@Z 10073acc     directx_preset_hook.obj
 0002:0000bad4       __ehfuncinfo$?Hooked_EndScene_Reset@c_hooks@@SGXPAUIDirect3DDevice9@@PAU_D3DPRESENT_PARAMETERS_@@@Z 10073ad4     directx_preset_hook.obj
 0002:0000baf8       __unwindtable$?DrawModelExecute@c_hooks@@SIXPAX0PAVIMatRenderContext@@ABUDrawModelState_t@@ABUModelRenderInfo_t@@PAVmatrix3x4_t@@@Z 10073af8     dme_hook.obj
 0002:0000bb00       __ehfuncinfo$?DrawModelExecute@c_hooks@@SIXPAX0PAVIMatRenderContext@@ABUDrawModelState_t@@ABUModelRenderInfo_t@@PAVmatrix3x4_t@@@Z 10073b00     dme_hook.obj
 0002:0000bb24       __unwindtable$?FrameStageNotify@c_hooks@@SGXW4ClientFrameStage_t@@@Z 10073b24     fsn_hook.obj
 0002:0000bb2c       __ehfuncinfo$?FrameStageNotify@c_hooks@@SGXW4ClientFrameStage_t@@@Z 10073b2c     fsn_hook.obj
 0002:0000bb50       __unwindtable$?LockCursor@c_hooks@@SIXPAVISurface@@PAX@Z 10073b50     lock_cursor_hook.obj
 0002:0000bb58       __ehfuncinfo$?LockCursor@c_hooks@@SIXPAVISurface@@PAX@Z 10073b58     lock_cursor_hook.obj
 0002:0000bb7c       __unwindtable$?IsScoped@C_BaseEntity@@QAE_NXZ 10073b7c     oview_hook.obj
 0002:0000bb84       __ehfuncinfo$?IsScoped@C_BaseEntity@@QAE_NXZ 10073b84     oview_hook.obj
 0002:0000bba8       __unwindtable$?OverrideView@c_hooks@@SIXPAX0PAVCViewSetup@@@Z 10073ba8     oview_hook.obj
 0002:0000bbb0       __ehfuncinfo$?OverrideView@c_hooks@@SIXPAX0PAVCViewSetup@@@Z 10073bb0     oview_hook.obj
 0002:0000bbd4       __unwindtable$?PaintTraverse@c_hooks@@SIXPAXHI_N1@Z 10073bd4     painttraverse_hook.obj
 0002:0000bbdc       __ehfuncinfo$?PaintTraverse@c_hooks@@SIXPAXHI_N1@Z 10073bdc     painttraverse_hook.obj
 0002:0000bc00       __unwindtable$?SceneEnd@c_hooks@@SIXPAX0@Z 10073c00     sceneend_hook.obj
 0002:0000bc08       __ehfuncinfo$?SceneEnd@c_hooks@@SIXPAX0@Z 10073c08     sceneend_hook.obj
 0002:0000bc2c       __unwindtable$?_Makestr@_System_error@std@@CA?AV?$basic_string@DU?$char_traits@D@std@@V?$allocator@D@2@@2@Verror_code@2@V32@@Z 10073c2c     config_system.obj
 0002:0000bc3c       __ehfuncinfo$?_Makestr@_System_error@std@@CA?AV?$basic_string@DU?$char_traits@D@std@@V?$allocator@D@2@@2@Verror_code@2@V32@@Z 10073c3c     config_system.obj
 0002:0000bc60       __unwindtable$?_Convert_narrow_to_wide@filesystem@std@@YA?AV?$basic_string@_WU?$char_traits@_W@std@@V?$allocator@_W@2@@2@W4__std_code_page@@V?$basic_string_view@DU?$char_traits@D@std@@@2@@Z 10073c60     config_system.obj
 0002:0000bc68       __ehfuncinfo$?_Convert_narrow_to_wide@filesystem@std@@YA?AV?$basic_string@_WU?$char_traits@_W@std@@V?$allocator@_W@2@@2@W4__std_code_page@@V?$basic_string_view@DU?$char_traits@D@std@@@2@@Z 10073c68     config_system.obj
 0002:0000bc8c       __unwindtable$??Kfilesystem@std@@YA?AVpath@01@ABV201@0@Z 10073c8c     config_system.obj
 0002:0000bc94       __ehfuncinfo$??Kfilesystem@std@@YA?AVpath@01@ABV201@0@Z 10073c94     config_system.obj
 0002:0000bcb8       __unwindtable$??$_Convert_wide_to_narrow@U?$char_traits@D@std@@V?$allocator@D@2@@filesystem@std@@YA?AV?$basic_string@DU?$char_traits@D@std@@V?$allocator@D@2@@1@W4__std_code_page@@V?$basic_string_view@_WU?$char_traits@_W@std@@@1@ABV?$allocator@D@1@@Z 10073cb8     config_system.obj
 0002:0000bcc0       __ehfuncinfo$??$_Convert_wide_to_narrow@U?$char_traits@D@std@@V?$allocator@D@2@@filesystem@std@@YA?AV?$basic_string@DU?$char_traits@D@std@@V?$allocator@D@2@@1@W4__std_code_page@@V?$basic_string_view@_WU?$char_traits@_W@std@@@1@ABV?$allocator@D@1@@Z 10073cc0     config_system.obj
 0002:0000bce4       __unwindtable$??$?_0V?$basic_string_view@_WU?$char_traits@_W@std@@@std@@$0A@@path@filesystem@std@@QAEAAV012@ABV?$basic_string_view@_WU?$char_traits@_W@std@@@2@@Z 10073ce4     config_system.obj
 0002:0000bce4       __unwindtable$??$?_0PBD$0A@@path@filesystem@std@@QAEAAV012@ABQBD@Z 10073ce4     config_system.obj
 0002:0000bcec       __ehfuncinfo$??$?_0V?$basic_string_view@_WU?$char_traits@_W@std@@@std@@$0A@@path@filesystem@std@@QAEAAV012@ABV?$basic_string_view@_WU?$char_traits@_W@std@@@2@@Z 10073cec     config_system.obj
 0002:0000bcec       __ehfuncinfo$??$?_0PBD$0A@@path@filesystem@std@@QAEAAV012@ABQBD@Z 10073cec     config_system.obj
 0002:0000bd10       __unwindtable$??0filesystem_error@filesystem@std@@QAE@ABV?$basic_string@DU?$char_traits@D@std@@V?$allocator@D@2@@2@Verror_code@2@@Z 10073d10     config_system.obj
 0002:0000bd28       __ehfuncinfo$??0filesystem_error@filesystem@std@@QAE@ABV?$basic_string@DU?$char_traits@D@std@@V?$allocator@D@2@@2@Verror_code@2@@Z 10073d28     config_system.obj
 0002:0000bd4c       __unwindtable$??0filesystem_error@filesystem@std@@QAE@ABV?$basic_string@DU?$char_traits@D@std@@V?$allocator@D@2@@2@ABVpath@12@Verror_code@2@@Z 10073d4c     config_system.obj
 0002:0000bd6c       __ehfuncinfo$??0filesystem_error@filesystem@std@@QAE@ABV?$basic_string@DU?$char_traits@D@std@@V?$allocator@D@2@@2@ABVpath@12@Verror_code@2@@Z 10073d6c     config_system.obj
 0002:0000bd90       __unwindtable$??0filesystem_error@filesystem@std@@QAE@ABV?$basic_string@DU?$char_traits@D@std@@V?$allocator@D@2@@2@ABVpath@12@1Verror_code@2@@Z 10073d90     config_system.obj
 0002:0000bda8       __ehfuncinfo$??0filesystem_error@filesystem@std@@QAE@ABV?$basic_string@DU?$char_traits@D@std@@V?$allocator@D@2@@2@ABVpath@12@1Verror_code@2@@Z 10073da8     config_system.obj
 0002:0000bdcc       __unwindtable$?_Pretty_message@filesystem_error@filesystem@std@@CA?AV?$basic_string@DU?$char_traits@D@std@@V?$allocator@D@2@@3@V?$basic_string_view@DU?$char_traits@D@std@@@3@ABVpath@23@1@Z 10073dcc     config_system.obj
 0002:0000bde4       __ehfuncinfo$?_Pretty_message@filesystem_error@filesystem@std@@CA?AV?$basic_string@DU?$char_traits@D@std@@V?$allocator@D@2@@3@V?$basic_string_view@DU?$char_traits@D@std@@@3@ABVpath@23@1@Z 10073de4     config_system.obj
 0002:0000be08       __unwindtable$??0filesystem_error@filesystem@std@@QAE@ABV012@@Z 10073e08     config_system.obj
 0002:0000be20       __ehfuncinfo$??0filesystem_error@filesystem@std@@QAE@ABV012@@Z 10073e20     config_system.obj
 0002:0000be44       __unwindtable$?_Throw_fs_error@filesystem@std@@YAXPBDW4__std_win_error@@@Z 10073e44     config_system.obj
 0002:0000be4c       __ehfuncinfo$?_Throw_fs_error@filesystem@std@@YAXPBDW4__std_win_error@@@Z 10073e4c     config_system.obj
 0002:0000be70       __unwindtable$?_Throw_fs_error@filesystem@std@@YAXPBDW4__std_win_error@@ABVpath@12@@Z 10073e70     config_system.obj
 0002:0000be70       __unwindtable$?_Throw_fs_error@filesystem@std@@YAXPBDW4__std_win_error@@ABVpath@12@2@Z 10073e70     config_system.obj
 0002:0000be78       __ehfuncinfo$?_Throw_fs_error@filesystem@std@@YAXPBDW4__std_win_error@@ABVpath@12@2@Z 10073e78     config_system.obj
 0002:0000be78       __ehfuncinfo$?_Throw_fs_error@filesystem@std@@YAXPBDW4__std_win_error@@ABVpath@12@@Z 10073e78     config_system.obj
 0002:0000be9c       __unwindtable$??0_Creator@_Dir_enum_impl@filesystem@std@@QAE@ABVpath@23@W4directory_options@23@@Z 10073e9c     config_system.obj
 0002:0000beac       __ehfuncinfo$??0_Creator@_Dir_enum_impl@filesystem@std@@QAE@ABVpath@23@W4directory_options@23@@Z 10073eac     config_system.obj
 0002:0000bed0       __unwindtable$?_Refresh@_Dir_enum_impl@filesystem@std@@QAEXABU__std_fs_find_data@@@Z 10073ed0     config_system.obj
 0002:0000bed8       __ehfuncinfo$?_Refresh@_Dir_enum_impl@filesystem@std@@QAEXABU__std_fs_find_data@@@Z 10073ed8     config_system.obj
 0002:0000befc       __unwindtable$??0_Dir_enum_impl@filesystem@std@@QAE@$$QAU_Creator@012@W4directory_options@12@@Z 10073efc     config_system.obj
 0002:0000bf0c       __ehfuncinfo$??0_Dir_enum_impl@filesystem@std@@QAE@$$QAU_Creator@012@W4directory_options@12@@Z 10073f0c     config_system.obj
 0002:0000bf30       __unwindtable$??0directory_iterator@filesystem@std@@QAE@ABVpath@12@@Z 10073f30     config_system.obj
 0002:0000bf38       __ehfuncinfo$??0directory_iterator@filesystem@std@@QAE@ABVpath@12@@Z 10073f38     config_system.obj
 0002:0000bf5c       __unwindtable$??$_Initialize_dir_enum@U_Dir_enum_impl@filesystem@std@@@_Dir_enum_impl@filesystem@std@@SA?AW4__std_win_error@@AAV?$shared_ptr@U_Dir_enum_impl@filesystem@std@@@2@ABVpath@12@W4directory_options@12@@Z 10073f5c     config_system.obj
 0002:0000bf64       __ehfuncinfo$??$_Initialize_dir_enum@U_Dir_enum_impl@filesystem@std@@@_Dir_enum_impl@filesystem@std@@SA?AW4__std_win_error@@AAV?$shared_ptr@U_Dir_enum_impl@filesystem@std@@@2@ABVpath@12@W4directory_options@12@@Z 10073f64     config_system.obj
 0002:0000bf88       __ehfuncinfo$??$transform@Vdirectory_iterator@filesystem@std@@V?$back_insert_iterator@V?$vector@V?$basic_string@DU?$char_traits@D@std@@V?$allocator@D@2@@std@@V?$allocator@V?$basic_string@DU?$char_traits@D@std@@V?$allocator@D@2@@std@@@2@@std@@@3@V<lambda_bea2c85d2d76a7d41383a900013bf5c9>@@@std@@YA?AV?$back_insert_iterator@V?$vector@V?$basic_string@DU?$char_traits@D@std@@V?$allocator@D@2@@std@@V?$allocator@V?$basic_string@DU?$char_traits@D@std@@V?$allocator@D@2@@std@@@2@@std@@@0@Vdirectory_iterator@filesystem@0@0V10@V<lambda_bea2c85d2d76a7d41383a900013bf5c9>@@@Z 10073f88     config_system.obj
 0002:0000bfac       __unwindtable$??$transform@Vdirectory_iterator@filesystem@std@@V?$back_insert_iterator@V?$vector@V?$basic_string@DU?$char_traits@D@std@@V?$allocator@D@2@@std@@V?$allocator@V?$basic_string@DU?$char_traits@D@std@@V?$allocator@D@2@@std@@@2@@std@@@3@V<lambda_bea2c85d2d76a7d41383a900013bf5c9>@@@std@@YA?AV?$back_insert_iterator@V?$vector@V?$basic_string@DU?$char_traits@D@std@@V?$allocator@D@2@@std@@V?$allocator@V?$basic_string@DU?$char_traits@D@std@@V?$allocator@D@2@@std@@@2@@std@@@0@Vdirectory_iterator@filesystem@0@0V10@V<lambda_bea2c85d2d76a7d41383a900013bf5c9>@@@Z 10073fac     config_system.obj
 0002:0000bfd4       __unwindtable$??0?$basic_ifstream@DU?$char_traits@D@std@@@std@@QAE@PB_WHH@Z 10073fd4     config_system.obj
 0002:0000bfec       __ehfuncinfo$??0?$basic_ifstream@DU?$char_traits@D@std@@@std@@QAE@PB_WHH@Z 10073fec     config_system.obj
 0002:0000c010       __unwindtable$??0?$basic_filebuf@DU?$char_traits@D@std@@@std@@QAE@PAU_iobuf@@@Z 10074010     config_system.obj
 0002:0000c018       __ehfuncinfo$??0?$basic_filebuf@DU?$char_traits@D@std@@@std@@QAE@PAU_iobuf@@@Z 10074018     config_system.obj
 0002:0000c03c       __unwindtable$?open@?$basic_filebuf@DU?$char_traits@D@std@@@std@@QAEPAV12@PBDHH@Z 1007403c     Interfaces.obj
 0002:0000c03c       __unwindtable$?open@?$basic_filebuf@DU?$char_traits@D@std@@@std@@QAEPAV12@PB_WHH@Z 1007403c     config_system.obj
 0002:0000c044       __ehfuncinfo$?open@?$basic_filebuf@DU?$char_traits@D@std@@@std@@QAEPAV12@PB_WHH@Z 10074044     config_system.obj
 0002:0000c044       __ehfuncinfo$?open@?$basic_filebuf@DU?$char_traits@D@std@@@std@@QAEPAV12@PBDHH@Z 10074044     Interfaces.obj
 0002:0000c068       __unwindtable$?uflow@?$basic_filebuf@DU?$char_traits@D@std@@@std@@MAEHXZ 10074068     config_system.obj
 0002:0000c070       __ehfuncinfo$?uflow@?$basic_filebuf@DU?$char_traits@D@std@@@std@@MAEHXZ 10074070     config_system.obj
 0002:0000c094       __unwindtable$??0?$basic_ofstream@DU?$char_traits@D@std@@@std@@QAE@PB_WHH@Z 10074094     config_system.obj
 0002:0000c094       __unwindtable$??0?$basic_ofstream@DU?$char_traits@D@std@@@std@@QAE@PBDHH@Z 10074094     Interfaces.obj
 0002:0000c0ac       __ehfuncinfo$??0?$basic_ofstream@DU?$char_traits@D@std@@@std@@QAE@PB_WHH@Z 100740ac     config_system.obj
 0002:0000c0ac       __ehfuncinfo$??0?$basic_ofstream@DU?$char_traits@D@std@@@std@@QAE@PBDHH@Z 100740ac     Interfaces.obj
 0002:0000c0d0       __catchsym$??$_Emplace_reallocate@AAPBD@?$vector@V?$basic_string@DU?$char_traits@D@std@@V?$allocator@D@2@@std@@V?$allocator@V?$basic_string@DU?$char_traits@D@std@@V?$allocator@D@2@@std@@@2@@std@@QAEPAV?$basic_string@DU?$char_traits@D@std@@V?$allocator@D@2@@1@QAV21@AAPBD@Z$2 100740d0     config_system.obj
 0002:0000c0e0       __unwindtable$??$_Emplace_reallocate@AAPBD@?$vector@V?$basic_string@DU?$char_traits@D@std@@V?$allocator@D@2@@std@@V?$allocator@V?$basic_string@DU?$char_traits@D@std@@V?$allocator@D@2@@std@@@2@@std@@QAEPAV?$basic_string@DU?$char_traits@D@std@@V?$allocator@D@2@@1@QAV21@AAPBD@Z 100740e0     config_system.obj
 0002:0000c0f0       __tryblocktable$??$_Emplace_reallocate@AAPBD@?$vector@V?$basic_string@DU?$char_traits@D@std@@V?$allocator@D@2@@std@@V?$allocator@V?$basic_string@DU?$char_traits@D@std@@V?$allocator@D@2@@std@@@2@@std@@QAEPAV?$basic_string@DU?$char_traits@D@std@@V?$allocator@D@2@@1@QAV21@AAPBD@Z 100740f0     config_system.obj
 0002:0000c104       __ehfuncinfo$??$_Emplace_reallocate@AAPBD@?$vector@V?$basic_string@DU?$char_traits@D@std@@V?$allocator@D@2@@std@@V?$allocator@V?$basic_string@DU?$char_traits@D@std@@V?$allocator@D@2@@std@@@2@@std@@QAEPAV?$basic_string@DU?$char_traits@D@std@@V?$allocator@D@2@@1@QAV21@AAPBD@Z 10074104     config_system.obj
 0002:0000c128       __unwindtable$??$use_facet@V?$codecvt@DDU_Mbstatet@@@std@@@std@@YAABV?$codecvt@DDU_Mbstatet@@@0@ABVlocale@0@@Z 10074128     config_system.obj
 0002:0000c138       __ehfuncinfo$??$use_facet@V?$codecvt@DDU_Mbstatet@@@std@@@std@@YAABV?$codecvt@DDU_Mbstatet@@@0@ABVlocale@0@@Z 10074138     config_system.obj
 0002:0000c15c       __unwindtable$??$make_shared@U_Dir_enum_impl@filesystem@std@@U_Creator@123@ABW4directory_options@23@@std@@YA?AV?$shared_ptr@U_Dir_enum_impl@filesystem@std@@@0@$$QAU_Creator@_Dir_enum_impl@filesystem@0@ABW4directory_options@40@@Z 1007415c     config_system.obj
 0002:0000c16c       __ehfuncinfo$??$make_shared@U_Dir_enum_impl@filesystem@std@@U_Creator@123@ABW4directory_options@23@@std@@YA?AV?$shared_ptr@U_Dir_enum_impl@filesystem@std@@@0@$$QAU_Creator@_Dir_enum_impl@filesystem@0@ABW4directory_options@40@@Z 1007416c     config_system.obj
 0002:0000c190       __unwindtable$??$?RVdirectory_entry@filesystem@std@@@<lambda_bea2c85d2d76a7d41383a900013bf5c9>@@QBE?AV?$basic_string@DU?$char_traits@D@std@@V?$allocator@D@2@@std@@ABVdirectory_entry@filesystem@2@@Z 10074190     config_system.obj
 0002:0000c198       __ehfuncinfo$??$?RVdirectory_entry@filesystem@std@@@<lambda_bea2c85d2d76a7d41383a900013bf5c9>@@QBE?AV?$basic_string@DU?$char_traits@D@std@@V?$allocator@D@2@@std@@ABVdirectory_entry@filesystem@2@@Z 10074198     config_system.obj
 0002:0000c1bc       __catchsym$??$_Emplace_reallocate@V?$basic_string@DU?$char_traits@D@std@@V?$allocator@D@2@@std@@@?$vector@V?$basic_string@DU?$char_traits@D@std@@V?$allocator@D@2@@std@@V?$allocator@V?$basic_string@DU?$char_traits@D@std@@V?$allocator@D@2@@std@@@2@@std@@QAEPAV?$basic_string@DU?$char_traits@D@std@@V?$allocator@D@2@@1@QAV21@$$QAV21@@Z$2 100741bc     config_system.obj
 0002:0000c1cc       __unwindtable$??$_Emplace_reallocate@V?$basic_string@DU?$char_traits@D@std@@V?$allocator@D@2@@std@@@?$vector@V?$basic_string@DU?$char_traits@D@std@@V?$allocator@D@2@@std@@V?$allocator@V?$basic_string@DU?$char_traits@D@std@@V?$allocator@D@2@@std@@@2@@std@@QAEPAV?$basic_string@DU?$char_traits@D@std@@V?$allocator@D@2@@1@QAV21@$$QAV21@@Z 100741cc     config_system.obj
 0002:0000c1dc       __tryblocktable$??$_Emplace_reallocate@V?$basic_string@DU?$char_traits@D@std@@V?$allocator@D@2@@std@@@?$vector@V?$basic_string@DU?$char_traits@D@std@@V?$allocator@D@2@@std@@V?$allocator@V?$basic_string@DU?$char_traits@D@std@@V?$allocator@D@2@@std@@@2@@std@@QAEPAV?$basic_string@DU?$char_traits@D@std@@V?$allocator@D@2@@1@QAV21@$$QAV21@@Z 100741dc     config_system.obj
 0002:0000c1f0       __ehfuncinfo$??$_Emplace_reallocate@V?$basic_string@DU?$char_traits@D@std@@V?$allocator@D@2@@std@@@?$vector@V?$basic_string@DU?$char_traits@D@std@@V?$allocator@D@2@@std@@V?$allocator@V?$basic_string@DU?$char_traits@D@std@@V?$allocator@D@2@@std@@@2@@std@@QAEPAV?$basic_string@DU?$char_traits@D@std@@V?$allocator@D@2@@1@QAV21@$$QAV21@@Z 100741f0     config_system.obj
 0002:0000c214       __unwindtable$??$?0U_Creator@_Dir_enum_impl@filesystem@std@@ABW4directory_options@23@@?$_Ref_count_obj@U_Dir_enum_impl@filesystem@std@@@std@@QAE@$$QAU_Creator@_Dir_enum_impl@filesystem@1@ABW4directory_options@41@@Z 10074214     config_system.obj
 0002:0000c21c       __ehfuncinfo$??$?0U_Creator@_Dir_enum_impl@filesystem@std@@ABW4directory_options@23@@?$_Ref_count_obj@U_Dir_enum_impl@filesystem@std@@@std@@QAE@$$QAU_Creator@_Dir_enum_impl@filesystem@1@ABW4directory_options@41@@Z 1007421c     config_system.obj
 0002:0000c240       __unwindtable$??$_Uninitialized_move_al_unchecked@PAV?$basic_string@DU?$char_traits@D@std@@V?$allocator@D@2@@std@@PAV12@V?$allocator@V?$basic_string@DU?$char_traits@D@std@@V?$allocator@D@2@@std@@@2@@std@@YAPAV?$basic_string@DU?$char_traits@D@std@@V?$allocator@D@2@@0@PAV10@QAV10@1AAV?$allocator@V?$basic_string@DU?$char_traits@D@std@@V?$allocator@D@2@@std@@@0@U_General_ptr_iterator_tag@0@U_Unused_parameter@0@@Z 10074240     config_system.obj
 0002:0000c248       __ehfuncinfo$??$_Uninitialized_move_al_unchecked@PAV?$basic_string@DU?$char_traits@D@std@@V?$allocator@D@2@@std@@PAV12@V?$allocator@V?$basic_string@DU?$char_traits@D@std@@V?$allocator@D@2@@std@@@2@@std@@YAPAV?$basic_string@DU?$char_traits@D@std@@V?$allocator@D@2@@0@PAV10@QAV10@1AAV?$allocator@V?$basic_string@DU?$char_traits@D@std@@V?$allocator@D@2@@std@@@0@U_General_ptr_iterator_tag@0@U_Unused_parameter@0@@Z 10074248     config_system.obj
 0002:0000c344       __unwindtable$?SetAbsAngles@C_BaseEntity@@QAEXVVector@@@Z 10074344     CEntity.obj
 0002:0000c34c       __ehfuncinfo$?SetAbsAngles@C_BaseEntity@@QAEXVVector@@@Z 1007434c     CEntity.obj
 0002:0000c370       __unwindtable$?SetAbsOrigin@C_BaseEntity@@QAEXVVector@@@Z 10074370     CEntity.obj
 0002:0000c378       __ehfuncinfo$?SetAbsOrigin@C_BaseEntity@@QAEXVVector@@@Z 10074378     CEntity.obj
 0002:0000c39c       __unwindtable$?FireRate@C_BaseEntity@@QAEMXZ 1007439c     CEntity.obj
 0002:0000c3a4       __ehfuncinfo$?FireRate@C_BaseEntity@@QAEMXZ 100743a4     CEntity.obj
 0002:0000c3c8       __ehfuncinfo$?Init@interfaces@@YAXXZ 100743c8     Interfaces.obj
 0002:0000c3ec       __unwindtable$?Init@interfaces@@YAXXZ 100743ec     Interfaces.obj
 0002:0000c46c       __unwindtable$??$FindClass@VIPhysicsSurfaceProps@@@interfaces@@YAPAVIPhysicsSurfaceProps@@V?$basic_string@DU?$char_traits@D@std@@V?$allocator@D@2@@std@@0_N@Z 1007446c     Interfaces.obj
 0002:0000c46c       __unwindtable$??$FindClass@VICVar@@@interfaces@@YAPAVICVar@@V?$basic_string@DU?$char_traits@D@std@@V?$allocator@D@2@@std@@0_N@Z 1007446c     Interfaces.obj
 0002:0000c46c       __unwindtable$??$FindClass@VIPanel@@@interfaces@@YAPAVIPanel@@V?$basic_string@DU?$char_traits@D@std@@V?$allocator@D@2@@std@@0_N@Z 1007446c     Interfaces.obj
 0002:0000c46c       __unwindtable$??$FindClass@VIVModelInfo@@@interfaces@@YAPAVIVModelInfo@@V?$basic_string@DU?$char_traits@D@std@@V?$allocator@D@2@@std@@0_N@Z 1007446c     Interfaces.obj
 0002:0000c46c       __unwindtable$??$FindClass@VCModelRender@@@interfaces@@YAPAVCModelRender@@V?$basic_string@DU?$char_traits@D@std@@V?$allocator@D@2@@std@@0_N@Z 1007446c     Interfaces.obj
 0002:0000c46c       __unwindtable$??$FindClass@VISurface@@@interfaces@@YAPAVISurface@@V?$basic_string@DU?$char_traits@D@std@@V?$allocator@D@2@@std@@0_N@Z 1007446c     Interfaces.obj
 0002:0000c46c       __unwindtable$??$FindClass@VIGameMovement@@@interfaces@@YAPAVIGameMovement@@V?$basic_string@DU?$char_traits@D@std@@V?$allocator@D@2@@std@@0_N@Z 1007446c     Interfaces.obj
 0002:0000c46c       __unwindtable$??$FindClass@VCPrediction@@@interfaces@@YAPAVCPrediction@@V?$basic_string@DU?$char_traits@D@std@@V?$allocator@D@2@@std@@0_N@Z 1007446c     Interfaces.obj
 0002:0000c46c       __unwindtable$??$FindClass@VIVEngineClient@@@interfaces@@YAPAVIVEngineClient@@V?$basic_string@DU?$char_traits@D@std@@V?$allocator@D@2@@std@@0_N@Z 1007446c     Interfaces.obj
 0002:0000c46c       __unwindtable$??$FindClass@VIClientEntityList@@@interfaces@@YAPAVIClientEntityList@@V?$basic_string@DU?$char_traits@D@std@@V?$allocator@D@2@@std@@0_N@Z 1007446c     Interfaces.obj
 0002:0000c46c       __unwindtable$??$FindClass@VIBaseClientDLL@@@interfaces@@YAPAVIBaseClientDLL@@V?$basic_string@DU?$char_traits@D@std@@V?$allocator@D@2@@std@@0_N@Z 1007446c     Interfaces.obj
 0002:0000c46c       __unwindtable$??$FindClass@VIMaterialSystem@@@interfaces@@YAPAVIMaterialSystem@@V?$basic_string@DU?$char_traits@D@std@@V?$allocator@D@2@@std@@0_N@Z 1007446c     Interfaces.obj
 0002:0000c46c       __unwindtable$??$FindClass@VIVRenderView@@@interfaces@@YAPAVIVRenderView@@V?$basic_string@DU?$char_traits@D@std@@V?$allocator@D@2@@std@@0_N@Z 1007446c     Interfaces.obj
 0002:0000c46c       __unwindtable$??$FindClass@VIEngineTrace@@@interfaces@@YAPAVIEngineTrace@@V?$basic_string@DU?$char_traits@D@std@@V?$allocator@D@2@@std@@0_N@Z 1007446c     Interfaces.obj
 0002:0000c47c       __ehfuncinfo$??$FindClass@VIGameMovement@@@interfaces@@YAPAVIGameMovement@@V?$basic_string@DU?$char_traits@D@std@@V?$allocator@D@2@@std@@0_N@Z 1007447c     Interfaces.obj
 0002:0000c47c       __ehfuncinfo$??$FindClass@VCModelRender@@@interfaces@@YAPAVCModelRender@@V?$basic_string@DU?$char_traits@D@std@@V?$allocator@D@2@@std@@0_N@Z 1007447c     Interfaces.obj
 0002:0000c47c       __ehfuncinfo$??$FindClass@VIVModelInfo@@@interfaces@@YAPAVIVModelInfo@@V?$basic_string@DU?$char_traits@D@std@@V?$allocator@D@2@@std@@0_N@Z 1007447c     Interfaces.obj
 0002:0000c47c       __ehfuncinfo$??$FindClass@VIPanel@@@interfaces@@YAPAVIPanel@@V?$basic_string@DU?$char_traits@D@std@@V?$allocator@D@2@@std@@0_N@Z 1007447c     Interfaces.obj
 0002:0000c47c       __ehfuncinfo$??$FindClass@VICVar@@@interfaces@@YAPAVICVar@@V?$basic_string@DU?$char_traits@D@std@@V?$allocator@D@2@@std@@0_N@Z 1007447c     Interfaces.obj
 0002:0000c47c       __ehfuncinfo$??$FindClass@VIPhysicsSurfaceProps@@@interfaces@@YAPAVIPhysicsSurfaceProps@@V?$basic_string@DU?$char_traits@D@std@@V?$allocator@D@2@@std@@0_N@Z 1007447c     Interfaces.obj
 0002:0000c47c       __ehfuncinfo$??$FindClass@VIEngineTrace@@@interfaces@@YAPAVIEngineTrace@@V?$basic_string@DU?$char_traits@D@std@@V?$allocator@D@2@@std@@0_N@Z 1007447c     Interfaces.obj
 0002:0000c47c       __ehfuncinfo$??$FindClass@VIVRenderView@@@interfaces@@YAPAVIVRenderView@@V?$basic_string@DU?$char_traits@D@std@@V?$allocator@D@2@@std@@0_N@Z 1007447c     Interfaces.obj
 0002:0000c47c       __ehfuncinfo$??$FindClass@VISurface@@@interfaces@@YAPAVISurface@@V?$basic_string@DU?$char_traits@D@std@@V?$allocator@D@2@@std@@0_N@Z 1007447c     Interfaces.obj
 0002:0000c47c       __ehfuncinfo$??$FindClass@VIMaterialSystem@@@interfaces@@YAPAVIMaterialSystem@@V?$basic_string@DU?$char_traits@D@std@@V?$allocator@D@2@@std@@0_N@Z 1007447c     Interfaces.obj
 0002:0000c47c       __ehfuncinfo$??$FindClass@VIBaseClientDLL@@@interfaces@@YAPAVIBaseClientDLL@@V?$basic_string@DU?$char_traits@D@std@@V?$allocator@D@2@@std@@0_N@Z 1007447c     Interfaces.obj
 0002:0000c47c       __ehfuncinfo$??$FindClass@VCPrediction@@@interfaces@@YAPAVCPrediction@@V?$basic_string@DU?$char_traits@D@std@@V?$allocator@D@2@@std@@0_N@Z 1007447c     Interfaces.obj
 0002:0000c47c       __ehfuncinfo$??$FindClass@VIClientEntityList@@@interfaces@@YAPAVIClientEntityList@@V?$basic_string@DU?$char_traits@D@std@@V?$allocator@D@2@@std@@0_N@Z 1007447c     Interfaces.obj
 0002:0000c47c       __ehfuncinfo$??$FindClass@VIVEngineClient@@@interfaces@@YAPAVIVEngineClient@@V?$basic_string@DU?$char_traits@D@std@@V?$allocator@D@2@@std@@0_N@Z 1007447c     Interfaces.obj
 0002:0000c4a0       __unwindtable$??$CaptureInterface@VIGameEventManager@@@interfaces@@YAPAVIGameEventManager@@PBD0@Z 100744a0     Interfaces.obj
 0002:0000c4a8       __ehfuncinfo$??$CaptureInterface@VIGameEventManager@@@interfaces@@YAPAVIGameEventManager@@PBD0@Z 100744a8     Interfaces.obj
 0002:0000c4cc       __catchsym$??$?6U?$char_traits@D@std@@@std@@YAAAV?$basic_ostream@DU?$char_traits@D@std@@@0@AAV10@PBD@Z$3 100744cc     Interfaces.obj
 0002:0000c4dc       __tryblocktable$??$?6U?$char_traits@D@std@@@std@@YAAAV?$basic_ostream@DU?$char_traits@D@std@@@0@AAV10@PBD@Z 100744dc     Interfaces.obj
 0002:0000c4f0       __unwindtable$??$?6U?$char_traits@D@std@@@std@@YAAAV?$basic_ostream@DU?$char_traits@D@std@@@0@AAV10@PBD@Z 100744f0     Interfaces.obj
 0002:0000c508       __ehfuncinfo$??$?6U?$char_traits@D@std@@@std@@YAAAV?$basic_ostream@DU?$char_traits@D@std@@@0@AAV10@PBD@Z 10074508     Interfaces.obj
 0002:0000c52c       __unwindtable$??0sentry@?$basic_ostream@DU?$char_traits@D@std@@@std@@QAE@AAV12@@Z 1007452c     Interfaces.obj
 0002:0000c534       __ehfuncinfo$??0sentry@?$basic_ostream@DU?$char_traits@D@std@@@std@@QAE@AAV12@@Z 10074534     Interfaces.obj
 0002:0000c558       __unwindtable$??0?$_Hash@V?$_Umap_traits@V?$basic_string@DU?$char_traits@D@std@@V?$allocator@D@2@@std@@V?$shared_ptr@UNode@NetvarTree@@@2@V?$_Uhash_compare@V?$basic_string@DU?$char_traits@D@std@@V?$allocator@D@2@@std@@U?$hash@V?$basic_string@DU?$char_traits@D@std@@V?$allocator@D@2@@std@@@2@U?$equal_to@V?$basic_string@DU?$char_traits@D@std@@V?$allocator@D@2@@std@@@2@@2@V?$allocator@U?$pair@$$CBV?$basic_string@DU?$char_traits@D@std@@V?$allocator@D@2@@std@@V?$shared_ptr@UNode@NetvarTree@@@2@@std@@@2@$0A@@std@@@std@@QAE@ABV?$_Uhash_compare@V?$basic_string@DU?$char_traits@D@std@@V?$allocator@D@2@@std@@U?$hash@V?$basic_string@DU?$char_traits@D@std@@V?$allocator@D@2@@std@@@2@U?$equal_to@V?$basic_string@DU?$char_traits@D@std@@V?$allocator@D@2@@std@@@2@@1@ABV?$allocator@U?$pair@$$CBV?$basic_string@DU?$char_traits@D@std@@V?$allocator@D@2@@std@@V?$shared_ptr@UNode@NetvarTree@@@2@@std@@@1@@Z 10074558     NetvarManager.obj
 0002:0000c568       __ehfuncinfo$??0?$_Hash@V?$_Umap_traits@V?$basic_string@DU?$char_traits@D@std@@V?$allocator@D@2@@std@@V?$shared_ptr@UNode@NetvarTree@@@2@V?$_Uhash_compare@V?$basic_string@DU?$char_traits@D@std@@V?$allocator@D@2@@std@@U?$hash@V?$basic_string@DU?$char_traits@D@std@@V?$allocator@D@2@@std@@@2@U?$equal_to@V?$basic_string@DU?$char_traits@D@std@@V?$allocator@D@2@@std@@@2@@2@V?$allocator@U?$pair@$$CBV?$basic_string@DU?$char_traits@D@std@@V?$allocator@D@2@@std@@V?$shared_ptr@UNode@NetvarTree@@@2@@std@@@2@$0A@@std@@@std@@QAE@ABV?$_Uhash_compare@V?$basic_string@DU?$char_traits@D@std@@V?$allocator@D@2@@std@@U?$hash@V?$basic_string@DU?$char_traits@D@std@@V?$allocator@D@2@@std@@@2@U?$equal_to@V?$basic_string@DU?$char_traits@D@std@@V?$allocator@D@2@@std@@@2@@1@ABV?$allocator@U?$pair@$$CBV?$basic_string@DU?$char_traits@D@std@@V?$allocator@D@2@@std@@V?$shared_ptr@UNode@NetvarTree@@@2@@std@@@1@@Z 10074568     NetvarManager.obj
 0002:0000c58c       __unwindtable$??0NetvarTree@@QAE@XZ 1007458c     NetvarManager.obj
 0002:0000c59c       __ehfuncinfo$??0NetvarTree@@QAE@XZ 1007459c     NetvarManager.obj
 0002:0000c5c0       __unwindtable$?PopulateNodes@NetvarTree@@AAEXPAVRecvTable@@PAV?$unordered_map@V?$basic_string@DU?$char_traits@D@std@@V?$allocator@D@2@@std@@V?$shared_ptr@UNode@NetvarTree@@@2@U?$hash@V?$basic_string@DU?$char_traits@D@std@@V?$allocator@D@2@@std@@@2@U?$equal_to@V?$basic_string@DU?$char_traits@D@std@@V?$allocator@D@2@@std@@@2@V?$allocator@U?$pair@$$CBV?$basic_string@DU?$char_traits@D@std@@V?$allocator@D@2@@std@@V?$shared_ptr@UNode@NetvarTree@@@2@@std@@@2@@std@@@Z 100745c0     NetvarManager.obj
 0002:0000c5c8       __ehfuncinfo$?PopulateNodes@NetvarTree@@AAEXPAVRecvTable@@PAV?$unordered_map@V?$basic_string@DU?$char_traits@D@std@@V?$allocator@D@2@@std@@V?$shared_ptr@UNode@NetvarTree@@@2@U?$hash@V?$basic_string@DU?$char_traits@D@std@@V?$allocator@D@2@@std@@@2@U?$equal_to@V?$basic_string@DU?$char_traits@D@std@@V?$allocator@D@2@@std@@@2@V?$allocator@U?$pair@$$CBV?$basic_string@DU?$char_traits@D@std@@V?$allocator@D@2@@std@@V?$shared_ptr@UNode@NetvarTree@@@2@@std@@@2@@std@@@Z 100745c8     NetvarManager.obj
 0002:0000c5ec       __unwindtable$??$make_shared@UNode@NetvarTree@@H@std@@YA?AV?$shared_ptr@UNode@NetvarTree@@@0@$$QAH@Z 100745ec     NetvarManager.obj
 0002:0000c5fc       __ehfuncinfo$??$make_shared@UNode@NetvarTree@@H@std@@YA?AV?$shared_ptr@UNode@NetvarTree@@@0@$$QAH@Z 100745fc     NetvarManager.obj
 0002:0000c620       __unwindtable$??$?0H@?$_Ref_count_obj@UNode@NetvarTree@@@std@@QAE@$$QAH@Z 10074620     NetvarManager.obj
 0002:0000c628       __ehfuncinfo$??$?0H@?$_Ref_count_obj@UNode@NetvarTree@@@std@@QAE@$$QAH@Z 10074628     NetvarManager.obj
 0002:0000c64c       __catchsym$??$_Buynode@PBDABV?$shared_ptr@UNode@NetvarTree@@@std@@@?$_List_buy@U?$pair@$$CBV?$basic_string@DU?$char_traits@D@std@@V?$allocator@D@2@@std@@V?$shared_ptr@UNode@NetvarTree@@@2@@std@@V?$allocator@U?$pair@$$CBV?$basic_string@DU?$char_traits@D@std@@V?$allocator@D@2@@std@@V?$shared_ptr@UNode@NetvarTree@@@2@@std@@@2@@std@@QAEPAU?$_List_node@U?$pair@$$CBV?$basic_string@DU?$char_traits@D@std@@V?$allocator@D@2@@std@@V?$shared_ptr@UNode@NetvarTree@@@2@@std@@PAX@1@PAU21@0$$QAPBDABV?$shared_ptr@UNode@NetvarTree@@@1@@Z$2 1007464c     NetvarManager.obj
 0002:0000c65c       __unwindtable$??$_Buynode@PBDABV?$shared_ptr@UNode@NetvarTree@@@std@@@?$_List_buy@U?$pair@$$CBV?$basic_string@DU?$char_traits@D@std@@V?$allocator@D@2@@std@@V?$shared_ptr@UNode@NetvarTree@@@2@@std@@V?$allocator@U?$pair@$$CBV?$basic_string@DU?$char_traits@D@std@@V?$allocator@D@2@@std@@V?$shared_ptr@UNode@NetvarTree@@@2@@std@@@2@@std@@QAEPAU?$_List_node@U?$pair@$$CBV?$basic_string@DU?$char_traits@D@std@@V?$allocator@D@2@@std@@V?$shared_ptr@UNode@NetvarTree@@@2@@std@@PAX@1@PAU21@0$$QAPBDABV?$shared_ptr@UNode@NetvarTree@@@1@@Z 1007465c     NetvarManager.obj
 0002:0000c66c       __tryblocktable$??$_Buynode@PBDABV?$shared_ptr@UNode@NetvarTree@@@std@@@?$_List_buy@U?$pair@$$CBV?$basic_string@DU?$char_traits@D@std@@V?$allocator@D@2@@std@@V?$shared_ptr@UNode@NetvarTree@@@2@@std@@V?$allocator@U?$pair@$$CBV?$basic_string@DU?$char_traits@D@std@@V?$allocator@D@2@@std@@V?$shared_ptr@UNode@NetvarTree@@@2@@std@@@2@@std@@QAEPAU?$_List_node@U?$pair@$$CBV?$basic_string@DU?$char_traits@D@std@@V?$allocator@D@2@@std@@V?$shared_ptr@UNode@NetvarTree@@@2@@std@@PAX@1@PAU21@0$$QAPBDABV?$shared_ptr@UNode@NetvarTree@@@1@@Z 1007466c     NetvarManager.obj
 0002:0000c680       __ehfuncinfo$??$_Buynode@PBDABV?$shared_ptr@UNode@NetvarTree@@@std@@@?$_List_buy@U?$pair@$$CBV?$basic_string@DU?$char_traits@D@std@@V?$allocator@D@2@@std@@V?$shared_ptr@UNode@NetvarTree@@@2@@std@@V?$allocator@U?$pair@$$CBV?$basic_string@DU?$char_traits@D@std@@V?$allocator@D@2@@std@@V?$shared_ptr@UNode@NetvarTree@@@2@@std@@@2@@std@@QAEPAU?$_List_node@U?$pair@$$CBV?$basic_string@DU?$char_traits@D@std@@V?$allocator@D@2@@std@@V?$shared_ptr@UNode@NetvarTree@@@2@@std@@PAX@1@PAU21@0$$QAPBDABV?$shared_ptr@UNode@NetvarTree@@@1@@Z 10074680     NetvarManager.obj
 0002:0000c6a4       __unwindtable$___std_fs_get_stats@16 100746a4     msvcprt:filesystem.obj
 0002:0000c6bc       __ehfuncinfo$___std_fs_get_stats@16 100746bc     msvcprt:filesystem.obj
 0002:0000c6e0       __sehtable$??_L@YGXPAXIIP6EX0@Z1@Z 100746e0     MSVCRT:ehvecctr.obj
 0002:0000c700       __sehtable$??_M@YGXPAXIIP6EX0@Z@Z 10074700     MSVCRT:ehvecdtr.obj
 0002:0000c720       __sehtable$?__ArrayUnwind@@YGXPAXIIP6EX0@Z@Z 10074720     MSVCRT:ehvecdtr.obj
 0002:0000c740       __sehtable$___scrt_is_nonwritable_in_current_image 10074740     MSVCRT:utility.obj
 0002:0000c760       __sehtable$?dllmain_crt_process_attach@@YAHQAUHINSTANCE__@@QAX@Z 10074760     MSVCRT:dll_dllmain.obj
 0002:0000c780       __sehtable$?dllmain_crt_process_detach@@YAH_N@Z 10074780     MSVCRT:dll_dllmain.obj
 0002:0000c7a0       __sehtable$?dllmain_dispatch@@YAHQAUHINSTANCE__@@KQAX@Z 100747a0     MSVCRT:dll_dllmain.obj
 0002:0000ce10       .idata$6                   10074e10     kernel32:KERNEL32.dll
 0002:0000cef8       .idata$6                   10074ef8     user32:USER32.dll
 0002:0000cf1c       .idata$6                   10074f1c     shell32:SHELL32.dll
 0002:0000cf38       .idata$6                   10074f38     ole32:ole32.dll
 0002:0000dd40       .idata$6                   10075d40     msvcprt:MSVCP140.dll
 0002:0000dd78       .idata$6                   10075d78     imm32:IMM32.dll
 0002:0000de7e       .idata$6                   10075e7e     vcruntime:VCRUNTIME140.dll
 0002:0000e216       .idata$6                   10076216     ucrt:api-ms-win-crt-heap-l1-1-0.dll
 0002:0000e236       .idata$6                   10076236     ucrt:api-ms-win-crt-convert-l1-1-0.dll
 0002:0000e258       .idata$6                   10076258     ucrt:api-ms-win-crt-stdio-l1-1-0.dll
 0002:0000e278       .idata$6                   10076278     ucrt:api-ms-win-crt-runtime-l1-1-0.dll
 0002:0000e29a       .idata$6                   1007629a     ucrt:api-ms-win-crt-math-l1-1-0.dll
 0002:0000e2ba       .idata$6                   100762ba     ucrt:api-ms-win-crt-utility-l1-1-0.dll
 0002:0000e2dc       .idata$6                   100762dc     ucrt:api-ms-win-crt-string-l1-1-0.dll
 0002:0000e2fe       .idata$6                   100762fe     ucrt:api-ms-win-crt-filesystem-l1-1-0.dll
 0002:0000e324       .idata$6                   10076324     ucrt:api-ms-win-crt-locale-l1-1-0.dll
 0003:00000000       ?Speed@?1??Autostop@c_aimbot@@QAEXXZ@4MA 10077000     c_ragebot.obj
 0003:00000004       ?HitboxForMuti@?1??Hitscan@c_aimbot@@QAE?AVVector@@PAVC_BaseEntity@@@Z@4PAHA 10077004     c_ragebot.obj
 0003:0000001c       ?g_VertexBufferSize@@3HA   1007701c     imgui_impl_dx9.obj
 0003:00000020       ?g_IndexBufferSize@@3HA    10077020     imgui_impl_dx9.obj
 0003:00000028       ?STB_TEXTEDIT_NEWLINE@ImGuiStb@@3GA 10077028     imgui.obj
 0003:00000038       ?old_time@?1??begin_popup@ImGui@@YAXPBDHPA_N@Z@4JA 10077038     menu_system.obj
 0003:0000003c       ?current_config@?2??config_tab@@YAXXZ@4HA 1007703c     menu_system.obj
 0003:00000504       ?vec2_origin@@3VVector2D@@B 10077504     other_esp.obj
 0003:00000518       ?OldNightmode@?1??night_mode@other_esp@@QAEXXZ@4_NA 10077518     other_esp.obj
 0003:00000658       ?vec2_origin@@3VVector2D@@B 10077658     c_hooks.obj
 0003:0000066c       ?vec2_origin@@3VVector2D@@B 1007766c     dll_main.obj
 0003:00000678       ?vec2_origin@@3VVector2D@@B 10077678     c_ragebot.obj
 0003:00061f70       ?oldSimtime@?1??ShouldBaim@@YA_NPAVC_BaseEntity@@@Z@4PAMA 100d8f70     c_ragebot.obj
 0003:00062078       ?storedSimtime@?1??ShouldBaim@@YA_NPAVC_BaseEntity@@@Z@4PAMA 100d9078     c_ragebot.obj
 0003:00062180       ?ShotTime@?1??ShouldBaim@@YA_NPAVC_BaseEntity@@@Z@4PAMA 100d9180     c_ragebot.obj
 0003:00062288       ?NextShotTime@?1??ShouldBaim@@YA_NPAVC_BaseEntity@@@Z@4PAMA 100d9288     c_ragebot.obj
 0003:00062390       ?BaimShot@?1??ShouldBaim@@YA_NPAVC_BaseEntity@@@Z@4PA_NA 100d9390     c_ragebot.obj
 0003:000623d1       ?shot@?1??OnCreateMove@c_aimbot@@QAEXXZ@4_NA 100d93d1     c_ragebot.obj
 0003:000623d8       ?vec2_origin@@3VVector2D@@B 100d93d8     Autowall.obj
 0003:000623f0       ?dwAddress@?1??UTIL_ClipTraceToPlayers@@YAXABVVector@@0IPAVITraceFilter@@PAUC_Trace@@@Z@4KA 100d93f0     Autowall.obj
 0003:000623f4       ?$TSS0@?1??UTIL_ClipTraceToPlayers@@YAXABVVector@@0IPAVITraceFilter@@PAUC_Trace@@@Z@4HA 100d93f4     Autowall.obj
 0003:000623f8       ?oTraceToExit@?1??TraceToExitalt@@YA_NAAVVector@@AAUC_Trace@@V2@2PAU3@@Z@4P6I_N01MMMMMM3@ZA 100d93f8     Autowall.obj
 0003:000623fc       ?$TSS0@?1??TraceToExitalt@@YA_NAAVVector@@AAUC_Trace@@V2@2PAU3@@Z@4HA 100d93fc     Autowall.obj
 0003:00062410       ?vec2_origin@@3VVector2D@@B 100d9410     EnginePrediction.obj
 0003:00062420       ?vec2_origin@@3VVector2D@@B 100d9420     LagComp.obj
 0003:00062a40       ?ShotTime@?1??StoreRecord@LagComp@@QAEXPAVC_BaseEntity@@@Z@4PAMA 100d9a40     LagComp.obj
 0003:00062b48       ?OldSimtime@?1??StoreRecord@LagComp@@QAEXPAVC_BaseEntity@@@Z@4PAMA 100d9b48     LagComp.obj
 0003:00062c50       ?vec2_origin@@3VVector2D@@B 100d9c50     AntiAim.obj
 0003:00062c58       ?FinalAngle@?1??FreeStanding@@YAXXZ@4MA 100d9c58     AntiAim.obj
 0003:00062c5c       ?oldSwtich@?CL@??FreeStanding@@YAXXZ@4_NA 100d9c5c     AntiAim.obj
 0003:00062c60       ?$TSS0@?CL@??FreeStanding@@YAXXZ@4HA 100d9c60     AntiAim.obj
 0003:00062c64       ?Add@?CL@??FreeStanding@@YAXXZ@4HA 100d9c64     AntiAim.obj
 0003:00062c68       ?Swtich2@?1??Real@@YAXXZ@4_NA 100d9c68     AntiAim.obj
 0003:00062c6c       ?test@?1??Real@@YAXXZ@4MA  100d9c6c     AntiAim.obj
 0003:00062c70       ?vec2_origin@@3VVector2D@@B 100d9c70     Legitbot.obj
 0003:00063190       ?bestEntTick@?1??OnCreateMove@Legitbot@@QAEXXZ@4PAHA 100da190     Legitbot.obj
 0003:00063298       ?StoredSimTime@?9??OnCreateMove@Legitbot@@QAEXXZ@4PAMA 100da298     Legitbot.obj
 0003:000633a0       ?vec2_origin@@3VVector2D@@B 100da3a0     Resolver.obj
 0003:00063618       ?oldSimtime@?1??AnimationFix@Resolver@@AAEXPAVC_BaseEntity@@@Z@4PAMA 100da618     Resolver.obj
 0003:00063720       ?storedSimtime@?1??AnimationFix@Resolver@@AAEXPAVC_BaseEntity@@@Z@4PAMA 100da720     Resolver.obj
 0003:00063828       ?ShotTime@?1??AnimationFix@Resolver@@AAEXPAVC_BaseEntity@@@Z@4PAMA 100da828     Resolver.obj
 0003:00063930       ?SideTime@?1??AnimationFix@Resolver@@AAEXPAVC_BaseEntity@@@Z@4PAY02MA 100da930     Resolver.obj
 0003:00063c40       ?LastDesyncSide@?1??AnimationFix@Resolver@@AAEXPAVC_BaseEntity@@@Z@4PAHA 100dac40     Resolver.obj
 0003:00063d48       ?Delaying@?1??AnimationFix@Resolver@@AAEXPAVC_BaseEntity@@@Z@4PA_NA 100dad48     Resolver.obj
 0003:00063d90       ?StoredLayers@?1??AnimationFix@Resolver@@AAEXPAVC_BaseEntity@@@Z@4PAY0P@VAnimationLayer@@A 100dad90     Resolver.obj
 0003:00070f90       ?StoredAnimState@?1??AnimationFix@Resolver@@AAEXPAVC_BaseEntity@@@Z@4PAPAVC_AnimState@@A 100e7f90     Resolver.obj
 0003:00071098       ?StoredPosParams@?1??AnimationFix@Resolver@@AAEXPAVC_BaseEntity@@@Z@4PAY0BI@MA 100e8098     Resolver.obj
 0003:000728f8       ?oldEyeAngles@?1??AnimationFix@Resolver@@AAEXPAVC_BaseEntity@@@Z@4PAVVector@@A 100e98f8     Resolver.obj
 0003:00072c04       ?$TSS0@?1??AnimationFix@Resolver@@AAEXPAVC_BaseEntity@@@Z@4HA 100e9c04     Resolver.obj
 0003:00072c08       ?oldGoalfeetYaw@?1??AnimationFix@Resolver@@AAEXPAVC_BaseEntity@@@Z@4PAMA 100e9c08     Resolver.obj
 0003:00072d10       ?jittering@?1??AnimationFix@Resolver@@AAEXPAVC_BaseEntity@@@Z@4PA_NA 100e9d10     Resolver.obj
 0003:00072d58       ?predTime@?1??HandleHits@@YAXPAVC_BaseEntity@@@Z@4PAMA 100e9d58     Resolver.obj
 0003:00072e60       ?init@?1??HandleHits@@YAXPAVC_BaseEntity@@@Z@4PA_NA 100e9e60     Resolver.obj
 0003:00072ea8       ?wasDormant@?1??FrameStage@Resolver@@QAEXW4ClientFrameStage_t@@@Z@4PA_NA 100e9ea8     Resolver.obj
 0003:00072f38       ?vec2_origin@@3VVector2D@@B 100e9f38     c_esp.obj
 0003:00072f50       ?g_hWnd@@3PAUHWND__@@A     100e9f50     imgui_impl_dx9.obj
 0003:00072f54       ?g_pd3dDevice@@3PAUIDirect3DDevice9@@A 100e9f54     imgui_impl_dx9.obj
 0003:00072f58       ?g_Time@@3_JA              100e9f58     imgui_impl_dx9.obj
 0003:00072f60       ?g_TicksPerSecond@@3_JA    100e9f60     imgui_impl_dx9.obj
 0003:00072f68       ?g_pVB@@3PAUIDirect3DVertexBuffer9@@A 100e9f68     imgui_impl_dx9.obj
 0003:00072f6c       ?g_pIB@@3PAUIDirect3DIndexBuffer9@@A 100e9f6c     imgui_impl_dx9.obj
 0003:00072f70       ?g_FontTexture@@3PAUIDirect3DTexture9@@A 100e9f70     imgui_impl_dx9.obj
 0003:00072f80       ?GImDefaultFontAtlas@@3UImFontAtlas@@A 100e9f80     imgui.obj
 0003:00072fc8       ?GImDefaultContext@@3UImGuiContext@@A 100e9fc8     imgui.obj
 0003:00076588       ?crc32_lut@?1??ImHash@@YAIPBXHI@Z@4PAIA 100ed588     imgui.obj
 0003:00076988       ?buf_local@?1??GetClipboardTextFn_DefaultImpl@@YAPBDPAX@Z@4V?$ImVector@D@@A 100ed988     imgui.obj
 0003:00076994       ?$TSS0@?1??GetClipboardTextFn_DefaultImpl@@YAPBDPAX@Z@4HA 100ed994     imgui.obj
 0003:00076998       ?GNullClipRect@@3UImVec4@@B 100ed998     imgui_draw.obj
 0003:000769a8       ?stb__barrier@@3PAEA       100ed9a8     imgui_draw.obj
 0003:000769ac       ?stb__barrier2@@3PAEA      100ed9ac     imgui_draw.obj
 0003:000769b0       ?stb__barrier3@@3PAEA      100ed9b0     imgui_draw.obj
 0003:000769b4       ?stb__barrier4@@3PAEA      100ed9b4     imgui_draw.obj
 0003:000769b8       ?stb__dout@@3PAEA          100ed9b8     imgui_draw.obj
 0003:000769c0       ?circle_vtx@?1??PathArcToFast@ImDrawList@@QAEXABUImVec2@@MHH@Z@4PAU3@A 100ed9c0     imgui_draw.obj
 0003:00076a20       ?$TSS0@?1??PathArcToFast@ImDrawList@@QAEXABUImVec2@@MHH@Z@4HA 100eda20     imgui_draw.obj
 0003:00076a24       ?circle_vtx_builds@?1??PathArcToFast@ImDrawList@@QAEXABUImVec2@@MHH@Z@4_NA 100eda24     imgui_draw.obj
 0003:00076a28       ?vec2_origin@@3VVector2D@@B 100eda28     bone_processing_hook.obj
 0003:00076a30       ?vec2_origin@@3VVector2D@@B 100eda30     createmove_hook.obj
 0003:00076a3c       ?oCreateMove@?1??CreateMove@c_hooks@@SI_NPAVIClientMode@@PAXMPAVCUserCmd@@@Z@4P6I_N01M2@ZA 100eda3c     createmove_hook.obj
 0003:00076a40       ?$TSS0@?1??CreateMove@c_hooks@@SI_NPAVIClientMode@@PAXMPAVCUserCmd@@@Z@4HA 100eda40     createmove_hook.obj
 0003:00076a54       ?vec2_origin@@3VVector2D@@B 100eda54     directx_preset_hook.obj
 0003:00076a5c       ?initialized@@3_NA         100eda5c     directx_preset_hook.obj
 0003:00076a60       ?oEndScene@?1??Hooked_EndScene@c_hooks@@SGXPAUIDirect3DDevice9@@@Z@4P6GX0@ZA 100eda60     directx_preset_hook.obj
 0003:00076a64       ?$TSS0@?1??Hooked_EndScene@c_hooks@@SGXPAUIDirect3DDevice9@@@Z@4HA 100eda64     directx_preset_hook.obj
 0003:00076a68       ?oEndSceneReset@?1??Hooked_EndScene_Reset@c_hooks@@SGXPAUIDirect3DDevice9@@PAU_D3DPRESENT_PARAMETERS_@@@Z@4P6GX01@ZA 100eda68     directx_preset_hook.obj
 0003:00076a6c       ?$TSS0@?1??Hooked_EndScene_Reset@c_hooks@@SGXPAUIDirect3DDevice9@@PAU_D3DPRESENT_PARAMETERS_@@@Z@4HA 100eda6c     directx_preset_hook.obj
 0003:00076a70       ?vec2_origin@@3VVector2D@@B 100eda70     dme_hook.obj
 0003:00076a78       ?glowOverlay@@3PAVIMaterial@@A 100eda78     dme_hook.obj
 0003:00076a7c       ?materialRegular@@3PAVIMaterial@@A 100eda7c     dme_hook.obj
 0003:00076a80       ?rifk_glow@@3PAVIMaterial@@A 100eda80     dme_hook.obj
 0003:00076a84       ?oDrawModelExecute@?1??DrawModelExecute@c_hooks@@SIXPAX0PAVIMatRenderContext@@ABUDrawModelState_t@@ABUModelRenderInfo_t@@PAVmatrix3x4_t@@@Z@4P6EX01234@ZA 100eda84     dme_hook.obj
 0003:00076a88       ?$TSS0@?1??DrawModelExecute@c_hooks@@SIXPAX0PAVIMatRenderContext@@ABUDrawModelState_t@@ABUModelRenderInfo_t@@PAVmatrix3x4_t@@@Z@4HA 100eda88     dme_hook.obj
 0003:00076a8c       ?normal_enemy@?1??DrawModelExecute@c_hooks@@SIXPAX0PAVIMatRenderContext@@ABUDrawModelState_t@@ABUModelRenderInfo_t@@PAVmatrix3x4_t@@@Z@4PAVIMaterial@@A 100eda8c     dme_hook.obj
 0003:00076a90       ?overide_enemy@?1??DrawModelExecute@c_hooks@@SIXPAX0PAVIMatRenderContext@@ABUDrawModelState_t@@ABUModelRenderInfo_t@@PAVmatrix3x4_t@@@Z@4PAVIMaterial@@A 100eda90     dme_hook.obj
 0003:00076a94       ?normal_local@?1??DrawModelExecute@c_hooks@@SIXPAX0PAVIMatRenderContext@@ABUDrawModelState_t@@ABUModelRenderInfo_t@@PAVmatrix3x4_t@@@Z@4PAVIMaterial@@A 100eda94     dme_hook.obj
 0003:00076a98       ?overide_local@?1??DrawModelExecute@c_hooks@@SIXPAX0PAVIMatRenderContext@@ABUDrawModelState_t@@ABUModelRenderInfo_t@@PAVmatrix3x4_t@@@Z@4PAVIMaterial@@A 100eda98     dme_hook.obj
 0003:00076a9c       ?vec2_origin@@3VVector2D@@B 100eda9c     event_hook.obj
 0003:00076aa4       ?vec2_origin@@3VVector2D@@B 100edaa4     fsn_hook.obj
 0003:00076ab0       ?oFrameStage@?1??FrameStageNotify@c_hooks@@SGXW4ClientFrameStage_t@@@Z@4P6GX0@ZA 100edab0     fsn_hook.obj
 0003:00076ab4       ?$TSS0@?1??FrameStageNotify@c_hooks@@SGXW4ClientFrameStage_t@@@Z@4HA 100edab4     fsn_hook.obj
 0003:00076abc       ?vec2_origin@@3VVector2D@@B 100edabc     hooking_init.obj
 0003:00076ac4       ?vec2_origin@@3VVector2D@@B 100edac4     lock_cursor_hook.obj
 0003:00076acc       ?oLockCursor@?1??LockCursor@c_hooks@@SIXPAVISurface@@PAX@Z@4P6IX01@ZA 100edacc     lock_cursor_hook.obj
 0003:00076ad0       ?$TSS0@?1??LockCursor@c_hooks@@SIXPAVISurface@@PAX@Z@4HA 100edad0     lock_cursor_hook.obj
 0003:00076ad4       ?vec2_origin@@3VVector2D@@B 100edad4     oview_hook.obj
 0003:00076ae4       ?oOverrideView@?1??OverrideView@c_hooks@@SIXPAX0PAVCViewSetup@@@Z@4P6IX001@ZA 100edae4     oview_hook.obj
 0003:00076ae8       ?$TSS0@?1??OverrideView@c_hooks@@SIXPAX0PAVCViewSetup@@@Z@4HA 100edae8     oview_hook.obj
 0003:00076aec       ?vec2_origin@@3VVector2D@@B 100edaec     painttraverse_hook.obj
 0003:00076af8       ?oPaintTraverse@?1??PaintTraverse@c_hooks@@SIXPAXHI_N1@Z@4P6EX0I11@ZA 100edaf8     painttraverse_hook.obj
 0003:00076afc       ?$TSS0@?1??PaintTraverse@c_hooks@@SIXPAXHI_N1@Z@4HA 100edafc     painttraverse_hook.obj
 0003:00076b00       ?panelID@?1??PaintTraverse@c_hooks@@SIXPAXHI_N1@Z@4IA 100edb00     painttraverse_hook.obj
 0003:00076b04       ?panelHudID@?1??PaintTraverse@c_hooks@@SIXPAXHI_N1@Z@4IA 100edb04     painttraverse_hook.obj
 0003:00076b08       ?vec2_origin@@3VVector2D@@B 100edb08     sceneend_hook.obj
 0003:00076b10       ?oSceneEnd@?1??SceneEnd@c_hooks@@SIXPAX0@Z@4P6IX00@ZA 100edb10     sceneend_hook.obj
 0003:00076b14       ?$TSS0@?1??SceneEnd@c_hooks@@SIXPAX0@Z@4HA 100edb14     sceneend_hook.obj
 0003:00076b18       ?vec2_origin@@3VVector2D@@B 100edb18     wndproc_hook.obj
 0003:00076b20       ?pressed@?1??WndProc@c_hooks@@SGJPAUHWND__@@IIJ@Z@4_NA 100edb20     wndproc_hook.obj
 0003:00076cb4       ?vec2_origin@@3VVector2D@@B 100edcb4     menu_system.obj
 0003:00076cbd       ?w_printf@XorCompileTime@@3V<lambda>@@A 100edcbd     menu_system.obj
 0003:00076cbe       ?w_printf_s@XorCompileTime@@3V<lambda>@@A 100edcbe     menu_system.obj
 0003:00076cbf       ?w_sprintf_s@XorCompileTime@@3V<lambda>@@A 100edcbf     menu_system.obj
 0003:00076cc0       ?w_sprintf@XorCompileTime@@3V<lambda>@@A 100edcc0     menu_system.obj
 0003:00076cc4       ?chams_sub@?3??visuals_tab@@YAXXZ@4HA 100edcc4     menu_system.obj
 0003:00076cc8       ?buffer@?2??config_tab@@YAXXZ@4PADA 100edcc8     menu_system.obj
 0003:00076cd8       ?page@?1??Render@c_menu@@QAEXXZ@4HA 100edcd8     menu_system.obj
 0003:00076cdc       ?vec2_origin@@3VVector2D@@B 100edcdc     CEntity.obj
 0003:00076ce4       ?AbsAngles@?1??SetAbsAngles@C_BaseEntity@@QAEXVVector@@@Z@4P6EXPAV2@ABV3@@ZA 100edce4     CEntity.obj
 0003:00076ce8       ?$TSS0@?1??SetAbsAngles@C_BaseEntity@@QAEXVVector@@@Z@4HA 100edce8     CEntity.obj
 0003:00076cec       ?AbsOrigin@?1??SetAbsOrigin@C_BaseEntity@@QAEXVVector@@@Z@4P6EXPAXABV3@@ZA 100edcec     CEntity.obj
 0003:00076cf0       ?$TSS0@?1??SetAbsOrigin@C_BaseEntity@@QAEXVVector@@@Z@4HA 100edcf0     CEntity.obj
 0003:0007c418       ?vec2_origin@@3VVector2D@@B 100f3418     GlobalVars.obj
 0003:0007c774       ?vec2_origin@@3VVector2D@@B 100f3774     Interfaces.obj
 0003:0007c780       ?vec2_origin@@3VVector2D@@B 100f3780     Math.obj
 0003:0007c788       ?random_float@?1??RandomFloat@Math@@QAEMMM@Z@4P6AMMM@ZA 100f3788     Math.obj
 0003:0007c78c       ?$TSS0@?1??RandomFloat@Math@@QAEMMM@Z@4HA 100f378c     Math.obj
 0003:0007c794       ?_Fac_tidy_reg@std@@3U_Fac_tidy_reg_t@1@B 100f3794     msvcprt:locale0_implib.obj
 0003:0007c798       ?_Fac_head@std@@3PAU_Fac_node@1@A 100f3798     msvcprt:locale0_implib.obj
 0003:0007c7b4       ?is_initialized_as_dll@@3_NA 100f37b4     MSVCRT:utility.obj
 0003:0007c7b5       ?module_local_atexit_table_initialized@@3_NA 100f37b5     MSVCRT:utility.obj
 0003:0007c7b8       ?module_local_atexit_table@@3U_onexit_table_t@@A 100f37b8     MSVCRT:utility.obj
 0003:0007c7c4       ?module_local_at_quick_exit_table@@3U_onexit_table_t@@A 100f37c4     MSVCRT:utility.obj
 0003:0007c7d0       _GS_ExceptionRecord        100f37d0     MSVCRT:gs_report.obj
 0003:0007c820       _GS_ContextRecord          100f3820     MSVCRT:gs_report.obj
 0003:0007caec       ?_Tss_mutex@@3U_RTL_CRITICAL_SECTION@@A 100f3aec     MSVCRT:thread_safe_statics.obj
 0003:0007cb04       ?_Tss_cv@@3U_RTL_CONDITION_VARIABLE@@A 100f3b04     MSVCRT:thread_safe_statics.obj
 0003:0007cb08       ?_Tss_event@@3PAXA         100f3b08     MSVCRT:thread_safe_statics.obj
 0003:0007cb0c       ?encoded_sleep_condition_variable_cs@@3P6GHPAU_RTL_CONDITION_VARIABLE@@PAU_RTL_CRITICAL_SECTION@@K@ZA 100f3b0c     MSVCRT:thread_safe_statics.obj
 0003:0007cb10       ?encoded_wake_all_condition_variable@@3P6GXPAU_RTL_CONDITION_VARIABLE@@@ZA 100f3b10     MSVCRT:thread_safe_statics.obj
 0003:0007cb18       ?__proc_attached@@3HA      100f3b18     MSVCRT:dll_dllmain.obj
 0004:00000060       $R000000                   100f4060     * linker generated manifest res *

 Exports

  ordinal    name

