 hvh

 Timestamp is 5eb3c918 (Thu May  7 11:38:48 2020)

 Preferred load address is 10000000

 Start         Length     Name                   Class
 0001:00000000 00000760H .text$di                CODE
 0001:00000760 00058060H .text$mn                CODE
 0001:000587c0 000017f0H .text$x                 CODE
 0001:00059fb0 00000099H .text$yd                CODE
 0002:00000000 000002e8H .idata$5                DATA
 0002:000002e8 00000004H .00cfg                  DATA
 0002:000002ec 00000004H .CRT$XCA                DATA
 0002:000002f0 00000004H .CRT$XCL                DATA
 0002:000002f4 000000c4H .CRT$XCU                DATA
 0002:000003b8 00000004H .CRT$XCZ                DATA
 0002:000003bc 00000004H .CRT$XIA                DATA
 0002:000003c0 00000004H .CRT$XIC                DATA
 0002:000003c4 00000004H .CRT$XIZ                DATA
 0002:000003c8 00000004H .CRT$XLA                DATA
 0002:000003cc 00000004H .CRT$XLZ                DATA
 0002:000003d0 00000004H .CRT$XPA                DATA
 0002:000003d4 00000004H .CRT$XPZ                DATA
 0002:000003d8 00000004H .CRT$XTA                DATA
 0002:000003dc 00000004H .CRT$XTZ                DATA
 0002:000003e0 00000000H .gfids$y                DATA
 0002:000003e0 00009228H .rdata                  DATA
 0002:00009608 00000018H .rdata$T                DATA
 0002:00009620 000005a0H .rdata$r                DATA
 0002:00009bc0 000001c4H .rdata$sxdata           DATA
 0002:00009d84 00000390H .rdata$zzzdbg           DATA
 0002:0000a114 00000004H .rtc$IAA                DATA
 0002:0000a118 00000004H .rtc$IZZ                DATA
 0002:0000a11c 00000004H .rtc$TAA                DATA
 0002:0000a120 00000004H .rtc$TZZ                DATA
 0002:0000a124 00000004H .tls                    DATA
 0002:0000a128 00000004H .tls$                   DATA
 0002:0000a12c 00000004H .tls$ZZZ                DATA
 0002:0000a130 00001850H .xdata$x                DATA
 0002:0000b980 00000000H .edata                  DATA
 0002:0000b980 00000104H .idata$2                DATA
 0002:0000ba84 00000014H .idata$3                DATA
 0002:0000ba98 000002e8H .idata$4                DATA
 0002:0000bd80 00001596H .idata$6                DATA
 0003:00000000 00000068H .data                   DATA
 0003:00000068 000002e0H .data$r                 DATA
 0003:00000348 0007c564H .bss                    DATA
 0004:00000000 00000060H .rsrc$01                DATA
 0004:00000060 00000180H .rsrc$02                DATA

  Address         Publics by Value              Rva+Base       Lib:Object

 0000:00000000       ___guard_longjmp_table     00000000     <absolute>
 0000:00000000       ___hybrid_code_map_count   00000000     <absolute>
 0000:00000000       ___guard_fids_count        00000000     <absolute>
 0000:00000000       ___guard_fids_table        00000000     <absolute>
 0000:00000000       ___guard_iat_count         00000000     <absolute>
 0000:00000000       ___guard_iat_table         00000000     <absolute>
 0000:00000000       ___dynamic_value_reloc_table 00000000     <absolute>
 0000:00000000       ___guard_longjmp_count     00000000     <absolute>
 0000:00000000       ___volatile_metadata       00000000     <absolute>
 0000:00000000       ___hybrid_auxiliary_iat    00000000     <absolute>
 0000:00000000       ___enclave_config          00000000     <absolute>
 0000:00000000       ___hybrid_code_map         00000000     <absolute>
 0000:0000002c       __tls_array                0000002c     <absolute>
 0000:00000071       ___safe_se_handler_count   00000071     <absolute>
 0000:00000100       ___guard_flags             00000100     <absolute>
 0000:00000000       ___ImageBase               10000000     <linker-defined>
 0001:00000760       ??$?0$$V@?$_Compressed_pair@V?$allocator@D@std@@V?$_String_val@U?$_Simple_types@D@std@@@2@$00@std@@QAE@U_Zero_then_variadic_args_t@1@@Z 10001760 f i c_hooks.obj
 0001:00000760       ??$?0$$V@?$_Compressed_pair@V?$allocator@_W@std@@V?$_String_val@U?$_Simple_types@_W@std@@@2@$00@std@@QAE@U_Zero_then_variadic_args_t@1@@Z 10001760 f i config_system.obj
 0001:00000780       ??$?0AAPAVNetvarTree@@@?$_Compressed_pair@U?$default_delete@VNetvarTree@@@std@@PAVNetvarTree@@$00@std@@QAE@U_Zero_then_variadic_args_t@1@AAPAVNetvarTree@@@Z 10001780 f i c_hooks.obj
 0001:00000780       ??$?0AAPAVShadowVTManager@@@?$_Compressed_pair@U?$default_delete@VShadowVTManager@@@std@@PAVShadowVTManager@@$00@std@@QAE@U_Zero_then_variadic_args_t@1@AAPAVShadowVTManager@@@Z 10001780 f i c_hooks.obj
 0001:00000780       ??$?0AAPAV_Facet_base@std@@@?$_Compressed_pair@U?$default_delete@V_Facet_base@std@@@std@@PAV_Facet_base@2@$00@std@@QAE@U_Zero_then_variadic_args_t@1@AAPAV_Facet_base@1@@Z 10001780 f i config_system.obj
 0001:00000780       ??$?0AAPAI@?$_Compressed_pair@U?$default_delete@$$BY0A@I@std@@PAI$00@std@@QAE@U_Zero_then_variadic_args_t@1@AAPAI@Z 10001780 f i c_hooks.obj
 0001:00000780       ??$?0AAPAVVMTHook@@@?$_Compressed_pair@U?$default_delete@VVMTHook@@@std@@PAVVMTHook@@$00@std@@QAE@U_Zero_then_variadic_args_t@1@AAPAVVMTHook@@@Z 10001780 f i c_hooks.obj
 0001:000007b0       ??$?0PAVVMTHook@@@?$_Unique_ptr_base@VVMTHook@@U?$default_delete@VVMTHook@@@std@@@std@@QAE@PAVVMTHook@@@Z 100017b0 f i c_hooks.obj
 0001:000007b0       ??$?0PAVNetvarTree@@@?$_Unique_ptr_base@VNetvarTree@@U?$default_delete@VNetvarTree@@@std@@@std@@QAE@PAVNetvarTree@@@Z 100017b0 f i c_hooks.obj
 0001:000007b0       ??$?0PAV_Facet_base@std@@@?$_Unique_ptr_base@V_Facet_base@std@@U?$default_delete@V_Facet_base@std@@@2@@std@@QAE@PAV_Facet_base@1@@Z 100017b0 f i config_system.obj
 0001:000007b0       ??$?0PAVShadowVTManager@@@?$_Unique_ptr_base@VShadowVTManager@@U?$default_delete@VShadowVTManager@@@std@@@std@@QAE@PAVShadowVTManager@@@Z 100017b0 f i c_hooks.obj
 0001:000007b0       ??$?0PAI@?$_Unique_ptr_base@IU?$default_delete@$$BY0A@I@std@@@std@@QAE@PAI@Z 100017b0 f i c_hooks.obj
 0001:000007e0       ??$?0U?$default_delete@VNetvarTree@@@std@@$0A@@?$unique_ptr@VNetvarTree@@U?$default_delete@VNetvarTree@@@std@@@std@@QAE@PAVNetvarTree@@@Z 100017e0 f i c_hooks.obj
 0001:000007e0       ??$?0U?$default_delete@V_Facet_base@std@@@std@@$0A@@?$unique_ptr@V_Facet_base@std@@U?$default_delete@V_Facet_base@std@@@2@@std@@QAE@PAV_Facet_base@1@@Z 100017e0 f i config_system.obj
 0001:000007e0       ??$?0PAIU?$default_delete@$$BY0A@I@std@@$0A@X@?$unique_ptr@$$BY0A@IU?$default_delete@$$BY0A@I@std@@@std@@QAE@PAI@Z 100017e0 f i c_hooks.obj
 0001:000007e0       ??$?0U?$default_delete@VVMTHook@@@std@@$0A@@?$unique_ptr@VVMTHook@@U?$default_delete@VVMTHook@@@std@@@std@@QAE@PAVVMTHook@@@Z 100017e0 f i c_hooks.obj
 0001:00000830       ??$?0U?$default_delete@$$BY0A@I@std@@$0A@@?$unique_ptr@$$BY0A@IU?$default_delete@$$BY0A@I@std@@@std@@QAE@$$T@Z 10001830 f i c_hooks.obj
 0001:00000880       ??$?0U?$default_delete@VVMTHook@@@std@@$0A@@?$unique_ptr@VVMTHook@@U?$default_delete@VVMTHook@@@std@@@std@@QAE@XZ 10001880 f i c_hooks.obj
 0001:00000880       ??$?0U?$default_delete@VNetvarTree@@@std@@$0A@@?$unique_ptr@VNetvarTree@@U?$default_delete@VNetvarTree@@@std@@@std@@QAE@XZ 10001880 f i NetvarManager.obj
 0001:00000880       ??$?0U?$default_delete@VShadowVTManager@@@std@@$0A@@?$unique_ptr@VShadowVTManager@@U?$default_delete@VShadowVTManager@@@std@@@std@@QAE@XZ 10001880 f i c_hooks.obj
 0001:000008d0       ??$?RI$0A@@?$default_delete@$$BY0A@I@std@@QBEXPAI@Z 100018d0 f i c_hooks.obj
 0001:00000900       ??$_Allocate@$07U_Default_allocate_traits@std@@$0A@@std@@YAPAXI@Z 10001900 f i c_hooks.obj
 0001:00000940       ??$_Allocate_manually_vector_aligned@U_Default_allocate_traits@std@@@std@@YAPAXI@Z 10001940 f i c_hooks.obj
 0001:000009b0       ??$forward@_N@std@@YA$$QA_NAA_N@Z 100019b0 f i Aimbot.obj
 0001:000009b0       ??$forward@PBD@std@@YA$$QAPBDAAPBD@Z 100019b0 f i NetvarManager.obj
 0001:000009b0       ??$forward@ABULegitPlayerRecords@@@std@@YAABULegitPlayerRecords@@ABU1@@Z 100019b0 f i Legitbot.obj
 0001:000009b0       ??$_Get_unwrapped@PAUPlayerRecords@@@std@@YAPAPAUPlayerRecords@@QAPAU1@@Z 100019b0 f i LagComp.obj
 0001:000009b0       ??$forward@U_Container_proxy@std@@@std@@YA$$QAU_Container_proxy@0@AAU10@@Z 100019b0 f i LagComp.obj
 0001:000009b0       ??$forward@AAPAVIVRenderView@@@std@@YAAAPAVIVRenderView@@AAPAV1@@Z 100019b0 f i c_hooks.obj
 0001:000009b0       ??$_Unfancy@U_Container_proxy@std@@@std@@YAPAU_Container_proxy@0@PAU10@@Z 100019b0 f i LagComp.obj
 0001:000009b0       ??$_Unfancy@V?$_List_unchecked_iterator@V?$_List_val@U?$_List_simple_types@U?$pair@$$CBV?$basic_string@DU?$char_traits@D@std@@V?$allocator@D@2@@std@@V?$shared_ptr@UNode@NetvarTree@@@2@@std@@@std@@@std@@@std@@@std@@YAPAV?$_List_unchecked_iterator@V?$_List_val@U?$_List_simple_types@U?$pair@$$CBV?$basic_string@DU?$char_traits@D@std@@V?$allocator@D@2@@std@@V?$shared_ptr@UNode@NetvarTree@@@2@@std@@@std@@@std@@@0@PAV10@@Z 100019b0 f i Aimbot.obj
 0001:000009b0       ??$addressof@V?$_String_val@U?$_Simple_types@D@std@@@std@@@std@@YAPAV?$_String_val@U?$_Simple_types@D@std@@@0@AAV10@@Z 100019b0 f i Aimbot.obj
 0001:000009b0       ??$forward@V?$tuple@$$QAV?$basic_string@DU?$char_traits@D@std@@V?$allocator@D@2@@std@@@std@@@std@@YA$$QAV?$tuple@$$QAV?$basic_string@DU?$char_traits@D@std@@V?$allocator@D@2@@std@@@0@AAV10@@Z 100019b0 f i Aimbot.obj
 0001:000009b0       ??$addressof@$$CBV?$_Deque_val@U?$_Deque_simple_types@ULegitPlayerRecords@@@std@@@std@@@std@@YAPBV?$_Deque_val@U?$_Deque_simple_types@ULegitPlayerRecords@@@std@@@0@ABV10@@Z 100019b0 f i Legitbot.obj
 0001:000009b0       ??$forward@U?$default_delete@VNetvarTree@@@std@@@std@@YA$$QAU?$default_delete@VNetvarTree@@@0@AAU10@@Z 100019b0 f i c_hooks.obj
 0001:000009b0       ??$forward@V?$_List_unchecked_iterator@V?$_List_val@U?$_List_simple_types@U?$pair@$$CBV?$basic_string@DU?$char_traits@D@std@@V?$allocator@D@2@@std@@V?$shared_ptr@UNode@NetvarTree@@@2@@std@@@std@@@std@@@std@@@std@@YA$$QAV?$_List_unchecked_iterator@V?$_List_val@U?$_List_simple_types@U?$pair@$$CBV?$basic_string@DU?$char_traits@D@std@@V?$allocator@D@2@@std@@V?$shared_ptr@UNode@NetvarTree@@@2@@std@@@std@@@std@@@0@AAV10@@Z 100019b0 f i Aimbot.obj
 0001:000009b0       ??$addressof@V?$unique_ptr@VNetvarTree@@U?$default_delete@VNetvarTree@@@std@@@std@@@std@@YAPAV?$unique_ptr@VNetvarTree@@U?$default_delete@VNetvarTree@@@std@@@0@AAV10@@Z 100019b0 f i c_hooks.obj
 0001:000009b0       ??$forward@H@std@@YA$$QAHAAH@Z 100019b0 f i Aimbot.obj
 0001:000009b0       ??$move@AAV?$_List_unchecked_iterator@V?$_List_val@U?$_List_simple_types@U?$pair@$$CBV?$basic_string@DU?$char_traits@D@std@@V?$allocator@D@2@@std@@V?$shared_ptr@UNode@NetvarTree@@@2@@std@@@std@@@std@@@std@@@std@@YA$$QAV?$_List_unchecked_iterator@V?$_List_val@U?$_List_simple_types@U?$pair@$$CBV?$basic_string@DU?$char_traits@D@std@@V?$allocator@D@2@@std@@V?$shared_ptr@UNode@NetvarTree@@@2@@std@@@std@@@std@@@0@AAV10@@Z 100019b0 f i Aimbot.obj
 0001:000009b0       ??$forward@AAU?$hash@V?$basic_string@DU?$char_traits@D@std@@V?$allocator@D@2@@std@@@std@@@std@@YAAAU?$hash@V?$basic_string@DU?$char_traits@D@std@@V?$allocator@D@2@@std@@@0@AAU10@@Z 100019b0 f i NetvarManager.obj
 0001:000009b0       ??$move@AAV?$allocator@D@std@@@std@@YA$$QAV?$allocator@D@0@AAV10@@Z 100019b0 f i Aimbot.obj
 0001:000009b0       ??$_Get_unwrapped_n@PAULegitPlayerRecords@@H$0A@@std@@YAPAPAULegitPlayerRecords@@QAPAU1@H@Z 100019b0 f i Legitbot.obj
 0001:000009b0       ??$forward@U_One_then_variadic_args_t@std@@@std@@YA$$QAU_One_then_variadic_args_t@0@AAU10@@Z 100019b0 f i NetvarManager.obj
 0001:000009b0       ??$forward@AAPAVIBaseClientDLL@@@std@@YAAAPAVIBaseClientDLL@@AAPAV1@@Z 100019b0 f i c_hooks.obj
 0001:000009b0       ??$addressof@PA_W@std@@YAPAPA_WAAPA_W@Z 100019b0 f i config_system.obj
 0001:000009b0       ??$forward@AAU?$equal_to@V?$basic_string@DU?$char_traits@D@std@@V?$allocator@D@2@@std@@@std@@@std@@YAAAU?$equal_to@V?$basic_string@DU?$char_traits@D@std@@V?$allocator@D@2@@std@@@0@AAU10@@Z 100019b0 f i NetvarManager.obj
 0001:000009b0       ??$move@AAULegitPlayerRecords@@@std@@YA$$QAULegitPlayerRecords@@AAU1@@Z 100019b0 f i Legitbot.obj
 0001:000009b0       ??$forward@ABV?$_List_unchecked_iterator@V?$_List_val@U?$_List_simple_types@U?$pair@$$CBV?$basic_string@DU?$char_traits@D@std@@V?$allocator@D@2@@std@@V?$shared_ptr@UNode@NetvarTree@@@2@@std@@@std@@@std@@@std@@@std@@YAABV?$_List_unchecked_iterator@V?$_List_val@U?$_List_simple_types@U?$pair@$$CBV?$basic_string@DU?$char_traits@D@std@@V?$allocator@D@2@@std@@V?$shared_ptr@UNode@NetvarTree@@@2@@std@@@std@@@std@@@0@ABV10@@Z 100019b0 f i Aimbot.obj
 0001:000009b0       ??$forward@AAV?$_List_iterator@V?$_List_val@U?$_List_simple_types@U?$pair@$$CBV?$basic_string@DU?$char_traits@D@std@@V?$allocator@D@2@@std@@V?$shared_ptr@UNode@NetvarTree@@@2@@std@@@std@@@std@@@std@@@std@@YAAAV?$_List_iterator@V?$_List_val@U?$_List_simple_types@U?$pair@$$CBV?$basic_string@DU?$char_traits@D@std@@V?$allocator@D@2@@std@@V?$shared_ptr@UNode@NetvarTree@@@2@@std@@@std@@@std@@@0@AAV10@@Z 100019b0 f i Aimbot.obj
 0001:000009b0       ??$addressof@$$CBV?$_Deque_val@U?$_Deque_simple_types@UPlayerRecords@@@std@@@std@@@std@@YAPBV?$_Deque_val@U?$_Deque_simple_types@UPlayerRecords@@@std@@@0@ABV10@@Z 100019b0 f i LagComp.obj
 0001:000009b0       ??$_Const_cast@$$CBD@std@@YAPADPBD@Z 100019b0 f i c_esp.obj
 0001:000009b0       ??$forward@ABV?$shared_ptr@UNode@NetvarTree@@@std@@@std@@YAABV?$shared_ptr@UNode@NetvarTree@@@0@ABV10@@Z 100019b0 f i NetvarManager.obj
 0001:000009b0       ??$forward@ABUpiecewise_construct_t@std@@@std@@YAABUpiecewise_construct_t@0@ABU10@@Z 100019b0 f i Aimbot.obj
 0001:000009b0       ??$move@AAV?$basic_ofstream@DU?$char_traits@D@std@@@std@@@std@@YA$$QAV?$basic_ofstream@DU?$char_traits@D@std@@@0@AAV10@@Z 100019b0 f i Interfaces.obj
 0001:000009b0       ??$addressof@V?$_Deque_val@U?$_Deque_simple_types@UPlayerRecords@@@std@@@std@@@std@@YAPAV?$_Deque_val@U?$_Deque_simple_types@UPlayerRecords@@@std@@@0@AAV10@@Z 100019b0 f i Aimbot.obj
 0001:000009b0       ??$forward@V?$_List_iterator@V?$_List_val@U?$_List_simple_types@U?$pair@$$CBV?$basic_string@DU?$char_traits@D@std@@V?$allocator@D@2@@std@@V?$shared_ptr@UNode@NetvarTree@@@2@@std@@@std@@@std@@@std@@@std@@YA$$QAV?$_List_iterator@V?$_List_val@U?$_List_simple_types@U?$pair@$$CBV?$basic_string@DU?$char_traits@D@std@@V?$allocator@D@2@@std@@V?$shared_ptr@UNode@NetvarTree@@@2@@std@@@std@@@std@@@0@AAV10@@Z 100019b0 f i Aimbot.obj
 0001:000009b0       ??$addressof@V?$_List_val@U?$_List_simple_types@U?$pair@$$CBV?$basic_string@DU?$char_traits@D@std@@V?$allocator@D@2@@std@@V?$shared_ptr@UNode@NetvarTree@@@2@@std@@@std@@@std@@@std@@YAPAV?$_List_val@U?$_List_simple_types@U?$pair@$$CBV?$basic_string@DU?$char_traits@D@std@@V?$allocator@D@2@@std@@V?$shared_ptr@UNode@NetvarTree@@@2@@std@@@std@@@0@AAV10@@Z 100019b0 f i Aimbot.obj
 0001:000009b0       ??$forward@AAPAVShadowVTManager@@@std@@YAAAPAVShadowVTManager@@AAPAV1@@Z 100019b0 f i c_hooks.obj
 0001:000009b0       ??$_Get_unwrapped_n@PAUPlayerRecords@@H$0A@@std@@YAPAPAUPlayerRecords@@QAPAU1@H@Z 100019b0 f i LagComp.obj
 0001:000009b0       ??$move@AAU?$default_delete@$$BY0A@I@std@@@std@@YA$$QAU?$default_delete@$$BY0A@I@0@AAU10@@Z 100019b0 f i c_hooks.obj
 0001:000009b0       ??$forward@ABV?$allocator@D@std@@@std@@YAABV?$allocator@D@0@ABV10@@Z 100019b0 f i c_esp.obj
 0001:000009b0       ??$addressof@PAU?$_List_node@U?$pair@$$CBV?$basic_string@DU?$char_traits@D@std@@V?$allocator@D@2@@std@@V?$shared_ptr@UNode@NetvarTree@@@2@@std@@PAX@std@@@std@@YAPAPAU?$_List_node@U?$pair@$$CBV?$basic_string@DU?$char_traits@D@std@@V?$allocator@D@2@@std@@V?$shared_ptr@UNode@NetvarTree@@@2@@std@@PAX@0@AAPAU10@@Z 100019b0 f i c_hooks.obj
 0001:000009b0       ?select_on_container_copy_construction@?$_Default_allocator_traits@V?$allocator@D@std@@@std@@SA?AV?$allocator@D@2@ABV32@@Z 100019b0 f i c_esp.obj
 0001:000009b0       ??$forward@AAU?$pair@$$CBV?$basic_string@DU?$char_traits@D@std@@V?$allocator@D@2@@std@@V?$shared_ptr@UNode@NetvarTree@@@2@@std@@@std@@YAAAU?$pair@$$CBV?$basic_string@DU?$char_traits@D@std@@V?$allocator@D@2@@std@@V?$shared_ptr@UNode@NetvarTree@@@2@@0@AAU10@@Z 100019b0 f i Aimbot.obj
 0001:000009b0       ??$_Get_unwrapped@H@std@@YAPAHQAH@Z 100019b0 f i Aimbot.obj
 0001:000009b0       ??$forward@ABQAD@std@@YAABQADABQAD@Z 100019b0 f i c_hooks.obj
 0001:000009b0       ??$forward@AAPAVIPanel@@@std@@YAAAPAVIPanel@@AAPAV1@@Z 100019b0 f i c_hooks.obj
 0001:000009b0       ??$_Refancy@PAD$0A@@std@@YAPADPAD@Z 100019b0 f i c_esp.obj
 0001:000009b0       ??$forward@AAPAVIClientMode@@@std@@YAAAPAVIClientMode@@AAPAV1@@Z 100019b0 f i c_hooks.obj
 0001:000009b0       ??$forward@ABV?$allocator@U?$pair@$$CBV?$basic_string@DU?$char_traits@D@std@@V?$allocator@D@2@@std@@V?$shared_ptr@UNode@NetvarTree@@@2@@std@@@std@@@std@@YAABV?$allocator@U?$pair@$$CBV?$basic_string@DU?$char_traits@D@std@@V?$allocator@D@2@@std@@V?$shared_ptr@UNode@NetvarTree@@@2@@std@@@0@ABV10@@Z 100019b0 f i NetvarManager.obj
 0001:000009b0       ??$_Get_unwrapped@D@std@@YAPADQAD@Z 100019b0 f i c_esp.obj
 0001:000009b0       ??$_Kfn@$$CBV?$basic_string@DU?$char_traits@D@std@@V?$allocator@D@2@@std@@V?$shared_ptr@UNode@NetvarTree@@@2@@?$_Umap_traits@V?$basic_string@DU?$char_traits@D@std@@V?$allocator@D@2@@std@@V?$shared_ptr@UNode@NetvarTree@@@2@V?$_Uhash_compare@V?$basic_string@DU?$char_traits@D@std@@V?$allocator@D@2@@std@@U?$hash@V?$basic_string@DU?$char_traits@D@std@@V?$allocator@D@2@@std@@@2@U?$equal_to@V?$basic_string@DU?$char_traits@D@std@@V?$allocator@D@2@@std@@@2@@2@V?$allocator@U?$pair@$$CBV?$basic_string@DU?$char_traits@D@std@@V?$allocator@D@2@@std@@V?$shared_ptr@UNode@NetvarTree@@@2@@std@@@2@$0A@@std@@SAABV?$basic_string@DU?$char_traits@D@std@@V?$allocator@D@2@@1@ABU?$pair@$$CBV?$basic_string@DU?$char_traits@D@std@@V?$allocator@D@2@@std@@V?$shared_ptr@UNode@NetvarTree@@@2@@1@@Z 100019b0 f i Aimbot.obj
 0001:000009b0       ??$forward@AAPAU?$_List_node@U?$pair@$$CBV?$basic_string@DU?$char_traits@D@std@@V?$allocator@D@2@@std@@V?$shared_ptr@UNode@NetvarTree@@@2@@std@@PAX@std@@@std@@YAAAPAU?$_List_node@U?$pair@$$CBV?$basic_string@DU?$char_traits@D@std@@V?$allocator@D@2@@std@@V?$shared_ptr@UNode@NetvarTree@@@2@@std@@PAX@0@AAPAU10@@Z 100019b0 f i Aimbot.obj
 0001:000009b0       ??$forward@ABUPlayerRecords@@@std@@YAABUPlayerRecords@@ABU1@@Z 100019b0 f i LagComp.obj
 0001:000009b0       ??$forward@AAPAVNetvarTree@@@std@@YAAAPAVNetvarTree@@AAPAV1@@Z 100019b0 f i c_hooks.obj
 0001:000009b0       ??$forward@V?$tuple@$$V@std@@@std@@YA$$QAV?$tuple@$$V@0@AAV10@@Z 100019b0 f i Aimbot.obj
 0001:000009b0       ??$addressof@V?$unique_ptr@VVMTHook@@U?$default_delete@VVMTHook@@@std@@@std@@@std@@YAPAV?$unique_ptr@VVMTHook@@U?$default_delete@VVMTHook@@@std@@@0@AAV10@@Z 100019b0 f i c_hooks.obj
 0001:000009b0       ??$move@AAH@std@@YA$$QAHAAH@Z 100019b0 f i Aimbot.obj
 0001:000009b0       ??$move@AAV?$tuple@$$QAV?$basic_string@DU?$char_traits@D@std@@V?$allocator@D@2@@std@@@std@@@std@@YA$$QAV?$tuple@$$QAV?$basic_string@DU?$char_traits@D@std@@V?$allocator@D@2@@std@@@0@AAV10@@Z 100019b0 f i Aimbot.obj
 0001:000009b0       ??$forward@AAPAVVMTHook@@@std@@YAAAPAVVMTHook@@AAPAV1@@Z 100019b0 f i c_hooks.obj
 0001:000009b0       ??$_Unfancy@ULegitPlayerRecords@@@std@@YAPAULegitPlayerRecords@@PAU1@@Z 100019b0 f i Legitbot.obj
 0001:000009b0       ??$addressof@PAD@std@@YAPAPADAAPAD@Z 100019b0 f i c_hooks.obj
 0001:000009b0       ??$addressof@PAULegitPlayerRecords@@@std@@YAPAPAULegitPlayerRecords@@AAPAU1@@Z 100019b0 f i Legitbot.obj
 0001:000009b0       ??$addressof@$$CBV?$_List_val@U?$_List_simple_types@U?$pair@$$CBV?$basic_string@DU?$char_traits@D@std@@V?$allocator@D@2@@std@@V?$shared_ptr@UNode@NetvarTree@@@2@@std@@@std@@@std@@@std@@YAPBV?$_List_val@U?$_List_simple_types@U?$pair@$$CBV?$basic_string@DU?$char_traits@D@std@@V?$allocator@D@2@@std@@V?$shared_ptr@UNode@NetvarTree@@@2@@std@@@std@@@0@ABV10@@Z 100019b0 f i Aimbot.obj
 0001:000009b0       ??$forward@AAPAV_Facet_base@std@@@std@@YAAAPAV_Facet_base@0@AAPAV10@@Z 100019b0 f i config_system.obj
 0001:000009b0       ??$forward@V?$basic_string@DU?$char_traits@D@std@@V?$allocator@D@2@@std@@@std@@YA$$QAV?$basic_string@DU?$char_traits@D@std@@V?$allocator@D@2@@0@AAV10@@Z 100019b0 f i Aimbot.obj
 0001:000009b0       ??$_Get_size_of_n@$00@std@@YAII@Z 100019b0 f i c_hooks.obj
 0001:000009b0       ??$move@AAUPlayerRecords@@@std@@YA$$QAUPlayerRecords@@AAU1@@Z 100019b0 f i LagComp.obj
 0001:000009b0       ??$_Get_unwrapped@V?$_List_unchecked_iterator@V?$_List_val@U?$_List_simple_types@U?$pair@$$CBV?$basic_string@DU?$char_traits@D@std@@V?$allocator@D@2@@std@@V?$shared_ptr@UNode@NetvarTree@@@2@@std@@@std@@@std@@@std@@@std@@YAPAV?$_List_unchecked_iterator@V?$_List_val@U?$_List_simple_types@U?$pair@$$CBV?$basic_string@DU?$char_traits@D@std@@V?$allocator@D@2@@std@@V?$shared_ptr@UNode@NetvarTree@@@2@@std@@@std@@@std@@@0@QAV10@@Z 100019b0 f i Aimbot.obj
 0001:000009b0       ??$_Get_unwrapped@PAULegitPlayerRecords@@@std@@YAPAPAULegitPlayerRecords@@QAPAU1@@Z 100019b0 f i Legitbot.obj
 0001:000009b0       ??$forward@AAPAVCModelRender@@@std@@YAAAPAVCModelRender@@AAPAV1@@Z 100019b0 f i c_hooks.obj
 0001:000009b0       ??$forward@PAPAK@std@@YA$$QAPAPAKAAPAPAK@Z 100019b0 f i c_hooks.obj
 0001:000009b0       ??$forward@V?$allocator@D@std@@@std@@YA$$QAV?$allocator@D@0@AAV10@@Z 100019b0 f i Aimbot.obj
 0001:000009b0       ??$forward@$$QAV?$basic_string@DU?$char_traits@D@std@@V?$allocator@D@2@@std@@@std@@YA$$QAV?$basic_string@DU?$char_traits@D@std@@V?$allocator@D@2@@0@AAV10@@Z 100019b0 f i Aimbot.obj
 0001:000009b0       ??$_Get_unwrapped_n@V?$_List_unchecked_iterator@V?$_List_val@U?$_List_simple_types@U?$pair@$$CBV?$basic_string@DU?$char_traits@D@std@@V?$allocator@D@2@@std@@V?$shared_ptr@UNode@NetvarTree@@@2@@std@@@std@@@std@@@std@@H$0A@@std@@YAPAV?$_List_unchecked_iterator@V?$_List_val@U?$_List_simple_types@U?$pair@$$CBV?$basic_string@DU?$char_traits@D@std@@V?$allocator@D@2@@std@@V?$shared_ptr@UNode@NetvarTree@@@2@@std@@@std@@@std@@@0@QAV10@H@Z 100019b0 f i Aimbot.obj
 0001:000009b0       ??$_Unfancy@UPlayerRecords@@@std@@YAPAUPlayerRecords@@PAU1@@Z 100019b0 f i LagComp.obj
 0001:000009b0       ??$_Convert_size@I@std@@YAII@Z 100019b0 f i c_hooks.obj
 0001:000009b0       ??$_Get_unwrapped_n@HH$0A@@std@@YAPAHQAHH@Z 100019b0 f i Aimbot.obj
 0001:000009b0       ??$addressof@PAUPlayerRecords@@@std@@YAPAPAUPlayerRecords@@AAPAU1@@Z 100019b0 f i LagComp.obj
 0001:000009b0       ??$forward@U?$default_delete@VVMTHook@@@std@@@std@@YA$$QAU?$default_delete@VVMTHook@@@0@AAU10@@Z 100019b0 f i c_hooks.obj
 0001:000009b0       ??$addressof@V?$unique_ptr@$$BY0A@IU?$default_delete@$$BY0A@I@std@@@std@@@std@@YAPAV?$unique_ptr@$$BY0A@IU?$default_delete@$$BY0A@I@std@@@0@AAV10@@Z 100019b0 f i c_hooks.obj
 0001:000009b0       ??$addressof@$$CBV?$codecvt@DDU_Mbstatet@@@std@@@std@@YAPBV?$codecvt@DDU_Mbstatet@@@0@ABV10@@Z 100019b0 f i config_system.obj
 0001:000009b0       ??$forward@AAPAVISurface@@@std@@YAAAPAVISurface@@AAPAV1@@Z 100019b0 f i c_hooks.obj
 0001:000009b0       ??$addressof@V?$basic_string@DU?$char_traits@D@std@@V?$allocator@D@2@@std@@@std@@YAPAV?$basic_string@DU?$char_traits@D@std@@V?$allocator@D@2@@0@AAV10@@Z 100019b0 f i imgui.obj
 0001:000009b0       ??$forward@ABV?$allocator@V?$_List_unchecked_iterator@V?$_List_val@U?$_List_simple_types@U?$pair@$$CBV?$basic_string@DU?$char_traits@D@std@@V?$allocator@D@2@@std@@V?$shared_ptr@UNode@NetvarTree@@@2@@std@@@std@@@std@@@std@@@std@@@std@@YAABV?$allocator@V?$_List_unchecked_iterator@V?$_List_val@U?$_List_simple_types@U?$pair@$$CBV?$basic_string@DU?$char_traits@D@std@@V?$allocator@D@2@@std@@V?$shared_ptr@UNode@NetvarTree@@@2@@std@@@std@@@std@@@std@@@0@ABV10@@Z 100019b0 f i NetvarManager.obj
 0001:000009b0       ??$move@AAV?$shared_ptr@UNode@NetvarTree@@@std@@@std@@YA$$QAV?$shared_ptr@UNode@NetvarTree@@@0@AAV10@@Z 100019b0 f i NetvarManager.obj
 0001:000009b0       ??$_Unfancy@H@std@@YAPAHPAH@Z 100019b0 f i Aimbot.obj
 0001:000009b0       ??$move@AAV?$basic_string@DU?$char_traits@D@std@@V?$allocator@D@2@@std@@@std@@YA$$QAV?$basic_string@DU?$char_traits@D@std@@V?$allocator@D@2@@0@AAV10@@Z 100019b0 f i Aimbot.obj
 0001:000009b0       ??$_Unfancy@D@std@@YAPADPAD@Z 100019b0 f i c_hooks.obj
 0001:000009b0       ??$addressof@U?$pair@$$CBV?$basic_string@DU?$char_traits@D@std@@V?$allocator@D@2@@std@@V?$shared_ptr@UNode@NetvarTree@@@2@@std@@@std@@YAPAU?$pair@$$CBV?$basic_string@DU?$char_traits@D@std@@V?$allocator@D@2@@std@@V?$shared_ptr@UNode@NetvarTree@@@2@@0@AAU10@@Z 100019b0 f i c_hooks.obj
 0001:000009b0       ??$forward@AAPAI@std@@YAAAPAIAAPAI@Z 100019b0 f i c_hooks.obj
 0001:000009b0       ??$addressof@V?$_Deque_val@U?$_Deque_simple_types@ULegitPlayerRecords@@@std@@@std@@@std@@YAPAV?$_Deque_val@U?$_Deque_simple_types@ULegitPlayerRecords@@@std@@@0@AAV10@@Z 100019b0 f i Legitbot.obj
 0001:000009b0       ??$_Unfancy@V?$basic_string@DU?$char_traits@D@std@@V?$allocator@D@2@@std@@@std@@YAPAV?$basic_string@DU?$char_traits@D@std@@V?$allocator@D@2@@0@PAV10@@Z 100019b0 f i config_system.obj
 0001:000009b0       ??$forward@M@std@@YA$$QAMAAM@Z 100019b0 f i NetvarManager.obj
 0001:000009c0       ??$_Deallocate@$07$0A@@std@@YAXPAXI@Z 100019c0 f i c_hooks.obj
 0001:000009f0       ??$destroy@U_Container_proxy@std@@@?$_Default_allocator_traits@V?$allocator@U_Container_proxy@std@@@std@@@std@@SAXAAV?$allocator@U_Container_proxy@std@@@1@QAU_Container_proxy@1@@Z 100019f0 f i LagComp.obj
 0001:000009f0       ??$_Adl_verify_range@V?$_String_const_iterator@V?$_String_val@U?$_Simple_types@D@std@@@std@@@std@@V12@@std@@YAXABV?$_String_const_iterator@V?$_String_val@U?$_Simple_types@D@std@@@std@@@0@0@Z 100019f0 f i c_esp.obj
 0001:000009f0       ??$destroy@UPlayerRecords@@@?$_Default_allocator_traits@V?$allocator@UPlayerRecords@@@std@@@std@@SAXAAV?$allocator@UPlayerRecords@@@1@QAUPlayerRecords@@@Z 100019f0 f i LagComp.obj
 0001:000009f0       ??$destroy@PAD@?$_Default_allocator_traits@V?$allocator@D@std@@@std@@SAXAAV?$allocator@D@1@QAPAD@Z 100019f0 f i c_hooks.obj
 0001:000009f0       ??$destroy@PAU?$_List_node@U?$pair@$$CBV?$basic_string@DU?$char_traits@D@std@@V?$allocator@D@2@@std@@V?$shared_ptr@UNode@NetvarTree@@@2@@std@@PAX@std@@@?$_Default_allocator_traits@V?$allocator@U?$_List_node@U?$pair@$$CBV?$basic_string@DU?$char_traits@D@std@@V?$allocator@D@2@@std@@V?$shared_ptr@UNode@NetvarTree@@@2@@std@@PAX@std@@@std@@@std@@SAXAAV?$allocator@U?$_List_node@U?$pair@$$CBV?$basic_string@DU?$char_traits@D@std@@V?$allocator@D@2@@std@@V?$shared_ptr@UNode@NetvarTree@@@2@@std@@PAX@std@@@1@QAPAU?$_List_node@U?$pair@$$CBV?$basic_string@DU?$char_traits@D@std@@V?$allocator@D@2@@std@@V?$shared_ptr@UNode@NetvarTree@@@2@@std@@PAX@1@@Z 100019f0 f i c_hooks.obj
 0001:000009f0       ??$_Adl_verify_range@V?$_String_iterator@V?$_String_val@U?$_Simple_types@D@std@@@std@@@std@@V12@@std@@YAXABV?$_String_iterator@V?$_String_val@U?$_Simple_types@D@std@@@std@@@0@0@Z 100019f0 f i c_esp.obj
 0001:000009f0       ??$_Adl_verify_range@V?$_Deque_iterator@V?$_Deque_val@U?$_Deque_simple_types@UPlayerRecords@@@std@@@std@@@std@@V12@@std@@YAXABV?$_Deque_iterator@V?$_Deque_val@U?$_Deque_simple_types@UPlayerRecords@@@std@@@std@@@0@0@Z 100019f0 f i LagComp.obj
 0001:000009f0       ??$destroy@PAUPlayerRecords@@@?$_Default_allocator_traits@V?$allocator@PAUPlayerRecords@@@std@@@std@@SAXAAV?$allocator@PAUPlayerRecords@@@1@QAPAUPlayerRecords@@@Z 100019f0 f i LagComp.obj
 0001:000009f0       ?config_tab@@YAXXZ         100019f0 f i menu_system.obj
 0001:000009f0       ??$_Destroy_range1@V?$allocator@H@std@@@std@@YAXPAH0AAV?$allocator@H@0@U?$integral_constant@_N$00@0@@Z 100019f0 f i Aimbot.obj
 0001:000009f0       ??$_Destroy_range1@V?$allocator@PAULegitPlayerRecords@@@std@@@std@@YAXPAPAULegitPlayerRecords@@0AAV?$allocator@PAULegitPlayerRecords@@@0@U?$integral_constant@_N$00@0@@Z 100019f0 f i Legitbot.obj
 0001:000009f0       ??$destroy@ULegitPlayerRecords@@@?$_Default_allocator_traits@V?$allocator@ULegitPlayerRecords@@@std@@@std@@SAXAAV?$allocator@ULegitPlayerRecords@@@1@QAULegitPlayerRecords@@@Z 100019f0 f i Legitbot.obj
 0001:000009f0       ??$destroy@PAULegitPlayerRecords@@@?$_Default_allocator_traits@V?$allocator@PAULegitPlayerRecords@@@std@@@std@@SAXAAV?$allocator@PAULegitPlayerRecords@@@1@QAPAULegitPlayerRecords@@@Z 100019f0 f i Legitbot.obj
 0001:000009f0       ??3@YAXPAXUImPlacementNewDummy@@0@Z 100019f0 f i imgui.obj
 0001:000009f0       ??$_Enable_shared_from_this1@UNode@NetvarTree@@U12@@std@@YAXABV?$shared_ptr@UNode@NetvarTree@@@0@PAUNode@NetvarTree@@U?$integral_constant@_N$0A@@0@@Z 100019f0 f i NetvarManager.obj
 0001:000009f0       ??$_Destroy_range1@V?$allocator@V?$_List_unchecked_iterator@V?$_List_val@U?$_List_simple_types@U?$pair@$$CBV?$basic_string@DU?$char_traits@D@std@@V?$allocator@D@2@@std@@V?$shared_ptr@UNode@NetvarTree@@@2@@std@@@std@@@std@@@std@@@std@@@std@@YAXPAV?$_List_unchecked_iterator@V?$_List_val@U?$_List_simple_types@U?$pair@$$CBV?$basic_string@DU?$char_traits@D@std@@V?$allocator@D@2@@std@@V?$shared_ptr@UNode@NetvarTree@@@2@@std@@@std@@@std@@@0@0AAV?$allocator@V?$_List_unchecked_iterator@V?$_List_val@U?$_List_simple_types@U?$pair@$$CBV?$basic_string@DU?$char_traits@D@std@@V?$allocator@D@2@@std@@V?$shared_ptr@UNode@NetvarTree@@@2@@std@@@std@@@std@@@std@@@0@U?$integral_constant@_N$00@0@@Z 100019f0 f i c_hooks.obj
 0001:000009f0       ??$_Adl_verify_range@PADPAD@std@@YAXABQAD0@Z 100019f0 f i c_esp.obj
 0001:000009f0       ??$_Destroy_range1@V?$allocator@PAUPlayerRecords@@@std@@@std@@YAXPAPAUPlayerRecords@@0AAV?$allocator@PAUPlayerRecords@@@0@U?$integral_constant@_N$00@0@@Z 100019f0 f i LagComp.obj
 0001:000009f0       ??$_Adl_verify_range@V?$_Deque_iterator@V?$_Deque_val@U?$_Deque_simple_types@ULegitPlayerRecords@@@std@@@std@@@std@@V12@@std@@YAXABV?$_Deque_iterator@V?$_Deque_val@U?$_Deque_simple_types@ULegitPlayerRecords@@@std@@@std@@@0@0@Z 100019f0 f i Legitbot.obj
 0001:000009f0       ??$destroy@PA_W@?$_Default_allocator_traits@V?$allocator@_W@std@@@std@@SAXAAV?$allocator@_W@1@QAPA_W@Z 100019f0 f i config_system.obj
 0001:000009f0       ?Log@Utils@@SAXABV?$basic_string@DU?$char_traits@D@std@@V?$allocator@D@2@@std@@ZZ 100019f0 f i c_hooks.obj
 0001:00000a00       ??$_Destroy_range@V?$allocator@PAULegitPlayerRecords@@@std@@@std@@YAXPAPAULegitPlayerRecords@@0AAV?$allocator@PAULegitPlayerRecords@@@0@@Z 10001a00 f i Legitbot.obj
 0001:00000a00       ??$_Destroy_range@V?$allocator@V?$_List_unchecked_iterator@V?$_List_val@U?$_List_simple_types@U?$pair@$$CBV?$basic_string@DU?$char_traits@D@std@@V?$allocator@D@2@@std@@V?$shared_ptr@UNode@NetvarTree@@@2@@std@@@std@@@std@@@std@@@std@@@std@@YAXPAV?$_List_unchecked_iterator@V?$_List_val@U?$_List_simple_types@U?$pair@$$CBV?$basic_string@DU?$char_traits@D@std@@V?$allocator@D@2@@std@@V?$shared_ptr@UNode@NetvarTree@@@2@@std@@@std@@@std@@@0@0AAV?$allocator@V?$_List_unchecked_iterator@V?$_List_val@U?$_List_simple_types@U?$pair@$$CBV?$basic_string@DU?$char_traits@D@std@@V?$allocator@D@2@@std@@V?$shared_ptr@UNode@NetvarTree@@@2@@std@@@std@@@std@@@std@@@0@@Z 10001a00 f i c_hooks.obj
 0001:00000a00       ??$_Destroy_range@V?$allocator@H@std@@@std@@YAXPAH0AAV?$allocator@H@0@@Z 10001a00 f i Aimbot.obj
 0001:00000a00       ??$_Destroy_range@V?$allocator@PAUPlayerRecords@@@std@@@std@@YAXPAPAUPlayerRecords@@0AAV?$allocator@PAUPlayerRecords@@@0@@Z 10001a00 f i LagComp.obj
 0001:00000a30       ??$_Freenode0@V?$allocator@U?$_List_node@U?$pair@$$CBV?$basic_string@DU?$char_traits@D@std@@V?$allocator@D@2@@std@@V?$shared_ptr@UNode@NetvarTree@@@2@@std@@PAX@std@@@std@@@?$_List_node@U?$pair@$$CBV?$basic_string@DU?$char_traits@D@std@@V?$allocator@D@2@@std@@V?$shared_ptr@UNode@NetvarTree@@@2@@std@@PAX@std@@SAXAAV?$allocator@U?$_List_node@U?$pair@$$CBV?$basic_string@DU?$char_traits@D@std@@V?$allocator@D@2@@std@@V?$shared_ptr@UNode@NetvarTree@@@2@@std@@PAX@std@@@1@PAU01@@Z 10001a30 f i c_hooks.obj
 0001:00000ab0       ??$_Max_value@I@std@@YAABIABI0@Z 10001ab0 f i c_hooks.obj
 0001:00000ae0       ??$_Min_value@I@std@@YAABIABI0@Z 10001ae0 f i c_hooks.obj
 0001:00000b10       ??$_Reallocate_for@V<lambda_9366063389c5f42a00a5088cf24e69de>@@PBD@?$basic_string@DU?$char_traits@D@std@@V?$allocator@D@2@@std@@QAEAAV01@IV<lambda_9366063389c5f42a00a5088cf24e69de>@@PBD@Z 10001b10 f i c_hooks.obj
 0001:00000bf0       ??$construct@HH@?$_Default_allocator_traits@V?$allocator@H@std@@@std@@SAXAAV?$allocator@H@1@QAH$$QAH@Z 10001bf0 f i Aimbot.obj
 0001:00000bf0       ??$construct@PADABQAD@?$_Default_allocator_traits@V?$allocator@D@std@@@std@@SAXAAV?$allocator@D@1@QAPADABQAD@Z 10001bf0 f i c_hooks.obj
 0001:00000bf0       ??$construct@PAU?$_List_node@U?$pair@$$CBV?$basic_string@DU?$char_traits@D@std@@V?$allocator@D@2@@std@@V?$shared_ptr@UNode@NetvarTree@@@2@@std@@PAX@std@@AAPAU12@@?$_Default_allocator_traits@V?$allocator@U?$_List_node@U?$pair@$$CBV?$basic_string@DU?$char_traits@D@std@@V?$allocator@D@2@@std@@V?$shared_ptr@UNode@NetvarTree@@@2@@std@@PAX@std@@@std@@@std@@SAXAAV?$allocator@U?$_List_node@U?$pair@$$CBV?$basic_string@DU?$char_traits@D@std@@V?$allocator@D@2@@std@@V?$shared_ptr@UNode@NetvarTree@@@2@@std@@PAX@std@@@1@QAPAU?$_List_node@U?$pair@$$CBV?$basic_string@DU?$char_traits@D@std@@V?$allocator@D@2@@std@@V?$shared_ptr@UNode@NetvarTree@@@2@@std@@PAX@1@AAPAU31@@Z 10001bf0 f i Aimbot.obj
 0001:00000c20       ??$destroy@U?$pair@$$CBV?$basic_string@DU?$char_traits@D@std@@V?$allocator@D@2@@std@@V?$shared_ptr@UNode@NetvarTree@@@2@@std@@@?$_Default_allocator_traits@V?$allocator@U?$_List_node@U?$pair@$$CBV?$basic_string@DU?$char_traits@D@std@@V?$allocator@D@2@@std@@V?$shared_ptr@UNode@NetvarTree@@@2@@std@@PAX@std@@@std@@@std@@SAXAAV?$allocator@U?$_List_node@U?$pair@$$CBV?$basic_string@DU?$char_traits@D@std@@V?$allocator@D@2@@std@@V?$shared_ptr@UNode@NetvarTree@@@2@@std@@PAX@std@@@1@QAU?$pair@$$CBV?$basic_string@DU?$char_traits@D@std@@V?$allocator@D@2@@std@@V?$shared_ptr@UNode@NetvarTree@@@2@@1@@Z 10001c20 f i c_hooks.obj
 0001:00000c30       ??$make_unique@$$BY0A@I$0A@@std@@YA?AV?$unique_ptr@$$BY0A@IU?$default_delete@$$BY0A@I@std@@@0@I@Z 10001c30 f i c_hooks.obj
 0001:00000cb0       ??$make_unique@VNetvarTree@@$$V$0A@@std@@YA?AV?$unique_ptr@VNetvarTree@@U?$default_delete@VNetvarTree@@@std@@@0@XZ 10001cb0 f i c_hooks.obj
 0001:00000d40       ??$make_unique@VVMTHook@@AAPAVIClientMode@@$0A@@std@@YA?AV?$unique_ptr@VVMTHook@@U?$default_delete@VVMTHook@@@std@@@0@AAPAVIClientMode@@@Z 10001d40 f i c_hooks.obj
 0001:00000d40       ??$make_unique@VVMTHook@@AAPAVISurface@@$0A@@std@@YA?AV?$unique_ptr@VVMTHook@@U?$default_delete@VVMTHook@@@std@@@0@AAPAVISurface@@@Z 10001d40 f i c_hooks.obj
 0001:00000d40       ??$make_unique@VVMTHook@@PAPAK$0A@@std@@YA?AV?$unique_ptr@VVMTHook@@U?$default_delete@VVMTHook@@@std@@@0@$$QAPAPAK@Z 10001d40 f i c_hooks.obj
 0001:00000d40       ??$make_unique@VVMTHook@@AAPAVIVRenderView@@$0A@@std@@YA?AV?$unique_ptr@VVMTHook@@U?$default_delete@VVMTHook@@@std@@@0@AAPAVIVRenderView@@@Z 10001d40 f i c_hooks.obj
 0001:00000d40       ??$make_unique@VVMTHook@@AAPAVCModelRender@@$0A@@std@@YA?AV?$unique_ptr@VVMTHook@@U?$default_delete@VVMTHook@@@std@@@0@AAPAVCModelRender@@@Z 10001d40 f i c_hooks.obj
 0001:00000d40       ??$make_unique@VVMTHook@@AAPAVIBaseClientDLL@@$0A@@std@@YA?AV?$unique_ptr@VVMTHook@@U?$default_delete@VVMTHook@@@std@@@0@AAPAVIBaseClientDLL@@@Z 10001d40 f i c_hooks.obj
 0001:00000d40       ??$make_unique@VVMTHook@@AAPAVIPanel@@$0A@@std@@YA?AV?$unique_ptr@VVMTHook@@U?$default_delete@VVMTHook@@@std@@@0@AAPAVIPanel@@@Z 10001d40 f i c_hooks.obj
 0001:00000df0       ??$reset@PAIX@?$unique_ptr@$$BY0A@IU?$default_delete@$$BY0A@I@std@@@std@@QAEXPAI@Z 10001df0 f i c_hooks.obj
 0001:00000e40       ??0?$_String_alloc@U?$_String_base_types@DV?$allocator@D@std@@@std@@@std@@QAE@XZ 10001e40 f i c_hooks.obj
 0001:00000e40       ??0?$_String_alloc@U?$_String_base_types@_WV?$allocator@_W@std@@@std@@@std@@QAE@XZ 10001e40 f i config_system.obj
 0001:00000e70       ??0?$_String_val@U?$_Simple_types@D@std@@@std@@QAE@XZ 10001e70 f i c_hooks.obj
 0001:00000e70       ??0?$_String_val@U?$_Simple_types@_W@std@@@std@@QAE@XZ 10001e70 f i config_system.obj
 0001:00000ea0       ?_Get_second@?$_Compressed_pair@V?$allocator@H@std@@V?$_Vector_val@U?$_Simple_types@H@std@@@2@$00@std@@QBEABV?$_Vector_val@U?$_Simple_types@H@std@@@2@XZ 10001ea0 f i Aimbot.obj
 0001:00000ea0       ??0matrix3x4_t@@QAE@XZ     10001ea0 f i Aimbot.obj
 0001:00000ea0       ?_Get_first@?$_Compressed_pair@U?$hash@V?$basic_string@DU?$char_traits@D@std@@V?$allocator@D@2@@std@@@std@@V?$_Compressed_pair@U?$equal_to@V?$basic_string@DU?$char_traits@D@std@@V?$allocator@D@2@@std@@@std@@M$00@2@$00@std@@QBEABU?$hash@V?$basic_string@DU?$char_traits@D@std@@V?$allocator@D@2@@std@@@2@XZ 10001ea0 f i Aimbot.obj
 0001:00000ea0       ?_Get_first@?$_Compressed_pair@V?$allocator@UPlayerRecords@@@std@@V?$_Deque_val@U?$_Deque_simple_types@UPlayerRecords@@@std@@@2@$00@std@@QAEAAV?$allocator@UPlayerRecords@@@2@XZ 10001ea0 f i LagComp.obj
 0001:00000ea0       ?_Get_second@?$_Compressed_pair@V?$allocator@U?$_List_node@U?$pair@$$CBV?$basic_string@DU?$char_traits@D@std@@V?$allocator@D@2@@std@@V?$shared_ptr@UNode@NetvarTree@@@2@@std@@PAX@std@@@std@@V?$_List_val@U?$_List_simple_types@U?$pair@$$CBV?$basic_string@DU?$char_traits@D@std@@V?$allocator@D@2@@std@@V?$shared_ptr@UNode@NetvarTree@@@2@@std@@@std@@@2@$00@std@@QBEABV?$_List_val@U?$_List_simple_types@U?$pair@$$CBV?$basic_string@DU?$char_traits@D@std@@V?$allocator@D@2@@std@@V?$shared_ptr@UNode@NetvarTree@@@2@@std@@@std@@@2@XZ 10001ea0 f i Aimbot.obj
 0001:00000ea0       ?_Get_second@?$_Compressed_pair@V?$allocator@UPlayerRecords@@@std@@V?$_Deque_val@U?$_Deque_simple_types@UPlayerRecords@@@std@@@2@$00@std@@QBEABV?$_Deque_val@U?$_Deque_simple_types@UPlayerRecords@@@std@@@2@XZ 10001ea0 f i Aimbot.obj
 0001:00000ea0       ??0?$allocator@U?$pair@$$CBV?$basic_string@DU?$char_traits@D@std@@V?$allocator@D@2@@std@@V?$shared_ptr@UNode@NetvarTree@@@2@@std@@@std@@QAE@XZ 10001ea0 f i NetvarManager.obj
 0001:00000ea0       ?_Get_second@?$_Compressed_pair@U?$default_delete@VVMTHook@@@std@@PAVVMTHook@@$00@std@@QBEABQAVVMTHook@@XZ 10001ea0 f i c_hooks.obj
 0001:00000ea0       ?_Get_second@?$_Compressed_pair@V?$allocator@V?$_List_unchecked_iterator@V?$_List_val@U?$_List_simple_types@U?$pair@$$CBV?$basic_string@DU?$char_traits@D@std@@V?$allocator@D@2@@std@@V?$shared_ptr@UNode@NetvarTree@@@2@@std@@@std@@@std@@@std@@@std@@V?$_Vector_val@U?$_Simple_types@V?$_List_unchecked_iterator@V?$_List_val@U?$_List_simple_types@U?$pair@$$CBV?$basic_string@DU?$char_traits@D@std@@V?$allocator@D@2@@std@@V?$shared_ptr@UNode@NetvarTree@@@2@@std@@@std@@@std@@@std@@@std@@@2@$00@std@@QAEAAV?$_Vector_val@U?$_Simple_types@V?$_List_unchecked_iterator@V?$_List_val@U?$_List_simple_types@U?$pair@$$CBV?$basic_string@DU?$char_traits@D@std@@V?$allocator@D@2@@std@@V?$shared_ptr@UNode@NetvarTree@@@2@@std@@@std@@@std@@@std@@@std@@@2@XZ 10001ea0 f i c_hooks.obj
 0001:00000ea0       ?_Get_second@?$_Compressed_pair@U?$default_delete@VNetvarTree@@@std@@PAVNetvarTree@@$00@std@@QBEABQAVNetvarTree@@XZ 10001ea0 f i c_hooks.obj
 0001:00000ea0       ?_Get_second@?$_Compressed_pair@U?$default_delete@V_Facet_base@std@@@std@@PAV_Facet_base@2@$00@std@@QAEAAPAV_Facet_base@2@XZ 10001ea0 f i config_system.obj
 0001:00000ea0       ?_Get_second@?$_Compressed_pair@U?$default_delete@VVMTHook@@@std@@PAVVMTHook@@$00@std@@QAEAAPAVVMTHook@@XZ 10001ea0 f i c_hooks.obj
 0001:00000ea0       ??0_Bxty@?$_String_val@U?$_Simple_types@D@std@@@std@@QAE@XZ 10001ea0 f i c_hooks.obj
 0001:00000ea0       ?_Get_second@?$_Compressed_pair@U?$equal_to@V?$basic_string@DU?$char_traits@D@std@@V?$allocator@D@2@@std@@@std@@M$00@std@@QAEAAMXZ 10001ea0 f i NetvarManager.obj
 0001:00000ea0       ??0?$allocator@_W@std@@QAE@XZ 10001ea0 f i config_system.obj
 0001:00000ea0       ?_Get_first@?$_Compressed_pair@V?$allocator@UPlayerRecords@@@std@@V?$_Deque_val@U?$_Deque_simple_types@UPlayerRecords@@@std@@@2@$00@std@@QBEABV?$allocator@UPlayerRecords@@@2@XZ 10001ea0 f i LagComp.obj
 0001:00000ea0       ??0?$allocator@V?$basic_string@DU?$char_traits@D@std@@V?$allocator@D@2@@std@@@std@@QAE@XZ 10001ea0 f i config_system.obj
 0001:00000ea0       ?_Get_second@?$_Compressed_pair@U?$default_delete@$$BY0A@I@std@@PAI$00@std@@QBEABQAIXZ 10001ea0 f i c_hooks.obj
 0001:00000ea0       ?_Get_first@?$_Compressed_pair@V?$allocator@U?$_List_node@U?$pair@$$CBV?$basic_string@DU?$char_traits@D@std@@V?$allocator@D@2@@std@@V?$shared_ptr@UNode@NetvarTree@@@2@@std@@PAX@std@@@std@@V?$_List_val@U?$_List_simple_types@U?$pair@$$CBV?$basic_string@DU?$char_traits@D@std@@V?$allocator@D@2@@std@@V?$shared_ptr@UNode@NetvarTree@@@2@@std@@@std@@@2@$00@std@@QBEABV?$allocator@U?$_List_node@U?$pair@$$CBV?$basic_string@DU?$char_traits@D@std@@V?$allocator@D@2@@std@@V?$shared_ptr@UNode@NetvarTree@@@2@@std@@PAX@std@@@2@XZ 10001ea0 f i Aimbot.obj
 0001:00000ea0       ?_Get_second@?$_Compressed_pair@U?$default_delete@V_Facet_base@std@@@std@@PAV_Facet_base@2@$00@std@@QBEABQAV_Facet_base@2@XZ 10001ea0 f i config_system.obj
 0001:00000ea0       ?_Get_first@?$_Compressed_pair@V?$allocator@U?$_List_node@U?$pair@$$CBV?$basic_string@DU?$char_traits@D@std@@V?$allocator@D@2@@std@@V?$shared_ptr@UNode@NetvarTree@@@2@@std@@PAX@std@@@std@@V?$_List_val@U?$_List_simple_types@U?$pair@$$CBV?$basic_string@DU?$char_traits@D@std@@V?$allocator@D@2@@std@@V?$shared_ptr@UNode@NetvarTree@@@2@@std@@@std@@@2@$00@std@@QAEAAV?$allocator@U?$_List_node@U?$pair@$$CBV?$basic_string@DU?$char_traits@D@std@@V?$allocator@D@2@@std@@V?$shared_ptr@UNode@NetvarTree@@@2@@std@@PAX@std@@@2@XZ 10001ea0 f i c_hooks.obj
 0001:00000ea0       ?_Get_second@?$_Compressed_pair@V?$allocator@D@std@@V?$_String_val@U?$_Simple_types@D@std@@@2@$00@std@@QAEAAV?$_String_val@U?$_Simple_types@D@std@@@2@XZ 10001ea0 f i c_hooks.obj
 0001:00000ea0       ?_Get_first@?$_Compressed_pair@U?$default_delete@VShadowVTManager@@@std@@PAVShadowVTManager@@$00@std@@QAEAAU?$default_delete@VShadowVTManager@@@2@XZ 10001ea0 f i c_hooks.obj
 0001:00000ea0       ??0?$allocator@D@std@@QAE@XZ 10001ea0 f i c_hooks.obj
 0001:00000ea0       ?_Get_first@?$_Compressed_pair@U?$equal_to@V?$basic_string@DU?$char_traits@D@std@@V?$allocator@D@2@@std@@@std@@M$00@std@@QBEABU?$equal_to@V?$basic_string@DU?$char_traits@D@std@@V?$allocator@D@2@@std@@@2@XZ 10001ea0 f i Aimbot.obj
 0001:00000ea0       ??0?$allocator@H@std@@QAE@XZ 10001ea0 f i Aimbot.obj
 0001:00000ea0       ?_Get_second@?$_Compressed_pair@V?$allocator@ULegitPlayerRecords@@@std@@V?$_Deque_val@U?$_Deque_simple_types@ULegitPlayerRecords@@@std@@@2@$00@std@@QAEAAV?$_Deque_val@U?$_Deque_simple_types@ULegitPlayerRecords@@@std@@@2@XZ 10001ea0 f i Legitbot.obj
 0001:00000ea0       ?_Get_second@?$_Compressed_pair@V?$allocator@V?$basic_string@DU?$char_traits@D@std@@V?$allocator@D@2@@std@@@std@@V?$_Vector_val@U?$_Simple_types@V?$basic_string@DU?$char_traits@D@std@@V?$allocator@D@2@@std@@@std@@@2@$00@std@@QBEABV?$_Vector_val@U?$_Simple_types@V?$basic_string@DU?$char_traits@D@std@@V?$allocator@D@2@@std@@@std@@@2@XZ 10001ea0 f i config_system.obj
 0001:00000ea0       ??0Vector2D@@QAE@XZ        10001ea0 f i Legitbot.obj
 0001:00000ea0       ??0?$allocator@ULegitPlayerRecords@@@std@@QAE@XZ 10001ea0 f i Legitbot.obj
 0001:00000ea0       ?_Get_second@?$_Compressed_pair@U?$default_delete@$$BY0A@I@std@@PAI$00@std@@QAEAAPAIXZ 10001ea0 f i c_hooks.obj
 0001:00000ea0       ?_Get_second@?$_Compressed_pair@U?$hash@V?$basic_string@DU?$char_traits@D@std@@V?$allocator@D@2@@std@@@std@@V?$_Compressed_pair@U?$equal_to@V?$basic_string@DU?$char_traits@D@std@@V?$allocator@D@2@@std@@@std@@M$00@2@$00@std@@QAEAAV?$_Compressed_pair@U?$equal_to@V?$basic_string@DU?$char_traits@D@std@@V?$allocator@D@2@@std@@@std@@M$00@2@XZ 10001ea0 f i NetvarManager.obj
 0001:00000ea0       ?_Get_second@?$_Compressed_pair@V?$allocator@H@std@@V?$_Vector_val@U?$_Simple_types@H@std@@@2@$00@std@@QAEAAV?$_Vector_val@U?$_Simple_types@H@std@@@2@XZ 10001ea0 f i Aimbot.obj
 0001:00000ea0       ?_Get_first@?$_Compressed_pair@V?$allocator@D@std@@V?$_String_val@U?$_Simple_types@D@std@@@2@$00@std@@QAEAAV?$allocator@D@2@XZ 10001ea0 f i c_hooks.obj
 0001:00000ea0       ?_Get_second@?$_Compressed_pair@U?$default_delete@VNetvarTree@@@std@@PAVNetvarTree@@$00@std@@QAEAAPAVNetvarTree@@XZ 10001ea0 f i c_hooks.obj
 0001:00000ea0       ?_Get_first@?$_Compressed_pair@V?$allocator@ULegitPlayerRecords@@@std@@V?$_Deque_val@U?$_Deque_simple_types@ULegitPlayerRecords@@@std@@@2@$00@std@@QAEAAV?$allocator@ULegitPlayerRecords@@@2@XZ 10001ea0 f i Legitbot.obj
 0001:00000ea0       ?_Get_first@?$_Compressed_pair@V?$allocator@V?$_List_unchecked_iterator@V?$_List_val@U?$_List_simple_types@U?$pair@$$CBV?$basic_string@DU?$char_traits@D@std@@V?$allocator@D@2@@std@@V?$shared_ptr@UNode@NetvarTree@@@2@@std@@@std@@@std@@@std@@@std@@V?$_Vector_val@U?$_Simple_types@V?$_List_unchecked_iterator@V?$_List_val@U?$_List_simple_types@U?$pair@$$CBV?$basic_string@DU?$char_traits@D@std@@V?$allocator@D@2@@std@@V?$shared_ptr@UNode@NetvarTree@@@2@@std@@@std@@@std@@@std@@@std@@@2@$00@std@@QAEAAV?$allocator@V?$_List_unchecked_iterator@V?$_List_val@U?$_List_simple_types@U?$pair@$$CBV?$basic_string@DU?$char_traits@D@std@@V?$allocator@D@2@@std@@V?$shared_ptr@UNode@NetvarTree@@@2@@std@@@std@@@std@@@std@@@2@XZ 10001ea0 f i c_hooks.obj
 0001:00000ea0       ?_Get_first@?$_Compressed_pair@U?$default_delete@VVMTHook@@@std@@PAVVMTHook@@$00@std@@QAEAAU?$default_delete@VVMTHook@@@2@XZ 10001ea0 f i c_hooks.obj
 0001:00000ea0       ?_Get_second@?$_Compressed_pair@V?$allocator@UPlayerRecords@@@std@@V?$_Deque_val@U?$_Deque_simple_types@UPlayerRecords@@@std@@@2@$00@std@@QAEAAV?$_Deque_val@U?$_Deque_simple_types@UPlayerRecords@@@std@@@2@XZ 10001ea0 f i Aimbot.obj
 0001:00000ea0       ??0Vector@@QAE@XZ          10001ea0 f i Aimbot.obj
 0001:00000ea0       ?_Get_second@?$_Compressed_pair@V?$allocator@D@std@@V?$_String_val@U?$_Simple_types@D@std@@@2@$00@std@@QBEABV?$_String_val@U?$_Simple_types@D@std@@@2@XZ 10001ea0 f i c_hooks.obj
 0001:00000ea0       ?_Get_first@?$_Compressed_pair@U?$default_delete@VNetvarTree@@@std@@PAVNetvarTree@@$00@std@@QAEAAU?$default_delete@VNetvarTree@@@2@XZ 10001ea0 f i c_hooks.obj
 0001:00000ea0       ?_Get_first@?$_Compressed_pair@V?$allocator@V?$basic_string@DU?$char_traits@D@std@@V?$allocator@D@2@@std@@@std@@V?$_Vector_val@U?$_Simple_types@V?$basic_string@DU?$char_traits@D@std@@V?$allocator@D@2@@std@@@std@@@2@$00@std@@QAEAAV?$allocator@V?$basic_string@DU?$char_traits@D@std@@V?$allocator@D@2@@std@@@2@XZ 10001ea0 f i config_system.obj
 0001:00000ea0       ??0_Bxty@?$_String_val@U?$_Simple_types@_W@std@@@std@@QAE@XZ 10001ea0 f i config_system.obj
 0001:00000ea0       ?_Get_second@?$_Compressed_pair@U?$default_delete@VShadowVTManager@@@std@@PAVShadowVTManager@@$00@std@@QBEABQAVShadowVTManager@@XZ 10001ea0 f i c_hooks.obj
 0001:00000ea0       ?_Get_first@?$_Compressed_pair@U?$default_delete@V_Facet_base@std@@@std@@PAV_Facet_base@2@$00@std@@QAEAAU?$default_delete@V_Facet_base@std@@@2@XZ 10001ea0 f i config_system.obj
 0001:00000ea0       ?_Get_first@?$_Compressed_pair@V?$allocator@D@std@@V?$_String_val@U?$_Simple_types@D@std@@@2@$00@std@@QBEABV?$allocator@D@2@XZ 10001ea0 f i c_hooks.obj
 0001:00000ea0       ?_Get_second@?$_Compressed_pair@V?$allocator@U?$_List_node@U?$pair@$$CBV?$basic_string@DU?$char_traits@D@std@@V?$allocator@D@2@@std@@V?$shared_ptr@UNode@NetvarTree@@@2@@std@@PAX@std@@@std@@V?$_List_val@U?$_List_simple_types@U?$pair@$$CBV?$basic_string@DU?$char_traits@D@std@@V?$allocator@D@2@@std@@V?$shared_ptr@UNode@NetvarTree@@@2@@std@@@std@@@2@$00@std@@QAEAAV?$_List_val@U?$_List_simple_types@U?$pair@$$CBV?$basic_string@DU?$char_traits@D@std@@V?$allocator@D@2@@std@@V?$shared_ptr@UNode@NetvarTree@@@2@@std@@@std@@@2@XZ 10001ea0 f i c_hooks.obj
 0001:00000ea0       ?_Get_first@?$_Compressed_pair@V?$allocator@ULegitPlayerRecords@@@std@@V?$_Deque_val@U?$_Deque_simple_types@ULegitPlayerRecords@@@std@@@2@$00@std@@QBEABV?$allocator@ULegitPlayerRecords@@@2@XZ 10001ea0 f i Legitbot.obj
 0001:00000ea0       ?_Get_second@?$_Compressed_pair@V?$allocator@ULegitPlayerRecords@@@std@@V?$_Deque_val@U?$_Deque_simple_types@ULegitPlayerRecords@@@std@@@2@$00@std@@QBEABV?$_Deque_val@U?$_Deque_simple_types@ULegitPlayerRecords@@@std@@@2@XZ 10001ea0 f i Legitbot.obj
 0001:00000ea0       ?_Get_second@?$_Compressed_pair@V?$allocator@V?$basic_string@DU?$char_traits@D@std@@V?$allocator@D@2@@std@@@std@@V?$_Vector_val@U?$_Simple_types@V?$basic_string@DU?$char_traits@D@std@@V?$allocator@D@2@@std@@@std@@@2@$00@std@@QAEAAV?$_Vector_val@U?$_Simple_types@V?$basic_string@DU?$char_traits@D@std@@V?$allocator@D@2@@std@@@std@@@2@XZ 10001ea0 f i config_system.obj
 0001:00000ea0       ?_Get_first@?$_Compressed_pair@V?$allocator@_W@std@@V?$_String_val@U?$_Simple_types@_W@std@@@2@$00@std@@QAEAAV?$allocator@_W@2@XZ 10001ea0 f i config_system.obj
 0001:00000ea0       ??0?$tuple@$$V@std@@QAE@XZ 10001ea0 f i Aimbot.obj
 0001:00000ea0       ?_Get_second@?$_Compressed_pair@U?$equal_to@V?$basic_string@DU?$char_traits@D@std@@V?$allocator@D@2@@std@@@std@@M$00@std@@QBEABMXZ 10001ea0 f i Aimbot.obj
 0001:00000ea0       ?_Get_first@?$_Compressed_pair@V?$allocator@H@std@@V?$_Vector_val@U?$_Simple_types@H@std@@@2@$00@std@@QAEAAV?$allocator@H@2@XZ 10001ea0 f i Aimbot.obj
 0001:00000ea0       ?_Get_second@?$_Compressed_pair@V?$allocator@_W@std@@V?$_String_val@U?$_Simple_types@_W@std@@@2@$00@std@@QAEAAV?$_String_val@U?$_Simple_types@_W@std@@@2@XZ 10001ea0 f i config_system.obj
 0001:00000ea0       ??0?$allocator@UPlayerRecords@@@std@@QAE@XZ 10001ea0 f i LagComp.obj
 0001:00000ea0       ?_Get_first@?$_Compressed_pair@V?$allocator@H@std@@V?$_Vector_val@U?$_Simple_types@H@std@@@2@$00@std@@QBEABV?$allocator@H@2@XZ 10001ea0 f i Aimbot.obj
 0001:00000ea0       ?_Get_first@?$_Compressed_pair@U?$default_delete@$$BY0A@I@std@@PAI$00@std@@QAEAAU?$default_delete@$$BY0A@I@2@XZ 10001ea0 f i c_hooks.obj
 0001:00000ea0       ?_Get_second@?$_Compressed_pair@V?$allocator@V?$_List_unchecked_iterator@V?$_List_val@U?$_List_simple_types@U?$pair@$$CBV?$basic_string@DU?$char_traits@D@std@@V?$allocator@D@2@@std@@V?$shared_ptr@UNode@NetvarTree@@@2@@std@@@std@@@std@@@std@@@std@@V?$_Vector_val@U?$_Simple_types@V?$_List_unchecked_iterator@V?$_List_val@U?$_List_simple_types@U?$pair@$$CBV?$basic_string@DU?$char_traits@D@std@@V?$allocator@D@2@@std@@V?$shared_ptr@UNode@NetvarTree@@@2@@std@@@std@@@std@@@std@@@std@@@2@$00@std@@QBEABV?$_Vector_val@U?$_Simple_types@V?$_List_unchecked_iterator@V?$_List_val@U?$_List_simple_types@U?$pair@$$CBV?$basic_string@DU?$char_traits@D@std@@V?$allocator@D@2@@std@@V?$shared_ptr@UNode@NetvarTree@@@2@@std@@@std@@@std@@@std@@@std@@@2@XZ 10001ea0 f i c_hooks.obj
 0001:00000ea0       ?_Get_first@?$_Compressed_pair@V?$allocator@V?$_List_unchecked_iterator@V?$_List_val@U?$_List_simple_types@U?$pair@$$CBV?$basic_string@DU?$char_traits@D@std@@V?$allocator@D@2@@std@@V?$shared_ptr@UNode@NetvarTree@@@2@@std@@@std@@@std@@@std@@@std@@V?$_Vector_val@U?$_Simple_types@V?$_List_unchecked_iterator@V?$_List_val@U?$_List_simple_types@U?$pair@$$CBV?$basic_string@DU?$char_traits@D@std@@V?$allocator@D@2@@std@@V?$shared_ptr@UNode@NetvarTree@@@2@@std@@@std@@@std@@@std@@@std@@@2@$00@std@@QBEABV?$allocator@V?$_List_unchecked_iterator@V?$_List_val@U?$_List_simple_types@U?$pair@$$CBV?$basic_string@DU?$char_traits@D@std@@V?$allocator@D@2@@std@@V?$shared_ptr@UNode@NetvarTree@@@2@@std@@@std@@@std@@@std@@@2@XZ 10001ea0 f i Aimbot.obj
 0001:00000ea0       ?_Get_second@?$_Compressed_pair@U?$hash@V?$basic_string@DU?$char_traits@D@std@@V?$allocator@D@2@@std@@@std@@V?$_Compressed_pair@U?$equal_to@V?$basic_string@DU?$char_traits@D@std@@V?$allocator@D@2@@std@@@std@@M$00@2@$00@std@@QBEABV?$_Compressed_pair@U?$equal_to@V?$basic_string@DU?$char_traits@D@std@@V?$allocator@D@2@@std@@@std@@M$00@2@XZ 10001ea0 f i Aimbot.obj
 0001:00000eb0       ??0?$basic_string@DU?$char_traits@D@std@@V?$allocator@D@2@@std@@QAE@QBD@Z 10001eb0 f i c_hooks.obj
 0001:00000f20       ??0Event@@QAE@XZ           10001f20 f i c_hooks.obj
 0001:00000f50       ??0IGameEventListener@@QAE@XZ 10001f50 f i c_hooks.obj
 0001:00000f70       ??0ProtectGuard@@QAE@PAXII@Z 10001f70 f i c_hooks.obj
 0001:00000fd0       ??0VMTHook@@QAE@PAX@Z      10001fd0 f i c_hooks.obj
 0001:000010f0       ??0Vector2D@@QAE@MM@Z      100020f0 f i c_hooks.obj
 0001:000010f0       ??0ImVec2@@QAE@MM@Z        100020f0 f i imgui_impl_dx9.obj
 0001:00001120       ??0c_hooks@@QAE@XZ         10002120 f i c_hooks.obj
 0001:000011f0       ??0exception@std@@QAE@ABV01@@Z 100021f0 f i c_hooks.obj
 0001:00001230       ??0exception@std@@QAE@QBD@Z 10002230 f i c_hooks.obj
 0001:00001280       ??0runtime_error@std@@QAE@ABV01@@Z 10002280 f i c_hooks.obj
 0001:000012b0       ??0runtime_error@std@@QAE@PBD@Z 100022b0 f i c_hooks.obj
 0001:000012e0       ??1?$_Deque_iterator@V?$_Deque_val@U?$_Deque_simple_types@ULegitPlayerRecords@@@std@@@std@@@std@@QAE@XZ 100022e0 f i Legitbot.obj
 0001:000012e0       ??1?$_Compressed_pair@V?$allocator@D@std@@V?$_String_val@U?$_Simple_types@D@std@@@2@$00@std@@QAE@XZ 100022e0 f i c_hooks.obj
 0001:000012e0       ??1?$_Deque_iterator@V?$_Deque_val@U?$_Deque_simple_types@UPlayerRecords@@@std@@@std@@@std@@QAE@XZ 100022e0 f i Aimbot.obj
 0001:000012e0       ??1?$_Compressed_pair@V?$allocator@_W@std@@V?$_String_val@U?$_Simple_types@_W@std@@@2@$00@std@@QAE@XZ 100022e0 f i config_system.obj
 0001:00001300       ??1?$_Hash@V?$_Umap_traits@V?$basic_string@DU?$char_traits@D@std@@V?$allocator@D@2@@std@@V?$shared_ptr@UNode@NetvarTree@@@2@V?$_Uhash_compare@V?$basic_string@DU?$char_traits@D@std@@V?$allocator@D@2@@std@@U?$hash@V?$basic_string@DU?$char_traits@D@std@@V?$allocator@D@2@@std@@@2@U?$equal_to@V?$basic_string@DU?$char_traits@D@std@@V?$allocator@D@2@@std@@@2@@2@V?$allocator@U?$pair@$$CBV?$basic_string@DU?$char_traits@D@std@@V?$allocator@D@2@@std@@V?$shared_ptr@UNode@NetvarTree@@@2@@std@@@2@$0A@@std@@@std@@QAE@XZ 10002300 f i c_hooks.obj
 0001:00001330       ??1?$_List_alloc@U?$_List_base_types@U?$pair@$$CBV?$basic_string@DU?$char_traits@D@std@@V?$allocator@D@2@@std@@V?$shared_ptr@UNode@NetvarTree@@@2@@std@@V?$allocator@U?$pair@$$CBV?$basic_string@DU?$char_traits@D@std@@V?$allocator@D@2@@std@@V?$shared_ptr@UNode@NetvarTree@@@2@@std@@@2@@std@@@std@@QAE@XZ 10002330 f i c_hooks.obj
 0001:00001380       ??1?$_List_buy@U?$pair@$$CBV?$basic_string@DU?$char_traits@D@std@@V?$allocator@D@2@@std@@V?$shared_ptr@UNode@NetvarTree@@@2@@std@@V?$allocator@U?$pair@$$CBV?$basic_string@DU?$char_traits@D@std@@V?$allocator@D@2@@std@@V?$shared_ptr@UNode@NetvarTree@@@2@@std@@@2@@std@@QAE@XZ 10002380 f i c_hooks.obj
 0001:000013a0       ??1?$_String_alloc@U?$_String_base_types@_WV?$allocator@_W@std@@@std@@@std@@QAE@XZ 100023a0 f i config_system.obj
 0001:000013a0       ??1?$_String_alloc@U?$_String_base_types@DV?$allocator@D@std@@@std@@@std@@QAE@XZ 100023a0 f i c_hooks.obj
 0001:000013c0       ??1?$_String_val@U?$_Simple_types@D@std@@@std@@QAE@XZ 100023c0 f i c_hooks.obj
 0001:000013c0       ??1?$_Deque_const_iterator@V?$_Deque_val@U?$_Deque_simple_types@ULegitPlayerRecords@@@std@@@std@@@std@@QAE@XZ 100023c0 f i Legitbot.obj
 0001:000013c0       ??1?$_String_val@U?$_Simple_types@_W@std@@@std@@QAE@XZ 100023c0 f i config_system.obj
 0001:000013c0       ??1?$_Deque_const_iterator@V?$_Deque_val@U?$_Deque_simple_types@UPlayerRecords@@@std@@@std@@@std@@QAE@XZ 100023c0 f i Aimbot.obj
 0001:000013c0       ??1?$_Ref_count_obj@UNode@NetvarTree@@@std@@UAE@XZ 100023c0 f i NetvarManager.obj
 0001:000013e0       ??1?$basic_string@DU?$char_traits@D@std@@V?$allocator@D@2@@std@@QAE@XZ 100023e0 f i c_hooks.obj
 0001:00001430       ??1?$list@U?$pair@$$CBV?$basic_string@DU?$char_traits@D@std@@V?$allocator@D@2@@std@@V?$shared_ptr@UNode@NetvarTree@@@2@@std@@V?$allocator@U?$pair@$$CBV?$basic_string@DU?$char_traits@D@std@@V?$allocator@D@2@@std@@V?$shared_ptr@UNode@NetvarTree@@@2@@std@@@2@@std@@QAE@XZ 10002430 f i c_hooks.obj
 0001:00001480       ??1?$pair@$$CBV?$basic_string@DU?$char_traits@D@std@@V?$allocator@D@2@@std@@V?$shared_ptr@UNode@NetvarTree@@@2@@std@@QAE@XZ 10002480 f i c_hooks.obj
 0001:000014a0       ??1?$shared_ptr@UNode@NetvarTree@@@std@@QAE@XZ 100024a0 f i c_hooks.obj
 0001:000014e0       ??1?$unique_ptr@$$BY0A@IU?$default_delete@$$BY0A@I@std@@@std@@QAE@XZ 100024e0 f i c_hooks.obj
 0001:00001520       ??1?$unique_ptr@VNetvarTree@@U?$default_delete@VNetvarTree@@@std@@@std@@QAE@XZ 10002520 f i c_hooks.obj
 0001:00001560       ??1?$unique_ptr@VShadowVTManager@@U?$default_delete@VShadowVTManager@@@std@@@std@@QAE@XZ 10002560 f i c_hooks.obj
 0001:000015a0       ??1?$unique_ptr@VVMTHook@@U?$default_delete@VVMTHook@@@std@@@std@@QAE@XZ 100025a0 f i c_hooks.obj
 0001:000015e0       ??1?$unordered_map@V?$basic_string@DU?$char_traits@D@std@@V?$allocator@D@2@@std@@V?$shared_ptr@UNode@NetvarTree@@@2@U?$hash@V?$basic_string@DU?$char_traits@D@std@@V?$allocator@D@2@@std@@@2@U?$equal_to@V?$basic_string@DU?$char_traits@D@std@@V?$allocator@D@2@@std@@@2@V?$allocator@U?$pair@$$CBV?$basic_string@DU?$char_traits@D@std@@V?$allocator@D@2@@std@@V?$shared_ptr@UNode@NetvarTree@@@2@@std@@@2@@std@@QAE@XZ 100025e0 f i c_hooks.obj
 0001:00001600       ??1?$vector@V?$_List_unchecked_iterator@V?$_List_val@U?$_List_simple_types@U?$pair@$$CBV?$basic_string@DU?$char_traits@D@std@@V?$allocator@D@2@@std@@V?$shared_ptr@UNode@NetvarTree@@@2@@std@@@std@@@std@@@std@@V?$allocator@V?$_List_unchecked_iterator@V?$_List_val@U?$_List_simple_types@U?$pair@$$CBV?$basic_string@DU?$char_traits@D@std@@V?$allocator@D@2@@std@@V?$shared_ptr@UNode@NetvarTree@@@2@@std@@@std@@@std@@@std@@@2@@std@@QAE@XZ 10002600 f i c_hooks.obj
 0001:00001600       ??1?$vector@HV?$allocator@H@std@@@std@@QAE@XZ 10002600 f i Aimbot.obj
 0001:00001640       ??1Event@@UAE@XZ           10002640 f i c_hooks.obj
 0001:00001660       ??1IGameEventListener@@UAE@XZ 10002660 f i c_hooks.obj
 0001:00001680       ??1Node@NetvarTree@@QAE@XZ 10002680 f i NetvarManager.obj
 0001:00001680       ??1NetvarTree@@QAE@XZ      10002680 f i c_hooks.obj
 0001:000016a0       ??1ProtectGuard@@QAE@XZ    100026a0 f i c_hooks.obj
 0001:000016d0       ??1ShadowVTManager@@QAE@XZ 100026d0 f i c_hooks.obj
 0001:00001730       ??1VMTHook@@QAE@XZ         10002730 f i c_hooks.obj
 0001:00001760       ?_Orphan_all@_Container_base12@std@@QAEXXZ 10002760 f i LagComp.obj
 0001:00001760       ??1_Bxty@?$_String_val@U?$_Simple_types@D@std@@@std@@QAE@XZ 10002760 f i c_hooks.obj
 0001:00001760       ?_Orphan_all@_Container_base0@std@@QAEXXZ 10002760 f i c_hooks.obj
 0001:00001760       ??1_Bxty@?$_String_val@U?$_Simple_types@_W@std@@@std@@QAE@XZ 10002760 f i config_system.obj
 0001:00001760       ??1_Ref_count_base@std@@UAE@XZ 10002760 f i config_system.obj
 0001:00001760       ??1_Iterator_base12@std@@QAE@XZ 10002760 f i Aimbot.obj
 0001:00001770       ??1c_hooks@@QAE@XZ         10002770 f i c_hooks.obj
 0001:00001820       ??1exception@std@@UAE@XZ   10002820 f i c_hooks.obj
 0001:00001850       ??1bad_cast@std@@UAE@XZ    10002850 f i config_system.obj
 0001:00001850       ??1runtime_error@std@@UAE@XZ 10002850 f i c_hooks.obj
 0001:00001870       ??2@YAPAXIPAX@Z            10002870 f i c_hooks.obj
 0001:00001880       ??4?$unique_ptr@$$BY0A@IU?$default_delete@$$BY0A@I@std@@@std@@QAEAAV01@$$QAV01@@Z 10002880 f i c_hooks.obj
 0001:000018d0       ??4?$unique_ptr@VNetvarTree@@U?$default_delete@VNetvarTree@@@std@@@std@@QAEAAV01@$$QAV01@@Z 100028d0 f i c_hooks.obj
 0001:00001920       ??4?$unique_ptr@VVMTHook@@U?$default_delete@VVMTHook@@@std@@@std@@QAEAAV01@$$QAV01@@Z 10002920 f i c_hooks.obj
 0001:00001970       ??A?$unique_ptr@$$BY0A@IU?$default_delete@$$BY0A@I@std@@@std@@QBEAAII@Z 10002970 f i c_hooks.obj
 0001:00001990       ??C?$unique_ptr@VNetvarTree@@U?$default_delete@VNetvarTree@@@std@@@std@@QBEPAVNetvarTree@@XZ 10002990 f i Aimbot.obj
 0001:00001990       ?get@?$unique_ptr@$$BY0A@IU?$default_delete@$$BY0A@I@std@@@std@@QBEPAIXZ 10002990 f i c_hooks.obj
 0001:00001990       ?get@?$unique_ptr@VVMTHook@@U?$default_delete@VVMTHook@@@std@@@std@@QBEPAVVMTHook@@XZ 10002990 f i c_hooks.obj
 0001:00001990       ?get@?$unique_ptr@VShadowVTManager@@U?$default_delete@VShadowVTManager@@@std@@@std@@QBEPAVShadowVTManager@@XZ 10002990 f i c_hooks.obj
 0001:00001990       ?get@?$unique_ptr@V_Facet_base@std@@U?$default_delete@V_Facet_base@std@@@2@@std@@QBEPAV_Facet_base@2@XZ 10002990 f i config_system.obj
 0001:00001990       ?get@?$unique_ptr@VNetvarTree@@U?$default_delete@VNetvarTree@@@std@@@std@@QBEPAVNetvarTree@@XZ 10002990 f i c_hooks.obj
 0001:00001990       ??C?$unique_ptr@VVMTHook@@U?$default_delete@VVMTHook@@@std@@@std@@QBEPAVVMTHook@@XZ 10002990 f i c_hooks.obj
 0001:000019b0       ??R<lambda_9366063389c5f42a00a5088cf24e69de>@@QBEXQADIQBD@Z 100029b0 f i c_hooks.obj
 0001:000019f0       ??R?$default_delete@VNetvarTree@@@std@@QBEXPAVNetvarTree@@@Z 100029f0 f i c_hooks.obj
 0001:00001a30       ??R?$default_delete@VShadowVTManager@@@std@@QBEXPAVShadowVTManager@@@Z 10002a30 f i c_hooks.obj
 0001:00001a70       ??R?$default_delete@VVMTHook@@@std@@QBEXPAVVMTHook@@@Z 10002a70 f i c_hooks.obj
 0001:00001ab0       ??_G?$pair@$$CBV?$basic_string@DU?$char_traits@D@std@@V?$allocator@D@2@@std@@V?$shared_ptr@UNode@NetvarTree@@@2@@std@@QAEPAXI@Z 10002ab0 f i c_hooks.obj
 0001:00001ae0       ??_EEvent@@UAEPAXI@Z       10002ae0 f i c_hooks.obj
 0001:00001ae0       ??_GEvent@@UAEPAXI@Z       10002ae0 f i c_hooks.obj
 0001:00001b10       ??_GIGameEventListener@@UAEPAXI@Z 10002b10 f i c_hooks.obj
 0001:00001b10       ??_EIGameEventListener@@UAEPAXI@Z 10002b10 f i c_hooks.obj
 0001:00001b40       ??_GNetvarTree@@QAEPAXI@Z  10002b40 f i c_hooks.obj
 0001:00001b70       ??_GShadowVTManager@@QAEPAXI@Z 10002b70 f i c_hooks.obj
 0001:00001ba0       ??_GVMTHook@@QAEPAXI@Z     10002ba0 f i c_hooks.obj
 0001:00001bd0       ??_Eexception@std@@UAEPAXI@Z 10002bd0 f i c_hooks.obj
 0001:00001bd0       ??_Gexception@std@@UAEPAXI@Z 10002bd0 f i c_hooks.obj
 0001:00001c00       ??_Eruntime_error@std@@UAEPAXI@Z 10002c00 f i c_hooks.obj
 0001:00001c00       ??_Gruntime_error@std@@UAEPAXI@Z 10002c00 f i c_hooks.obj
 0001:00001c00       ??_Ebad_cast@std@@UAEPAXI@Z 10002c00 f i config_system.obj
 0001:00001c00       ??_Gbad_cast@std@@UAEPAXI@Z 10002c00 f i config_system.obj
 0001:00001c30       ??_H@YGXPAXIIP6EPAX0@Z@Z   10002c30 f i c_hooks.obj
 0001:00001c70       ?FindSignature@Utils@@SAIPBD0@Z 10002c70 f i c_hooks.obj
 0001:00001ea0       ?GetEventDebugID@IGameEventListener@@UAEHXZ 10002ea0 f i c_hooks.obj
 0001:00001eb0       ?Hook@VMTHook@@QAEJIPAX@Z  10002eb0 f i c_hooks.obj
 0001:00001ef0       ?Init@Event@@QAEXXZ        10002ef0 f i c_hooks.obj
 0001:00001f20       ?Init@c_hooks@@SAXXZ       10002f20 f   c_hooks.obj
 0001:00001ff0       ?Restore@c_hooks@@SAXXZ    10002ff0 f   c_hooks.obj
 0001:00002140       ?RestoreTable@ShadowVTManager@@QAEXXZ 10003140 f i c_hooks.obj
 0001:000021e0       ?Unhook@VMTHook@@QAEJI@Z   100031e0 f i c_hooks.obj
 0001:00002230       ?_Adjust_manually_vector_aligned@std@@YAXAAPAXAAI@Z 10003230 f i c_hooks.obj
 0001:000022a0       ?_Allocate@_Default_allocate_traits@std@@SAPAXI@Z 100032a0 f i c_hooks.obj
 0001:000022c0       ?_Calculate_growth@?$basic_string@DU?$char_traits@D@std@@V?$allocator@D@2@@std@@QBEII@Z 100032c0 f i c_hooks.obj
 0001:00002340       ?_Decref@?$_Ptr_base@UNode@NetvarTree@@@std@@IAEXXZ 10003340 f i c_hooks.obj
 0001:00002360       ?_Decref@_Ref_count_base@std@@QAEXXZ 10003360 f i c_hooks.obj
 0001:00002390       ?_Decwref@_Ref_count_base@std@@QAEXXZ 10003390 f i c_hooks.obj
 0001:000023c0       ?_Delete@?$unique_ptr@$$BY0A@IU?$default_delete@$$BY0A@I@std@@@std@@AAEXXZ 100033c0 f i c_hooks.obj
 0001:00002400       ?_Destroy@?$vector@HV?$allocator@H@std@@@std@@AAEXPAH0@Z 10003400 f i Aimbot.obj
 0001:00002400       ?_Destroy@?$vector@V?$_List_unchecked_iterator@V?$_List_val@U?$_List_simple_types@U?$pair@$$CBV?$basic_string@DU?$char_traits@D@std@@V?$allocator@D@2@@std@@V?$shared_ptr@UNode@NetvarTree@@@2@@std@@@std@@@std@@@std@@V?$allocator@V?$_List_unchecked_iterator@V?$_List_val@U?$_List_simple_types@U?$pair@$$CBV?$basic_string@DU?$char_traits@D@std@@V?$allocator@D@2@@std@@V?$shared_ptr@UNode@NetvarTree@@@2@@std@@@std@@@std@@@std@@@2@@std@@AAEXPAV?$_List_unchecked_iterator@V?$_List_val@U?$_List_simple_types@U?$pair@$$CBV?$basic_string@DU?$char_traits@D@std@@V?$allocator@D@2@@std@@V?$shared_ptr@UNode@NetvarTree@@@2@@std@@@std@@@std@@@2@0@Z 10003400 f i c_hooks.obj
 0001:00002430       ?_Freeheadnode@?$_List_alloc@U?$_List_base_types@U?$pair@$$CBV?$basic_string@DU?$char_traits@D@std@@V?$allocator@D@2@@std@@V?$shared_ptr@UNode@NetvarTree@@@2@@std@@V?$allocator@U?$pair@$$CBV?$basic_string@DU?$char_traits@D@std@@V?$allocator@D@2@@std@@V?$shared_ptr@UNode@NetvarTree@@@2@@std@@@2@@std@@@std@@QAEXPAU?$_List_node@U?$pair@$$CBV?$basic_string@DU?$char_traits@D@std@@V?$allocator@D@2@@std@@V?$shared_ptr@UNode@NetvarTree@@@2@@std@@PAX@2@@Z 10003430 f i c_hooks.obj
 0001:00002460       ?_Freenode@?$_List_buy@U?$pair@$$CBV?$basic_string@DU?$char_traits@D@std@@V?$allocator@D@2@@std@@V?$shared_ptr@UNode@NetvarTree@@@2@@std@@V?$allocator@U?$pair@$$CBV?$basic_string@DU?$char_traits@D@std@@V?$allocator@D@2@@std@@V?$shared_ptr@UNode@NetvarTree@@@2@@std@@@2@@std@@QAEXPAU?$_List_node@U?$pair@$$CBV?$basic_string@DU?$char_traits@D@std@@V?$allocator@D@2@@std@@V?$shared_ptr@UNode@NetvarTree@@@2@@std@@PAX@2@@Z 10003460 f i c_hooks.obj
 0001:000024b0       ?_Getal@?$_String_alloc@U?$_String_base_types@_WV?$allocator@_W@std@@@std@@@std@@QAEAAV?$allocator@_W@2@XZ 100034b0 f i config_system.obj
 0001:000024b0       ?_Getal@?$_String_alloc@U?$_String_base_types@DV?$allocator@D@std@@@std@@@std@@QAEAAV?$allocator@D@2@XZ 100034b0 f i c_hooks.obj
 0001:000024b0       ?_Get_data@?$_Vector_alloc@U?$_Vec_base_types@HV?$allocator@H@std@@@std@@@std@@QAEAAV?$_Vector_val@U?$_Simple_types@H@std@@@2@XZ 100034b0 f i Aimbot.obj
 0001:000024b0       ?_Getal@?$_String_alloc@U?$_String_base_types@DV?$allocator@D@std@@@std@@@std@@QBEABV?$allocator@D@2@XZ 100034b0 f i c_hooks.obj
 0001:000024b0       ?_Myptr@?$_Unique_ptr_base@VVMTHook@@U?$default_delete@VVMTHook@@@std@@@std@@QAEAAPAVVMTHook@@XZ 100034b0 f i c_hooks.obj
 0001:000024b0       ?_Get_data@?$_String_alloc@U?$_String_base_types@_WV?$allocator@_W@std@@@std@@@std@@QAEAAV?$_String_val@U?$_Simple_types@_W@std@@@2@XZ 100034b0 f i config_system.obj
 0001:000024b0       ?_Get_data@?$_String_alloc@U?$_String_base_types@DV?$allocator@D@std@@@std@@@std@@QBEABV?$_String_val@U?$_Simple_types@D@std@@@2@XZ 100034b0 f i c_hooks.obj
 0001:000024b0       ?_Get_data@?$_List_alloc@U?$_List_base_types@U?$pair@$$CBV?$basic_string@DU?$char_traits@D@std@@V?$allocator@D@2@@std@@V?$shared_ptr@UNode@NetvarTree@@@2@@std@@V?$allocator@U?$pair@$$CBV?$basic_string@DU?$char_traits@D@std@@V?$allocator@D@2@@std@@V?$shared_ptr@UNode@NetvarTree@@@2@@std@@@2@@std@@@std@@QBEABV?$_List_val@U?$_List_simple_types@U?$pair@$$CBV?$basic_string@DU?$char_traits@D@std@@V?$allocator@D@2@@std@@V?$shared_ptr@UNode@NetvarTree@@@2@@std@@@std@@@2@XZ 100034b0 f i Aimbot.obj
 0001:000024b0       ?_Getal@?$_Vector_alloc@U?$_Vec_base_types@HV?$allocator@H@std@@@std@@@std@@QBEABV?$allocator@H@2@XZ 100034b0 f i Aimbot.obj
 0001:000024b0       ?_Myptr@?$_Unique_ptr_base@V_Facet_base@std@@U?$default_delete@V_Facet_base@std@@@2@@std@@QAEAAPAV_Facet_base@2@XZ 100034b0 f i config_system.obj
 0001:000024b0       ?_Myptr@?$_Unique_ptr_base@VNetvarTree@@U?$default_delete@VNetvarTree@@@std@@@std@@QBEABQAVNetvarTree@@XZ 100034b0 f i c_hooks.obj
 0001:000024b0       ?get_deleter@?$_Unique_ptr_base@VShadowVTManager@@U?$default_delete@VShadowVTManager@@@std@@@std@@QAEAAU?$default_delete@VShadowVTManager@@@2@XZ 100034b0 f i c_hooks.obj
 0001:000024b0       ?get_deleter@?$_Unique_ptr_base@VVMTHook@@U?$default_delete@VVMTHook@@@std@@@std@@QAEAAU?$default_delete@VVMTHook@@@2@XZ 100034b0 f i c_hooks.obj
 0001:000024b0       ?get_deleter@?$_Unique_ptr_base@IU?$default_delete@$$BY0A@I@std@@@std@@QAEAAU?$default_delete@$$BY0A@I@2@XZ 100034b0 f i c_hooks.obj
 0001:000024b0       ?_Get_data@?$_Vector_alloc@U?$_Vec_base_types@V?$basic_string@DU?$char_traits@D@std@@V?$allocator@D@2@@std@@V?$allocator@V?$basic_string@DU?$char_traits@D@std@@V?$allocator@D@2@@std@@@2@@std@@@std@@QBEABV?$_Vector_val@U?$_Simple_types@V?$basic_string@DU?$char_traits@D@std@@V?$allocator@D@2@@std@@@std@@@2@XZ 100034b0 f i config_system.obj
 0001:000024b0       ?_Getal@?$_List_alloc@U?$_List_base_types@U?$pair@$$CBV?$basic_string@DU?$char_traits@D@std@@V?$allocator@D@2@@std@@V?$shared_ptr@UNode@NetvarTree@@@2@@std@@V?$allocator@U?$pair@$$CBV?$basic_string@DU?$char_traits@D@std@@V?$allocator@D@2@@std@@V?$shared_ptr@UNode@NetvarTree@@@2@@std@@@2@@std@@@std@@QAEAAV?$allocator@U?$_List_node@U?$pair@$$CBV?$basic_string@DU?$char_traits@D@std@@V?$allocator@D@2@@std@@V?$shared_ptr@UNode@NetvarTree@@@2@@std@@PAX@std@@@2@XZ 100034b0 f i c_hooks.obj
 0001:000024b0       ?_Get_data@?$_Deque_alloc@U?$_Deque_base_types@UPlayerRecords@@V?$allocator@UPlayerRecords@@@std@@@std@@@std@@QAEAAV?$_Deque_val@U?$_Deque_simple_types@UPlayerRecords@@@std@@@2@XZ 100034b0 f i Aimbot.obj
 0001:000024b0       ?_Get_data@?$_Vector_alloc@U?$_Vec_base_types@V?$_List_unchecked_iterator@V?$_List_val@U?$_List_simple_types@U?$pair@$$CBV?$basic_string@DU?$char_traits@D@std@@V?$allocator@D@2@@std@@V?$shared_ptr@UNode@NetvarTree@@@2@@std@@@std@@@std@@@std@@V?$allocator@V?$_List_unchecked_iterator@V?$_List_val@U?$_List_simple_types@U?$pair@$$CBV?$basic_string@DU?$char_traits@D@std@@V?$allocator@D@2@@std@@V?$shared_ptr@UNode@NetvarTree@@@2@@std@@@std@@@std@@@std@@@2@@std@@@std@@QAEAAV?$_Vector_val@U?$_Simple_types@V?$_List_unchecked_iterator@V?$_List_val@U?$_List_simple_types@U?$pair@$$CBV?$basic_string@DU?$char_traits@D@std@@V?$allocator@D@2@@std@@V?$shared_ptr@UNode@NetvarTree@@@2@@std@@@std@@@std@@@std@@@std@@@2@XZ 100034b0 f i c_hooks.obj
 0001:000024b0       ?_Get_data@?$_List_alloc@U?$_List_base_types@U?$pair@$$CBV?$basic_string@DU?$char_traits@D@std@@V?$allocator@D@2@@std@@V?$shared_ptr@UNode@NetvarTree@@@2@@std@@V?$allocator@U?$pair@$$CBV?$basic_string@DU?$char_traits@D@std@@V?$allocator@D@2@@std@@V?$shared_ptr@UNode@NetvarTree@@@2@@std@@@2@@std@@@std@@QAEAAV?$_List_val@U?$_List_simple_types@U?$pair@$$CBV?$basic_string@DU?$char_traits@D@std@@V?$allocator@D@2@@std@@V?$shared_ptr@UNode@NetvarTree@@@2@@std@@@std@@@2@XZ 100034b0 f i c_hooks.obj
 0001:000024b0       ?_Get_data@?$_Vector_alloc@U?$_Vec_base_types@V?$basic_string@DU?$char_traits@D@std@@V?$allocator@D@2@@std@@V?$allocator@V?$basic_string@DU?$char_traits@D@std@@V?$allocator@D@2@@std@@@2@@std@@@std@@QAEAAV?$_Vector_val@U?$_Simple_types@V?$basic_string@DU?$char_traits@D@std@@V?$allocator@D@2@@std@@@std@@@2@XZ 100034b0 f i config_system.obj
 0001:000024b0       ?_Myptr@?$_Unique_ptr_base@VShadowVTManager@@U?$default_delete@VShadowVTManager@@@std@@@std@@QBEABQAVShadowVTManager@@XZ 100034b0 f i c_hooks.obj
 0001:000024b0       ?_Myptr@?$_Unique_ptr_base@IU?$default_delete@$$BY0A@I@std@@@std@@QAEAAPAIXZ 100034b0 f i c_hooks.obj
 0001:000024b0       ?_Get_data@?$_Deque_alloc@U?$_Deque_base_types@UPlayerRecords@@V?$allocator@UPlayerRecords@@@std@@@std@@@std@@QBEABV?$_Deque_val@U?$_Deque_simple_types@UPlayerRecords@@@std@@@2@XZ 100034b0 f i Aimbot.obj
 0001:000024b0       ?_Getal@?$_Vector_alloc@U?$_Vec_base_types@HV?$allocator@H@std@@@std@@@std@@QAEAAV?$allocator@H@2@XZ 100034b0 f i Aimbot.obj
 0001:000024b0       ?_Get_data@?$_Vector_alloc@U?$_Vec_base_types@HV?$allocator@H@std@@@std@@@std@@QBEABV?$_Vector_val@U?$_Simple_types@H@std@@@2@XZ 100034b0 f i Aimbot.obj
 0001:000024b0       ?_Myptr@?$_Unique_ptr_base@VNetvarTree@@U?$default_delete@VNetvarTree@@@std@@@std@@QAEAAPAVNetvarTree@@XZ 100034b0 f i c_hooks.obj
 0001:000024b0       ?_Getal@?$_Vector_alloc@U?$_Vec_base_types@V?$basic_string@DU?$char_traits@D@std@@V?$allocator@D@2@@std@@V?$allocator@V?$basic_string@DU?$char_traits@D@std@@V?$allocator@D@2@@std@@@2@@std@@@std@@QAEAAV?$allocator@V?$basic_string@DU?$char_traits@D@std@@V?$allocator@D@2@@std@@@2@XZ 100034b0 f i config_system.obj
 0001:000024b0       ?_Getal@?$_Vector_alloc@U?$_Vec_base_types@V?$_List_unchecked_iterator@V?$_List_val@U?$_List_simple_types@U?$pair@$$CBV?$basic_string@DU?$char_traits@D@std@@V?$allocator@D@2@@std@@V?$shared_ptr@UNode@NetvarTree@@@2@@std@@@std@@@std@@@std@@V?$allocator@V?$_List_unchecked_iterator@V?$_List_val@U?$_List_simple_types@U?$pair@$$CBV?$basic_string@DU?$char_traits@D@std@@V?$allocator@D@2@@std@@V?$shared_ptr@UNode@NetvarTree@@@2@@std@@@std@@@std@@@std@@@2@@std@@@std@@QBEABV?$allocator@V?$_List_unchecked_iterator@V?$_List_val@U?$_List_simple_types@U?$pair@$$CBV?$basic_string@DU?$char_traits@D@std@@V?$allocator@D@2@@std@@V?$shared_ptr@UNode@NetvarTree@@@2@@std@@@std@@@std@@@std@@@2@XZ 100034b0 f i Aimbot.obj
 0001:000024b0       ?_Myptr@?$_Unique_ptr_base@IU?$default_delete@$$BY0A@I@std@@@std@@QBEABQAIXZ 100034b0 f i c_hooks.obj
 0001:000024b0       ?get_deleter@?$_Unique_ptr_base@VNetvarTree@@U?$default_delete@VNetvarTree@@@std@@@std@@QAEAAU?$default_delete@VNetvarTree@@@2@XZ 100034b0 f i c_hooks.obj
 0001:000024b0       ?_Gethash@?$_Uhash_compare@V?$basic_string@DU?$char_traits@D@std@@V?$allocator@D@2@@std@@U?$hash@V?$basic_string@DU?$char_traits@D@std@@V?$allocator@D@2@@std@@@2@U?$equal_to@V?$basic_string@DU?$char_traits@D@std@@V?$allocator@D@2@@std@@@2@@std@@QBEABU?$hash@V?$basic_string@DU?$char_traits@D@std@@V?$allocator@D@2@@std@@@2@XZ 100034b0 f i Aimbot.obj
 0001:000024b0       ?_Get_data@?$_Deque_alloc@U?$_Deque_base_types@ULegitPlayerRecords@@V?$allocator@ULegitPlayerRecords@@@std@@@std@@@std@@QAEAAV?$_Deque_val@U?$_Deque_simple_types@ULegitPlayerRecords@@@std@@@2@XZ 100034b0 f i Legitbot.obj
 0001:000024b0       ?_Getal@?$_List_alloc@U?$_List_base_types@U?$pair@$$CBV?$basic_string@DU?$char_traits@D@std@@V?$allocator@D@2@@std@@V?$shared_ptr@UNode@NetvarTree@@@2@@std@@V?$allocator@U?$pair@$$CBV?$basic_string@DU?$char_traits@D@std@@V?$allocator@D@2@@std@@V?$shared_ptr@UNode@NetvarTree@@@2@@std@@@2@@std@@@std@@QBEABV?$allocator@U?$_List_node@U?$pair@$$CBV?$basic_string@DU?$char_traits@D@std@@V?$allocator@D@2@@std@@V?$shared_ptr@UNode@NetvarTree@@@2@@std@@PAX@std@@@2@XZ 100034b0 f i Aimbot.obj
 0001:000024b0       ?_Getal@?$_Deque_alloc@U?$_Deque_base_types@UPlayerRecords@@V?$allocator@UPlayerRecords@@@std@@@std@@@std@@QAEAAV?$allocator@UPlayerRecords@@@2@XZ 100034b0 f i LagComp.obj
 0001:000024b0       ?get_deleter@?$_Unique_ptr_base@V_Facet_base@std@@U?$default_delete@V_Facet_base@std@@@2@@std@@QAEAAU?$default_delete@V_Facet_base@std@@@2@XZ 100034b0 f i config_system.obj
 0001:000024b0       ?_Getal@?$_Deque_alloc@U?$_Deque_base_types@ULegitPlayerRecords@@V?$allocator@ULegitPlayerRecords@@@std@@@std@@@std@@QAEAAV?$allocator@ULegitPlayerRecords@@@2@XZ 100034b0 f i Legitbot.obj
 0001:000024b0       ?_Get_data@?$_Deque_alloc@U?$_Deque_base_types@ULegitPlayerRecords@@V?$allocator@ULegitPlayerRecords@@@std@@@std@@@std@@QBEABV?$_Deque_val@U?$_Deque_simple_types@ULegitPlayerRecords@@@std@@@2@XZ 100034b0 f i Legitbot.obj
 0001:000024b0       ?_Myptr@?$_Unique_ptr_base@V_Facet_base@std@@U?$default_delete@V_Facet_base@std@@@2@@std@@QBEABQAV_Facet_base@2@XZ 100034b0 f i config_system.obj
 0001:000024b0       ?_Getal@?$_Deque_alloc@U?$_Deque_base_types@UPlayerRecords@@V?$allocator@UPlayerRecords@@@std@@@std@@@std@@QBEABV?$allocator@UPlayerRecords@@@2@XZ 100034b0 f i LagComp.obj
 0001:000024b0       ?_Getal@?$_Deque_alloc@U?$_Deque_base_types@ULegitPlayerRecords@@V?$allocator@ULegitPlayerRecords@@@std@@@std@@@std@@QBEABV?$allocator@ULegitPlayerRecords@@@2@XZ 100034b0 f i Legitbot.obj
 0001:000024b0       ?_Get_data@?$_String_alloc@U?$_String_base_types@DV?$allocator@D@std@@@std@@@std@@QAEAAV?$_String_val@U?$_Simple_types@D@std@@@2@XZ 100034b0 f i c_hooks.obj
 0001:000024b0       ?_Getal@?$_Vector_alloc@U?$_Vec_base_types@V?$_List_unchecked_iterator@V?$_List_val@U?$_List_simple_types@U?$pair@$$CBV?$basic_string@DU?$char_traits@D@std@@V?$allocator@D@2@@std@@V?$shared_ptr@UNode@NetvarTree@@@2@@std@@@std@@@std@@@std@@V?$allocator@V?$_List_unchecked_iterator@V?$_List_val@U?$_List_simple_types@U?$pair@$$CBV?$basic_string@DU?$char_traits@D@std@@V?$allocator@D@2@@std@@V?$shared_ptr@UNode@NetvarTree@@@2@@std@@@std@@@std@@@std@@@2@@std@@@std@@QAEAAV?$allocator@V?$_List_unchecked_iterator@V?$_List_val@U?$_List_simple_types@U?$pair@$$CBV?$basic_string@DU?$char_traits@D@std@@V?$allocator@D@2@@std@@V?$shared_ptr@UNode@NetvarTree@@@2@@std@@@std@@@std@@@std@@@2@XZ 100034b0 f i c_hooks.obj
 0001:000024b0       ?_Get_data@?$_Vector_alloc@U?$_Vec_base_types@V?$_List_unchecked_iterator@V?$_List_val@U?$_List_simple_types@U?$pair@$$CBV?$basic_string@DU?$char_traits@D@std@@V?$allocator@D@2@@std@@V?$shared_ptr@UNode@NetvarTree@@@2@@std@@@std@@@std@@@std@@V?$allocator@V?$_List_unchecked_iterator@V?$_List_val@U?$_List_simple_types@U?$pair@$$CBV?$basic_string@DU?$char_traits@D@std@@V?$allocator@D@2@@std@@V?$shared_ptr@UNode@NetvarTree@@@2@@std@@@std@@@std@@@std@@@2@@std@@@std@@QBEABV?$_Vector_val@U?$_Simple_types@V?$_List_unchecked_iterator@V?$_List_val@U?$_List_simple_types@U?$pair@$$CBV?$basic_string@DU?$char_traits@D@std@@V?$allocator@D@2@@std@@V?$shared_ptr@UNode@NetvarTree@@@2@@std@@@std@@@std@@@std@@@std@@@2@XZ 100034b0 f i c_hooks.obj
 0001:000024b0       ?_Myptr@?$_Unique_ptr_base@VVMTHook@@U?$default_delete@VVMTHook@@@std@@@std@@QBEABQAVVMTHook@@XZ 100034b0 f i c_hooks.obj
 0001:000024d0       ?_Large_string_engaged@?$_String_val@U?$_Simple_types@D@std@@@std@@QBE_NXZ 100034d0 f i c_hooks.obj
 0001:00002500       ?_Myend@?$_Vector_alloc@U?$_Vec_base_types@V?$basic_string@DU?$char_traits@D@std@@V?$allocator@D@2@@std@@V?$allocator@V?$basic_string@DU?$char_traits@D@std@@V?$allocator@D@2@@std@@@2@@std@@@std@@QBEABQAV?$basic_string@DU?$char_traits@D@std@@V?$allocator@D@2@@2@XZ 10003500 f i config_system.obj
 0001:00002500       ?_Myend@?$_Vector_alloc@U?$_Vec_base_types@V?$basic_string@DU?$char_traits@D@std@@V?$allocator@D@2@@std@@V?$allocator@V?$basic_string@DU?$char_traits@D@std@@V?$allocator@D@2@@std@@@2@@std@@@std@@QAEAAPAV?$basic_string@DU?$char_traits@D@std@@V?$allocator@D@2@@2@XZ 10003500 f i config_system.obj
 0001:00002500       ?_Mapsize@?$_Deque_alloc@U?$_Deque_base_types@ULegitPlayerRecords@@V?$allocator@ULegitPlayerRecords@@@std@@@std@@@std@@QAEAAIXZ 10003500 f i Legitbot.obj
 0001:00002500       ?_Mapsize@?$_Deque_alloc@U?$_Deque_base_types@UPlayerRecords@@V?$allocator@UPlayerRecords@@@std@@@std@@@std@@QAEAAIXZ 10003500 f i LagComp.obj
 0001:00002500       ?_Myend@?$_Vector_alloc@U?$_Vec_base_types@HV?$allocator@H@std@@@std@@@std@@QAEAAPAHXZ 10003500 f i Aimbot.obj
 0001:00002500       ?_Myend@?$_Vector_alloc@U?$_Vec_base_types@V?$_List_unchecked_iterator@V?$_List_val@U?$_List_simple_types@U?$pair@$$CBV?$basic_string@DU?$char_traits@D@std@@V?$allocator@D@2@@std@@V?$shared_ptr@UNode@NetvarTree@@@2@@std@@@std@@@std@@@std@@V?$allocator@V?$_List_unchecked_iterator@V?$_List_val@U?$_List_simple_types@U?$pair@$$CBV?$basic_string@DU?$char_traits@D@std@@V?$allocator@D@2@@std@@V?$shared_ptr@UNode@NetvarTree@@@2@@std@@@std@@@std@@@std@@@2@@std@@@std@@QAEAAPAV?$_List_unchecked_iterator@V?$_List_val@U?$_List_simple_types@U?$pair@$$CBV?$basic_string@DU?$char_traits@D@std@@V?$allocator@D@2@@std@@V?$shared_ptr@UNode@NetvarTree@@@2@@std@@@std@@@std@@@2@XZ 10003500 f i c_hooks.obj
 0001:00002500       ?_Myend@?$_Vector_alloc@U?$_Vec_base_types@HV?$allocator@H@std@@@std@@@std@@QBEABQAHXZ 10003500 f i Aimbot.obj
 0001:00002500       ?_Myend@?$_Vector_alloc@U?$_Vec_base_types@V?$_List_unchecked_iterator@V?$_List_val@U?$_List_simple_types@U?$pair@$$CBV?$basic_string@DU?$char_traits@D@std@@V?$allocator@D@2@@std@@V?$shared_ptr@UNode@NetvarTree@@@2@@std@@@std@@@std@@@std@@V?$allocator@V?$_List_unchecked_iterator@V?$_List_val@U?$_List_simple_types@U?$pair@$$CBV?$basic_string@DU?$char_traits@D@std@@V?$allocator@D@2@@std@@V?$shared_ptr@UNode@NetvarTree@@@2@@std@@@std@@@std@@@std@@@2@@std@@@std@@QBEABQAV?$_List_unchecked_iterator@V?$_List_val@U?$_List_simple_types@U?$pair@$$CBV?$basic_string@DU?$char_traits@D@std@@V?$allocator@D@2@@std@@V?$shared_ptr@UNode@NetvarTree@@@2@@std@@@std@@@std@@@2@XZ 10003500 f i c_hooks.obj
 0001:00002520       ?_Myfirst@?$_Vector_alloc@U?$_Vec_base_types@V?$_List_unchecked_iterator@V?$_List_val@U?$_List_simple_types@U?$pair@$$CBV?$basic_string@DU?$char_traits@D@std@@V?$allocator@D@2@@std@@V?$shared_ptr@UNode@NetvarTree@@@2@@std@@@std@@@std@@@std@@V?$allocator@V?$_List_unchecked_iterator@V?$_List_val@U?$_List_simple_types@U?$pair@$$CBV?$basic_string@DU?$char_traits@D@std@@V?$allocator@D@2@@std@@V?$shared_ptr@UNode@NetvarTree@@@2@@std@@@std@@@std@@@std@@@2@@std@@@std@@QBEABQAV?$_List_unchecked_iterator@V?$_List_val@U?$_List_simple_types@U?$pair@$$CBV?$basic_string@DU?$char_traits@D@std@@V?$allocator@D@2@@std@@V?$shared_ptr@UNode@NetvarTree@@@2@@std@@@std@@@std@@@2@XZ 10003520 f i c_hooks.obj
 0001:00002520       ?_Myfirst@?$_Vector_alloc@U?$_Vec_base_types@V?$_List_unchecked_iterator@V?$_List_val@U?$_List_simple_types@U?$pair@$$CBV?$basic_string@DU?$char_traits@D@std@@V?$allocator@D@2@@std@@V?$shared_ptr@UNode@NetvarTree@@@2@@std@@@std@@@std@@@std@@V?$allocator@V?$_List_unchecked_iterator@V?$_List_val@U?$_List_simple_types@U?$pair@$$CBV?$basic_string@DU?$char_traits@D@std@@V?$allocator@D@2@@std@@V?$shared_ptr@UNode@NetvarTree@@@2@@std@@@std@@@std@@@std@@@2@@std@@@std@@QAEAAPAV?$_List_unchecked_iterator@V?$_List_val@U?$_List_simple_types@U?$pair@$$CBV?$basic_string@DU?$char_traits@D@std@@V?$allocator@D@2@@std@@V?$shared_ptr@UNode@NetvarTree@@@2@@std@@@std@@@std@@@2@XZ 10003520 f i c_hooks.obj
 0001:00002520       ?_Myfirst@?$_Vector_alloc@U?$_Vec_base_types@HV?$allocator@H@std@@@std@@@std@@QAEAAPAHXZ 10003520 f i Aimbot.obj
 0001:00002520       ?_Myproxy@?$_Deque_alloc@U?$_Deque_base_types@ULegitPlayerRecords@@V?$allocator@ULegitPlayerRecords@@@std@@@std@@@std@@QAEAAPAU_Container_proxy@2@XZ 10003520 f i Legitbot.obj
 0001:00002520       ?_Myfirst@?$_Vector_alloc@U?$_Vec_base_types@HV?$allocator@H@std@@@std@@@std@@QBEABQAHXZ 10003520 f i Aimbot.obj
 0001:00002520       ?_Myfirst@?$_Vector_alloc@U?$_Vec_base_types@V?$basic_string@DU?$char_traits@D@std@@V?$allocator@D@2@@std@@V?$allocator@V?$basic_string@DU?$char_traits@D@std@@V?$allocator@D@2@@std@@@2@@std@@@std@@QAEAAPAV?$basic_string@DU?$char_traits@D@std@@V?$allocator@D@2@@2@XZ 10003520 f i config_system.obj
 0001:00002520       ?_Myhead@?$_List_alloc@U?$_List_base_types@U?$pair@$$CBV?$basic_string@DU?$char_traits@D@std@@V?$allocator@D@2@@std@@V?$shared_ptr@UNode@NetvarTree@@@2@@std@@V?$allocator@U?$pair@$$CBV?$basic_string@DU?$char_traits@D@std@@V?$allocator@D@2@@std@@V?$shared_ptr@UNode@NetvarTree@@@2@@std@@@2@@std@@@std@@QAEAAPAU?$_List_node@U?$pair@$$CBV?$basic_string@DU?$char_traits@D@std@@V?$allocator@D@2@@std@@V?$shared_ptr@UNode@NetvarTree@@@2@@std@@PAX@2@XZ 10003520 f i c_hooks.obj
 0001:00002520       ?_Myfirst@?$_Vector_alloc@U?$_Vec_base_types@V?$basic_string@DU?$char_traits@D@std@@V?$allocator@D@2@@std@@V?$allocator@V?$basic_string@DU?$char_traits@D@std@@V?$allocator@D@2@@std@@@2@@std@@@std@@QBEABQAV?$basic_string@DU?$char_traits@D@std@@V?$allocator@D@2@@2@XZ 10003520 f i config_system.obj
 0001:00002520       ?_Myproxy@?$_Deque_alloc@U?$_Deque_base_types@UPlayerRecords@@V?$allocator@UPlayerRecords@@@std@@@std@@@std@@QAEAAPAU_Container_proxy@2@XZ 10003520 f i LagComp.obj
 0001:00002540       ?_Mylast@?$_Vector_alloc@U?$_Vec_base_types@V?$_List_unchecked_iterator@V?$_List_val@U?$_List_simple_types@U?$pair@$$CBV?$basic_string@DU?$char_traits@D@std@@V?$allocator@D@2@@std@@V?$shared_ptr@UNode@NetvarTree@@@2@@std@@@std@@@std@@@std@@V?$allocator@V?$_List_unchecked_iterator@V?$_List_val@U?$_List_simple_types@U?$pair@$$CBV?$basic_string@DU?$char_traits@D@std@@V?$allocator@D@2@@std@@V?$shared_ptr@UNode@NetvarTree@@@2@@std@@@std@@@std@@@std@@@2@@std@@@std@@QBEABQAV?$_List_unchecked_iterator@V?$_List_val@U?$_List_simple_types@U?$pair@$$CBV?$basic_string@DU?$char_traits@D@std@@V?$allocator@D@2@@std@@V?$shared_ptr@UNode@NetvarTree@@@2@@std@@@std@@@std@@@2@XZ 10003540 f i Aimbot.obj
 0001:00002540       ?_Map@?$_Deque_alloc@U?$_Deque_base_types@ULegitPlayerRecords@@V?$allocator@ULegitPlayerRecords@@@std@@@std@@@std@@QAEAAPAPAULegitPlayerRecords@@XZ 10003540 f i Legitbot.obj
 0001:00002540       ?_Mylast@?$_Vector_alloc@U?$_Vec_base_types@HV?$allocator@H@std@@@std@@@std@@QBEABQAHXZ 10003540 f i Aimbot.obj
 0001:00002540       ?_Mylast@?$_Vector_alloc@U?$_Vec_base_types@V?$_List_unchecked_iterator@V?$_List_val@U?$_List_simple_types@U?$pair@$$CBV?$basic_string@DU?$char_traits@D@std@@V?$allocator@D@2@@std@@V?$shared_ptr@UNode@NetvarTree@@@2@@std@@@std@@@std@@@std@@V?$allocator@V?$_List_unchecked_iterator@V?$_List_val@U?$_List_simple_types@U?$pair@$$CBV?$basic_string@DU?$char_traits@D@std@@V?$allocator@D@2@@std@@V?$shared_ptr@UNode@NetvarTree@@@2@@std@@@std@@@std@@@std@@@2@@std@@@std@@QAEAAPAV?$_List_unchecked_iterator@V?$_List_val@U?$_List_simple_types@U?$pair@$$CBV?$basic_string@DU?$char_traits@D@std@@V?$allocator@D@2@@std@@V?$shared_ptr@UNode@NetvarTree@@@2@@std@@@std@@@std@@@2@XZ 10003540 f i c_hooks.obj
 0001:00002540       ?_Mylast@?$_Vector_alloc@U?$_Vec_base_types@V?$basic_string@DU?$char_traits@D@std@@V?$allocator@D@2@@std@@V?$allocator@V?$basic_string@DU?$char_traits@D@std@@V?$allocator@D@2@@std@@@2@@std@@@std@@QAEAAPAV?$basic_string@DU?$char_traits@D@std@@V?$allocator@D@2@@2@XZ 10003540 f i config_system.obj
 0001:00002540       ?_Map@?$_Deque_alloc@U?$_Deque_base_types@UPlayerRecords@@V?$allocator@UPlayerRecords@@@std@@@std@@@std@@QAEAAPAPAUPlayerRecords@@XZ 10003540 f i LagComp.obj
 0001:00002540       ?_Mylast@?$_Vector_alloc@U?$_Vec_base_types@HV?$allocator@H@std@@@std@@@std@@QAEAAPAHXZ 10003540 f i Aimbot.obj
 0001:00002540       ?_Mysize@?$_List_alloc@U?$_List_base_types@U?$pair@$$CBV?$basic_string@DU?$char_traits@D@std@@V?$allocator@D@2@@std@@V?$shared_ptr@UNode@NetvarTree@@@2@@std@@V?$allocator@U?$pair@$$CBV?$basic_string@DU?$char_traits@D@std@@V?$allocator@D@2@@std@@V?$shared_ptr@UNode@NetvarTree@@@2@@std@@@2@@std@@@std@@QAEAAIXZ 10003540 f i c_hooks.obj
 0001:00002540       ?_Mysize@?$_List_alloc@U?$_List_base_types@U?$pair@$$CBV?$basic_string@DU?$char_traits@D@std@@V?$allocator@D@2@@std@@V?$shared_ptr@UNode@NetvarTree@@@2@@std@@V?$allocator@U?$pair@$$CBV?$basic_string@DU?$char_traits@D@std@@V?$allocator@D@2@@std@@V?$shared_ptr@UNode@NetvarTree@@@2@@std@@@2@@std@@@std@@QBEABIXZ 10003540 f i Aimbot.obj
 0001:00002560       ?_Myptr@?$_String_val@U?$_Simple_types@D@std@@@std@@QBEPBDXZ 10003560 f i Aimbot.obj
 0001:00002560       ?_Myptr@?$_String_val@U?$_Simple_types@D@std@@@std@@QAEPADXZ 10003560 f i c_hooks.obj
 0001:000025a0       ?_Orphan_all@?$_Vector_alloc@U?$_Vec_base_types@HV?$allocator@H@std@@@std@@@std@@QAEXXZ 100035a0 f i Aimbot.obj
 0001:000025a0       ?_Orphan_all@?$_String_alloc@U?$_String_base_types@DV?$allocator@D@std@@@std@@@std@@QAEXXZ 100035a0 f i c_hooks.obj
 0001:000025a0       ?_Orphan_all@?$_Vector_alloc@U?$_Vec_base_types@V?$_List_unchecked_iterator@V?$_List_val@U?$_List_simple_types@U?$pair@$$CBV?$basic_string@DU?$char_traits@D@std@@V?$allocator@D@2@@std@@V?$shared_ptr@UNode@NetvarTree@@@2@@std@@@std@@@std@@@std@@V?$allocator@V?$_List_unchecked_iterator@V?$_List_val@U?$_List_simple_types@U?$pair@$$CBV?$basic_string@DU?$char_traits@D@std@@V?$allocator@D@2@@std@@V?$shared_ptr@UNode@NetvarTree@@@2@@std@@@std@@@std@@@std@@@2@@std@@@std@@QAEXXZ 100035a0 f i c_hooks.obj
 0001:000025a0       ?_Orphan_all@?$_String_alloc@U?$_String_base_types@_WV?$allocator@_W@std@@@std@@@std@@QAEXXZ 100035a0 f i config_system.obj
 0001:000025a0       ?_Orphan_all@?$_Vector_alloc@U?$_Vec_base_types@V?$basic_string@DU?$char_traits@D@std@@V?$allocator@D@2@@std@@V?$allocator@V?$basic_string@DU?$char_traits@D@std@@V?$allocator@D@2@@std@@@2@@std@@@std@@QAEXXZ 100035a0 f i config_system.obj
 0001:000025a0       ?_Orphan_all@?$_Deque_alloc@U?$_Deque_base_types@UPlayerRecords@@V?$allocator@UPlayerRecords@@@std@@@std@@@std@@QAEXXZ 100035a0 f i LagComp.obj
 0001:000025a0       ?_Orphan_all@?$_Deque_alloc@U?$_Deque_base_types@ULegitPlayerRecords@@V?$allocator@ULegitPlayerRecords@@@std@@@std@@@std@@QAEXXZ 100035a0 f i Legitbot.obj
 0001:000025c0       ?_Tidy@?$list@U?$pair@$$CBV?$basic_string@DU?$char_traits@D@std@@V?$allocator@D@2@@std@@V?$shared_ptr@UNode@NetvarTree@@@2@@std@@V?$allocator@U?$pair@$$CBV?$basic_string@DU?$char_traits@D@std@@V?$allocator@D@2@@std@@V?$shared_ptr@UNode@NetvarTree@@@2@@std@@@2@@std@@QAEXXZ 100035c0 f i c_hooks.obj
 0001:000025e0       ?_Tidy@?$vector@HV?$allocator@H@std@@@std@@AAEXXZ 100035e0 f i Aimbot.obj
 0001:000025e0       ?_Tidy@?$vector@V?$_List_unchecked_iterator@V?$_List_val@U?$_List_simple_types@U?$pair@$$CBV?$basic_string@DU?$char_traits@D@std@@V?$allocator@D@2@@std@@V?$shared_ptr@UNode@NetvarTree@@@2@@std@@@std@@@std@@@std@@V?$allocator@V?$_List_unchecked_iterator@V?$_List_val@U?$_List_simple_types@U?$pair@$$CBV?$basic_string@DU?$char_traits@D@std@@V?$allocator@D@2@@std@@V?$shared_ptr@UNode@NetvarTree@@@2@@std@@@std@@@std@@@std@@@2@@std@@AAEXXZ 100035e0 f i c_hooks.obj
 0001:00002690       ?_Tidy_deallocate@?$basic_string@DU?$char_traits@D@std@@V?$allocator@D@2@@std@@QAEXXZ 10003690 f i c_hooks.obj
 0001:00002740       ?_Tidy_init@?$basic_string@DU?$char_traits@D@std@@V?$allocator@D@2@@std@@QAEXXZ 10003740 f i c_hooks.obj
 0001:00002790       ?_Xlen@?$basic_string@DU?$char_traits@D@std@@V?$allocator@D@2@@std@@SAXXZ 10003790 f i c_hooks.obj
 0001:000027a0       ?allocate@?$allocator@D@std@@QAEPADI@Z 100037a0 f i c_hooks.obj
 0001:000027d0       ?assign@?$basic_string@DU?$char_traits@D@std@@V?$allocator@D@2@@std@@QAEAAV12@QBD@Z 100037d0 f i c_hooks.obj
 0001:00002800       ?assign@?$basic_string@DU?$char_traits@D@std@@V?$allocator@D@2@@std@@QAEAAV12@QBDI@Z 10003800 f i c_hooks.obj
 0001:00002890       ?assign@?$char_traits@D@std@@SAXAADABD@Z 10003890 f i c_hooks.obj
 0001:000028a0       ?capacity@?$vector@V?$_List_unchecked_iterator@V?$_List_val@U?$_List_simple_types@U?$pair@$$CBV?$basic_string@DU?$char_traits@D@std@@V?$allocator@D@2@@std@@V?$shared_ptr@UNode@NetvarTree@@@2@@std@@@std@@@std@@@std@@V?$allocator@V?$_List_unchecked_iterator@V?$_List_val@U?$_List_simple_types@U?$pair@$$CBV?$basic_string@DU?$char_traits@D@std@@V?$allocator@D@2@@std@@V?$shared_ptr@UNode@NetvarTree@@@2@@std@@@std@@@std@@@std@@@2@@std@@QBEIXZ 100038a0 f i c_hooks.obj
 0001:000028a0       ?capacity@?$vector@HV?$allocator@H@std@@@std@@QBEIXZ 100038a0 f i Aimbot.obj
 0001:000028d0       ?clear@?$list@U?$pair@$$CBV?$basic_string@DU?$char_traits@D@std@@V?$allocator@D@2@@std@@V?$shared_ptr@UNode@NetvarTree@@@2@@std@@V?$allocator@U?$pair@$$CBV?$basic_string@DU?$char_traits@D@std@@V?$allocator@D@2@@std@@V?$shared_ptr@UNode@NetvarTree@@@2@@std@@@2@@std@@QAEXXZ 100038d0 f i c_hooks.obj
 0001:00002990       ?copy@?$char_traits@D@std@@SAPADQADQBDI@Z 10003990 f i c_hooks.obj
 0001:000029b0       ?deallocate@?$_Default_allocator_traits@V?$allocator@U?$_List_node@U?$pair@$$CBV?$basic_string@DU?$char_traits@D@std@@V?$allocator@D@2@@std@@V?$shared_ptr@UNode@NetvarTree@@@2@@std@@PAX@std@@@std@@@std@@SAXAAV?$allocator@U?$_List_node@U?$pair@$$CBV?$basic_string@DU?$char_traits@D@std@@V?$allocator@D@2@@std@@V?$shared_ptr@UNode@NetvarTree@@@2@@std@@PAX@std@@@2@QAU?$_List_node@U?$pair@$$CBV?$basic_string@DU?$char_traits@D@std@@V?$allocator@D@2@@std@@V?$shared_ptr@UNode@NetvarTree@@@2@@std@@PAX@2@I@Z 100039b0 f i c_hooks.obj
 0001:000029d0       ?deallocate@?$allocator@D@std@@QAEXQADI@Z 100039d0 f i c_hooks.obj
 0001:000029f0       ?deallocate@?$allocator@V?$_List_unchecked_iterator@V?$_List_val@U?$_List_simple_types@U?$pair@$$CBV?$basic_string@DU?$char_traits@D@std@@V?$allocator@D@2@@std@@V?$shared_ptr@UNode@NetvarTree@@@2@@std@@@std@@@std@@@std@@@std@@QAEXQAV?$_List_unchecked_iterator@V?$_List_val@U?$_List_simple_types@U?$pair@$$CBV?$basic_string@DU?$char_traits@D@std@@V?$allocator@D@2@@std@@V?$shared_ptr@UNode@NetvarTree@@@2@@std@@@std@@@std@@@2@I@Z 100039f0 f i c_hooks.obj
 0001:000029f0       ?deallocate@?$allocator@PAULegitPlayerRecords@@@std@@QAEXQAPAULegitPlayerRecords@@I@Z 100039f0 f i Legitbot.obj
 0001:000029f0       ?deallocate@?$allocator@H@std@@QAEXQAHI@Z 100039f0 f i Aimbot.obj
 0001:000029f0       ?deallocate@?$allocator@PAUPlayerRecords@@@std@@QAEXQAPAUPlayerRecords@@I@Z 100039f0 f i LagComp.obj
 0001:00002a10       ?length@?$char_traits@D@std@@SAIQBD@Z 10003a10 f i c_hooks.obj
 0001:00002a50       ?max@?$numeric_limits@H@std@@SAHXZ 10003a50 f i c_hooks.obj
 0001:00002a60       ?max_size@?$_Default_allocator_traits@V?$allocator@D@std@@@std@@SAIABV?$allocator@D@2@@Z 10003a60 f i c_hooks.obj
 0001:00002a60       ?eof@?$char_traits@D@std@@SAHXZ 10003a60 f i config_system.obj
 0001:00002a70       ?max_size@?$basic_string@DU?$char_traits@D@std@@V?$allocator@D@2@@std@@QBEIXZ 10003a70 f i c_hooks.obj
 0001:00002ad0       ?move@?$char_traits@D@std@@SAPADQADQBDI@Z 10003ad0 f i c_hooks.obj
 0001:00002af0       ?release@?$unique_ptr@$$BY0A@IU?$default_delete@$$BY0A@I@std@@@std@@QAEPAIXZ 10003af0 f i c_hooks.obj
 0001:00002af0       ?release@?$unique_ptr@VNetvarTree@@U?$default_delete@VNetvarTree@@@std@@@std@@QAEPAVNetvarTree@@XZ 10003af0 f i c_hooks.obj
 0001:00002af0       ?release@?$unique_ptr@V_Facet_base@std@@U?$default_delete@V_Facet_base@std@@@2@@std@@QAEPAV_Facet_base@2@XZ 10003af0 f i config_system.obj
 0001:00002af0       ?release@?$unique_ptr@VVMTHook@@U?$default_delete@VVMTHook@@@std@@@std@@QAEPAVVMTHook@@XZ 10003af0 f i c_hooks.obj
 0001:00002b20       ?reset@?$unique_ptr@VNetvarTree@@U?$default_delete@VNetvarTree@@@std@@@std@@QAEXPAVNetvarTree@@@Z 10003b20 f i c_hooks.obj
 0001:00002b70       ?reset@?$unique_ptr@VVMTHook@@U?$default_delete@VVMTHook@@@std@@@std@@QAEXPAVVMTHook@@@Z 10003b70 f i c_hooks.obj
 0001:00002bc0       ?table_functions@c_hooks@@SAXXZ 10003bc0 f   c_hooks.obj
 0001:00002cd0       ?vmt_hooks@c_hooks@@SAXXZ  10003cd0 f   c_hooks.obj
 0001:00002e20       ?what@exception@std@@UBEPBDXZ 10003e20 f i c_hooks.obj
 0001:00002e50       ?wnd_hook@c_hooks@@SAXXZ   10003e50 f   c_hooks.obj
 0001:00002e80       ??$?0HX@?$duration@_JU?$ratio@$00$0DOI@@std@@@chrono@std@@QAE@ABH@Z 10003e80 f i dll_main.obj
 0001:00002ea0       ??$?0_JU?$ratio@$00$00@std@@X@?$duration@_JU?$ratio@$00$0DLJKMKAA@@std@@@chrono@std@@QAE@ABV?$duration@_JU?$ratio@$00$00@std@@@12@@Z 10003ea0 f i dll_main.obj
 0001:00002ee0       ??$?0_JU?$ratio@$00$0JIJGIA@@std@@X@?$duration@_JU?$ratio@$00$0DLJKMKAA@@std@@@chrono@std@@QAE@ABV?$duration@_JU?$ratio@$00$0JIJGIA@@std@@@12@@Z 10003ee0 f i dll_main.obj
 0001:00002f20       ??$?0_JX@?$duration@_JU?$ratio@$00$0DLJKMKAA@@std@@@chrono@std@@QAE@AB_J@Z 10003f20 f i dll_main.obj
 0001:00002f20       ??$?0_KX@?$duration@_JU?$ratio@$00$0DOI@@std@@@chrono@std@@QAE@AB_K@Z 10003f20 f i hooking_init.obj
 0001:00002f20       ??$?0_JX@?$duration@_JU?$ratio@$00$0DOI@@std@@@chrono@std@@QAE@AB_J@Z 10003f20 f i dll_main.obj
 0001:00002f20       ??$?0_JX@?$duration@_JU?$ratio@$00$00@std@@@chrono@std@@QAE@AB_J@Z 10003f20 f i dll_main.obj
 0001:00002f20       ??$?0_JX@?$duration@_JU?$ratio@$00$0JIJGIA@@std@@@chrono@std@@QAE@AB_J@Z 10003f20 f i dll_main.obj
 0001:00002f40       ??$?M_JU?$ratio@$00$0DOI@@std@@_JU01@@chrono@std@@YA_NABV?$duration@_JU?$ratio@$00$0DOI@@std@@@01@0@Z 10003f40 f i dll_main.obj
 0001:00002fb0       ??$?N_JU?$ratio@$00$0DOI@@std@@_JU01@@chrono@std@@YA_NABV?$duration@_JU?$ratio@$00$0DOI@@std@@@01@0@Z 10003fb0 f i dll_main.obj
 0001:00002ff0       ??$_To_xtime@_JU?$ratio@$00$0DOI@@std@@@std@@YA?AUxtime@@ABV?$duration@_JU?$ratio@$00$0DOI@@std@@@chrono@0@@Z 10003ff0 f i dll_main.obj
 0001:000030f0       ??$duration_cast@V?$duration@_JU?$ratio@$00$00@std@@@chrono@std@@_JU?$ratio@$00$0DLJKMKAA@@3@X@chrono@std@@YA?AV?$duration@_JU?$ratio@$00$00@std@@@01@ABV?$duration@_JU?$ratio@$00$0DLJKMKAA@@std@@@01@@Z 100040f0 f i dll_main.obj
 0001:00003200       ??$duration_cast@V?$duration@_JU?$ratio@$00$0DLJKMKAA@@std@@@chrono@std@@_JU?$ratio@$00$00@3@X@chrono@std@@YA?AV?$duration@_JU?$ratio@$00$0DLJKMKAA@@std@@@01@ABV?$duration@_JU?$ratio@$00$00@std@@@01@@Z 10004200 f i dll_main.obj
 0001:00003310       ??$duration_cast@V?$duration@_JU?$ratio@$00$0DLJKMKAA@@std@@@chrono@std@@_JU?$ratio@$00$0DOI@@3@X@chrono@std@@YA?AV?$duration@_JU?$ratio@$00$0DLJKMKAA@@std@@@01@ABV?$duration@_JU?$ratio@$00$0DOI@@std@@@01@@Z 10004310 f i dll_main.obj
 0001:00003420       ??$duration_cast@V?$duration@_JU?$ratio@$00$0DLJKMKAA@@std@@@chrono@std@@_JU?$ratio@$00$0JIJGIA@@3@X@chrono@std@@YA?AV?$duration@_JU?$ratio@$00$0DLJKMKAA@@std@@@01@ABV?$duration@_JU?$ratio@$00$0JIJGIA@@std@@@01@@Z 10004420 f i dll_main.obj
 0001:00003520       ??$sleep_for@_JU?$ratio@$00$0DOI@@std@@@this_thread@std@@YAXABV?$duration@_JU?$ratio@$00$0DOI@@std@@@chrono@1@@Z 10004520 f i dll_main.obj
 0001:00003590       ??0?$time_point@Usystem_clock@chrono@std@@V?$duration@_JU?$ratio@$00$0JIJGIA@@std@@@23@@chrono@std@@QAE@ABV?$duration@_JU?$ratio@$00$0JIJGIA@@std@@@12@@Z 10004590 f i dll_main.obj
 0001:000035b0       ??Y?$duration@_JU?$ratio@$00$0DLJKMKAA@@std@@@chrono@std@@QAEAAV012@ABV012@@Z 100045b0 f i dll_main.obj
 0001:000035e0       ??Z?$duration@_JU?$ratio@$00$0DLJKMKAA@@std@@@chrono@std@@QAEAAV012@ABV012@@Z 100045e0 f i dll_main.obj
 0001:00003610       ?attach@@YGKPAX@Z          10004610 f   dll_main.obj
 0001:00003700       ?count@?$duration@_JU?$ratio@$00$00@std@@@chrono@std@@QBE_JXZ 10004700 f i dll_main.obj
 0001:00003700       ?count@?$duration@_JU?$ratio@$00$0JIJGIA@@std@@@chrono@std@@QBE_JXZ 10004700 f i dll_main.obj
 0001:00003700       ?count@?$duration@_JU?$ratio@$00$0DOI@@std@@@chrono@std@@QBE_JXZ 10004700 f i dll_main.obj
 0001:00003700       ?count@?$duration@_JU?$ratio@$00$0DLJKMKAA@@std@@@chrono@std@@QBE_JXZ 10004700 f i dll_main.obj
 0001:00003720       ?detach@@YGHXZ             10004720 f   dll_main.obj
 0001:00003730       ?now@system_clock@chrono@std@@SA?AV?$time_point@Usystem_clock@chrono@std@@V?$duration@_JU?$ratio@$00$0JIJGIA@@std@@@23@@23@XZ 10004730 f i dll_main.obj
 0001:00003790       ?sleep_until@this_thread@std@@YAXPBUxtime@@@Z 10004790 f i dll_main.obj
 0001:000037b0       ?time_since_epoch@?$time_point@Usystem_clock@chrono@std@@V?$duration@_JU?$ratio@$00$0JIJGIA@@std@@@23@@chrono@std@@QBE?AV?$duration@_JU?$ratio@$00$0JIJGIA@@std@@@23@XZ 100047b0 f i dll_main.obj
 0001:000037b0       ?GetTL@ImRect@@QBE?AUImVec2@@XZ 100047b0 f i imgui.obj
 0001:000037d0       ?zero@?$duration@_JU?$ratio@$00$0DOI@@std@@@chrono@std@@SA?AV123@XZ 100047d0 f i dll_main.obj
 0001:00003820       ?zero@?$duration_values@_J@chrono@std@@SA_JXZ 10004820 f i dll_main.obj
 0001:00003830       _DllMain@12                10004830 f   dll_main.obj
 0001:00003880       ??$?0$$QAV?$basic_string@DU?$char_traits@D@std@@V?$allocator@D@2@@std@@$$Z$$V@?$pair@$$CBV?$basic_string@DU?$char_traits@D@std@@V?$allocator@D@2@@std@@V?$shared_ptr@UNode@NetvarTree@@@2@@std@@QAE@Upiecewise_construct_t@1@V?$tuple@$$QAV?$basic_string@DU?$char_traits@D@std@@V?$allocator@D@2@@std@@@1@V?$tuple@$$V@1@@Z 10004880 f i Aimbot.obj
 0001:000038b0       ??$?0$$V@?$_Compressed_pair@V?$allocator@V?$basic_string@DU?$char_traits@D@std@@V?$allocator@D@2@@std@@@std@@V?$_Vector_val@U?$_Simple_types@V?$basic_string@DU?$char_traits@D@std@@V?$allocator@D@2@@std@@@std@@@2@$00@std@@QAE@U_Zero_then_variadic_args_t@1@@Z 100048b0 f i config_system.obj
 0001:000038b0       ??$?0$$V@?$_Compressed_pair@V?$allocator@H@std@@V?$_Vector_val@U?$_Simple_types@H@std@@@2@$00@std@@QAE@U_Zero_then_variadic_args_t@1@@Z 100048b0 f i Aimbot.obj
 0001:000038d0       ??$?0V?$_List_iterator@V?$_List_val@U?$_List_simple_types@U?$pair@$$CBV?$basic_string@DU?$char_traits@D@std@@V?$allocator@D@2@@std@@V?$shared_ptr@UNode@NetvarTree@@@2@@std@@@std@@@std@@@std@@_N$0A@@?$pair@V?$_List_iterator@V?$_List_val@U?$_List_simple_types@U?$pair@$$CBV?$basic_string@DU?$char_traits@D@std@@V?$allocator@D@2@@std@@V?$shared_ptr@UNode@NetvarTree@@@2@@std@@@std@@@std@@@std@@_N@std@@QAE@$$QAV?$_List_iterator@V?$_List_val@U?$_List_simple_types@U?$pair@$$CBV?$basic_string@DU?$char_traits@D@std@@V?$allocator@D@2@@std@@V?$shared_ptr@UNode@NetvarTree@@@2@@std@@@std@@@std@@@1@$$QA_N@Z 100048d0 f i Aimbot.obj
 0001:000038d0       ??$?0AAV?$_List_iterator@V?$_List_val@U?$_List_simple_types@U?$pair@$$CBV?$basic_string@DU?$char_traits@D@std@@V?$allocator@D@2@@std@@V?$shared_ptr@UNode@NetvarTree@@@2@@std@@@std@@@std@@@std@@_N$0A@@?$pair@V?$_List_iterator@V?$_List_val@U?$_List_simple_types@U?$pair@$$CBV?$basic_string@DU?$char_traits@D@std@@V?$allocator@D@2@@std@@V?$shared_ptr@UNode@NetvarTree@@@2@@std@@@std@@@std@@@std@@_N@std@@QAE@AAV?$_List_iterator@V?$_List_val@U?$_List_simple_types@U?$pair@$$CBV?$basic_string@DU?$char_traits@D@std@@V?$allocator@D@2@@std@@V?$shared_ptr@UNode@NetvarTree@@@2@@std@@@std@@@std@@@1@$$QA_N@Z 100048d0 f i Aimbot.obj
 0001:00003910       ??$?0ULegitPlayerRecords@@@?$allocator@U_Container_proxy@std@@@std@@QAE@ABV?$allocator@ULegitPlayerRecords@@@1@@Z 10004910 f i Legitbot.obj
 0001:00003910       ??$?0U?$pair@$$CBV?$basic_string@DU?$char_traits@D@std@@V?$allocator@D@2@@std@@V?$shared_ptr@UNode@NetvarTree@@@2@@std@@@?$allocator@U?$_List_node@U?$pair@$$CBV?$basic_string@DU?$char_traits@D@std@@V?$allocator@D@2@@std@@V?$shared_ptr@UNode@NetvarTree@@@2@@std@@PAX@std@@@std@@QAE@ABV?$allocator@U?$pair@$$CBV?$basic_string@DU?$char_traits@D@std@@V?$allocator@D@2@@std@@V?$shared_ptr@UNode@NetvarTree@@@2@@std@@@1@@Z 10004910 f i NetvarManager.obj
 0001:00003910       ??$?0U?$integral_constant@_N$00@std@@@_Unused_parameter@std@@QAE@$$QAU?$integral_constant@_N$00@1@@Z 10004910 f i Aimbot.obj
 0001:00003910       ??$?0UPlayerRecords@@@?$allocator@U_Container_proxy@std@@@std@@QAE@ABV?$allocator@UPlayerRecords@@@1@@Z 10004910 f i LagComp.obj
 0001:00003910       ??$?0ULegitPlayerRecords@@@?$allocator@PAULegitPlayerRecords@@@std@@QAE@ABV?$allocator@ULegitPlayerRecords@@@1@@Z 10004910 f i Legitbot.obj
 0001:00003910       ??0?$tuple@$$V@std@@QAE@ABV01@@Z 10004910 f i Aimbot.obj
 0001:00003910       ??$?0UPlayerRecords@@@?$allocator@PAUPlayerRecords@@@std@@QAE@ABV?$allocator@UPlayerRecords@@@1@@Z 10004910 f i LagComp.obj
 0001:00003910       ??$?0U?$pair@$$CBV?$basic_string@DU?$char_traits@D@std@@V?$allocator@D@2@@std@@V?$shared_ptr@UNode@NetvarTree@@@2@@std@@@?$allocator@V?$_List_unchecked_iterator@V?$_List_val@U?$_List_simple_types@U?$pair@$$CBV?$basic_string@DU?$char_traits@D@std@@V?$allocator@D@2@@std@@V?$shared_ptr@UNode@NetvarTree@@@2@@std@@@std@@@std@@@std@@@std@@QAE@ABV?$allocator@U?$pair@$$CBV?$basic_string@DU?$char_traits@D@std@@V?$allocator@D@2@@std@@V?$shared_ptr@UNode@NetvarTree@@@2@@std@@@1@@Z 10004910 f i NetvarManager.obj
 0001:00003910       ??$?0U_Exact_args_t@std@@$0A@@?$tuple@$$V@std@@QAE@U_Exact_args_t@1@@Z 10004910 f i Aimbot.obj
 0001:00003920       ??$?0U_Exact_args_t@std@@V?$basic_string@DU?$char_traits@D@std@@V?$allocator@D@2@@1@$$V$0A@@?$tuple@$$QAV?$basic_string@DU?$char_traits@D@std@@V?$allocator@D@2@@std@@@std@@QAE@U_Exact_args_t@1@$$QAV?$basic_string@DU?$char_traits@D@std@@V?$allocator@D@2@@1@@Z 10004920 f i Aimbot.obj
 0001:00003960       ??$?0ABV?$allocator@D@std@@$$V@?$_Compressed_pair@V?$allocator@D@std@@V?$_String_val@U?$_Simple_types@D@std@@@2@$00@std@@QAE@U_One_then_variadic_args_t@1@ABV?$allocator@D@1@@Z 10004960 f i c_esp.obj
 0001:00003960       ??$?0V?$allocator@D@std@@$$V@?$_Compressed_pair@V?$allocator@D@std@@V?$_String_val@U?$_Simple_types@D@std@@@2@$00@std@@QAE@U_One_then_variadic_args_t@1@$$QAV?$allocator@D@1@@Z 10004960 f i Aimbot.obj
 0001:00003990       ??$?0ABV?$allocator@D@std@@X@?$_String_alloc@U?$_String_base_types@DV?$allocator@D@std@@@std@@@std@@QAE@ABV?$allocator@D@1@@Z 10004990 f i c_esp.obj
 0001:00003990       ??$?0V?$allocator@D@std@@X@?$_String_alloc@U?$_String_base_types@DV?$allocator@D@std@@@std@@@std@@QAE@$$QAV?$allocator@D@1@@Z 10004990 f i Aimbot.obj
 0001:000039d0       ??$?0V?$basic_string@DU?$char_traits@D@std@@V?$allocator@D@2@@std@@$$V$0A@@?$tuple@$$QAV?$basic_string@DU?$char_traits@D@std@@V?$allocator@D@2@@std@@@std@@QAE@$$QAV?$basic_string@DU?$char_traits@D@std@@V?$allocator@D@2@@1@@Z 100049d0 f i Aimbot.obj
 0001:00003a40       ??$?0V?$basic_string@DU?$char_traits@D@std@@V?$allocator@D@2@@std@@@?$_Tuple_val@$$QAV?$basic_string@DU?$char_traits@D@std@@V?$allocator@D@2@@std@@@std@@QAE@$$QAV?$basic_string@DU?$char_traits@D@std@@V?$allocator@D@2@@1@@Z 10004a40 f i Aimbot.obj
 0001:00003a70       ??$?0V?$tuple@$$QAV?$basic_string@DU?$char_traits@D@std@@V?$allocator@D@2@@std@@@std@@V?$tuple@$$V@1@$0A@$$Z$S@?$pair@$$CBV?$basic_string@DU?$char_traits@D@std@@V?$allocator@D@2@@std@@V?$shared_ptr@UNode@NetvarTree@@@2@@std@@QAE@AAV?$tuple@$$QAV?$basic_string@DU?$char_traits@D@std@@V?$allocator@D@2@@std@@@1@AAV?$tuple@$$V@1@U?$integer_sequence@I$0A@@1@U?$integer_sequence@I$S@1@@Z 10004a70 f i Aimbot.obj
 0001:00003ac0       ??$?8DU?$char_traits@D@std@@V?$allocator@D@1@@std@@YA_NABV?$basic_string@DU?$char_traits@D@std@@V?$allocator@D@2@@0@0@Z 10004ac0 f i Aimbot.obj
 0001:00003ae0       ??$?CUNode@NetvarTree@@$0A@@?$shared_ptr@UNode@NetvarTree@@@std@@QBEPAUNode@NetvarTree@@XZ 10004ae0 f i Aimbot.obj
 0001:00003ae0       ??D?$_String_iterator@V?$_String_val@U?$_Simple_types@D@std@@@std@@@std@@QBEAADXZ 10004ae0 f i config_system.obj
 0001:00003b00       ??$CallVFunc@$0BMM@PAVWeaponInfo_t@@$$V@Utils@@SAPAVWeaponInfo_t@@PAX@Z 10004b00 f i Aimbot.obj
 0001:00003b00       ??$CallVFunc@$0BMM@PAVweapon_info_t@@$$V@Utils@@SAPAVweapon_info_t@@PAX@Z 10004b00 f i c_esp.obj
 0001:00003b30       ??$GetOffset@PBD@NetvarTree@@QAEHPBD0@Z 10004b30 f i Aimbot.obj
 0001:00003be0       ??$GetOffset@PBDPBD@NetvarTree@@QAEHPBD00@Z 10004be0 f i Aimbot.obj
 0001:00003c90       ??$GetOffsetRecursive@PBD@NetvarTree@@AAEHAAV?$unordered_map@V?$basic_string@DU?$char_traits@D@std@@V?$allocator@D@2@@std@@V?$shared_ptr@UNode@NetvarTree@@@2@U?$hash@V?$basic_string@DU?$char_traits@D@std@@V?$allocator@D@2@@std@@@2@U?$equal_to@V?$basic_string@DU?$char_traits@D@std@@V?$allocator@D@2@@std@@@2@V?$allocator@U?$pair@$$CBV?$basic_string@DU?$char_traits@D@std@@V?$allocator@D@2@@std@@V?$shared_ptr@UNode@NetvarTree@@@2@@std@@@2@@std@@HPBD1@Z 10004c90 f i Aimbot.obj
 0001:00003d40       ??$GetVFunc@P6EXPAXKPBDHHHHHHH@Z@Utils@@SAP6EXPAXKPBDHHHHHHH@Z0I@Z 10004d40 f i hooking_init.obj
 0001:00003d40       ??$GetVFunc@P6EIPAX@Z@Utils@@SAP6EIPAX@Z0I@Z 10004d40 f i hooking_init.obj
 0001:00003d40       ??$GetVFunc@P6EXPAXPAVIMaterial@@W4OverrideType_t@@H@Z@Utils@@SAP6EXPAXPAVIMaterial@@W4OverrideType_t@@H@Z0I@Z 10004d40 f i dme_hook.obj
 0001:00003d40       ??$GetVFunc@P6EXPAXHHHH@Z@Utils@@SAP6EXPAXHHHH@Z0I@Z 10004d40 f i c_esp.obj
 0001:00003d40       ??$GetVFunc@P6EPAVIMaterial@@PAXPBD1_N1@Z@Utils@@SAP6EPAVIMaterial@@PAXPBD1_N1@Z0I@Z 10004d40 f i dme_hook.obj
 0001:00003d40       ??$GetVFunc@P6EXPAXAAVVector@@@Z@Utils@@SAP6EXPAXAAVVector@@@Z0I@Z 10004d40 f i Aimbot.obj
 0001:00003d40       ??$GetVFunc@P6EXPAXH@Z@Utils@@SAP6EXPAXH@Z0I@Z 10004d40 f i fsn_hook.obj
 0001:00003d40       ??$GetVFunc@P6EXPAXK@Z@Utils@@SAP6EXPAXK@Z0I@Z 10004d40 f i c_esp.obj
 0001:00003d40       ??$DUMBNIGGERSLOL@P6EPAVNetChannel@@PAX@Z@IVEngineClient@@SAP6EPAVNetChannel@@PAX@Z0I@Z 10004d40 f i Resolver.obj
 0001:00003d40       ??$GetVFunc@P6EAAVVector@@PAX@Z@Utils@@SAP6EAAVVector@@PAX@Z0I@Z 10004d40 f i CEntity.obj
 0001:00003d40       ??$GetVFunc@P6EXPAXPB_WHH@Z@Utils@@SAP6EXPAXPB_WHH@Z0I@Z 10004d40 f i c_esp.obj
 0001:00003d40       ??$GetVFunc@P6EXPAXKPB_WAAH2@Z@Utils@@SAP6EXPAXKPB_WAAH2@Z0I@Z 10004d40 f i c_esp.obj
 0001:00003d40       ??$GetVFunc@P6EXPAX@Z@Utils@@SAP6EXPAX@Z0I@Z 10004d40 f i EnginePrediction.obj
 0001:00003d40       ??$GetVFunc@P6EXPAXHH@Z@Utils@@SAP6EXPAXHH@Z0I@Z 10004d40 f i c_esp.obj
 0001:00003d40       ??$GetVFunc@P6EMPAX@Z@Utils@@SAP6EMPAX@Z0I@Z 10004d40 f i Aimbot.obj
 0001:00003d40       ??$GetVFunc@P6EPBDPAVIPanel@@I@Z@Utils@@SAP6EPBDPAVIPanel@@I@ZPAXI@Z 10004d40 f i painttraverse_hook.obj
 0001:00003d50       ??$GetValue@H@C_BaseEntity@@AAEHH@Z 10004d50 f i Aimbot.obj
 0001:00003d50       ??$GetValue@W4EntityFlags@@@C_BaseEntity@@AAE?AW4EntityFlags@@H@Z 10004d50 f i Aimbot.obj
 0001:00003d50       ??$GetValue@H@C_BaseCombatWeapon@@AAEHH@Z 10004d50 f i c_esp.obj
 0001:00003d70       ??$GetValue@M@C_BaseCombatWeapon@@AAEMH@Z 10004d70 f i Aimbot.obj
 0001:00003d70       ??$GetValue@M@C_BaseEntity@@AAEMH@Z 10004d70 f i Aimbot.obj
 0001:00003d90       ??$GetValue@VCBaseHandle@@@C_BaseEntity@@AAE?AVCBaseHandle@@H@Z 10004d90 f i Aimbot.obj
 0001:00003db0       ??$GetValue@VVector@@@C_BaseEntity@@AAE?AVVector@@H@Z 10004db0 f i Aimbot.obj
 0001:00003de0       ??$GetValue@_N@C_BaseEntity@@AAE_NH@Z 10004de0 f i Aimbot.obj
 0001:00003e00       ??$_Buy_if_not_node@AAU?$pair@$$CBV?$basic_string@DU?$char_traits@D@std@@V?$allocator@D@2@@std@@V?$shared_ptr@UNode@NetvarTree@@@2@@std@@@?$_Hash@V?$_Umap_traits@V?$basic_string@DU?$char_traits@D@std@@V?$allocator@D@2@@std@@V?$shared_ptr@UNode@NetvarTree@@@2@V?$_Uhash_compare@V?$basic_string@DU?$char_traits@D@std@@V?$allocator@D@2@@std@@U?$hash@V?$basic_string@DU?$char_traits@D@std@@V?$allocator@D@2@@std@@@2@U?$equal_to@V?$basic_string@DU?$char_traits@D@std@@V?$allocator@D@2@@std@@@2@@2@V?$allocator@U?$pair@$$CBV?$basic_string@DU?$char_traits@D@std@@V?$allocator@D@2@@std@@V?$shared_ptr@UNode@NetvarTree@@@2@@std@@@2@$0A@@std@@@std@@IAE?AV?$_List_unchecked_iterator@V?$_List_val@U?$_List_simple_types@U?$pair@$$CBV?$basic_string@DU?$char_traits@D@std@@V?$allocator@D@2@@std@@V?$shared_ptr@UNode@NetvarTree@@@2@@std@@@std@@@std@@@1@AAU?$pair@$$CBV?$basic_string@DU?$char_traits@D@std@@V?$allocator@D@2@@std@@V?$shared_ptr@UNode@NetvarTree@@@2@@1@V21@@Z 10004e00 f i Aimbot.obj
 0001:00003e20       ??$_Buynode@ABUpiecewise_construct_t@std@@V?$tuple@$$QAV?$basic_string@DU?$char_traits@D@std@@V?$allocator@D@2@@std@@@2@V?$tuple@$$V@2@@?$_List_buy@U?$pair@$$CBV?$basic_string@DU?$char_traits@D@std@@V?$allocator@D@2@@std@@V?$shared_ptr@UNode@NetvarTree@@@2@@std@@V?$allocator@U?$pair@$$CBV?$basic_string@DU?$char_traits@D@std@@V?$allocator@D@2@@std@@V?$shared_ptr@UNode@NetvarTree@@@2@@std@@@2@@std@@QAEPAU?$_List_node@U?$pair@$$CBV?$basic_string@DU?$char_traits@D@std@@V?$allocator@D@2@@std@@V?$shared_ptr@UNode@NetvarTree@@@2@@std@@PAX@1@PAU21@0ABUpiecewise_construct_t@1@$$QAV?$tuple@$$QAV?$basic_string@DU?$char_traits@D@std@@V?$allocator@D@2@@std@@@1@$$QAV?$tuple@$$V@1@@Z 10004e20 f i Aimbot.obj
 0001:00003f20       ??$_Copy_memmove@PAPAULegitPlayerRecords@@PAPAU1@@std@@YAPAPAULegitPlayerRecords@@PAPAU1@00@Z 10004f20 f i Legitbot.obj
 0001:00003f20       ??$_Copy_memmove@PAHPAH@std@@YAPAHPAH00@Z 10004f20 f i Aimbot.obj
 0001:00003f20       ??$_Copy_memmove@PAPAUPlayerRecords@@PAPAU1@@std@@YAPAPAUPlayerRecords@@PAPAU1@00@Z 10004f20 f i LagComp.obj
 0001:00003f60       ??$_Emplace_back@V?$_List_unchecked_iterator@V?$_List_val@U?$_List_simple_types@U?$pair@$$CBV?$basic_string@DU?$char_traits@D@std@@V?$allocator@D@2@@std@@V?$shared_ptr@UNode@NetvarTree@@@2@@std@@@std@@@std@@@std@@@?$_Uninitialized_backout_al@PAV?$_List_unchecked_iterator@V?$_List_val@U?$_List_simple_types@U?$pair@$$CBV?$basic_string@DU?$char_traits@D@std@@V?$allocator@D@2@@std@@V?$shared_ptr@UNode@NetvarTree@@@2@@std@@@std@@@std@@@std@@V?$allocator@V?$_List_unchecked_iterator@V?$_List_val@U?$_List_simple_types@U?$pair@$$CBV?$basic_string@DU?$char_traits@D@std@@V?$allocator@D@2@@std@@V?$shared_ptr@UNode@NetvarTree@@@2@@std@@@std@@@std@@@std@@@2@@std@@QAEX$$QAV?$_List_unchecked_iterator@V?$_List_val@U?$_List_simple_types@U?$pair@$$CBV?$basic_string@DU?$char_traits@D@std@@V?$allocator@D@2@@std@@V?$shared_ptr@UNode@NetvarTree@@@2@@std@@@std@@@std@@@1@@Z 10004f60 f i Aimbot.obj
 0001:00003f60       ??$_Emplace_back@ABV?$_List_unchecked_iterator@V?$_List_val@U?$_List_simple_types@U?$pair@$$CBV?$basic_string@DU?$char_traits@D@std@@V?$allocator@D@2@@std@@V?$shared_ptr@UNode@NetvarTree@@@2@@std@@@std@@@std@@@std@@@?$_Uninitialized_backout_al@PAV?$_List_unchecked_iterator@V?$_List_val@U?$_List_simple_types@U?$pair@$$CBV?$basic_string@DU?$char_traits@D@std@@V?$allocator@D@2@@std@@V?$shared_ptr@UNode@NetvarTree@@@2@@std@@@std@@@std@@@std@@V?$allocator@V?$_List_unchecked_iterator@V?$_List_val@U?$_List_simple_types@U?$pair@$$CBV?$basic_string@DU?$char_traits@D@std@@V?$allocator@D@2@@std@@V?$shared_ptr@UNode@NetvarTree@@@2@@std@@@std@@@std@@@std@@@2@@std@@QAEXABV?$_List_unchecked_iterator@V?$_List_val@U?$_List_simple_types@U?$pair@$$CBV?$basic_string@DU?$char_traits@D@std@@V?$allocator@D@2@@std@@V?$shared_ptr@UNode@NetvarTree@@@2@@std@@@std@@@std@@@1@@Z 10004f60 f i Aimbot.obj
 0001:00003fc0       ??$_Emplace_back_with_unused_capacity@H@?$vector@HV?$allocator@H@std@@@std@@AAEAAH$$QAH@Z 10004fc0 f i Aimbot.obj
 0001:00004070       ??$_Emplace_reallocate@H@?$vector@HV?$allocator@H@std@@@std@@QAEPAHQAH$$QAH@Z 10005070 f i Aimbot.obj
 0001:00004260       ??$_Ptr_move_cat@V?$_Deque_unchecked_iterator@V?$_Deque_val@U?$_Deque_simple_types@ULegitPlayerRecords@@@std@@@std@@@std@@V12@@std@@YA?AU_General_ptr_iterator_tag@0@ABV?$_Deque_unchecked_iterator@V?$_Deque_val@U?$_Deque_simple_types@ULegitPlayerRecords@@@std@@@std@@@0@0@Z 10005260 f i Legitbot.obj
 0001:00004260       ??$_Fill_memset_is_safe@PAV?$_List_unchecked_iterator@V?$_List_val@U?$_List_simple_types@U?$pair@$$CBV?$basic_string@DU?$char_traits@D@std@@V?$allocator@D@2@@std@@V?$shared_ptr@UNode@NetvarTree@@@2@@std@@@std@@@std@@@std@@V12@@std@@YA?AU?$integral_constant@_N$0A@@0@ABQAV?$_List_unchecked_iterator@V?$_List_val@U?$_List_simple_types@U?$pair@$$CBV?$basic_string@DU?$char_traits@D@std@@V?$allocator@D@2@@std@@V?$shared_ptr@UNode@NetvarTree@@@2@@std@@@std@@@std@@@0@ABV20@@Z 10005260 f i Aimbot.obj
 0001:00004260       ??$_Ptr_move_cat@V?$_Deque_unchecked_iterator@V?$_Deque_val@U?$_Deque_simple_types@UPlayerRecords@@@std@@@std@@@std@@V12@@std@@YA?AU_General_ptr_iterator_tag@0@ABV?$_Deque_unchecked_iterator@V?$_Deque_val@U?$_Deque_simple_types@UPlayerRecords@@@std@@@std@@@0@0@Z 10005260 f i LagComp.obj
 0001:00004270       ??$_Fill_unchecked1@PAV?$_List_unchecked_iterator@V?$_List_val@U?$_List_simple_types@U?$pair@$$CBV?$basic_string@DU?$char_traits@D@std@@V?$allocator@D@2@@std@@V?$shared_ptr@UNode@NetvarTree@@@2@@std@@@std@@@std@@@std@@V12@@std@@YAXPAV?$_List_unchecked_iterator@V?$_List_val@U?$_List_simple_types@U?$pair@$$CBV?$basic_string@DU?$char_traits@D@std@@V?$allocator@D@2@@std@@V?$shared_ptr@UNode@NetvarTree@@@2@@std@@@std@@@std@@@0@0ABV10@U?$integral_constant@_N$0A@@0@@Z 10005270 f i Aimbot.obj
 0001:000042a0       ??$_Fill_unchecked@PAV?$_List_unchecked_iterator@V?$_List_val@U?$_List_simple_types@U?$pair@$$CBV?$basic_string@DU?$char_traits@D@std@@V?$allocator@D@2@@std@@V?$shared_ptr@UNode@NetvarTree@@@2@@std@@@std@@@std@@@std@@V12@@std@@YAXPAV?$_List_unchecked_iterator@V?$_List_val@U?$_List_simple_types@U?$pair@$$CBV?$basic_string@DU?$char_traits@D@std@@V?$allocator@D@2@@std@@V?$shared_ptr@UNode@NetvarTree@@@2@@std@@@std@@@std@@@0@0ABV10@@Z 100052a0 f i Aimbot.obj
 0001:000042e0       ??$_Get_size_of_n@$03@std@@YAII@Z 100052e0 f i Aimbot.obj
 0001:00004310       ??$_Get_size_of_n@$0CI@@std@@YAII@Z 10005310 f i Aimbot.obj
 0001:00004340       ??$_Hash_array_representation@D@std@@YAIQBDI@Z 10005340 f i Aimbot.obj
 0001:00004360       ??$_Idl_distance@PAPAUPlayerRecords@@PAPAU1@@std@@YAHABQAPAUPlayerRecords@@0@Z 10005360 f i LagComp.obj
 0001:00004360       ??$_Idl_distance@PAV?$_List_unchecked_iterator@V?$_List_val@U?$_List_simple_types@U?$pair@$$CBV?$basic_string@DU?$char_traits@D@std@@V?$allocator@D@2@@std@@V?$shared_ptr@UNode@NetvarTree@@@2@@std@@@std@@@std@@@std@@PAV12@@std@@YAHABQAV?$_List_unchecked_iterator@V?$_List_val@U?$_List_simple_types@U?$pair@$$CBV?$basic_string@DU?$char_traits@D@std@@V?$allocator@D@2@@std@@V?$shared_ptr@UNode@NetvarTree@@@2@@std@@@std@@@std@@@0@0@Z 10005360 f i Aimbot.obj
 0001:00004360       ??$_Idl_distance@PAPAULegitPlayerRecords@@PAPAU1@@std@@YAHABQAPAULegitPlayerRecords@@0@Z 10005360 f i Legitbot.obj
 0001:00004360       ??$_Idl_distance@PAHPAH@std@@YAHABQAH0@Z 10005360 f i Aimbot.obj
 0001:00004380       ??$_Insert@AAU?$pair@$$CBV?$basic_string@DU?$char_traits@D@std@@V?$allocator@D@2@@std@@V?$shared_ptr@UNode@NetvarTree@@@2@@std@@V?$_List_unchecked_iterator@V?$_List_val@U?$_List_simple_types@U?$pair@$$CBV?$basic_string@DU?$char_traits@D@std@@V?$allocator@D@2@@std@@V?$shared_ptr@UNode@NetvarTree@@@2@@std@@@std@@@std@@@2@@?$_Hash@V?$_Umap_traits@V?$basic_string@DU?$char_traits@D@std@@V?$allocator@D@2@@std@@V?$shared_ptr@UNode@NetvarTree@@@2@V?$_Uhash_compare@V?$basic_string@DU?$char_traits@D@std@@V?$allocator@D@2@@std@@U?$hash@V?$basic_string@DU?$char_traits@D@std@@V?$allocator@D@2@@std@@@2@U?$equal_to@V?$basic_string@DU?$char_traits@D@std@@V?$allocator@D@2@@std@@@2@@2@V?$allocator@U?$pair@$$CBV?$basic_string@DU?$char_traits@D@std@@V?$allocator@D@2@@std@@V?$shared_ptr@UNode@NetvarTree@@@2@@std@@@2@$0A@@std@@@std@@IAE?AU?$pair@V?$_List_iterator@V?$_List_val@U?$_List_simple_types@U?$pair@$$CBV?$basic_string@DU?$char_traits@D@std@@V?$allocator@D@2@@std@@V?$shared_ptr@UNode@NetvarTree@@@2@@std@@@std@@@std@@@std@@_N@1@AAU?$pair@$$CBV?$basic_string@DU?$char_traits@D@std@@V?$allocator@D@2@@std@@V?$shared_ptr@UNode@NetvarTree@@@2@@1@V?$_List_unchecked_iterator@V?$_List_val@U?$_List_simple_types@U?$pair@$$CBV?$basic_string@DU?$char_traits@D@std@@V?$allocator@D@2@@std@@V?$shared_ptr@UNode@NetvarTree@@@2@@std@@@std@@@std@@@1@@Z 10005380 f i Aimbot.obj
 0001:00004630       ??$_Insert@ABUpiecewise_construct_t@std@@V?$tuple@$$QAV?$basic_string@DU?$char_traits@D@std@@V?$allocator@D@2@@std@@@2@V?$tuple@$$V@2@@?$list@U?$pair@$$CBV?$basic_string@DU?$char_traits@D@std@@V?$allocator@D@2@@std@@V?$shared_ptr@UNode@NetvarTree@@@2@@std@@V?$allocator@U?$pair@$$CBV?$basic_string@DU?$char_traits@D@std@@V?$allocator@D@2@@std@@V?$shared_ptr@UNode@NetvarTree@@@2@@std@@@2@@std@@QAEXV?$_List_unchecked_const_iterator@V?$_List_val@U?$_List_simple_types@U?$pair@$$CBV?$basic_string@DU?$char_traits@D@std@@V?$allocator@D@2@@std@@V?$shared_ptr@UNode@NetvarTree@@@2@@std@@@std@@@std@@U_Iterator_base0@2@@1@ABUpiecewise_construct_t@1@$$QAV?$tuple@$$QAV?$basic_string@DU?$char_traits@D@std@@V?$allocator@D@2@@std@@@1@$$QAV?$tuple@$$V@1@@Z 10005630 f i Aimbot.obj
 0001:000046c0       ??$_Ptr_move_cat@HH@std@@YA?AU_Really_trivial_ptr_iterator_tag@0@ABQAH0@Z 100056c0 f i Aimbot.obj
 0001:000046c0       ??$_Ptr_copy_cat@PAULegitPlayerRecords@@PAU1@@std@@YA?AU_Really_trivial_ptr_iterator_tag@0@ABQAPAULegitPlayerRecords@@0@Z 100056c0 f i Legitbot.obj
 0001:000046c0       ??$_Ptr_move_cat@V?$_List_unchecked_iterator@V?$_List_val@U?$_List_simple_types@U?$pair@$$CBV?$basic_string@DU?$char_traits@D@std@@V?$allocator@D@2@@std@@V?$shared_ptr@UNode@NetvarTree@@@2@@std@@@std@@@std@@@std@@V12@@std@@YA?AU_Trivially_copyable_ptr_iterator_tag@0@ABQAV?$_List_unchecked_iterator@V?$_List_val@U?$_List_simple_types@U?$pair@$$CBV?$basic_string@DU?$char_traits@D@std@@V?$allocator@D@2@@std@@V?$shared_ptr@UNode@NetvarTree@@@2@@std@@@std@@@std@@@0@0@Z 100056c0 f i Aimbot.obj
 0001:000046c0       ??$_Ptr_copy_cat@PAUPlayerRecords@@PAU1@@std@@YA?AU_Really_trivial_ptr_iterator_tag@0@ABQAPAUPlayerRecords@@0@Z 100056c0 f i LagComp.obj
 0001:000046d0       ??$_Seek_wrapped@H@std@@YAXAAPAHQAH@Z 100056d0 f i Aimbot.obj
 0001:000046d0       ??$_Seek_wrapped@V?$_List_unchecked_iterator@V?$_List_val@U?$_List_simple_types@U?$pair@$$CBV?$basic_string@DU?$char_traits@D@std@@V?$allocator@D@2@@std@@V?$shared_ptr@UNode@NetvarTree@@@2@@std@@@std@@@std@@@std@@@std@@YAXAAPAV?$_List_unchecked_iterator@V?$_List_val@U?$_List_simple_types@U?$pair@$$CBV?$basic_string@DU?$char_traits@D@std@@V?$allocator@D@2@@std@@V?$shared_ptr@UNode@NetvarTree@@@2@@std@@@std@@@std@@@0@QAV10@@Z 100056d0 f i Aimbot.obj
 0001:000046d0       ??$_Seek_wrapped@PAUPlayerRecords@@@std@@YAXAAPAPAUPlayerRecords@@QAPAU1@@Z 100056d0 f i LagComp.obj
 0001:000046d0       ??$_Seek_wrapped@PAULegitPlayerRecords@@@std@@YAXAAPAPAULegitPlayerRecords@@QAPAU1@@Z 100056d0 f i Legitbot.obj
 0001:000046e0       ??$_Traits_equal@U?$char_traits@D@std@@@std@@YA_NQBDI0I@Z 100056e0 f i Aimbot.obj
 0001:00004720       ??$_Try_emplace@V?$basic_string@DU?$char_traits@D@std@@V?$allocator@D@2@@std@@$$V@?$unordered_map@V?$basic_string@DU?$char_traits@D@std@@V?$allocator@D@2@@std@@V?$shared_ptr@UNode@NetvarTree@@@2@U?$hash@V?$basic_string@DU?$char_traits@D@std@@V?$allocator@D@2@@std@@@2@U?$equal_to@V?$basic_string@DU?$char_traits@D@std@@V?$allocator@D@2@@std@@@2@V?$allocator@U?$pair@$$CBV?$basic_string@DU?$char_traits@D@std@@V?$allocator@D@2@@std@@V?$shared_ptr@UNode@NetvarTree@@@2@@std@@@2@@std@@QAE?AU?$pair@V?$_List_iterator@V?$_List_val@U?$_List_simple_types@U?$pair@$$CBV?$basic_string@DU?$char_traits@D@std@@V?$allocator@D@2@@std@@V?$shared_ptr@UNode@NetvarTree@@@2@@std@@@std@@@std@@@std@@_N@1@$$QAV?$basic_string@DU?$char_traits@D@std@@V?$allocator@D@2@@1@@Z 10005720 f i Aimbot.obj
 0001:000047c0       ??$_Uninit_alloc_fill_n1@PAV?$_List_unchecked_iterator@V?$_List_val@U?$_List_simple_types@U?$pair@$$CBV?$basic_string@DU?$char_traits@D@std@@V?$allocator@D@2@@std@@V?$shared_ptr@UNode@NetvarTree@@@2@@std@@@std@@@std@@@std@@IV?$allocator@V?$_List_unchecked_iterator@V?$_List_val@U?$_List_simple_types@U?$pair@$$CBV?$basic_string@DU?$char_traits@D@std@@V?$allocator@D@2@@std@@V?$shared_ptr@UNode@NetvarTree@@@2@@std@@@std@@@std@@@std@@@2@@std@@YAPAV?$_List_unchecked_iterator@V?$_List_val@U?$_List_simple_types@U?$pair@$$CBV?$basic_string@DU?$char_traits@D@std@@V?$allocator@D@2@@std@@V?$shared_ptr@UNode@NetvarTree@@@2@@std@@@std@@@std@@@0@QAV10@IABV10@AAV?$allocator@V?$_List_unchecked_iterator@V?$_List_val@U?$_List_simple_types@U?$pair@$$CBV?$basic_string@DU?$char_traits@D@std@@V?$allocator@D@2@@std@@V?$shared_ptr@UNode@NetvarTree@@@2@@std@@@std@@@std@@@std@@@0@U?$integral_constant@_N$0A@@0@@Z 100057c0 f i Aimbot.obj
 0001:00004850       ??$_Uninitialized_fill_n@PAV?$_List_unchecked_iterator@V?$_List_val@U?$_List_simple_types@U?$pair@$$CBV?$basic_string@DU?$char_traits@D@std@@V?$allocator@D@2@@std@@V?$shared_ptr@UNode@NetvarTree@@@2@@std@@@std@@@std@@@std@@IV?$allocator@V?$_List_unchecked_iterator@V?$_List_val@U?$_List_simple_types@U?$pair@$$CBV?$basic_string@DU?$char_traits@D@std@@V?$allocator@D@2@@std@@V?$shared_ptr@UNode@NetvarTree@@@2@@std@@@std@@@std@@@std@@@2@@std@@YAPAV?$_List_unchecked_iterator@V?$_List_val@U?$_List_simple_types@U?$pair@$$CBV?$basic_string@DU?$char_traits@D@std@@V?$allocator@D@2@@std@@V?$shared_ptr@UNode@NetvarTree@@@2@@std@@@std@@@std@@@0@QAV10@IABV10@AAV?$allocator@V?$_List_unchecked_iterator@V?$_List_val@U?$_List_simple_types@U?$pair@$$CBV?$basic_string@DU?$char_traits@D@std@@V?$allocator@D@2@@std@@V?$shared_ptr@UNode@NetvarTree@@@2@@std@@@std@@@std@@@std@@@0@@Z 10005850 f i Aimbot.obj
 0001:00004880       ??$_Uninitialized_copy@PAPAULegitPlayerRecords@@PAPAU1@V?$allocator@PAULegitPlayerRecords@@@std@@@std@@YAPAPAULegitPlayerRecords@@QAPAU1@0PAPAU1@AAV?$allocator@PAULegitPlayerRecords@@@0@@Z 10005880 f i Legitbot.obj
 0001:00004880       ??$_Uninitialized_move@PAHPAHV?$allocator@H@std@@@std@@YAPAHQAH0PAHAAV?$allocator@H@0@@Z 10005880 f i Aimbot.obj
 0001:00004880       ??$_Uninitialized_copy@PAPAUPlayerRecords@@PAPAU1@V?$allocator@PAUPlayerRecords@@@std@@@std@@YAPAPAUPlayerRecords@@QAPAU1@0PAPAU1@AAV?$allocator@PAUPlayerRecords@@@0@@Z 10005880 f i LagComp.obj
 0001:00004950       ??$_Uninitialized_move@PAV?$_List_unchecked_iterator@V?$_List_val@U?$_List_simple_types@U?$pair@$$CBV?$basic_string@DU?$char_traits@D@std@@V?$allocator@D@2@@std@@V?$shared_ptr@UNode@NetvarTree@@@2@@std@@@std@@@std@@@std@@PAV12@V?$allocator@V?$_List_unchecked_iterator@V?$_List_val@U?$_List_simple_types@U?$pair@$$CBV?$basic_string@DU?$char_traits@D@std@@V?$allocator@D@2@@std@@V?$shared_ptr@UNode@NetvarTree@@@2@@std@@@std@@@std@@@std@@@2@@std@@YAPAV?$_List_unchecked_iterator@V?$_List_val@U?$_List_simple_types@U?$pair@$$CBV?$basic_string@DU?$char_traits@D@std@@V?$allocator@D@2@@std@@V?$shared_ptr@UNode@NetvarTree@@@2@@std@@@std@@@std@@@0@QAV10@0PAV10@AAV?$allocator@V?$_List_unchecked_iterator@V?$_List_val@U?$_List_simple_types@U?$pair@$$CBV?$basic_string@DU?$char_traits@D@std@@V?$allocator@D@2@@std@@V?$shared_ptr@UNode@NetvarTree@@@2@@std@@@std@@@std@@@std@@@0@@Z 10005950 f i Aimbot.obj
 0001:00004a10       ??$_Uninitialized_move_al_unchecked@HHV?$allocator@H@std@@@std@@YAPAHQAH00AAV?$allocator@H@0@U_Really_trivial_ptr_iterator_tag@0@U?$integral_constant@_N$00@0@@Z 10005a10 f i Aimbot.obj
 0001:00004a10       ??$_Uninitialized_copy_al_unchecked@PAULegitPlayerRecords@@PAU1@V?$allocator@PAULegitPlayerRecords@@@std@@@std@@YAPAPAULegitPlayerRecords@@QAPAU1@00AAV?$allocator@PAULegitPlayerRecords@@@0@U_Really_trivial_ptr_iterator_tag@0@U?$integral_constant@_N$00@0@@Z 10005a10 f i Legitbot.obj
 0001:00004a10       ??$_Uninitialized_copy_al_unchecked@PAUPlayerRecords@@PAU1@V?$allocator@PAUPlayerRecords@@@std@@@std@@YAPAPAUPlayerRecords@@QAPAU1@00AAV?$allocator@PAUPlayerRecords@@@0@U_Really_trivial_ptr_iterator_tag@0@U?$integral_constant@_N$00@0@@Z 10005a10 f i LagComp.obj
 0001:00004a30       ??$_Uninitialized_move_al_unchecked@PAV?$_List_unchecked_iterator@V?$_List_val@U?$_List_simple_types@U?$pair@$$CBV?$basic_string@DU?$char_traits@D@std@@V?$allocator@D@2@@std@@V?$shared_ptr@UNode@NetvarTree@@@2@@std@@@std@@@std@@@std@@PAV12@V?$allocator@V?$_List_unchecked_iterator@V?$_List_val@U?$_List_simple_types@U?$pair@$$CBV?$basic_string@DU?$char_traits@D@std@@V?$allocator@D@2@@std@@V?$shared_ptr@UNode@NetvarTree@@@2@@std@@@std@@@std@@@std@@@2@@std@@YAPAV?$_List_unchecked_iterator@V?$_List_val@U?$_List_simple_types@U?$pair@$$CBV?$basic_string@DU?$char_traits@D@std@@V?$allocator@D@2@@std@@V?$shared_ptr@UNode@NetvarTree@@@2@@std@@@std@@@std@@@0@PAV10@QAV10@1AAV?$allocator@V?$_List_unchecked_iterator@V?$_List_val@U?$_List_simple_types@U?$pair@$$CBV?$basic_string@DU?$char_traits@D@std@@V?$allocator@D@2@@std@@V?$shared_ptr@UNode@NetvarTree@@@2@@std@@@std@@@std@@@std@@@0@U_General_ptr_iterator_tag@0@U_Unused_parameter@0@@Z 10005a30 f i Aimbot.obj
 0001:00004ad0       ??$construct@U?$pair@$$CBV?$basic_string@DU?$char_traits@D@std@@V?$allocator@D@2@@std@@V?$shared_ptr@UNode@NetvarTree@@@2@@std@@ABUpiecewise_construct_t@2@V?$tuple@$$QAV?$basic_string@DU?$char_traits@D@std@@V?$allocator@D@2@@std@@@2@V?$tuple@$$V@2@@?$_Default_allocator_traits@V?$allocator@U?$_List_node@U?$pair@$$CBV?$basic_string@DU?$char_traits@D@std@@V?$allocator@D@2@@std@@V?$shared_ptr@UNode@NetvarTree@@@2@@std@@PAX@std@@@std@@@std@@SAXAAV?$allocator@U?$_List_node@U?$pair@$$CBV?$basic_string@DU?$char_traits@D@std@@V?$allocator@D@2@@std@@V?$shared_ptr@UNode@NetvarTree@@@2@@std@@PAX@std@@@1@QAU?$pair@$$CBV?$basic_string@DU?$char_traits@D@std@@V?$allocator@D@2@@std@@V?$shared_ptr@UNode@NetvarTree@@@2@@1@ABUpiecewise_construct_t@1@$$QAV?$tuple@$$QAV?$basic_string@DU?$char_traits@D@std@@V?$allocator@D@2@@std@@@1@$$QAV?$tuple@$$V@1@@Z 10005ad0 f i Aimbot.obj
 0001:00004b50       ??$construct@V?$_List_unchecked_iterator@V?$_List_val@U?$_List_simple_types@U?$pair@$$CBV?$basic_string@DU?$char_traits@D@std@@V?$allocator@D@2@@std@@V?$shared_ptr@UNode@NetvarTree@@@2@@std@@@std@@@std@@@std@@ABV12@@?$_Default_allocator_traits@V?$allocator@V?$_List_unchecked_iterator@V?$_List_val@U?$_List_simple_types@U?$pair@$$CBV?$basic_string@DU?$char_traits@D@std@@V?$allocator@D@2@@std@@V?$shared_ptr@UNode@NetvarTree@@@2@@std@@@std@@@std@@@std@@@std@@@std@@SAXAAV?$allocator@V?$_List_unchecked_iterator@V?$_List_val@U?$_List_simple_types@U?$pair@$$CBV?$basic_string@DU?$char_traits@D@std@@V?$allocator@D@2@@std@@V?$shared_ptr@UNode@NetvarTree@@@2@@std@@@std@@@std@@@std@@@1@QAV?$_List_unchecked_iterator@V?$_List_val@U?$_List_simple_types@U?$pair@$$CBV?$basic_string@DU?$char_traits@D@std@@V?$allocator@D@2@@std@@V?$shared_ptr@UNode@NetvarTree@@@2@@std@@@std@@@std@@@1@ABV31@@Z 10005b50 f i Aimbot.obj
 0001:00004b50       ??$construct@V?$_List_unchecked_iterator@V?$_List_val@U?$_List_simple_types@U?$pair@$$CBV?$basic_string@DU?$char_traits@D@std@@V?$allocator@D@2@@std@@V?$shared_ptr@UNode@NetvarTree@@@2@@std@@@std@@@std@@@std@@V12@@?$_Default_allocator_traits@V?$allocator@V?$_List_unchecked_iterator@V?$_List_val@U?$_List_simple_types@U?$pair@$$CBV?$basic_string@DU?$char_traits@D@std@@V?$allocator@D@2@@std@@V?$shared_ptr@UNode@NetvarTree@@@2@@std@@@std@@@std@@@std@@@std@@@std@@SAXAAV?$allocator@V?$_List_unchecked_iterator@V?$_List_val@U?$_List_simple_types@U?$pair@$$CBV?$basic_string@DU?$char_traits@D@std@@V?$allocator@D@2@@std@@V?$shared_ptr@UNode@NetvarTree@@@2@@std@@@std@@@std@@@std@@@1@QAV?$_List_unchecked_iterator@V?$_List_val@U?$_List_simple_types@U?$pair@$$CBV?$basic_string@DU?$char_traits@D@std@@V?$allocator@D@2@@std@@V?$shared_ptr@UNode@NetvarTree@@@2@@std@@@std@@@std@@@1@$$QAV31@@Z 10005b50 f i Aimbot.obj
 0001:00004b80       ??$emplace@ABUpiecewise_construct_t@std@@V?$tuple@$$QAV?$basic_string@DU?$char_traits@D@std@@V?$allocator@D@2@@std@@@2@V?$tuple@$$V@2@@?$_Hash@V?$_Umap_traits@V?$basic_string@DU?$char_traits@D@std@@V?$allocator@D@2@@std@@V?$shared_ptr@UNode@NetvarTree@@@2@V?$_Uhash_compare@V?$basic_string@DU?$char_traits@D@std@@V?$allocator@D@2@@std@@U?$hash@V?$basic_string@DU?$char_traits@D@std@@V?$allocator@D@2@@std@@@2@U?$equal_to@V?$basic_string@DU?$char_traits@D@std@@V?$allocator@D@2@@std@@@2@@2@V?$allocator@U?$pair@$$CBV?$basic_string@DU?$char_traits@D@std@@V?$allocator@D@2@@std@@V?$shared_ptr@UNode@NetvarTree@@@2@@std@@@2@$0A@@std@@@std@@QAE?AU?$pair@V?$_List_iterator@V?$_List_val@U?$_List_simple_types@U?$pair@$$CBV?$basic_string@DU?$char_traits@D@std@@V?$allocator@D@2@@std@@V?$shared_ptr@UNode@NetvarTree@@@2@@std@@@std@@@std@@@std@@_N@1@ABUpiecewise_construct_t@1@$$QAV?$tuple@$$QAV?$basic_string@DU?$char_traits@D@std@@V?$allocator@D@2@@std@@@1@$$QAV?$tuple@$$V@1@@Z 10005b80 f i Aimbot.obj
 0001:00004c10       ??$emplace_back@H@?$vector@HV?$allocator@H@std@@@std@@QAEAAH$$QAH@Z 10005c10 f i Aimbot.obj
 0001:00004c80       ??$emplace_front@ABUpiecewise_construct_t@std@@V?$tuple@$$QAV?$basic_string@DU?$char_traits@D@std@@V?$allocator@D@2@@std@@@2@V?$tuple@$$V@2@@?$list@U?$pair@$$CBV?$basic_string@DU?$char_traits@D@std@@V?$allocator@D@2@@std@@V?$shared_ptr@UNode@NetvarTree@@@2@@std@@V?$allocator@U?$pair@$$CBV?$basic_string@DU?$char_traits@D@std@@V?$allocator@D@2@@std@@V?$shared_ptr@UNode@NetvarTree@@@2@@std@@@2@@std@@QAEAAU?$pair@$$CBV?$basic_string@DU?$char_traits@D@std@@V?$allocator@D@2@@std@@V?$shared_ptr@UNode@NetvarTree@@@2@@1@ABUpiecewise_construct_t@1@$$QAV?$tuple@$$QAV?$basic_string@DU?$char_traits@D@std@@V?$allocator@D@2@@std@@@1@$$QAV?$tuple@$$V@1@@Z 10005c80 f i Aimbot.obj
 0001:00004d00       ??$erase@V?$_List_iterator@V?$_List_val@U?$_List_simple_types@U?$pair@$$CBV?$basic_string@DU?$char_traits@D@std@@V?$allocator@D@2@@std@@V?$shared_ptr@UNode@NetvarTree@@@2@@std@@@std@@@std@@@std@@X@?$_Hash@V?$_Umap_traits@V?$basic_string@DU?$char_traits@D@std@@V?$allocator@D@2@@std@@V?$shared_ptr@UNode@NetvarTree@@@2@V?$_Uhash_compare@V?$basic_string@DU?$char_traits@D@std@@V?$allocator@D@2@@std@@U?$hash@V?$basic_string@DU?$char_traits@D@std@@V?$allocator@D@2@@std@@@2@U?$equal_to@V?$basic_string@DU?$char_traits@D@std@@V?$allocator@D@2@@std@@@2@@2@V?$allocator@U?$pair@$$CBV?$basic_string@DU?$char_traits@D@std@@V?$allocator@D@2@@std@@V?$shared_ptr@UNode@NetvarTree@@@2@@std@@@2@$0A@@std@@@std@@QAE?AV?$_List_iterator@V?$_List_val@U?$_List_simple_types@U?$pair@$$CBV?$basic_string@DU?$char_traits@D@std@@V?$allocator@D@2@@std@@V?$shared_ptr@UNode@NetvarTree@@@2@@std@@@std@@@std@@@1@V21@@Z 10005d00 f i Aimbot.obj
 0001:00004d30       ??$forward_as_tuple@$$V@std@@YA?AV?$tuple@$$V@0@XZ 10005d30 f i Aimbot.obj
 0001:00004d40       ??$forward_as_tuple@V?$basic_string@DU?$char_traits@D@std@@V?$allocator@D@2@@std@@@std@@YA?AV?$tuple@$$QAV?$basic_string@DU?$char_traits@D@std@@V?$allocator@D@2@@std@@@0@$$QAV?$basic_string@DU?$char_traits@D@std@@V?$allocator@D@2@@0@@Z 10005d40 f i Aimbot.obj
 0001:00004d60       ??$get@$0A@$$QAV?$basic_string@DU?$char_traits@D@std@@V?$allocator@D@2@@std@@@std@@YA$$QAV?$basic_string@DU?$char_traits@D@std@@V?$allocator@D@2@@0@$$QAV?$tuple@$$QAV?$basic_string@DU?$char_traits@D@std@@V?$allocator@D@2@@std@@@0@@Z 10005d60 f i Aimbot.obj
 0001:00004d80       ??$try_emplace@$$V@?$unordered_map@V?$basic_string@DU?$char_traits@D@std@@V?$allocator@D@2@@std@@V?$shared_ptr@UNode@NetvarTree@@@2@U?$hash@V?$basic_string@DU?$char_traits@D@std@@V?$allocator@D@2@@std@@@2@U?$equal_to@V?$basic_string@DU?$char_traits@D@std@@V?$allocator@D@2@@std@@@2@V?$allocator@U?$pair@$$CBV?$basic_string@DU?$char_traits@D@std@@V?$allocator@D@2@@std@@V?$shared_ptr@UNode@NetvarTree@@@2@@std@@@2@@std@@QAE?AU?$pair@V?$_List_iterator@V?$_List_val@U?$_List_simple_types@U?$pair@$$CBV?$basic_string@DU?$char_traits@D@std@@V?$allocator@D@2@@std@@V?$shared_ptr@UNode@NetvarTree@@@2@@std@@@std@@@std@@@std@@_N@1@$$QAV?$basic_string@DU?$char_traits@D@std@@V?$allocator@D@2@@1@@Z 10005d80 f i Aimbot.obj
 0001:00004db0       ??0?$_Deque_const_iterator@V?$_Deque_val@U?$_Deque_simple_types@UPlayerRecords@@@std@@@std@@@std@@QAE@$$QAV01@@Z 10005db0 f i LagComp.obj
 0001:00004db0       ??0?$_Deque_const_iterator@V?$_Deque_val@U?$_Deque_simple_types@ULegitPlayerRecords@@@std@@@std@@@std@@QAE@$$QAV01@@Z 10005db0 f i Legitbot.obj
 0001:00004db0       ??0?$_Deque_const_iterator@V?$_Deque_val@U?$_Deque_simple_types@ULegitPlayerRecords@@@std@@@std@@@std@@QAE@ABV01@@Z 10005db0 f i Legitbot.obj
 0001:00004db0       ??0?$_Deque_const_iterator@V?$_Deque_val@U?$_Deque_simple_types@UPlayerRecords@@@std@@@std@@@std@@QAE@ABV01@@Z 10005db0 f i Aimbot.obj
 0001:00004de0       ??0?$_Deque_const_iterator@V?$_Deque_val@U?$_Deque_simple_types@UPlayerRecords@@@std@@@std@@@std@@QAE@IPBU_Container_base12@1@@Z 10005de0 f i Aimbot.obj
 0001:00004de0       ??0?$_Deque_const_iterator@V?$_Deque_val@U?$_Deque_simple_types@ULegitPlayerRecords@@@std@@@std@@@std@@QAE@IPBU_Container_base12@1@@Z 10005de0 f i Legitbot.obj
 0001:00004e50       ??0?$_Deque_iterator@V?$_Deque_val@U?$_Deque_simple_types@ULegitPlayerRecords@@@std@@@std@@@std@@QAE@$$QAV01@@Z 10005e50 f i Legitbot.obj
 0001:00004e50       ??0?$_Deque_iterator@V?$_Deque_val@U?$_Deque_simple_types@UPlayerRecords@@@std@@@std@@@std@@QAE@$$QAV01@@Z 10005e50 f i LagComp.obj
 0001:00004e50       ??0?$_Deque_iterator@V?$_Deque_val@U?$_Deque_simple_types@UPlayerRecords@@@std@@@std@@@std@@QAE@ABV01@@Z 10005e50 f i Aimbot.obj
 0001:00004e50       ??0?$_Deque_iterator@V?$_Deque_val@U?$_Deque_simple_types@ULegitPlayerRecords@@@std@@@std@@@std@@QAE@ABV01@@Z 10005e50 f i Legitbot.obj
 0001:00004e70       ??0?$_Deque_iterator@V?$_Deque_val@U?$_Deque_simple_types@ULegitPlayerRecords@@@std@@@std@@@std@@QAE@IPBU_Container_base12@1@@Z 10005e70 f i Legitbot.obj
 0001:00004e70       ??0?$_Deque_iterator@V?$_Deque_val@U?$_Deque_simple_types@UPlayerRecords@@@std@@@std@@@std@@QAE@IPBU_Container_base12@1@@Z 10005e70 f i Aimbot.obj
 0001:00004e90       ??0?$_List_unchecked_iterator@V?$_List_val@U?$_List_simple_types@U?$pair@$$CBV?$basic_string@DU?$char_traits@D@std@@V?$allocator@D@2@@std@@V?$shared_ptr@UNode@NetvarTree@@@2@@std@@@std@@@std@@@std@@QAE@PAU?$_List_node@U?$pair@$$CBV?$basic_string@DU?$char_traits@D@std@@V?$allocator@D@2@@std@@V?$shared_ptr@UNode@NetvarTree@@@2@@std@@PAX@1@PBV?$_List_val@U?$_List_simple_types@U?$pair@$$CBV?$basic_string@DU?$char_traits@D@std@@V?$allocator@D@2@@std@@V?$shared_ptr@UNode@NetvarTree@@@2@@std@@@std@@@1@@Z 10005e90 f i Aimbot.obj
 0001:00004e90       ??0?$_List_const_iterator@V?$_List_val@U?$_List_simple_types@U?$pair@$$CBV?$basic_string@DU?$char_traits@D@std@@V?$allocator@D@2@@std@@V?$shared_ptr@UNode@NetvarTree@@@2@@std@@@std@@@std@@@std@@QAE@PAU?$_List_node@U?$pair@$$CBV?$basic_string@DU?$char_traits@D@std@@V?$allocator@D@2@@std@@V?$shared_ptr@UNode@NetvarTree@@@2@@std@@PAX@1@PBV?$_List_val@U?$_List_simple_types@U?$pair@$$CBV?$basic_string@DU?$char_traits@D@std@@V?$allocator@D@2@@std@@V?$shared_ptr@UNode@NetvarTree@@@2@@std@@@std@@@1@@Z 10005e90 f i Aimbot.obj
 0001:00004e90       ??0?$_String_iterator@V?$_String_val@U?$_Simple_types@D@std@@@std@@@std@@QAE@PADPBU_Container_base0@1@@Z 10005e90 f i c_esp.obj
 0001:00004eb0       ??0?$_List_iterator@V?$_List_val@U?$_List_simple_types@U?$pair@$$CBV?$basic_string@DU?$char_traits@D@std@@V?$allocator@D@2@@std@@V?$shared_ptr@UNode@NetvarTree@@@2@@std@@@std@@@std@@@std@@QAE@PAU?$_List_node@U?$pair@$$CBV?$basic_string@DU?$char_traits@D@std@@V?$allocator@D@2@@std@@V?$shared_ptr@UNode@NetvarTree@@@2@@std@@PAX@1@PBV?$_List_val@U?$_List_simple_types@U?$pair@$$CBV?$basic_string@DU?$char_traits@D@std@@V?$allocator@D@2@@std@@V?$shared_ptr@UNode@NetvarTree@@@2@@std@@@std@@@1@@Z 10005eb0 f i Aimbot.obj
 0001:00004ed0       ??0?$_String_const_iterator@V?$_String_val@U?$_Simple_types@D@std@@@std@@@std@@QAE@PBDPBU_Container_base0@1@@Z 10005ed0 f i c_esp.obj
 0001:00004ed0       ??0?$_List_unchecked_const_iterator@V?$_List_val@U?$_List_simple_types@U?$pair@$$CBV?$basic_string@DU?$char_traits@D@std@@V?$allocator@D@2@@std@@V?$shared_ptr@UNode@NetvarTree@@@2@@std@@@std@@@std@@U_Iterator_base0@2@@std@@QAE@PAU?$_List_node@U?$pair@$$CBV?$basic_string@DU?$char_traits@D@std@@V?$allocator@D@2@@std@@V?$shared_ptr@UNode@NetvarTree@@@2@@std@@PAX@1@PBV?$_List_val@U?$_List_simple_types@U?$pair@$$CBV?$basic_string@DU?$char_traits@D@std@@V?$allocator@D@2@@std@@V?$shared_ptr@UNode@NetvarTree@@@2@@std@@@std@@@1@@Z 10005ed0 f i Aimbot.obj
 0001:00004f00       ??0?$_List_unchecked_const_iterator@V?$_List_val@U?$_List_simple_types@U?$pair@$$CBV?$basic_string@DU?$char_traits@D@std@@V?$allocator@D@2@@std@@V?$shared_ptr@UNode@NetvarTree@@@2@@std@@@std@@@std@@U_Iterator_base0@2@@std@@QAE@XZ 10005f00 f i Aimbot.obj
 0001:00004f00       ??0_Container_base12@std@@QAE@XZ 10005f00 f i LagComp.obj
 0001:00004f20       ??0?$_List_unchecked_iterator@V?$_List_val@U?$_List_simple_types@U?$pair@$$CBV?$basic_string@DU?$char_traits@D@std@@V?$allocator@D@2@@std@@V?$shared_ptr@UNode@NetvarTree@@@2@@std@@@std@@@std@@@std@@QAE@XZ 10005f20 f i Aimbot.obj
 0001:00004f40       ??0?$_Ptr_base@UNode@NetvarTree@@@std@@IAE@XZ 10005f40 f i Aimbot.obj
 0001:00004f40       ??0_Iterator_base12@std@@QAE@XZ 10005f40 f i Aimbot.obj
 0001:00004f40       ??0?$_List_val@U?$_List_simple_types@U?$pair@$$CBV?$basic_string@DU?$char_traits@D@std@@V?$allocator@D@2@@std@@V?$shared_ptr@UNode@NetvarTree@@@2@@std@@@std@@@std@@QAE@XZ 10005f40 f i NetvarManager.obj
 0001:00004f40       ??0_Container_proxy@std@@QAE@XZ 10005f40 f i LagComp.obj
 0001:00004f70       ??0?$_Uninitialized_backout_al@PAV?$_List_unchecked_iterator@V?$_List_val@U?$_List_simple_types@U?$pair@$$CBV?$basic_string@DU?$char_traits@D@std@@V?$allocator@D@2@@std@@V?$shared_ptr@UNode@NetvarTree@@@2@@std@@@std@@@std@@@std@@V?$allocator@V?$_List_unchecked_iterator@V?$_List_val@U?$_List_simple_types@U?$pair@$$CBV?$basic_string@DU?$char_traits@D@std@@V?$allocator@D@2@@std@@V?$shared_ptr@UNode@NetvarTree@@@2@@std@@@std@@@std@@@std@@@2@@std@@QAE@PAV?$_List_unchecked_iterator@V?$_List_val@U?$_List_simple_types@U?$pair@$$CBV?$basic_string@DU?$char_traits@D@std@@V?$allocator@D@2@@std@@V?$shared_ptr@UNode@NetvarTree@@@2@@std@@@std@@@std@@@1@AAV?$allocator@V?$_List_unchecked_iterator@V?$_List_val@U?$_List_simple_types@U?$pair@$$CBV?$basic_string@DU?$char_traits@D@std@@V?$allocator@D@2@@std@@V?$shared_ptr@UNode@NetvarTree@@@2@@std@@@std@@@std@@@std@@@1@@Z 10005f70 f i Aimbot.obj
 0001:00004fa0       ??0?$_Vector_alloc@U?$_Vec_base_types@HV?$allocator@H@std@@@std@@@std@@QAE@XZ 10005fa0 f i Aimbot.obj
 0001:00004fa0       ??0?$_Vector_alloc@U?$_Vec_base_types@V?$basic_string@DU?$char_traits@D@std@@V?$allocator@D@2@@std@@V?$allocator@V?$basic_string@DU?$char_traits@D@std@@V?$allocator@D@2@@std@@@2@@std@@@std@@QAE@XZ 10005fa0 f i config_system.obj
 0001:00004fd0       ??0?$_Vector_val@U?$_Simple_types@V?$basic_string@DU?$char_traits@D@std@@V?$allocator@D@2@@std@@@std@@@std@@QAE@XZ 10005fd0 f i config_system.obj
 0001:00004fd0       ??0?$_Vector_val@U?$_Simple_types@V?$_List_unchecked_iterator@V?$_List_val@U?$_List_simple_types@U?$pair@$$CBV?$basic_string@DU?$char_traits@D@std@@V?$allocator@D@2@@std@@V?$shared_ptr@UNode@NetvarTree@@@2@@std@@@std@@@std@@@std@@@std@@@std@@QAE@XZ 10005fd0 f i NetvarManager.obj
 0001:00004fd0       ??0?$_Vector_val@U?$_Simple_types@H@std@@@std@@QAE@XZ 10005fd0 f i Aimbot.obj
 0001:00005000       ??0?$basic_string@DU?$char_traits@D@std@@V?$allocator@D@2@@std@@QAE@$$QAV01@@Z 10006000 f i Aimbot.obj
 0001:00005090       ??0?$shared_ptr@UNode@NetvarTree@@@std@@QAE@XZ 10006090 f i Aimbot.obj
 0001:000050b0       ??0?$tuple@$$QAV?$basic_string@DU?$char_traits@D@std@@V?$allocator@D@2@@std@@@std@@QAE@$$QAV01@@Z 100060b0 f i Aimbot.obj
 0001:000050e0       ??0?$vector@HV?$allocator@H@std@@@std@@QAE@XZ 100060e0 f i Aimbot.obj
 0001:000050e0       ??0?$vector@V?$basic_string@DU?$char_traits@D@std@@V?$allocator@D@2@@std@@V?$allocator@V?$basic_string@DU?$char_traits@D@std@@V?$allocator@D@2@@std@@@2@@std@@QAE@XZ 100060e0 f i config_system.obj
 0001:00005120       ??0Aimbot@@QAE@XZ          10006120 f i Aimbot.obj
 0001:00005150       ??0CBaseHandle@@QAE@ABV0@@Z 10006150 f i Aimbot.obj
 0001:00005170       ??0C_Ray@@QAE@VVector@@0@Z 10006170 f i Aimbot.obj
 0001:000051c0       ??0C_Trace@@QAE@XZ         100061c0 f i Aimbot.obj
 0001:000051f0       ??0Vector@@QAE@MMM@Z       100061f0 f i Aimbot.obj
 0001:00005230       ??0cplane_t@@QAE@XZ        10006230 f i Aimbot.obj
 0001:00005230       ??0VectorAligned@@QAE@XZ   10006230 f i Aimbot.obj
 0001:00005250       ??0_Iterator_base12@std@@QAE@ABU01@@Z 10006250 f i Aimbot.obj
 0001:00005280       ??1?$_Uninitialized_backout_al@PAV?$_List_unchecked_iterator@V?$_List_val@U?$_List_simple_types@U?$pair@$$CBV?$basic_string@DU?$char_traits@D@std@@V?$allocator@D@2@@std@@V?$shared_ptr@UNode@NetvarTree@@@2@@std@@@std@@@std@@@std@@V?$allocator@V?$_List_unchecked_iterator@V?$_List_val@U?$_List_simple_types@U?$pair@$$CBV?$basic_string@DU?$char_traits@D@std@@V?$allocator@D@2@@std@@V?$shared_ptr@UNode@NetvarTree@@@2@@std@@@std@@@std@@@std@@@2@@std@@QAE@XZ 10006280 f i Aimbot.obj
 0001:000052e0       ??4Vector@@QAEAAV0@ABV0@@Z 100062e0 f i Aimbot.obj
 0001:00005320       ??4VectorAligned@@QAEAAV0@ABVVector@@@Z 10006320 f i Aimbot.obj
 0001:00005370       ??4_Iterator_base12@std@@QAEAAU01@ABU01@@Z 10006370 f i Aimbot.obj
 0001:000053b0       ??8?$_List_unchecked_const_iterator@V?$_List_val@U?$_List_simple_types@U?$pair@$$CBV?$basic_string@DU?$char_traits@D@std@@V?$allocator@D@2@@std@@V?$shared_ptr@UNode@NetvarTree@@@2@@std@@@std@@@std@@U_Iterator_base0@2@@std@@QBE_NABV01@@Z 100063b0 f i Aimbot.obj
 0001:000053b0       ??8?$_List_const_iterator@V?$_List_val@U?$_List_simple_types@U?$pair@$$CBV?$basic_string@DU?$char_traits@D@std@@V?$allocator@D@2@@std@@V?$shared_ptr@UNode@NetvarTree@@@2@@std@@@std@@@std@@@std@@QBE_NABV01@@Z 100063b0 f i Aimbot.obj
 0001:000053e0       ??9?$_List_unchecked_const_iterator@V?$_List_val@U?$_List_simple_types@U?$pair@$$CBV?$basic_string@DU?$char_traits@D@std@@V?$allocator@D@2@@std@@V?$shared_ptr@UNode@NetvarTree@@@2@@std@@@std@@@std@@U_Iterator_base0@2@@std@@QBE_NABV01@@Z 100063e0 f i Aimbot.obj
 0001:00005420       ??9Vector@@QBE_NABV0@@Z    10006420 f i Aimbot.obj
 0001:00005480       ??A?$unordered_map@V?$basic_string@DU?$char_traits@D@std@@V?$allocator@D@2@@std@@V?$shared_ptr@UNode@NetvarTree@@@2@U?$hash@V?$basic_string@DU?$char_traits@D@std@@V?$allocator@D@2@@std@@@2@U?$equal_to@V?$basic_string@DU?$char_traits@D@std@@V?$allocator@D@2@@std@@@2@V?$allocator@U?$pair@$$CBV?$basic_string@DU?$char_traits@D@std@@V?$allocator@D@2@@std@@V?$shared_ptr@UNode@NetvarTree@@@2@@std@@@2@@std@@QAEAAV?$shared_ptr@UNode@NetvarTree@@@1@$$QAV?$basic_string@DU?$char_traits@D@std@@V?$allocator@D@2@@1@@Z 10006480 f i Aimbot.obj
 0001:000054c0       ??A?$vector@V?$_List_unchecked_iterator@V?$_List_val@U?$_List_simple_types@U?$pair@$$CBV?$basic_string@DU?$char_traits@D@std@@V?$allocator@D@2@@std@@V?$shared_ptr@UNode@NetvarTree@@@2@@std@@@std@@@std@@@std@@V?$allocator@V?$_List_unchecked_iterator@V?$_List_val@U?$_List_simple_types@U?$pair@$$CBV?$basic_string@DU?$char_traits@D@std@@V?$allocator@D@2@@std@@V?$shared_ptr@UNode@NetvarTree@@@2@@std@@@std@@@std@@@std@@@2@@std@@QAEAAV?$_List_unchecked_iterator@V?$_List_val@U?$_List_simple_types@U?$pair@$$CBV?$basic_string@DU?$char_traits@D@std@@V?$allocator@D@2@@std@@V?$shared_ptr@UNode@NetvarTree@@@2@@std@@@std@@@std@@@1@I@Z 100064c0 f i Aimbot.obj
 0001:000054e0       ??C?$_List_iterator@V?$_List_val@U?$_List_simple_types@U?$pair@$$CBV?$basic_string@DU?$char_traits@D@std@@V?$allocator@D@2@@std@@V?$shared_ptr@UNode@NetvarTree@@@2@@std@@@std@@@std@@@std@@QBEPAU?$pair@$$CBV?$basic_string@DU?$char_traits@D@std@@V?$allocator@D@2@@std@@V?$shared_ptr@UNode@NetvarTree@@@2@@1@XZ 100064e0 f i Aimbot.obj
 0001:00005500       ??D?$_Deque_const_iterator@V?$_Deque_val@U?$_Deque_simple_types@UPlayerRecords@@@std@@@std@@@std@@QBEABUPlayerRecords@@XZ 10006500 f i Aimbot.obj
 0001:00005560       ??D?$_Deque_iterator@V?$_Deque_val@U?$_Deque_simple_types@UPlayerRecords@@@std@@@std@@@std@@QBEAAUPlayerRecords@@XZ 10006560 f i Aimbot.obj
 0001:00005580       ??D?$_List_const_iterator@V?$_List_val@U?$_List_simple_types@U?$pair@$$CBV?$basic_string@DU?$char_traits@D@std@@V?$allocator@D@2@@std@@V?$shared_ptr@UNode@NetvarTree@@@2@@std@@@std@@@std@@@std@@QBEABU?$pair@$$CBV?$basic_string@DU?$char_traits@D@std@@V?$allocator@D@2@@std@@V?$shared_ptr@UNode@NetvarTree@@@2@@1@XZ 10006580 f i Aimbot.obj
 0001:00005580       ??D?$_List_unchecked_const_iterator@V?$_List_val@U?$_List_simple_types@U?$pair@$$CBV?$basic_string@DU?$char_traits@D@std@@V?$allocator@D@2@@std@@V?$shared_ptr@UNode@NetvarTree@@@2@@std@@@std@@@std@@U_Iterator_base0@2@@std@@QBEABU?$pair@$$CBV?$basic_string@DU?$char_traits@D@std@@V?$allocator@D@2@@std@@V?$shared_ptr@UNode@NetvarTree@@@2@@1@XZ 10006580 f i Aimbot.obj
 0001:000055a0       ??D?$_List_unchecked_iterator@V?$_List_val@U?$_List_simple_types@U?$pair@$$CBV?$basic_string@DU?$char_traits@D@std@@V?$allocator@D@2@@std@@V?$shared_ptr@UNode@NetvarTree@@@2@@std@@@std@@@std@@@std@@QBEAAU?$pair@$$CBV?$basic_string@DU?$char_traits@D@std@@V?$allocator@D@2@@std@@V?$shared_ptr@UNode@NetvarTree@@@2@@1@XZ 100065a0 f i Aimbot.obj
 0001:000055a0       ??D?$_List_iterator@V?$_List_val@U?$_List_simple_types@U?$pair@$$CBV?$basic_string@DU?$char_traits@D@std@@V?$allocator@D@2@@std@@V?$shared_ptr@UNode@NetvarTree@@@2@@std@@@std@@@std@@@std@@QBEAAU?$pair@$$CBV?$basic_string@DU?$char_traits@D@std@@V?$allocator@D@2@@std@@V?$shared_ptr@UNode@NetvarTree@@@2@@1@XZ 100065a0 f i Aimbot.obj
 0001:000055c0       ??DVector@@QBE?AV0@M@Z     100065c0 f i Aimbot.obj
 0001:00005630       ??E?$_List_const_iterator@V?$_List_val@U?$_List_simple_types@U?$pair@$$CBV?$basic_string@DU?$char_traits@D@std@@V?$allocator@D@2@@std@@V?$shared_ptr@UNode@NetvarTree@@@2@@std@@@std@@@std@@@std@@QAE?AV01@H@Z 10006630 f i Aimbot.obj
 0001:00005660       ??E?$_List_const_iterator@V?$_List_val@U?$_List_simple_types@U?$pair@$$CBV?$basic_string@DU?$char_traits@D@std@@V?$allocator@D@2@@std@@V?$shared_ptr@UNode@NetvarTree@@@2@@std@@@std@@@std@@@std@@QAEAAV01@XZ 10006660 f i Aimbot.obj
 0001:00005660       ??E?$_List_unchecked_const_iterator@V?$_List_val@U?$_List_simple_types@U?$pair@$$CBV?$basic_string@DU?$char_traits@D@std@@V?$allocator@D@2@@std@@V?$shared_ptr@UNode@NetvarTree@@@2@@std@@@std@@@std@@U_Iterator_base0@2@@std@@QAEAAV01@XZ 10006660 f i Aimbot.obj
 0001:00005680       ??E?$_List_unchecked_iterator@V?$_List_val@U?$_List_simple_types@U?$pair@$$CBV?$basic_string@DU?$char_traits@D@std@@V?$allocator@D@2@@std@@V?$shared_ptr@UNode@NetvarTree@@@2@@std@@@std@@@std@@@std@@QAEAAV01@XZ 10006680 f i Aimbot.obj
 0001:000056a0       ??F?$_List_unchecked_const_iterator@V?$_List_val@U?$_List_simple_types@U?$pair@$$CBV?$basic_string@DU?$char_traits@D@std@@V?$allocator@D@2@@std@@V?$shared_ptr@UNode@NetvarTree@@@2@@std@@@std@@@std@@U_Iterator_base0@2@@std@@QAEAAV01@XZ 100066a0 f i Aimbot.obj
 0001:000056c0       ??F?$_List_unchecked_iterator@V?$_List_val@U?$_List_simple_types@U?$pair@$$CBV?$basic_string@DU?$char_traits@D@std@@V?$allocator@D@2@@std@@V?$shared_ptr@UNode@NetvarTree@@@2@@std@@@std@@@std@@@std@@QAEAAV01@XZ 100066c0 f i Aimbot.obj
 0001:000056e0       ??GVector@@QBE?AV0@ABV0@@Z 100066e0 f i Aimbot.obj
 0001:00005750       ??H?$_Deque_iterator@V?$_Deque_val@U?$_Deque_simple_types@ULegitPlayerRecords@@@std@@@std@@@std@@QBE?AV01@H@Z 10006750 f i Legitbot.obj
 0001:00005750       ??H?$_Deque_iterator@V?$_Deque_val@U?$_Deque_simple_types@UPlayerRecords@@@std@@@std@@@std@@QBE?AV01@H@Z 10006750 f i Aimbot.obj
 0001:000057e0       ??HVector@@QBE?AV0@ABV0@@Z 100067e0 f i Aimbot.obj
 0001:00005850       ??R?$_Uhash_compare@V?$basic_string@DU?$char_traits@D@std@@V?$allocator@D@2@@std@@U?$hash@V?$basic_string@DU?$char_traits@D@std@@V?$allocator@D@2@@std@@@2@U?$equal_to@V?$basic_string@DU?$char_traits@D@std@@V?$allocator@D@2@@std@@@2@@std@@QBEIABV?$basic_string@DU?$char_traits@D@std@@V?$allocator@D@2@@1@@Z 10006850 f i Aimbot.obj
 0001:00005880       ??R?$_Uhash_compare@V?$basic_string@DU?$char_traits@D@std@@V?$allocator@D@2@@std@@U?$hash@V?$basic_string@DU?$char_traits@D@std@@V?$allocator@D@2@@std@@@2@U?$equal_to@V?$basic_string@DU?$char_traits@D@std@@V?$allocator@D@2@@std@@@2@@std@@QBE_NABV?$basic_string@DU?$char_traits@D@std@@V?$allocator@D@2@@1@0@Z 10006880 f i Aimbot.obj
 0001:000058d0       ??R?$equal_to@V?$basic_string@DU?$char_traits@D@std@@V?$allocator@D@2@@std@@@std@@QBE_NABV?$basic_string@DU?$char_traits@D@std@@V?$allocator@D@2@@1@0@Z 100068d0 f i Aimbot.obj
 0001:000058f0       ??R?$hash@V?$basic_string@DU?$char_traits@D@std@@V?$allocator@D@2@@std@@@std@@QBEIABV?$basic_string@DU?$char_traits@D@std@@V?$allocator@D@2@@1@@Z 100068f0 f i Aimbot.obj
 0001:00005930       ??Y?$_Deque_iterator@V?$_Deque_val@U?$_Deque_simple_types@ULegitPlayerRecords@@@std@@@std@@@std@@QAEAAV01@H@Z 10006930 f i Legitbot.obj
 0001:00005930       ??Y?$_Deque_iterator@V?$_Deque_val@U?$_Deque_simple_types@UPlayerRecords@@@std@@@std@@@std@@QAEAAV01@H@Z 10006930 f i Aimbot.obj
 0001:00005930       ??Y?$_Deque_const_iterator@V?$_Deque_val@U?$_Deque_simple_types@ULegitPlayerRecords@@@std@@@std@@@std@@QAEAAV01@H@Z 10006930 f i Legitbot.obj
 0001:00005930       ??Y?$_Deque_const_iterator@V?$_Deque_val@U?$_Deque_simple_types@UPlayerRecords@@@std@@@std@@@std@@QAEAAV01@H@Z 10006930 f i LagComp.obj
 0001:00005950       ??YVector@@QAEAAV0@ABV0@@Z 10006950 f i Aimbot.obj
 0001:000059b0       ??ZVector@@QAEAAV0@ABV0@@Z 100069b0 f i Aimbot.obj
 0001:00005a10       ?Autostop@Aimbot@@AAEXXZ   10006a10 f   Aimbot.obj
 0001:00005af0       ?GetAccuracyPenalty@C_BaseCombatWeapon@@QAEMXZ 10006af0 f i Aimbot.obj
 0001:00005bb0       ?GetActiveWeapon@C_BaseEntity@@QAEPAVC_BaseCombatWeapon@@XZ 10006bb0 f i Aimbot.obj
 0001:00005c90       ?GetAimPunchAngle@C_BaseEntity@@QAE?AVVector@@XZ 10006c90 f i Aimbot.obj
 0001:00005cc0       ?GetCSWpnData@C_BaseCombatWeapon@@QAEPAVWeaponInfo_t@@XZ 10006cc0 f i Aimbot.obj
 0001:00005ce0       ?GetEyeAngles@C_BaseEntity@@QAE?AVVector@@XZ 10006ce0 f i Aimbot.obj
 0001:00005da0       ?GetEyePosition@C_BaseEntity@@QAE?AVVector@@XZ 10006da0 f i Aimbot.obj
 0001:00005df0       ?GetFlags@C_BaseEntity@@QAE?AW4EntityFlags@@XZ 10006df0 f i Aimbot.obj
 0001:00005eb0       ?GetFloat@ConVar@@QAEMXZ   10006eb0 f i Aimbot.obj
 0001:00005ee0       ?GetHealth@C_BaseEntity@@QAEHXZ 10006ee0 f i Aimbot.obj
 0001:00005fa0       ?GetInaccuracy@C_BaseCombatWeapon@@QAEMXZ 10006fa0 f i Aimbot.obj
 0001:00005fd0       ?GetLastShotTime@C_BaseCombatWeapon@@QAEMXZ 10006fd0 f i Aimbot.obj
 0001:00006090       ?GetLifeState@C_BaseEntity@@QAE_NXZ 10007090 f i Aimbot.obj
 0001:00006150       ?GetNextPrimaryAttack@C_BaseCombatWeapon@@QAEMXZ 10007150 f i Aimbot.obj
 0001:00006210       ?GetOffsetRecursive@NetvarTree@@CAHAAV?$unordered_map@V?$basic_string@DU?$char_traits@D@std@@V?$allocator@D@2@@std@@V?$shared_ptr@UNode@NetvarTree@@@2@U?$hash@V?$basic_string@DU?$char_traits@D@std@@V?$allocator@D@2@@std@@@2@U?$equal_to@V?$basic_string@DU?$char_traits@D@std@@V?$allocator@D@2@@std@@@2@V?$allocator@U?$pair@$$CBV?$basic_string@DU?$char_traits@D@std@@V?$allocator@D@2@@std@@V?$shared_ptr@UNode@NetvarTree@@@2@@std@@@2@@std@@HPBD@Z 10007210 f i Aimbot.obj
 0001:000062a0       ?GetOrigin@C_BaseEntity@@QAE?AVVector@@XZ 100072a0 f i Aimbot.obj
 0001:00006360       ?GetSimulationTime@C_BaseEntity@@QAEMXZ 10007360 f i Aimbot.obj
 0001:00006420       ?GetSpread@C_BaseCombatWeapon@@QAEMXZ 10007420 f i Aimbot.obj
 0001:00006450       ?GetTeam@C_BaseEntity@@QAEHXZ 10007450 f i Aimbot.obj
 0001:00006510       ?GetTickBase@C_BaseEntity@@QAEHXZ 10007510 f i Aimbot.obj
 0001:000065d0       ?GetVelocity@C_BaseEntity@@QAE?AVVector@@XZ 100075d0 f i Aimbot.obj
 0001:000066a0       ?HitChance@Aimbot@@AAE_NPAVC_BaseEntity@@PAVC_BaseCombatWeapon@@VVector@@2H@Z 100076a0 f   Aimbot.obj
 0001:00006f00       ?Hitscan@Aimbot@@AAE?AVVector@@PAVC_BaseEntity@@@Z 10007f00 f   Aimbot.obj
 0001:00008100       ?Init@C_Ray@@QAEXABVVector@@0@Z 10009100 f i Aimbot.obj
 0001:000081c0       ?Init@Vector@@QAEXMMM@Z    100091c0 f i Aimbot.obj
 0001:00008200       ?IsAlive@C_BaseEntity@@QAE_NXZ 10009200 f i Aimbot.obj
 0001:00008240       ?Length2D@Vector@@QBEMXZ   10009240 f i Aimbot.obj
 0001:000082a0       ?Length@Vector@@QBEMXZ     100092a0 f i Aimbot.obj
 0001:00008310       ?LengthSqr@Vector@@QBEMXZ  10009310 f i Aimbot.obj
 0001:00008360       ?Normalize@Vector@@QAE?AV1@XZ 10009360 f i Aimbot.obj
 0001:00008410       ?NormalizeInPlace@Vector@@QAEMXZ 10009410 f i Aimbot.obj
 0001:000084d0       ?OnCreateMove@Aimbot@@QAEXXZ 100094d0 f   Aimbot.obj
 0001:00008b60       ?ShouldBaim@@YA_NPAVC_BaseEntity@@@Z 10009b60 f   Aimbot.obj
 0001:00008e80       ?_Adopt@_Iterator_base0@std@@QAEXPBX@Z 10009e80 f i Aimbot.obj
 0001:00008e80       ?_Verify_offset@?$_String_const_iterator@V?$_String_val@U?$_Simple_types@D@std@@@std@@@std@@QBEXH@Z 10009e80 f i c_esp.obj
 0001:00008e80       ?_Compat@?$_Deque_const_iterator@V?$_Deque_val@U?$_Deque_simple_types@ULegitPlayerRecords@@@std@@@std@@@std@@QBEXABV12@@Z 10009e80 f i Legitbot.obj
 0001:00008e80       ?_Compat@?$_Deque_const_iterator@V?$_Deque_val@U?$_Deque_simple_types@UPlayerRecords@@@std@@@std@@@std@@QBEXABV12@@Z 10009e80 f i LagComp.obj
 0001:00008e80       ?_Verify_offset@?$_Deque_const_iterator@V?$_Deque_val@U?$_Deque_simple_types@UPlayerRecords@@@std@@@std@@@std@@QBEXH@Z 10009e80 f i LagComp.obj
 0001:00008e80       ?_Verify_offset@?$_Deque_const_iterator@V?$_Deque_val@U?$_Deque_simple_types@ULegitPlayerRecords@@@std@@@std@@@std@@QBEXH@Z 10009e80 f i Legitbot.obj
 0001:00008e80       ?_Compat@?$_String_const_iterator@V?$_String_val@U?$_Simple_types@D@std@@@std@@@std@@QBEXABV12@@Z 10009e80 f i c_esp.obj
 0001:00008e90       ?_Adopt@_Iterator_base12@std@@QAEXPBU_Container_base12@2@@Z 10009e90 f i Aimbot.obj
 0001:00008ec0       ?_Assign_rv_contents_with_alloc_always_equal@?$basic_string@DU?$char_traits@D@std@@V?$allocator@D@2@@std@@QAEX$$QAV12@U?$integral_constant@_N$00@2@@Z 10009ec0 f i Aimbot.obj
 0001:00008f60       ?_Begin@?$_Hash@V?$_Umap_traits@V?$basic_string@DU?$char_traits@D@std@@V?$allocator@D@2@@std@@V?$shared_ptr@UNode@NetvarTree@@@2@V?$_Uhash_compare@V?$basic_string@DU?$char_traits@D@std@@V?$allocator@D@2@@std@@U?$hash@V?$basic_string@DU?$char_traits@D@std@@V?$allocator@D@2@@std@@@2@U?$equal_to@V?$basic_string@DU?$char_traits@D@std@@V?$allocator@D@2@@std@@@2@@2@V?$allocator@U?$pair@$$CBV?$basic_string@DU?$char_traits@D@std@@V?$allocator@D@2@@std@@V?$shared_ptr@UNode@NetvarTree@@@2@@std@@@2@$0A@@std@@@std@@IAE?AV?$_List_unchecked_iterator@V?$_List_val@U?$_List_simple_types@U?$pair@$$CBV?$basic_string@DU?$char_traits@D@std@@V?$allocator@D@2@@std@@V?$shared_ptr@UNode@NetvarTree@@@2@@std@@@std@@@std@@@2@I@Z 10009f60 f i Aimbot.obj
 0001:00008f90       ?_Buy@?$vector@V?$_List_unchecked_iterator@V?$_List_val@U?$_List_simple_types@U?$pair@$$CBV?$basic_string@DU?$char_traits@D@std@@V?$allocator@D@2@@std@@V?$shared_ptr@UNode@NetvarTree@@@2@@std@@@std@@@std@@@std@@V?$allocator@V?$_List_unchecked_iterator@V?$_List_val@U?$_List_simple_types@U?$pair@$$CBV?$basic_string@DU?$char_traits@D@std@@V?$allocator@D@2@@std@@V?$shared_ptr@UNode@NetvarTree@@@2@@std@@@std@@@std@@@std@@@2@@std@@AAE_NI@Z 10009f90 f i Aimbot.obj
 0001:00009050       ?_Buynode0@?$_List_alloc@U?$_List_base_types@U?$pair@$$CBV?$basic_string@DU?$char_traits@D@std@@V?$allocator@D@2@@std@@V?$shared_ptr@UNode@NetvarTree@@@2@@std@@V?$allocator@U?$pair@$$CBV?$basic_string@DU?$char_traits@D@std@@V?$allocator@D@2@@std@@V?$shared_ptr@UNode@NetvarTree@@@2@@std@@@2@@std@@@std@@QAEPAU?$_List_node@U?$pair@$$CBV?$basic_string@DU?$char_traits@D@std@@V?$allocator@D@2@@std@@V?$shared_ptr@UNode@NetvarTree@@@2@@std@@PAX@2@PAU32@0@Z 1000a050 f i Aimbot.obj
 0001:00009140       ?_Calculate_growth@?$vector@HV?$allocator@H@std@@@std@@ABEII@Z 1000a140 f i Aimbot.obj
 0001:00009140       ?_Calculate_growth@?$vector@V?$_List_unchecked_iterator@V?$_List_val@U?$_List_simple_types@U?$pair@$$CBV?$basic_string@DU?$char_traits@D@std@@V?$allocator@D@2@@std@@V?$shared_ptr@UNode@NetvarTree@@@2@@std@@@std@@@std@@@std@@V?$allocator@V?$_List_unchecked_iterator@V?$_List_val@U?$_List_simple_types@U?$pair@$$CBV?$basic_string@DU?$char_traits@D@std@@V?$allocator@D@2@@std@@V?$shared_ptr@UNode@NetvarTree@@@2@@std@@@std@@@std@@@std@@@2@@std@@ABEII@Z 1000a140 f i Aimbot.obj
 0001:00009190       ?_Change_array@?$vector@HV?$allocator@H@std@@@std@@AAEXQAHII@Z 1000a190 f i Aimbot.obj
 0001:00009190       ?_Change_array@?$vector@V?$_List_unchecked_iterator@V?$_List_val@U?$_List_simple_types@U?$pair@$$CBV?$basic_string@DU?$char_traits@D@std@@V?$allocator@D@2@@std@@V?$shared_ptr@UNode@NetvarTree@@@2@@std@@@std@@@std@@@std@@V?$allocator@V?$_List_unchecked_iterator@V?$_List_val@U?$_List_simple_types@U?$pair@$$CBV?$basic_string@DU?$char_traits@D@std@@V?$allocator@D@2@@std@@V?$shared_ptr@UNode@NetvarTree@@@2@@std@@@std@@@std@@@std@@@2@@std@@AAEXQAV?$_List_unchecked_iterator@V?$_List_val@U?$_List_simple_types@U?$pair@$$CBV?$basic_string@DU?$char_traits@D@std@@V?$allocator@D@2@@std@@V?$shared_ptr@UNode@NetvarTree@@@2@@std@@@std@@@std@@@2@II@Z 1000a190 f i Aimbot.obj
 0001:00009250       ?_Check_size@?$_Hash@V?$_Umap_traits@V?$basic_string@DU?$char_traits@D@std@@V?$allocator@D@2@@std@@V?$shared_ptr@UNode@NetvarTree@@@2@V?$_Uhash_compare@V?$basic_string@DU?$char_traits@D@std@@V?$allocator@D@2@@std@@U?$hash@V?$basic_string@DU?$char_traits@D@std@@V?$allocator@D@2@@std@@@2@U?$equal_to@V?$basic_string@DU?$char_traits@D@std@@V?$allocator@D@2@@std@@@2@@2@V?$allocator@U?$pair@$$CBV?$basic_string@DU?$char_traits@D@std@@V?$allocator@D@2@@std@@V?$shared_ptr@UNode@NetvarTree@@@2@@std@@@2@$0A@@std@@@std@@IAEXXZ 1000a250 f i Aimbot.obj
 0001:000092e0       ?_Destroy_if_node@?$_Hash@V?$_Umap_traits@V?$basic_string@DU?$char_traits@D@std@@V?$allocator@D@2@@std@@V?$shared_ptr@UNode@NetvarTree@@@2@V?$_Uhash_compare@V?$basic_string@DU?$char_traits@D@std@@V?$allocator@D@2@@std@@U?$hash@V?$basic_string@DU?$char_traits@D@std@@V?$allocator@D@2@@std@@@2@U?$equal_to@V?$basic_string@DU?$char_traits@D@std@@V?$allocator@D@2@@std@@@2@@2@V?$allocator@U?$pair@$$CBV?$basic_string@DU?$char_traits@D@std@@V?$allocator@D@2@@std@@V?$shared_ptr@UNode@NetvarTree@@@2@@std@@@2@$0A@@std@@@std@@IAEXV?$_List_unchecked_iterator@V?$_List_val@U?$_List_simple_types@U?$pair@$$CBV?$basic_string@DU?$char_traits@D@std@@V?$allocator@D@2@@std@@V?$shared_ptr@UNode@NetvarTree@@@2@@std@@@std@@@std@@@2@@Z 1000a2e0 f i Aimbot.obj
 0001:00009330       ?_End@?$_Hash@V?$_Umap_traits@V?$basic_string@DU?$char_traits@D@std@@V?$allocator@D@2@@std@@V?$shared_ptr@UNode@NetvarTree@@@2@V?$_Uhash_compare@V?$basic_string@DU?$char_traits@D@std@@V?$allocator@D@2@@std@@U?$hash@V?$basic_string@DU?$char_traits@D@std@@V?$allocator@D@2@@std@@@2@U?$equal_to@V?$basic_string@DU?$char_traits@D@std@@V?$allocator@D@2@@std@@@2@@2@V?$allocator@U?$pair@$$CBV?$basic_string@DU?$char_traits@D@std@@V?$allocator@D@2@@std@@V?$shared_ptr@UNode@NetvarTree@@@2@@std@@@2@$0A@@std@@@std@@IAE?AV?$_List_unchecked_iterator@V?$_List_val@U?$_List_simple_types@U?$pair@$$CBV?$basic_string@DU?$char_traits@D@std@@V?$allocator@D@2@@std@@V?$shared_ptr@UNode@NetvarTree@@@2@@std@@@std@@@std@@@2@I@Z 1000a330 f i Aimbot.obj
 0001:000093b0       ?_Equal@?$basic_string@DU?$char_traits@D@std@@V?$allocator@D@2@@std@@QBE_NABV12@@Z 1000a3b0 f i Aimbot.obj
 0001:00009440       ?_Erase_bucket@?$_Hash@V?$_Umap_traits@V?$basic_string@DU?$char_traits@D@std@@V?$allocator@D@2@@std@@V?$shared_ptr@UNode@NetvarTree@@@2@V?$_Uhash_compare@V?$basic_string@DU?$char_traits@D@std@@V?$allocator@D@2@@std@@U?$hash@V?$basic_string@DU?$char_traits@D@std@@V?$allocator@D@2@@std@@@2@U?$equal_to@V?$basic_string@DU?$char_traits@D@std@@V?$allocator@D@2@@std@@@2@@2@V?$allocator@U?$pair@$$CBV?$basic_string@DU?$char_traits@D@std@@V?$allocator@D@2@@std@@V?$shared_ptr@UNode@NetvarTree@@@2@@std@@@2@$0A@@std@@@std@@IAEXV?$_List_iterator@V?$_List_val@U?$_List_simple_types@U?$pair@$$CBV?$basic_string@DU?$char_traits@D@std@@V?$allocator@D@2@@std@@V?$shared_ptr@UNode@NetvarTree@@@2@@std@@@std@@@std@@@2@I@Z 1000a440 f i Aimbot.obj
 0001:00009550       ?_Fnv1a_append_bytes@std@@YAIIQBEI@Z 1000a550 f i Aimbot.obj
 0001:00009590       ?_Getkeyeq@?$_Uhash_compare@V?$basic_string@DU?$char_traits@D@std@@V?$allocator@D@2@@std@@U?$hash@V?$basic_string@DU?$char_traits@D@std@@V?$allocator@D@2@@std@@@2@U?$equal_to@V?$basic_string@DU?$char_traits@D@std@@V?$allocator@D@2@@std@@@2@@std@@QBEABU?$equal_to@V?$basic_string@DU?$char_traits@D@std@@V?$allocator@D@2@@std@@@2@XZ 1000a590 f i Aimbot.obj
 0001:00009590       ?_Get_max_bucket_size@?$_Uhash_compare@V?$basic_string@DU?$char_traits@D@std@@V?$allocator@D@2@@std@@U?$hash@V?$basic_string@DU?$char_traits@D@std@@V?$allocator@D@2@@std@@@2@U?$equal_to@V?$basic_string@DU?$char_traits@D@std@@V?$allocator@D@2@@std@@@2@@std@@QBEABMXZ 1000a590 f i Aimbot.obj
 0001:00009590       ?_Get_max_bucket_size@?$_Uhash_compare@V?$basic_string@DU?$char_traits@D@std@@V?$allocator@D@2@@std@@U?$hash@V?$basic_string@DU?$char_traits@D@std@@V?$allocator@D@2@@std@@@2@U?$equal_to@V?$basic_string@DU?$char_traits@D@std@@V?$allocator@D@2@@std@@@2@@std@@QAEAAMXZ 1000a590 f i NetvarManager.obj
 0001:000095b0       ?_Getblock@?$_Deque_val@U?$_Deque_simple_types@UPlayerRecords@@@std@@@std@@QBEII@Z 1000a5b0 f i Aimbot.obj
 0001:000095b0       ?_Getblock@?$_Deque_val@U?$_Deque_simple_types@ULegitPlayerRecords@@@std@@@std@@QBEII@Z 1000a5b0 f i Legitbot.obj
 0001:000095d0       ?_Getcont@_Iterator_base0@std@@QBEPBU_Container_base0@2@XZ 1000a5d0 f i Aimbot.obj
 0001:000095d0       ?GetTraceType@C_TraceFilter@@UBE?AW4TraceType_t@@XZ 1000a5d0 f i Autowall.obj
 0001:000095e0       ?_Getcont@_Iterator_base12@std@@QBEPBU_Container_base12@2@XZ 1000a5e0 f i Aimbot.obj
 0001:00009610       ?_Has_unused_capacity@?$vector@HV?$allocator@H@std@@@std@@ABE_NXZ 1000a610 f i Aimbot.obj
 0001:00009650       ?_Hashval@?$_Hash@V?$_Umap_traits@V?$basic_string@DU?$char_traits@D@std@@V?$allocator@D@2@@std@@V?$shared_ptr@UNode@NetvarTree@@@2@V?$_Uhash_compare@V?$basic_string@DU?$char_traits@D@std@@V?$allocator@D@2@@std@@U?$hash@V?$basic_string@DU?$char_traits@D@std@@V?$allocator@D@2@@std@@@2@U?$equal_to@V?$basic_string@DU?$char_traits@D@std@@V?$allocator@D@2@@std@@@2@@2@V?$allocator@U?$pair@$$CBV?$basic_string@DU?$char_traits@D@std@@V?$allocator@D@2@@std@@V?$shared_ptr@UNode@NetvarTree@@@2@@std@@@2@$0A@@std@@@std@@IBEIABV?$basic_string@DU?$char_traits@D@std@@V?$allocator@D@2@@2@@Z 1000a650 f i Aimbot.obj
 0001:00009680       ?_Incsize@?$list@U?$pair@$$CBV?$basic_string@DU?$char_traits@D@std@@V?$allocator@D@2@@std@@V?$shared_ptr@UNode@NetvarTree@@@2@@std@@V?$allocator@U?$pair@$$CBV?$basic_string@DU?$char_traits@D@std@@V?$allocator@D@2@@std@@V?$shared_ptr@UNode@NetvarTree@@@2@@std@@@2@@std@@QAEXI@Z 1000a680 f i Aimbot.obj
 0001:000096d0       ?_Init@?$_Hash@V?$_Umap_traits@V?$basic_string@DU?$char_traits@D@std@@V?$allocator@D@2@@std@@V?$shared_ptr@UNode@NetvarTree@@@2@V?$_Uhash_compare@V?$basic_string@DU?$char_traits@D@std@@V?$allocator@D@2@@std@@U?$hash@V?$basic_string@DU?$char_traits@D@std@@V?$allocator@D@2@@std@@@2@U?$equal_to@V?$basic_string@DU?$char_traits@D@std@@V?$allocator@D@2@@std@@@2@@2@V?$allocator@U?$pair@$$CBV?$basic_string@DU?$char_traits@D@std@@V?$allocator@D@2@@std@@V?$shared_ptr@UNode@NetvarTree@@@2@@std@@@2@$0A@@std@@@std@@IAEXI@Z 1000a6d0 f i Aimbot.obj
 0001:00009730       ?_Insert_bucket@?$_Hash@V?$_Umap_traits@V?$basic_string@DU?$char_traits@D@std@@V?$allocator@D@2@@std@@V?$shared_ptr@UNode@NetvarTree@@@2@V?$_Uhash_compare@V?$basic_string@DU?$char_traits@D@std@@V?$allocator@D@2@@std@@U?$hash@V?$basic_string@DU?$char_traits@D@std@@V?$allocator@D@2@@std@@@2@U?$equal_to@V?$basic_string@DU?$char_traits@D@std@@V?$allocator@D@2@@std@@@2@@2@V?$allocator@U?$pair@$$CBV?$basic_string@DU?$char_traits@D@std@@V?$allocator@D@2@@std@@V?$shared_ptr@UNode@NetvarTree@@@2@@std@@@2@$0A@@std@@@std@@IAEXV?$_List_unchecked_iterator@V?$_List_val@U?$_List_simple_types@U?$pair@$$CBV?$basic_string@DU?$char_traits@D@std@@V?$allocator@D@2@@std@@V?$shared_ptr@UNode@NetvarTree@@@2@@std@@@std@@@std@@@2@0I@Z 1000a730 f i Aimbot.obj
 0001:00009820       ?_Make_iter@?$_Hash@V?$_Umap_traits@V?$basic_string@DU?$char_traits@D@std@@V?$allocator@D@2@@std@@V?$shared_ptr@UNode@NetvarTree@@@2@V?$_Uhash_compare@V?$basic_string@DU?$char_traits@D@std@@V?$allocator@D@2@@std@@U?$hash@V?$basic_string@DU?$char_traits@D@std@@V?$allocator@D@2@@std@@@2@U?$equal_to@V?$basic_string@DU?$char_traits@D@std@@V?$allocator@D@2@@std@@@2@@2@V?$allocator@U?$pair@$$CBV?$basic_string@DU?$char_traits@D@std@@V?$allocator@D@2@@std@@V?$shared_ptr@UNode@NetvarTree@@@2@@std@@@2@$0A@@std@@@std@@QBE?AV?$_List_iterator@V?$_List_val@U?$_List_simple_types@U?$pair@$$CBV?$basic_string@DU?$char_traits@D@std@@V?$allocator@D@2@@std@@V?$shared_ptr@UNode@NetvarTree@@@2@@std@@@std@@@std@@@2@V?$_List_const_iterator@V?$_List_val@U?$_List_simple_types@U?$pair@$$CBV?$basic_string@DU?$char_traits@D@std@@V?$allocator@D@2@@std@@V?$shared_ptr@UNode@NetvarTree@@@2@@std@@@std@@@std@@@2@@Z 1000a820 f i Aimbot.obj
 0001:00009850       ?_Make_iter@?$_Hash@V?$_Umap_traits@V?$basic_string@DU?$char_traits@D@std@@V?$allocator@D@2@@std@@V?$shared_ptr@UNode@NetvarTree@@@2@V?$_Uhash_compare@V?$basic_string@DU?$char_traits@D@std@@V?$allocator@D@2@@std@@U?$hash@V?$basic_string@DU?$char_traits@D@std@@V?$allocator@D@2@@std@@@2@U?$equal_to@V?$basic_string@DU?$char_traits@D@std@@V?$allocator@D@2@@std@@@2@@2@V?$allocator@U?$pair@$$CBV?$basic_string@DU?$char_traits@D@std@@V?$allocator@D@2@@std@@V?$shared_ptr@UNode@NetvarTree@@@2@@std@@@2@$0A@@std@@@std@@QBE?AV?$_List_iterator@V?$_List_val@U?$_List_simple_types@U?$pair@$$CBV?$basic_string@DU?$char_traits@D@std@@V?$allocator@D@2@@std@@V?$shared_ptr@UNode@NetvarTree@@@2@@std@@@std@@@std@@@2@V?$_List_unchecked_const_iterator@V?$_List_val@U?$_List_simple_types@U?$pair@$$CBV?$basic_string@DU?$char_traits@D@std@@V?$allocator@D@2@@std@@V?$shared_ptr@UNode@NetvarTree@@@2@@std@@@std@@@std@@U_Iterator_base0@2@@2@@Z 1000a850 f i Aimbot.obj
 0001:00009880       ?_Make_iter@?$list@U?$pair@$$CBV?$basic_string@DU?$char_traits@D@std@@V?$allocator@D@2@@std@@V?$shared_ptr@UNode@NetvarTree@@@2@@std@@V?$allocator@U?$pair@$$CBV?$basic_string@DU?$char_traits@D@std@@V?$allocator@D@2@@std@@V?$shared_ptr@UNode@NetvarTree@@@2@@std@@@2@@std@@QBE?AV?$_List_iterator@V?$_List_val@U?$_List_simple_types@U?$pair@$$CBV?$basic_string@DU?$char_traits@D@std@@V?$allocator@D@2@@std@@V?$shared_ptr@UNode@NetvarTree@@@2@@std@@@std@@@std@@@2@V?$_List_const_iterator@V?$_List_val@U?$_List_simple_types@U?$pair@$$CBV?$basic_string@DU?$char_traits@D@std@@V?$allocator@D@2@@std@@V?$shared_ptr@UNode@NetvarTree@@@2@@std@@@std@@@std@@@2@@Z 1000a880 f i Aimbot.obj
 0001:000098f0       ?_Make_iter@?$list@U?$pair@$$CBV?$basic_string@DU?$char_traits@D@std@@V?$allocator@D@2@@std@@V?$shared_ptr@UNode@NetvarTree@@@2@@std@@V?$allocator@U?$pair@$$CBV?$basic_string@DU?$char_traits@D@std@@V?$allocator@D@2@@std@@V?$shared_ptr@UNode@NetvarTree@@@2@@std@@@2@@std@@QBE?AV?$_List_iterator@V?$_List_val@U?$_List_simple_types@U?$pair@$$CBV?$basic_string@DU?$char_traits@D@std@@V?$allocator@D@2@@std@@V?$shared_ptr@UNode@NetvarTree@@@2@@std@@@std@@@std@@@2@V?$_List_unchecked_const_iterator@V?$_List_val@U?$_List_simple_types@U?$pair@$$CBV?$basic_string@DU?$char_traits@D@std@@V?$allocator@D@2@@std@@V?$shared_ptr@UNode@NetvarTree@@@2@@std@@@std@@@std@@U_Iterator_base0@2@@2@@Z 1000a8f0 f i Aimbot.obj
 0001:00009920       ?_Max_bucket_size@?$_Hash@V?$_Umap_traits@V?$basic_string@DU?$char_traits@D@std@@V?$allocator@D@2@@std@@V?$shared_ptr@UNode@NetvarTree@@@2@V?$_Uhash_compare@V?$basic_string@DU?$char_traits@D@std@@V?$allocator@D@2@@std@@U?$hash@V?$basic_string@DU?$char_traits@D@std@@V?$allocator@D@2@@std@@@2@U?$equal_to@V?$basic_string@DU?$char_traits@D@std@@V?$allocator@D@2@@std@@@2@@2@V?$allocator@U?$pair@$$CBV?$basic_string@DU?$char_traits@D@std@@V?$allocator@D@2@@std@@V?$shared_ptr@UNode@NetvarTree@@@2@@std@@@2@$0A@@std@@@std@@IAEAAMXZ 1000a920 f i NetvarManager.obj
 0001:00009920       ?_Max_bucket_size@?$_Hash@V?$_Umap_traits@V?$basic_string@DU?$char_traits@D@std@@V?$allocator@D@2@@std@@V?$shared_ptr@UNode@NetvarTree@@@2@V?$_Uhash_compare@V?$basic_string@DU?$char_traits@D@std@@V?$allocator@D@2@@std@@U?$hash@V?$basic_string@DU?$char_traits@D@std@@V?$allocator@D@2@@std@@@2@U?$equal_to@V?$basic_string@DU?$char_traits@D@std@@V?$allocator@D@2@@std@@@2@@2@V?$allocator@U?$pair@$$CBV?$basic_string@DU?$char_traits@D@std@@V?$allocator@D@2@@std@@V?$shared_ptr@UNode@NetvarTree@@@2@@std@@@2@$0A@@std@@@std@@IBEABMXZ 1000a920 f i Aimbot.obj
 0001:00009940       ?_Myoff@?$_Deque_alloc@U?$_Deque_base_types@UPlayerRecords@@V?$allocator@UPlayerRecords@@@std@@@std@@@std@@QAEAAIXZ 1000a940 f i Aimbot.obj
 0001:00009940       ?_Myoff@?$_Deque_alloc@U?$_Deque_base_types@ULegitPlayerRecords@@V?$allocator@ULegitPlayerRecords@@@std@@@std@@@std@@QAEAAIXZ 1000a940 f i Legitbot.obj
 0001:00009960       ?_Mysize@?$_Deque_alloc@U?$_Deque_base_types@UPlayerRecords@@V?$allocator@UPlayerRecords@@@std@@@std@@@std@@QAEAAIXZ 1000a960 f i Aimbot.obj
 0001:00009960       ?_Mysize@?$_Deque_alloc@U?$_Deque_base_types@ULegitPlayerRecords@@V?$allocator@ULegitPlayerRecords@@@std@@@std@@@std@@QBEABIXZ 1000a960 f i Legitbot.obj
 0001:00009960       ?_Mysize@?$_Deque_alloc@U?$_Deque_base_types@UPlayerRecords@@V?$allocator@UPlayerRecords@@@std@@@std@@@std@@QBEABIXZ 1000a960 f i Aimbot.obj
 0001:00009960       ?_Mysize@?$_Deque_alloc@U?$_Deque_base_types@ULegitPlayerRecords@@V?$allocator@ULegitPlayerRecords@@@std@@@std@@@std@@QAEAAIXZ 1000a960 f i Legitbot.obj
 0001:00009980       ?_Orphan_range@?$vector@HV?$allocator@H@std@@@std@@ABEXPAH0@Z 1000a980 f i Aimbot.obj
 0001:00009990       ?_Reallocate_exactly@?$vector@V?$_List_unchecked_iterator@V?$_List_val@U?$_List_simple_types@U?$pair@$$CBV?$basic_string@DU?$char_traits@D@std@@V?$allocator@D@2@@std@@V?$shared_ptr@UNode@NetvarTree@@@2@@std@@@std@@@std@@@std@@V?$allocator@V?$_List_unchecked_iterator@V?$_List_val@U?$_List_simple_types@U?$pair@$$CBV?$basic_string@DU?$char_traits@D@std@@V?$allocator@D@2@@std@@V?$shared_ptr@UNode@NetvarTree@@@2@@std@@@std@@@std@@@std@@@2@@std@@AAEXI@Z 1000a990 f i Aimbot.obj
 0001:00009a80       ?_Reinsert@?$_Hash@V?$_Umap_traits@V?$basic_string@DU?$char_traits@D@std@@V?$allocator@D@2@@std@@V?$shared_ptr@UNode@NetvarTree@@@2@V?$_Uhash_compare@V?$basic_string@DU?$char_traits@D@std@@V?$allocator@D@2@@std@@U?$hash@V?$basic_string@DU?$char_traits@D@std@@V?$allocator@D@2@@std@@@2@U?$equal_to@V?$basic_string@DU?$char_traits@D@std@@V?$allocator@D@2@@std@@@2@@2@V?$allocator@U?$pair@$$CBV?$basic_string@DU?$char_traits@D@std@@V?$allocator@D@2@@std@@V?$shared_ptr@UNode@NetvarTree@@@2@@std@@@2@$0A@@std@@@std@@IAEXXZ 1000aa80 f i Aimbot.obj
 0001:00009b10       ?_Release@?$_Uninitialized_backout_al@PAV?$_List_unchecked_iterator@V?$_List_val@U?$_List_simple_types@U?$pair@$$CBV?$basic_string@DU?$char_traits@D@std@@V?$allocator@D@2@@std@@V?$shared_ptr@UNode@NetvarTree@@@2@@std@@@std@@@std@@@std@@V?$allocator@V?$_List_unchecked_iterator@V?$_List_val@U?$_List_simple_types@U?$pair@$$CBV?$basic_string@DU?$char_traits@D@std@@V?$allocator@D@2@@std@@V?$shared_ptr@UNode@NetvarTree@@@2@@std@@@std@@@std@@@std@@@2@@std@@QAEPAV?$_List_unchecked_iterator@V?$_List_val@U?$_List_simple_types@U?$pair@$$CBV?$basic_string@DU?$char_traits@D@std@@V?$allocator@D@2@@std@@V?$shared_ptr@UNode@NetvarTree@@@2@@std@@@std@@@std@@@2@XZ 1000ab10 f i Aimbot.obj
 0001:00009b30       ?_Setcont@?$_Deque_const_iterator@V?$_Deque_val@U?$_Deque_simple_types@ULegitPlayerRecords@@@std@@@std@@@std@@QAEXPBV?$_Deque_val@U?$_Deque_simple_types@ULegitPlayerRecords@@@std@@@2@@Z 1000ab30 f i Legitbot.obj
 0001:00009b30       ?_Setcont@?$_Deque_const_iterator@V?$_Deque_val@U?$_Deque_simple_types@UPlayerRecords@@@std@@@std@@@std@@QAEXPBV?$_Deque_val@U?$_Deque_simple_types@UPlayerRecords@@@std@@@2@@Z 1000ab30 f i Aimbot.obj
 0001:00009b50       ?_Ufill@?$vector@V?$_List_unchecked_iterator@V?$_List_val@U?$_List_simple_types@U?$pair@$$CBV?$basic_string@DU?$char_traits@D@std@@V?$allocator@D@2@@std@@V?$shared_ptr@UNode@NetvarTree@@@2@@std@@@std@@@std@@@std@@V?$allocator@V?$_List_unchecked_iterator@V?$_List_val@U?$_List_simple_types@U?$pair@$$CBV?$basic_string@DU?$char_traits@D@std@@V?$allocator@D@2@@std@@V?$shared_ptr@UNode@NetvarTree@@@2@@std@@@std@@@std@@@std@@@2@@std@@AAEPAV?$_List_unchecked_iterator@V?$_List_val@U?$_List_simple_types@U?$pair@$$CBV?$basic_string@DU?$char_traits@D@std@@V?$allocator@D@2@@std@@V?$shared_ptr@UNode@NetvarTree@@@2@@std@@@std@@@std@@@2@PAV32@IABV32@@Z 1000ab50 f i Aimbot.obj
 0001:00009b80       ?_Umove@?$vector@HV?$allocator@H@std@@@std@@AAEPAHPAH00@Z 1000ab80 f i Aimbot.obj
 0001:00009bb0       ?_Umove_if_noexcept1@?$vector@HV?$allocator@H@std@@@std@@AAEXPAH00U?$integral_constant@_N$00@2@@Z 1000abb0 f i Aimbot.obj
 0001:00009be0       ?_Umove_if_noexcept1@?$vector@V?$_List_unchecked_iterator@V?$_List_val@U?$_List_simple_types@U?$pair@$$CBV?$basic_string@DU?$char_traits@D@std@@V?$allocator@D@2@@std@@V?$shared_ptr@UNode@NetvarTree@@@2@@std@@@std@@@std@@@std@@V?$allocator@V?$_List_unchecked_iterator@V?$_List_val@U?$_List_simple_types@U?$pair@$$CBV?$basic_string@DU?$char_traits@D@std@@V?$allocator@D@2@@std@@V?$shared_ptr@UNode@NetvarTree@@@2@@std@@@std@@@std@@@std@@@2@@std@@AAEXPAV?$_List_unchecked_iterator@V?$_List_val@U?$_List_simple_types@U?$pair@$$CBV?$basic_string@DU?$char_traits@D@std@@V?$allocator@D@2@@std@@V?$shared_ptr@UNode@NetvarTree@@@2@@std@@@std@@@std@@@2@00U?$integral_constant@_N$00@2@@Z 1000abe0 f i Aimbot.obj
 0001:00009c10       ?_Umove_if_noexcept@?$vector@HV?$allocator@H@std@@@std@@AAEXPAH00@Z 1000ac10 f i Aimbot.obj
 0001:00009c40       ?_Umove_if_noexcept@?$vector@V?$_List_unchecked_iterator@V?$_List_val@U?$_List_simple_types@U?$pair@$$CBV?$basic_string@DU?$char_traits@D@std@@V?$allocator@D@2@@std@@V?$shared_ptr@UNode@NetvarTree@@@2@@std@@@std@@@std@@@std@@V?$allocator@V?$_List_unchecked_iterator@V?$_List_val@U?$_List_simple_types@U?$pair@$$CBV?$basic_string@DU?$char_traits@D@std@@V?$allocator@D@2@@std@@V?$shared_ptr@UNode@NetvarTree@@@2@@std@@@std@@@std@@@std@@@2@@std@@AAEXPAV?$_List_unchecked_iterator@V?$_List_val@U?$_List_simple_types@U?$pair@$$CBV?$basic_string@DU?$char_traits@D@std@@V?$allocator@D@2@@std@@V?$shared_ptr@UNode@NetvarTree@@@2@@std@@@std@@@std@@@2@00@Z 1000ac40 f i Aimbot.obj
 0001:00009c70       ?_Unchecked_begin@?$_Hash@V?$_Umap_traits@V?$basic_string@DU?$char_traits@D@std@@V?$allocator@D@2@@std@@V?$shared_ptr@UNode@NetvarTree@@@2@V?$_Uhash_compare@V?$basic_string@DU?$char_traits@D@std@@V?$allocator@D@2@@std@@U?$hash@V?$basic_string@DU?$char_traits@D@std@@V?$allocator@D@2@@std@@@2@U?$equal_to@V?$basic_string@DU?$char_traits@D@std@@V?$allocator@D@2@@std@@@2@@2@V?$allocator@U?$pair@$$CBV?$basic_string@DU?$char_traits@D@std@@V?$allocator@D@2@@std@@V?$shared_ptr@UNode@NetvarTree@@@2@@std@@@2@$0A@@std@@@std@@QAE?AV?$_List_unchecked_iterator@V?$_List_val@U?$_List_simple_types@U?$pair@$$CBV?$basic_string@DU?$char_traits@D@std@@V?$allocator@D@2@@std@@V?$shared_ptr@UNode@NetvarTree@@@2@@std@@@std@@@std@@@2@XZ 1000ac70 f i Aimbot.obj
 0001:00009ca0       ?_Unchecked_begin@?$list@U?$pair@$$CBV?$basic_string@DU?$char_traits@D@std@@V?$allocator@D@2@@std@@V?$shared_ptr@UNode@NetvarTree@@@2@@std@@V?$allocator@U?$pair@$$CBV?$basic_string@DU?$char_traits@D@std@@V?$allocator@D@2@@std@@V?$shared_ptr@UNode@NetvarTree@@@2@@std@@@2@@std@@QAE?AV?$_List_unchecked_iterator@V?$_List_val@U?$_List_simple_types@U?$pair@$$CBV?$basic_string@DU?$char_traits@D@std@@V?$allocator@D@2@@std@@V?$shared_ptr@UNode@NetvarTree@@@2@@std@@@std@@@std@@@2@XZ 1000aca0 f i Aimbot.obj
 0001:00009cd0       ?_Unchecked_begin@?$vector@HV?$allocator@H@std@@@std@@QAEPAHXZ 1000acd0 f i Aimbot.obj
 0001:00009cf0       ?_Unchecked_end@?$_Hash@V?$_Umap_traits@V?$basic_string@DU?$char_traits@D@std@@V?$allocator@D@2@@std@@V?$shared_ptr@UNode@NetvarTree@@@2@V?$_Uhash_compare@V?$basic_string@DU?$char_traits@D@std@@V?$allocator@D@2@@std@@U?$hash@V?$basic_string@DU?$char_traits@D@std@@V?$allocator@D@2@@std@@@2@U?$equal_to@V?$basic_string@DU?$char_traits@D@std@@V?$allocator@D@2@@std@@@2@@2@V?$allocator@U?$pair@$$CBV?$basic_string@DU?$char_traits@D@std@@V?$allocator@D@2@@std@@V?$shared_ptr@UNode@NetvarTree@@@2@@std@@@2@$0A@@std@@@std@@QAE?AV?$_List_unchecked_iterator@V?$_List_val@U?$_List_simple_types@U?$pair@$$CBV?$basic_string@DU?$char_traits@D@std@@V?$allocator@D@2@@std@@V?$shared_ptr@UNode@NetvarTree@@@2@@std@@@std@@@std@@@2@XZ 1000acf0 f i Aimbot.obj
 0001:00009d20       ?_Unchecked_end@?$list@U?$pair@$$CBV?$basic_string@DU?$char_traits@D@std@@V?$allocator@D@2@@std@@V?$shared_ptr@UNode@NetvarTree@@@2@@std@@V?$allocator@U?$pair@$$CBV?$basic_string@DU?$char_traits@D@std@@V?$allocator@D@2@@std@@V?$shared_ptr@UNode@NetvarTree@@@2@@std@@@2@@std@@QAE?AV?$_List_unchecked_iterator@V?$_List_val@U?$_List_simple_types@U?$pair@$$CBV?$basic_string@DU?$char_traits@D@std@@V?$allocator@D@2@@std@@V?$shared_ptr@UNode@NetvarTree@@@2@@std@@@std@@@std@@@2@XZ 1000ad20 f i Aimbot.obj
 0001:00009d50       ?_Unchecked_end@?$vector@HV?$allocator@H@std@@@std@@QAEPAHXZ 1000ad50 f i Aimbot.obj
 0001:00009d50       ?size@?$list@U?$pair@$$CBV?$basic_string@DU?$char_traits@D@std@@V?$allocator@D@2@@std@@V?$shared_ptr@UNode@NetvarTree@@@2@@std@@V?$allocator@U?$pair@$$CBV?$basic_string@DU?$char_traits@D@std@@V?$allocator@D@2@@std@@V?$shared_ptr@UNode@NetvarTree@@@2@@std@@@2@@std@@QBEIXZ 1000ad50 f i Aimbot.obj
 0001:00009d70       ?_Unchecked_splice@?$list@U?$pair@$$CBV?$basic_string@DU?$char_traits@D@std@@V?$allocator@D@2@@std@@V?$shared_ptr@UNode@NetvarTree@@@2@@std@@V?$allocator@U?$pair@$$CBV?$basic_string@DU?$char_traits@D@std@@V?$allocator@D@2@@std@@V?$shared_ptr@UNode@NetvarTree@@@2@@std@@@2@@std@@QAEXV?$_List_unchecked_const_iterator@V?$_List_val@U?$_List_simple_types@U?$pair@$$CBV?$basic_string@DU?$char_traits@D@std@@V?$allocator@D@2@@std@@V?$shared_ptr@UNode@NetvarTree@@@2@@std@@@std@@@std@@U_Iterator_base0@2@@2@00@Z 1000ad70 f i Aimbot.obj
 0001:00009dd0       ?_Unlinknode@?$list@U?$pair@$$CBV?$basic_string@DU?$char_traits@D@std@@V?$allocator@D@2@@std@@V?$shared_ptr@UNode@NetvarTree@@@2@@std@@V?$allocator@U?$pair@$$CBV?$basic_string@DU?$char_traits@D@std@@V?$allocator@D@2@@std@@V?$shared_ptr@UNode@NetvarTree@@@2@@std@@@2@@std@@QAEPAU?$_List_node@U?$pair@$$CBV?$basic_string@DU?$char_traits@D@std@@V?$allocator@D@2@@std@@V?$shared_ptr@UNode@NetvarTree@@@2@@std@@PAX@2@V?$_List_const_iterator@V?$_List_val@U?$_List_simple_types@U?$pair@$$CBV?$basic_string@DU?$char_traits@D@std@@V?$allocator@D@2@@std@@V?$shared_ptr@UNode@NetvarTree@@@2@@std@@@std@@@std@@@2@@Z 1000add0 f i Aimbot.obj
 0001:00009e20       ?_Unwrapped@?$_List_iterator@V?$_List_val@U?$_List_simple_types@U?$pair@$$CBV?$basic_string@DU?$char_traits@D@std@@V?$allocator@D@2@@std@@V?$shared_ptr@UNode@NetvarTree@@@2@@std@@@std@@@std@@@std@@QBE?AV?$_List_unchecked_iterator@V?$_List_val@U?$_List_simple_types@U?$pair@$$CBV?$basic_string@DU?$char_traits@D@std@@V?$allocator@D@2@@std@@V?$shared_ptr@UNode@NetvarTree@@@2@@std@@@std@@@std@@@2@XZ 1000ae20 f i Aimbot.obj
 0001:00009e60       ?_Vec_hi@?$_Hash@V?$_Umap_traits@V?$basic_string@DU?$char_traits@D@std@@V?$allocator@D@2@@std@@V?$shared_ptr@UNode@NetvarTree@@@2@V?$_Uhash_compare@V?$basic_string@DU?$char_traits@D@std@@V?$allocator@D@2@@std@@U?$hash@V?$basic_string@DU?$char_traits@D@std@@V?$allocator@D@2@@std@@@2@U?$equal_to@V?$basic_string@DU?$char_traits@D@std@@V?$allocator@D@2@@std@@@2@@2@V?$allocator@U?$pair@$$CBV?$basic_string@DU?$char_traits@D@std@@V?$allocator@D@2@@std@@V?$shared_ptr@UNode@NetvarTree@@@2@@std@@@2@$0A@@std@@@std@@IAEAAV?$_List_unchecked_iterator@V?$_List_val@U?$_List_simple_types@U?$pair@$$CBV?$basic_string@DU?$char_traits@D@std@@V?$allocator@D@2@@std@@V?$shared_ptr@UNode@NetvarTree@@@2@@std@@@std@@@std@@@2@I@Z 1000ae60 f i Aimbot.obj
 0001:00009e90       ?_Vec_lo@?$_Hash@V?$_Umap_traits@V?$basic_string@DU?$char_traits@D@std@@V?$allocator@D@2@@std@@V?$shared_ptr@UNode@NetvarTree@@@2@V?$_Uhash_compare@V?$basic_string@DU?$char_traits@D@std@@V?$allocator@D@2@@std@@U?$hash@V?$basic_string@DU?$char_traits@D@std@@V?$allocator@D@2@@std@@@2@U?$equal_to@V?$basic_string@DU?$char_traits@D@std@@V?$allocator@D@2@@std@@@2@@2@V?$allocator@U?$pair@$$CBV?$basic_string@DU?$char_traits@D@std@@V?$allocator@D@2@@std@@V?$shared_ptr@UNode@NetvarTree@@@2@@std@@@2@$0A@@std@@@std@@IAEAAV?$_List_unchecked_iterator@V?$_List_val@U?$_List_simple_types@U?$pair@$$CBV?$basic_string@DU?$char_traits@D@std@@V?$allocator@D@2@@std@@V?$shared_ptr@UNode@NetvarTree@@@2@@std@@@std@@@std@@@2@I@Z 1000ae90 f i Aimbot.obj
 0001:00009ec0       ?_Xlength@?$vector@V?$_List_unchecked_iterator@V?$_List_val@U?$_List_simple_types@U?$pair@$$CBV?$basic_string@DU?$char_traits@D@std@@V?$allocator@D@2@@std@@V?$shared_ptr@UNode@NetvarTree@@@2@@std@@@std@@@std@@@std@@V?$allocator@V?$_List_unchecked_iterator@V?$_List_val@U?$_List_simple_types@U?$pair@$$CBV?$basic_string@DU?$char_traits@D@std@@V?$allocator@D@2@@std@@V?$shared_ptr@UNode@NetvarTree@@@2@@std@@@std@@@std@@@std@@@2@@std@@CAXXZ 1000aec0 f i Aimbot.obj
 0001:00009ec0       ?_Xlength@?$vector@HV?$allocator@H@std@@@std@@CAXXZ 1000aec0 f i Aimbot.obj
 0001:00009ed0       ?_Xran@?$deque@ULegitPlayerRecords@@V?$allocator@ULegitPlayerRecords@@@std@@@std@@IBEXXZ 1000aed0 f i Legitbot.obj
 0001:00009ed0       ?_Xran@?$deque@UPlayerRecords@@V?$allocator@UPlayerRecords@@@std@@@std@@IBEXXZ 1000aed0 f i Aimbot.obj
 0001:00009ef0       ?fabs@@YAMM@Z              1000aef0 f i Aimbot.obj
 0001:00009ef0       ?abs@@YAMM@Z               1000aef0 f i Aimbot.obj
 0001:00009f10       ?allocate@?$allocator@PAUPlayerRecords@@@std@@QAEPAPAUPlayerRecords@@I@Z 1000af10 f i LagComp.obj
 0001:00009f10       ?allocate@?$allocator@V?$_List_unchecked_iterator@V?$_List_val@U?$_List_simple_types@U?$pair@$$CBV?$basic_string@DU?$char_traits@D@std@@V?$allocator@D@2@@std@@V?$shared_ptr@UNode@NetvarTree@@@2@@std@@@std@@@std@@@std@@@std@@QAEPAV?$_List_unchecked_iterator@V?$_List_val@U?$_List_simple_types@U?$pair@$$CBV?$basic_string@DU?$char_traits@D@std@@V?$allocator@D@2@@std@@V?$shared_ptr@UNode@NetvarTree@@@2@@std@@@std@@@std@@@2@I@Z 1000af10 f i Aimbot.obj
 0001:00009f10       ?allocate@?$allocator@PAULegitPlayerRecords@@@std@@QAEPAPAULegitPlayerRecords@@I@Z 1000af10 f i Legitbot.obj
 0001:00009f10       ?allocate@?$allocator@H@std@@QAEPAHI@Z 1000af10 f i Aimbot.obj
 0001:00009f40       ?allocate@?$allocator@U?$_List_node@U?$pair@$$CBV?$basic_string@DU?$char_traits@D@std@@V?$allocator@D@2@@std@@V?$shared_ptr@UNode@NetvarTree@@@2@@std@@PAX@std@@@std@@QAEPAU?$_List_node@U?$pair@$$CBV?$basic_string@DU?$char_traits@D@std@@V?$allocator@D@2@@std@@V?$shared_ptr@UNode@NetvarTree@@@2@@std@@PAX@2@I@Z 1000af40 f i Aimbot.obj
 0001:00009f70       ?assign@?$vector@V?$_List_unchecked_iterator@V?$_List_val@U?$_List_simple_types@U?$pair@$$CBV?$basic_string@DU?$char_traits@D@std@@V?$allocator@D@2@@std@@V?$shared_ptr@UNode@NetvarTree@@@2@@std@@@std@@@std@@@std@@V?$allocator@V?$_List_unchecked_iterator@V?$_List_val@U?$_List_simple_types@U?$pair@$$CBV?$basic_string@DU?$char_traits@D@std@@V?$allocator@D@2@@std@@V?$shared_ptr@UNode@NetvarTree@@@2@@std@@@std@@@std@@@std@@@2@@std@@QAEXIABV?$_List_unchecked_iterator@V?$_List_val@U?$_List_simple_types@U?$pair@$$CBV?$basic_string@DU?$char_traits@D@std@@V?$allocator@D@2@@std@@V?$shared_ptr@UNode@NetvarTree@@@2@@std@@@std@@@std@@@2@@Z 1000af70 f i Aimbot.obj
 0001:0000a120       ?at@?$deque@UPlayerRecords@@V?$allocator@UPlayerRecords@@@std@@@std@@QAEAAUPlayerRecords@@I@Z 1000b120 f i Aimbot.obj
 0001:0000a1e0       ?begin@?$deque@UPlayerRecords@@V?$allocator@UPlayerRecords@@@std@@@std@@QAE?AV?$_Deque_iterator@V?$_Deque_val@U?$_Deque_simple_types@UPlayerRecords@@@std@@@std@@@2@XZ 1000b1e0 f i Aimbot.obj
 0001:0000a1e0       ?begin@?$deque@ULegitPlayerRecords@@V?$allocator@ULegitPlayerRecords@@@std@@@std@@QAE?AV?$_Deque_iterator@V?$_Deque_val@U?$_Deque_simple_types@ULegitPlayerRecords@@@std@@@std@@@2@XZ 1000b1e0 f i Legitbot.obj
 0001:0000a250       ?begin@?$list@U?$pair@$$CBV?$basic_string@DU?$char_traits@D@std@@V?$allocator@D@2@@std@@V?$shared_ptr@UNode@NetvarTree@@@2@@std@@V?$allocator@U?$pair@$$CBV?$basic_string@DU?$char_traits@D@std@@V?$allocator@D@2@@std@@V?$shared_ptr@UNode@NetvarTree@@@2@@std@@@2@@std@@QAE?AV?$_List_iterator@V?$_List_val@U?$_List_simple_types@U?$pair@$$CBV?$basic_string@DU?$char_traits@D@std@@V?$allocator@D@2@@std@@V?$shared_ptr@UNode@NetvarTree@@@2@@std@@@std@@@std@@@2@XZ 1000b250 f i Aimbot.obj
 0001:0000a2c0       ?bucket_count@?$_Hash@V?$_Umap_traits@V?$basic_string@DU?$char_traits@D@std@@V?$allocator@D@2@@std@@V?$shared_ptr@UNode@NetvarTree@@@2@V?$_Uhash_compare@V?$basic_string@DU?$char_traits@D@std@@V?$allocator@D@2@@std@@U?$hash@V?$basic_string@DU?$char_traits@D@std@@V?$allocator@D@2@@std@@@2@U?$equal_to@V?$basic_string@DU?$char_traits@D@std@@V?$allocator@D@2@@std@@@2@@2@V?$allocator@U?$pair@$$CBV?$basic_string@DU?$char_traits@D@std@@V?$allocator@D@2@@std@@V?$shared_ptr@UNode@NetvarTree@@@2@@std@@@2@$0A@@std@@@std@@QBEIXZ 1000b2c0 f i Aimbot.obj
 0001:0000a2e0       ?data@?$basic_string@DU?$char_traits@D@std@@V?$allocator@D@2@@std@@QAEPADXZ 1000b2e0 f i config_system.obj
 0001:0000a2e0       ?c_str@?$basic_string@DU?$char_traits@D@std@@V?$allocator@D@2@@std@@QBEPBDXZ 1000b2e0 f i Aimbot.obj
 0001:0000a330       ?compare@?$char_traits@D@std@@SAHQBD0I@Z 1000b330 f i Aimbot.obj
 0001:0000a360       ?cos@@YAMM@Z               1000b360 f i Aimbot.obj
 0001:0000a380       ?deallocate@?$allocator@U?$_List_node@U?$pair@$$CBV?$basic_string@DU?$char_traits@D@std@@V?$allocator@D@2@@std@@V?$shared_ptr@UNode@NetvarTree@@@2@@std@@PAX@std@@@std@@QAEXQAU?$_List_node@U?$pair@$$CBV?$basic_string@DU?$char_traits@D@std@@V?$allocator@D@2@@std@@V?$shared_ptr@UNode@NetvarTree@@@2@@std@@PAX@2@I@Z 1000b380 f i Aimbot.obj
 0001:0000a3a0       ?end@?$_Hash@V?$_Umap_traits@V?$basic_string@DU?$char_traits@D@std@@V?$allocator@D@2@@std@@V?$shared_ptr@UNode@NetvarTree@@@2@V?$_Uhash_compare@V?$basic_string@DU?$char_traits@D@std@@V?$allocator@D@2@@std@@U?$hash@V?$basic_string@DU?$char_traits@D@std@@V?$allocator@D@2@@std@@@2@U?$equal_to@V?$basic_string@DU?$char_traits@D@std@@V?$allocator@D@2@@std@@@2@@2@V?$allocator@U?$pair@$$CBV?$basic_string@DU?$char_traits@D@std@@V?$allocator@D@2@@std@@V?$shared_ptr@UNode@NetvarTree@@@2@@std@@@2@$0A@@std@@@std@@QAE?AV?$_List_iterator@V?$_List_val@U?$_List_simple_types@U?$pair@$$CBV?$basic_string@DU?$char_traits@D@std@@V?$allocator@D@2@@std@@V?$shared_ptr@UNode@NetvarTree@@@2@@std@@@std@@@std@@@2@XZ 1000b3a0 f i Aimbot.obj
 0001:0000a3d0       ?end@?$list@U?$pair@$$CBV?$basic_string@DU?$char_traits@D@std@@V?$allocator@D@2@@std@@V?$shared_ptr@UNode@NetvarTree@@@2@@std@@V?$allocator@U?$pair@$$CBV?$basic_string@DU?$char_traits@D@std@@V?$allocator@D@2@@std@@V?$shared_ptr@UNode@NetvarTree@@@2@@std@@@2@@std@@QAE?AV?$_List_iterator@V?$_List_val@U?$_List_simple_types@U?$pair@$$CBV?$basic_string@DU?$char_traits@D@std@@V?$allocator@D@2@@std@@V?$shared_ptr@UNode@NetvarTree@@@2@@std@@@std@@@std@@@2@XZ 1000b3d0 f i Aimbot.obj
 0001:0000a440       ?erase@?$_Hash@V?$_Umap_traits@V?$basic_string@DU?$char_traits@D@std@@V?$allocator@D@2@@std@@V?$shared_ptr@UNode@NetvarTree@@@2@V?$_Uhash_compare@V?$basic_string@DU?$char_traits@D@std@@V?$allocator@D@2@@std@@U?$hash@V?$basic_string@DU?$char_traits@D@std@@V?$allocator@D@2@@std@@@2@U?$equal_to@V?$basic_string@DU?$char_traits@D@std@@V?$allocator@D@2@@std@@@2@@2@V?$allocator@U?$pair@$$CBV?$basic_string@DU?$char_traits@D@std@@V?$allocator@D@2@@std@@V?$shared_ptr@UNode@NetvarTree@@@2@@std@@@2@$0A@@std@@@std@@QAE?AV?$_List_iterator@V?$_List_val@U?$_List_simple_types@U?$pair@$$CBV?$basic_string@DU?$char_traits@D@std@@V?$allocator@D@2@@std@@V?$shared_ptr@UNode@NetvarTree@@@2@@std@@@std@@@std@@@2@V?$_List_const_iterator@V?$_List_val@U?$_List_simple_types@U?$pair@$$CBV?$basic_string@DU?$char_traits@D@std@@V?$allocator@D@2@@std@@V?$shared_ptr@UNode@NetvarTree@@@2@@std@@@std@@@std@@@2@@Z 1000b440 f i Aimbot.obj
 0001:0000a4b0       ?erase@?$list@U?$pair@$$CBV?$basic_string@DU?$char_traits@D@std@@V?$allocator@D@2@@std@@V?$shared_ptr@UNode@NetvarTree@@@2@@std@@V?$allocator@U?$pair@$$CBV?$basic_string@DU?$char_traits@D@std@@V?$allocator@D@2@@std@@V?$shared_ptr@UNode@NetvarTree@@@2@@std@@@2@@std@@QAE?AV?$_List_iterator@V?$_List_val@U?$_List_simple_types@U?$pair@$$CBV?$basic_string@DU?$char_traits@D@std@@V?$allocator@D@2@@std@@V?$shared_ptr@UNode@NetvarTree@@@2@@std@@@std@@@std@@@2@V?$_List_const_iterator@V?$_List_val@U?$_List_simple_types@U?$pair@$$CBV?$basic_string@DU?$char_traits@D@std@@V?$allocator@D@2@@std@@V?$shared_ptr@UNode@NetvarTree@@@2@@std@@@std@@@std@@@2@@Z 1000b4b0 f i Aimbot.obj
 0001:0000a500       ?find@?$_Hash@V?$_Umap_traits@V?$basic_string@DU?$char_traits@D@std@@V?$allocator@D@2@@std@@V?$shared_ptr@UNode@NetvarTree@@@2@V?$_Uhash_compare@V?$basic_string@DU?$char_traits@D@std@@V?$allocator@D@2@@std@@U?$hash@V?$basic_string@DU?$char_traits@D@std@@V?$allocator@D@2@@std@@@2@U?$equal_to@V?$basic_string@DU?$char_traits@D@std@@V?$allocator@D@2@@std@@@2@@2@V?$allocator@U?$pair@$$CBV?$basic_string@DU?$char_traits@D@std@@V?$allocator@D@2@@std@@V?$shared_ptr@UNode@NetvarTree@@@2@@std@@@2@$0A@@std@@@std@@QAE?AV?$_List_iterator@V?$_List_val@U?$_List_simple_types@U?$pair@$$CBV?$basic_string@DU?$char_traits@D@std@@V?$allocator@D@2@@std@@V?$shared_ptr@UNode@NetvarTree@@@2@@std@@@std@@@std@@@2@ABV?$basic_string@DU?$char_traits@D@std@@V?$allocator@D@2@@2@@Z 1000b500 f i Aimbot.obj
 0001:0000a520       ?fmax@@YAMMM@Z             1000b520 f i Aimbot.obj
 0001:0000a550       ?front@?$list@U?$pair@$$CBV?$basic_string@DU?$char_traits@D@std@@V?$allocator@D@2@@std@@V?$shared_ptr@UNode@NetvarTree@@@2@@std@@V?$allocator@U?$pair@$$CBV?$basic_string@DU?$char_traits@D@std@@V?$allocator@D@2@@std@@V?$shared_ptr@UNode@NetvarTree@@@2@@std@@@2@@std@@QAEAAU?$pair@$$CBV?$basic_string@DU?$char_traits@D@std@@V?$allocator@D@2@@std@@V?$shared_ptr@UNode@NetvarTree@@@2@@2@XZ 1000b550 f i Aimbot.obj
 0001:0000a570       ?get@?$_Ptr_base@UNode@NetvarTree@@@std@@IBEPAUNode@NetvarTree@@XZ 1000b570 f i Aimbot.obj
 0001:0000a570       ?GetName@RecvProp@@QBEPBDXZ 1000b570 f i NetvarManager.obj
 0001:0000a570       ??D?$_String_const_iterator@V?$_String_val@U?$_Simple_types@D@std@@@std@@@std@@QBEABDXZ 1000b570 f i config_system.obj
 0001:0000a580       ?load_factor@?$_Hash@V?$_Umap_traits@V?$basic_string@DU?$char_traits@D@std@@V?$allocator@D@2@@std@@V?$shared_ptr@UNode@NetvarTree@@@2@V?$_Uhash_compare@V?$basic_string@DU?$char_traits@D@std@@V?$allocator@D@2@@std@@U?$hash@V?$basic_string@DU?$char_traits@D@std@@V?$allocator@D@2@@std@@@2@U?$equal_to@V?$basic_string@DU?$char_traits@D@std@@V?$allocator@D@2@@std@@@2@@2@V?$allocator@U?$pair@$$CBV?$basic_string@DU?$char_traits@D@std@@V?$allocator@D@2@@std@@V?$shared_ptr@UNode@NetvarTree@@@2@@std@@@2@$0A@@std@@@std@@QBEMXZ 1000b580 f i Aimbot.obj
 0001:0000a600       ?lower_bound@?$_Hash@V?$_Umap_traits@V?$basic_string@DU?$char_traits@D@std@@V?$allocator@D@2@@std@@V?$shared_ptr@UNode@NetvarTree@@@2@V?$_Uhash_compare@V?$basic_string@DU?$char_traits@D@std@@V?$allocator@D@2@@std@@U?$hash@V?$basic_string@DU?$char_traits@D@std@@V?$allocator@D@2@@std@@@2@U?$equal_to@V?$basic_string@DU?$char_traits@D@std@@V?$allocator@D@2@@std@@@2@@2@V?$allocator@U?$pair@$$CBV?$basic_string@DU?$char_traits@D@std@@V?$allocator@D@2@@std@@V?$shared_ptr@UNode@NetvarTree@@@2@@std@@@2@$0A@@std@@@std@@QAE?AV?$_List_iterator@V?$_List_val@U?$_List_simple_types@U?$pair@$$CBV?$basic_string@DU?$char_traits@D@std@@V?$allocator@D@2@@std@@V?$shared_ptr@UNode@NetvarTree@@@2@@std@@@std@@@std@@@2@ABV?$basic_string@DU?$char_traits@D@std@@V?$allocator@D@2@@2@@Z 1000b600 f i Aimbot.obj
 0001:0000a710       ?max_load_factor@?$_Hash@V?$_Umap_traits@V?$basic_string@DU?$char_traits@D@std@@V?$allocator@D@2@@std@@V?$shared_ptr@UNode@NetvarTree@@@2@V?$_Uhash_compare@V?$basic_string@DU?$char_traits@D@std@@V?$allocator@D@2@@std@@U?$hash@V?$basic_string@DU?$char_traits@D@std@@V?$allocator@D@2@@std@@@2@U?$equal_to@V?$basic_string@DU?$char_traits@D@std@@V?$allocator@D@2@@std@@@2@@2@V?$allocator@U?$pair@$$CBV?$basic_string@DU?$char_traits@D@std@@V?$allocator@D@2@@std@@V?$shared_ptr@UNode@NetvarTree@@@2@@std@@@2@$0A@@std@@@std@@QBEMXZ 1000b710 f i Aimbot.obj
 0001:0000a740       ?max_size@?$_Default_allocator_traits@V?$allocator@V?$_List_unchecked_iterator@V?$_List_val@U?$_List_simple_types@U?$pair@$$CBV?$basic_string@DU?$char_traits@D@std@@V?$allocator@D@2@@std@@V?$shared_ptr@UNode@NetvarTree@@@2@@std@@@std@@@std@@@std@@@std@@@std@@SAIABV?$allocator@V?$_List_unchecked_iterator@V?$_List_val@U?$_List_simple_types@U?$pair@$$CBV?$basic_string@DU?$char_traits@D@std@@V?$allocator@D@2@@std@@V?$shared_ptr@UNode@NetvarTree@@@2@@std@@@std@@@std@@@std@@@2@@Z 1000b740 f i Aimbot.obj
 0001:0000a740       ?max_size@?$_Default_allocator_traits@V?$allocator@H@std@@@std@@SAIABV?$allocator@H@2@@Z 1000b740 f i Aimbot.obj
 0001:0000a750       ?max_size@?$_Default_allocator_traits@V?$allocator@U?$_List_node@U?$pair@$$CBV?$basic_string@DU?$char_traits@D@std@@V?$allocator@D@2@@std@@V?$shared_ptr@UNode@NetvarTree@@@2@@std@@PAX@std@@@std@@@std@@SAIABV?$allocator@U?$_List_node@U?$pair@$$CBV?$basic_string@DU?$char_traits@D@std@@V?$allocator@D@2@@std@@V?$shared_ptr@UNode@NetvarTree@@@2@@std@@PAX@std@@@2@@Z 1000b750 f i Aimbot.obj
 0001:0000a760       ?max_size@?$list@U?$pair@$$CBV?$basic_string@DU?$char_traits@D@std@@V?$allocator@D@2@@std@@V?$shared_ptr@UNode@NetvarTree@@@2@@std@@V?$allocator@U?$pair@$$CBV?$basic_string@DU?$char_traits@D@std@@V?$allocator@D@2@@std@@V?$shared_ptr@UNode@NetvarTree@@@2@@std@@@2@@std@@QBEIXZ 1000b760 f i Aimbot.obj
 0001:0000a780       ?max_size@?$vector@V?$_List_unchecked_iterator@V?$_List_val@U?$_List_simple_types@U?$pair@$$CBV?$basic_string@DU?$char_traits@D@std@@V?$allocator@D@2@@std@@V?$shared_ptr@UNode@NetvarTree@@@2@@std@@@std@@@std@@@std@@V?$allocator@V?$_List_unchecked_iterator@V?$_List_val@U?$_List_simple_types@U?$pair@$$CBV?$basic_string@DU?$char_traits@D@std@@V?$allocator@D@2@@std@@V?$shared_ptr@UNode@NetvarTree@@@2@@std@@@std@@@std@@@std@@@2@@std@@QBEIXZ 1000b780 f i Aimbot.obj
 0001:0000a780       ?max_size@?$vector@HV?$allocator@H@std@@@std@@QBEIXZ 1000b780 f i Aimbot.obj
 0001:0000a7c0       ?pointer_to@?$pointer_traits@PAU?$pair@$$CBV?$basic_string@DU?$char_traits@D@std@@V?$allocator@D@2@@std@@V?$shared_ptr@UNode@NetvarTree@@@2@@std@@@std@@SAPAU?$pair@$$CBV?$basic_string@DU?$char_traits@D@std@@V?$allocator@D@2@@std@@V?$shared_ptr@UNode@NetvarTree@@@2@@2@AAU32@@Z 1000b7c0 f i Aimbot.obj
 0001:0000a7e0       ?push_back@?$vector@HV?$allocator@H@std@@@std@@QAEX$$QAH@Z 1000b7e0 f i Aimbot.obj
 0001:0000a810       ?reserve@?$vector@V?$_List_unchecked_iterator@V?$_List_val@U?$_List_simple_types@U?$pair@$$CBV?$basic_string@DU?$char_traits@D@std@@V?$allocator@D@2@@std@@V?$shared_ptr@UNode@NetvarTree@@@2@@std@@@std@@@std@@@std@@V?$allocator@V?$_List_unchecked_iterator@V?$_List_val@U?$_List_simple_types@U?$pair@$$CBV?$basic_string@DU?$char_traits@D@std@@V?$allocator@D@2@@std@@V?$shared_ptr@UNode@NetvarTree@@@2@@std@@@std@@@std@@@std@@@2@@std@@QAEXI@Z 1000b810 f i Aimbot.obj
 0001:0000a850       ?sin@@YAMM@Z               1000b850 f i Aimbot.obj
 0001:0000a870       ?size@?$_Hash@V?$_Umap_traits@V?$basic_string@DU?$char_traits@D@std@@V?$allocator@D@2@@std@@V?$shared_ptr@UNode@NetvarTree@@@2@V?$_Uhash_compare@V?$basic_string@DU?$char_traits@D@std@@V?$allocator@D@2@@std@@U?$hash@V?$basic_string@DU?$char_traits@D@std@@V?$allocator@D@2@@std@@@2@U?$equal_to@V?$basic_string@DU?$char_traits@D@std@@V?$allocator@D@2@@std@@@2@@2@V?$allocator@U?$pair@$$CBV?$basic_string@DU?$char_traits@D@std@@V?$allocator@D@2@@std@@V?$shared_ptr@UNode@NetvarTree@@@2@@std@@@2@$0A@@std@@@std@@QBEIXZ 1000b870 f i Aimbot.obj
 0001:0000a890       ?size@?$basic_string@DU?$char_traits@D@std@@V?$allocator@D@2@@std@@QBEIXZ 1000b890 f i Aimbot.obj
 0001:0000a8b0       ?size@?$deque@ULegitPlayerRecords@@V?$allocator@ULegitPlayerRecords@@@std@@@std@@QBEIXZ 1000b8b0 f i Legitbot.obj
 0001:0000a8b0       ?size@?$deque@UPlayerRecords@@V?$allocator@UPlayerRecords@@@std@@@std@@QBEIXZ 1000b8b0 f i Aimbot.obj
 0001:0000a8d0       ?size@?$vector@HV?$allocator@H@std@@@std@@QBEIXZ 1000b8d0 f i Aimbot.obj
 0001:0000a8d0       ?size@?$vector@V?$_List_unchecked_iterator@V?$_List_val@U?$_List_simple_types@U?$pair@$$CBV?$basic_string@DU?$char_traits@D@std@@V?$allocator@D@2@@std@@V?$shared_ptr@UNode@NetvarTree@@@2@@std@@@std@@@std@@@std@@V?$allocator@V?$_List_unchecked_iterator@V?$_List_val@U?$_List_simple_types@U?$pair@$$CBV?$basic_string@DU?$char_traits@D@std@@V?$allocator@D@2@@std@@V?$shared_ptr@UNode@NetvarTree@@@2@@std@@@std@@@std@@@std@@@2@@std@@QBEIXZ 1000b8d0 f i Aimbot.obj
 0001:0000a900       ?sqrt@@YAMM@Z              1000b900 f i Aimbot.obj
 0001:0000a920       _cosf                      1000b920 f i Aimbot.obj
 0001:0000a940       _fabsf                     1000b940 f i Aimbot.obj
 0001:0000a960       _sinf                      1000b960 f i Aimbot.obj
 0001:0000a980       _sqrtf                     1000b980 f i Aimbot.obj
 0001:0000a9a0       ??$pow@MNX@@YANMN@Z        1000b9a0 f i Autowall.obj
 0001:0000a9d0       ??0C_TraceFilter@@QAE@PAVC_BaseEntity@@W4TraceType_t@@@Z 1000b9d0 f i Autowall.obj
 0001:0000aa00       ??0FireBulletData@@QAE@ABVVector@@PAVC_BaseEntity@@@Z 1000ba00 f i Autowall.obj
 0001:0000aa60       ??0ITraceFilter@@QAE@XZ    1000ba60 f i Autowall.obj
 0001:0000aa80       ??R<lambda_8306b9bf967b1dc2e3a7715b585f0ae0>@@QBE_NPBE0PBD@Z 1000ba80 f i Autowall.obj
 0001:0000ab00       ??_0Vector@@QAEAAV0@M@Z    1000bb00 f i Autowall.obj
 0001:0000ab70       ?ArmorValue@C_BaseEntity@@QAEHXZ 1000bb70 f i Autowall.obj
 0001:0000ac30       ?CanHitFloatingPoint@Autowall@@QAE_NABVVector@@0@Z 1000bc30 f   Autowall.obj
 0001:0000ae10       ?Damage@Autowall@@QAEMABVVector@@@Z 1000be10 f   Autowall.obj
 0001:0000af20       ?FindPattern@Utils@@SAKPBDPBE0@Z 1000bf20 f i Autowall.obj
 0001:0000afa0       ?GetHitgroupDamageMult@@YAMH@Z 1000bfa0 f   Autowall.obj
 0001:0000b000       ?HandleBulletPenetration@@YA_NPAVWeaponInfo_t@@AAUFireBulletData@@_NVVector@@@Z 1000c000 f   Autowall.obj
 0001:0000b450       ?HasHelmet@C_BaseEntity@@QAE_NXZ 1000c450 f i Autowall.obj
 0001:0000b510       ?ScaleDamage@@YAXHPAVC_BaseEntity@@MAAM@Z 1000c510 f   Autowall.obj
 0001:0000b600       ?ShouldHitEntity@C_TraceFilter@@UAE_NPAXH@Z 1000c600 f i Autowall.obj
 0001:0000b630       ?SimulateFireBullet@@YA_NPAVC_BaseEntity@@PAVC_BaseCombatWeapon@@AAUFireBulletData@@@Z 1000c630 f   Autowall.obj
 0001:0000b8a0       ?TraceLine@@YAXAAVVector@@0IPAVC_BaseEntity@@PAUC_Trace@@@Z 1000c8a0 f   Autowall.obj
 0001:0000b930       ?TraceToExitalt@@YA_NAAVVector@@AAUC_Trace@@V1@2PAU2@@Z 1000c930 f   Autowall.obj
 0001:0000ba30       ?UTIL_ClipTraceToPlayers@@YAXABVVector@@0IPAVITraceFilter@@PAUC_Trace@@@Z 1000ca30 f   Autowall.obj
 0001:0000baf0       ?VectorLength@@YAMABVVector@@@Z 1000caf0 f i Autowall.obj
 0001:0000bb40       ?VectorNormalize@@YAMAAVVector@@@Z 1000cb40 f i Autowall.obj
 0001:0000bbb0       ?VectortoVectorVisible@@YA_NVVector@@0@Z 1000cbb0 f   Autowall.obj
 0001:0000bc50       ??$CallVFunc@$00XPAVC_BaseEntity@@@Utils@@SAXPAXPAVC_BaseEntity@@@Z 1000cc50 f i EnginePrediction.obj
 0001:0000bc80       ?AccuracyPenalty@C_BaseCombatWeapon@@QAEXXZ 1000cc80 f i EnginePrediction.obj
 0001:0000bcb0       ?EndEnginePred@engine_prediction@@YAXXZ 1000ccb0 f   EnginePrediction.obj
 0001:0000bd80       ?RunEnginePred@engine_prediction@@YAXXZ 1000cd80 f   EnginePrediction.obj
 0001:0000bff0       ?SetCurrentCommand@C_BaseEntity@@QAEXPAVCUserCmd@@@Z 1000cff0 f i EnginePrediction.obj
 0001:0000c0b0       ?SetHost@IMoveHelper@@QAEXPAVC_BaseEntity@@@Z 1000d0b0 f i EnginePrediction.obj
 0001:0000c0d0       ??$?0$$V@?$_Compressed_pair@V?$allocator@UPlayerRecords@@@std@@V?$_Deque_val@U?$_Deque_simple_types@UPlayerRecords@@@std@@@2@$00@std@@QAE@U_Zero_then_variadic_args_t@1@@Z 1000d0d0 f i LagComp.obj
 0001:0000c0d0       ??$?0$$V@?$_Compressed_pair@V?$allocator@ULegitPlayerRecords@@@std@@V?$_Deque_val@U?$_Deque_simple_types@ULegitPlayerRecords@@@std@@@2@$00@std@@QAE@U_Zero_then_variadic_args_t@1@@Z 1000d0d0 f i Legitbot.obj
 0001:0000c0f0       ??$_Deallocate_plain@V?$allocator@U_Container_proxy@std@@@std@@$0A@@std@@YAXAAV?$allocator@U_Container_proxy@std@@@0@QAU_Container_proxy@0@@Z 1000d0f0 f i LagComp.obj
 0001:0000c110       ??$_Get_size_of_n@$07@std@@YAII@Z 1000d110 f i LagComp.obj
 0001:0000c140       ??$_Get_size_of_n@$0BIAM@@std@@YAII@Z 1000d140 f i LagComp.obj
 0001:0000c170       ??$_Get_unwrapped@V?$_Deque_iterator@V?$_Deque_val@U?$_Deque_simple_types@UPlayerRecords@@@std@@@std@@@std@@$0A@@std@@YA?AV?$_Deque_unchecked_iterator@V?$_Deque_val@U?$_Deque_simple_types@UPlayerRecords@@@std@@@std@@@0@ABV?$_Deque_iterator@V?$_Deque_val@U?$_Deque_simple_types@UPlayerRecords@@@std@@@std@@@0@@Z 1000d170 f i LagComp.obj
 0001:0000c170       ??$_Get_unwrapped@V?$_Deque_iterator@V?$_Deque_val@U?$_Deque_simple_types@ULegitPlayerRecords@@@std@@@std@@@std@@$0A@@std@@YA?AV?$_Deque_unchecked_iterator@V?$_Deque_val@U?$_Deque_simple_types@ULegitPlayerRecords@@@std@@@std@@@0@ABV?$_Deque_iterator@V?$_Deque_val@U?$_Deque_simple_types@ULegitPlayerRecords@@@std@@@std@@@0@@Z 1000d170 f i Legitbot.obj
 0001:0000c190       ??$_Get_unwrapped_n@V?$_Deque_iterator@V?$_Deque_val@U?$_Deque_simple_types@ULegitPlayerRecords@@@std@@@std@@@std@@H$0A@@std@@YA?AV?$_Deque_unchecked_iterator@V?$_Deque_val@U?$_Deque_simple_types@ULegitPlayerRecords@@@std@@@std@@@0@ABV?$_Deque_iterator@V?$_Deque_val@U?$_Deque_simple_types@ULegitPlayerRecords@@@std@@@std@@@0@H@Z 1000d190 f i Legitbot.obj
 0001:0000c190       ??$_Get_unwrapped_n@V?$_Deque_iterator@V?$_Deque_val@U?$_Deque_simple_types@UPlayerRecords@@@std@@@std@@@std@@H$0A@@std@@YA?AV?$_Deque_unchecked_iterator@V?$_Deque_val@U?$_Deque_simple_types@UPlayerRecords@@@std@@@std@@@0@ABV?$_Deque_iterator@V?$_Deque_val@U?$_Deque_simple_types@UPlayerRecords@@@std@@@std@@@0@H@Z 1000d190 f i LagComp.obj
 0001:0000c1c0       ??$_Idl_distance@V?$_Deque_iterator@V?$_Deque_val@U?$_Deque_simple_types@UPlayerRecords@@@std@@@std@@@std@@V?$_Deque_unchecked_iterator@V?$_Deque_val@U?$_Deque_simple_types@UPlayerRecords@@@std@@@std@@@2@@std@@YAHABV?$_Deque_unchecked_iterator@V?$_Deque_val@U?$_Deque_simple_types@UPlayerRecords@@@std@@@std@@@0@0@Z 1000d1c0 f i LagComp.obj
 0001:0000c1c0       ??$_Idl_distance@V?$_Deque_iterator@V?$_Deque_val@U?$_Deque_simple_types@ULegitPlayerRecords@@@std@@@std@@@std@@V?$_Deque_unchecked_iterator@V?$_Deque_val@U?$_Deque_simple_types@ULegitPlayerRecords@@@std@@@std@@@2@@std@@YAHABV?$_Deque_unchecked_iterator@V?$_Deque_val@U?$_Deque_simple_types@ULegitPlayerRecords@@@std@@@std@@@0@0@Z 1000d1c0 f i Legitbot.obj
 0001:0000c1e0       ??$_Move_backward_unchecked1@V?$_Deque_unchecked_iterator@V?$_Deque_val@U?$_Deque_simple_types@UPlayerRecords@@@std@@@std@@@std@@V12@@std@@YA?AV?$_Deque_unchecked_iterator@V?$_Deque_val@U?$_Deque_simple_types@UPlayerRecords@@@std@@@std@@@0@V10@00U_General_ptr_iterator_tag@0@@Z 1000d1e0 f i LagComp.obj
 0001:0000c250       ??$_Move_backward_unchecked@V?$_Deque_unchecked_iterator@V?$_Deque_val@U?$_Deque_simple_types@UPlayerRecords@@@std@@@std@@@std@@V12@@std@@YA?AV?$_Deque_unchecked_iterator@V?$_Deque_val@U?$_Deque_simple_types@UPlayerRecords@@@std@@@std@@@0@V10@00@Z 1000d250 f i LagComp.obj
 0001:0000c2a0       ??$_Move_unchecked1@V?$_Deque_unchecked_iterator@V?$_Deque_val@U?$_Deque_simple_types@UPlayerRecords@@@std@@@std@@@std@@V12@@std@@YA?AV?$_Deque_unchecked_iterator@V?$_Deque_val@U?$_Deque_simple_types@UPlayerRecords@@@std@@@std@@@0@V10@00U_General_ptr_iterator_tag@0@@Z 1000d2a0 f i LagComp.obj
 0001:0000c310       ??$_Move_unchecked@V?$_Deque_unchecked_iterator@V?$_Deque_val@U?$_Deque_simple_types@UPlayerRecords@@@std@@@std@@@std@@V12@@std@@YA?AV?$_Deque_unchecked_iterator@V?$_Deque_val@U?$_Deque_simple_types@UPlayerRecords@@@std@@@std@@@0@V10@00@Z 1000d310 f i LagComp.obj
 0001:0000c360       ??$_Seek_wrapped@V?$_Deque_iterator@V?$_Deque_val@U?$_Deque_simple_types@ULegitPlayerRecords@@@std@@@std@@@std@@V?$_Deque_unchecked_iterator@V?$_Deque_val@U?$_Deque_simple_types@ULegitPlayerRecords@@@std@@@std@@@2@@std@@YAXAAV?$_Deque_iterator@V?$_Deque_val@U?$_Deque_simple_types@ULegitPlayerRecords@@@std@@@std@@@0@ABV?$_Deque_unchecked_iterator@V?$_Deque_val@U?$_Deque_simple_types@ULegitPlayerRecords@@@std@@@std@@@0@@Z 1000d360 f i Legitbot.obj
 0001:0000c360       ??$_Seek_wrapped@V?$_Deque_iterator@V?$_Deque_val@U?$_Deque_simple_types@UPlayerRecords@@@std@@@std@@@std@@V?$_Deque_unchecked_iterator@V?$_Deque_val@U?$_Deque_simple_types@UPlayerRecords@@@std@@@std@@@2@@std@@YAXAAV?$_Deque_iterator@V?$_Deque_val@U?$_Deque_simple_types@UPlayerRecords@@@std@@@std@@@0@ABV?$_Deque_unchecked_iterator@V?$_Deque_val@U?$_Deque_simple_types@UPlayerRecords@@@std@@@std@@@0@@Z 1000d360 f i LagComp.obj
 0001:0000c380       ??$_Uninitialized_value_construct_n1@PAPAUPlayerRecords@@IV?$allocator@PAUPlayerRecords@@@std@@@std@@YAPAPAUPlayerRecords@@PAPAU1@IAAV?$allocator@PAUPlayerRecords@@@0@U?$integral_constant@_N$00@0@@Z 1000d380 f i LagComp.obj
 0001:0000c380       ??$_Uninitialized_value_construct_n1@PAPAULegitPlayerRecords@@IV?$allocator@PAULegitPlayerRecords@@@std@@@std@@YAPAPAULegitPlayerRecords@@PAPAU1@IAAV?$allocator@PAULegitPlayerRecords@@@0@U?$integral_constant@_N$00@0@@Z 1000d380 f i Legitbot.obj
 0001:0000c3a0       ??$_Uninitialized_value_construct_n@PAPAULegitPlayerRecords@@IV?$allocator@PAULegitPlayerRecords@@@std@@@std@@YAPAPAULegitPlayerRecords@@PAPAU1@IAAV?$allocator@PAULegitPlayerRecords@@@0@@Z 1000d3a0 f i Legitbot.obj
 0001:0000c3a0       ??$_Uninitialized_value_construct_n@PAPAUPlayerRecords@@IV?$allocator@PAUPlayerRecords@@@std@@@std@@YAPAPAUPlayerRecords@@PAPAU1@IAAV?$allocator@PAUPlayerRecords@@@0@@Z 1000d3a0 f i LagComp.obj
 0001:0000c3d0       ??$_Zero_range@PAPAUPlayerRecords@@@std@@YAPAPAUPlayerRecords@@QAPAU1@0@Z 1000d3d0 f i LagComp.obj
 0001:0000c3d0       ??$_Zero_range@PAPAULegitPlayerRecords@@@std@@YAPAPAULegitPlayerRecords@@QAPAU1@0@Z 1000d3d0 f i Legitbot.obj
 0001:0000c400       ??$clamp@MM@LagComp@@QAEMMMM@Z 1000d400 f i LagComp.obj
 0001:0000c430       ??$construct@UPlayerRecords@@ABU1@@?$_Default_allocator_traits@V?$allocator@UPlayerRecords@@@std@@@std@@SAXAAV?$allocator@UPlayerRecords@@@1@QAUPlayerRecords@@ABU3@@Z 1000d430 f i LagComp.obj
 0001:0000c470       ??$construct@U_Container_proxy@std@@U12@@?$_Default_allocator_traits@V?$allocator@U_Container_proxy@std@@@std@@@std@@SAXAAV?$allocator@U_Container_proxy@std@@@1@QAU_Container_proxy@1@$$QAU31@@Z 1000d470 f i LagComp.obj
 0001:0000c4b0       ??$move@V?$_Deque_iterator@V?$_Deque_val@U?$_Deque_simple_types@UPlayerRecords@@@std@@@std@@@std@@V12@@std@@YA?AV?$_Deque_iterator@V?$_Deque_val@U?$_Deque_simple_types@UPlayerRecords@@@std@@@std@@@0@V10@00@Z 1000d4b0 f i LagComp.obj
 0001:0000c5c0       ??$move_backward@V?$_Deque_iterator@V?$_Deque_val@U?$_Deque_simple_types@UPlayerRecords@@@std@@@std@@@std@@V12@@std@@YA?AV?$_Deque_iterator@V?$_Deque_val@U?$_Deque_simple_types@UPlayerRecords@@@std@@@std@@@0@V10@00@Z 1000d5c0 f i LagComp.obj
 0001:0000c6d0       ??0?$_Deque_alloc@U?$_Deque_base_types@UPlayerRecords@@V?$allocator@UPlayerRecords@@@std@@@std@@@std@@QAE@XZ 1000d6d0 f i LagComp.obj
 0001:0000c6d0       ??0?$_Deque_alloc@U?$_Deque_base_types@ULegitPlayerRecords@@V?$allocator@ULegitPlayerRecords@@@std@@@std@@@std@@QAE@XZ 1000d6d0 f i Legitbot.obj
 0001:0000c700       ??0?$_Deque_unchecked_const_iterator@V?$_Deque_val@U?$_Deque_simple_types@UPlayerRecords@@@std@@@std@@@std@@QAE@IPBU_Container_base12@1@@Z 1000d700 f i LagComp.obj
 0001:0000c700       ??0?$_Deque_unchecked_const_iterator@V?$_Deque_val@U?$_Deque_simple_types@ULegitPlayerRecords@@@std@@@std@@@std@@QAE@IPBU_Container_base12@1@@Z 1000d700 f i Legitbot.obj
 0001:0000c730       ??0?$_Deque_unchecked_iterator@V?$_Deque_val@U?$_Deque_simple_types@UPlayerRecords@@@std@@@std@@@std@@QAE@IPBU_Container_base12@1@@Z 1000d730 f i LagComp.obj
 0001:0000c730       ??0?$_Deque_unchecked_iterator@V?$_Deque_val@U?$_Deque_simple_types@ULegitPlayerRecords@@@std@@@std@@@std@@QAE@IPBU_Container_base12@1@@Z 1000d730 f i Legitbot.obj
 0001:0000c750       ??0?$_Deque_val@U?$_Deque_simple_types@ULegitPlayerRecords@@@std@@@std@@QAE@XZ 1000d750 f i Legitbot.obj
 0001:0000c750       ??0?$_Deque_val@U?$_Deque_simple_types@UPlayerRecords@@@std@@@std@@QAE@XZ 1000d750 f i LagComp.obj
 0001:0000c790       ??0?$deque@UPlayerRecords@@V?$allocator@UPlayerRecords@@@std@@@std@@QAE@XZ 1000d790 f i LagComp.obj
 0001:0000c790       ??0?$deque@ULegitPlayerRecords@@V?$allocator@ULegitPlayerRecords@@@std@@@std@@QAE@XZ 1000d790 f i Legitbot.obj
 0001:0000c7b0       ??0LagComp@@QAE@XZ         1000d7b0 f i LagComp.obj
 0001:0000c7e0       ??0PlayerRecords@@QAE@XZ   1000d7e0 f i LagComp.obj
 0001:0000c810       ??1?$_Deque_alloc@U?$_Deque_base_types@UPlayerRecords@@V?$allocator@UPlayerRecords@@@std@@@std@@@std@@QAE@XZ 1000d810 f i LagComp.obj
 0001:0000c810       ??1?$_Deque_alloc@U?$_Deque_base_types@ULegitPlayerRecords@@V?$allocator@ULegitPlayerRecords@@@std@@@std@@@std@@QAE@XZ 1000d810 f i Legitbot.obj
 0001:0000c850       ??1?$deque@UPlayerRecords@@V?$allocator@UPlayerRecords@@@std@@@std@@QAE@XZ 1000d850 f i LagComp.obj
 0001:0000c8a0       ??1LagComp@@QAE@XZ         1000d8a0 f i LagComp.obj
 0001:0000c8f0       ??8?$_Deque_unchecked_const_iterator@V?$_Deque_val@U?$_Deque_simple_types@UPlayerRecords@@@std@@@std@@@std@@QBE_NABV01@@Z 1000d8f0 f i LagComp.obj
 0001:0000c8f0       ??8?$_Deque_unchecked_const_iterator@V?$_Deque_val@U?$_Deque_simple_types@ULegitPlayerRecords@@@std@@@std@@@std@@QBE_NABV01@@Z 1000d8f0 f i Legitbot.obj
 0001:0000c920       ??9?$_Deque_unchecked_const_iterator@V?$_Deque_val@U?$_Deque_simple_types@UPlayerRecords@@@std@@@std@@@std@@QBE_NABV01@@Z 1000d920 f i LagComp.obj
 0001:0000c920       ??9?$_Deque_unchecked_const_iterator@V?$_Deque_val@U?$_Deque_simple_types@ULegitPlayerRecords@@@std@@@std@@@std@@QBE_NABV01@@Z 1000d920 f i Legitbot.obj
 0001:0000c960       ??D?$_Deque_unchecked_const_iterator@V?$_Deque_val@U?$_Deque_simple_types@UPlayerRecords@@@std@@@std@@@std@@QBEABUPlayerRecords@@XZ 1000d960 f i LagComp.obj
 0001:0000c9b0       ??D?$_Deque_unchecked_iterator@V?$_Deque_val@U?$_Deque_simple_types@UPlayerRecords@@@std@@@std@@@std@@QBEAAUPlayerRecords@@XZ 1000d9b0 f i LagComp.obj
 0001:0000c9d0       ??E?$_Deque_unchecked_const_iterator@V?$_Deque_val@U?$_Deque_simple_types@ULegitPlayerRecords@@@std@@@std@@@std@@QAEAAV01@XZ 1000d9d0 f i Legitbot.obj
 0001:0000c9d0       ??E?$_Deque_unchecked_const_iterator@V?$_Deque_val@U?$_Deque_simple_types@UPlayerRecords@@@std@@@std@@@std@@QAEAAV01@XZ 1000d9d0 f i LagComp.obj
 0001:0000c9f0       ??E?$_Deque_unchecked_iterator@V?$_Deque_val@U?$_Deque_simple_types@UPlayerRecords@@@std@@@std@@@std@@QAEAAV01@XZ 1000d9f0 f i LagComp.obj
 0001:0000c9f0       ??E?$_Deque_unchecked_iterator@V?$_Deque_val@U?$_Deque_simple_types@ULegitPlayerRecords@@@std@@@std@@@std@@QAEAAV01@XZ 1000d9f0 f i Legitbot.obj
 0001:0000ca10       ??F?$_Deque_unchecked_const_iterator@V?$_Deque_val@U?$_Deque_simple_types@ULegitPlayerRecords@@@std@@@std@@@std@@QAEAAV01@XZ 1000da10 f i Legitbot.obj
 0001:0000ca10       ??F?$_Deque_unchecked_const_iterator@V?$_Deque_val@U?$_Deque_simple_types@UPlayerRecords@@@std@@@std@@@std@@QAEAAV01@XZ 1000da10 f i LagComp.obj
 0001:0000ca30       ??F?$_Deque_unchecked_iterator@V?$_Deque_val@U?$_Deque_simple_types@UPlayerRecords@@@std@@@std@@@std@@QAEAAV01@XZ 1000da30 f i LagComp.obj
 0001:0000ca30       ??F?$_Deque_unchecked_iterator@V?$_Deque_val@U?$_Deque_simple_types@ULegitPlayerRecords@@@std@@@std@@@std@@QAEAAV01@XZ 1000da30 f i Legitbot.obj
 0001:0000ca50       ??G?$_Deque_const_iterator@V?$_Deque_val@U?$_Deque_simple_types@UPlayerRecords@@@std@@@std@@@std@@QBEHABV01@@Z 1000da50 f i LagComp.obj
 0001:0000ca50       ??G?$_Deque_const_iterator@V?$_Deque_val@U?$_Deque_simple_types@ULegitPlayerRecords@@@std@@@std@@@std@@QBEHABV01@@Z 1000da50 f i Legitbot.obj
 0001:0000ca80       ??G?$_Deque_iterator@V?$_Deque_val@U?$_Deque_simple_types@UPlayerRecords@@@std@@@std@@@std@@QBEHABV?$_Deque_const_iterator@V?$_Deque_val@U?$_Deque_simple_types@UPlayerRecords@@@std@@@std@@@1@@Z 1000da80 f i LagComp.obj
 0001:0000ca80       ??G?$_Deque_iterator@V?$_Deque_val@U?$_Deque_simple_types@ULegitPlayerRecords@@@std@@@std@@@std@@QBEHABV?$_Deque_const_iterator@V?$_Deque_val@U?$_Deque_simple_types@ULegitPlayerRecords@@@std@@@std@@@1@@Z 1000da80 f i Legitbot.obj
 0001:0000caa0       ??G?$_Deque_unchecked_const_iterator@V?$_Deque_val@U?$_Deque_simple_types@ULegitPlayerRecords@@@std@@@std@@@std@@QBEHABV01@@Z 1000daa0 f i Legitbot.obj
 0001:0000caa0       ??G?$_Deque_unchecked_const_iterator@V?$_Deque_val@U?$_Deque_simple_types@UPlayerRecords@@@std@@@std@@@std@@QBEHABV01@@Z 1000daa0 f i LagComp.obj
 0001:0000cac0       ??G?$_Deque_unchecked_iterator@V?$_Deque_val@U?$_Deque_simple_types@UPlayerRecords@@@std@@@std@@@std@@QBEHABV?$_Deque_unchecked_const_iterator@V?$_Deque_val@U?$_Deque_simple_types@UPlayerRecords@@@std@@@std@@@1@@Z 1000dac0 f i LagComp.obj
 0001:0000cac0       ??G?$_Deque_unchecked_iterator@V?$_Deque_val@U?$_Deque_simple_types@ULegitPlayerRecords@@@std@@@std@@@std@@QBEHABV?$_Deque_unchecked_const_iterator@V?$_Deque_val@U?$_Deque_simple_types@ULegitPlayerRecords@@@std@@@std@@@1@@Z 1000dac0 f i Legitbot.obj
 0001:0000cae0       ??H?$_Deque_const_iterator@V?$_Deque_val@U?$_Deque_simple_types@UPlayerRecords@@@std@@@std@@@std@@QBE?AV01@H@Z 1000dae0 f i LagComp.obj
 0001:0000cae0       ??H?$_Deque_const_iterator@V?$_Deque_val@U?$_Deque_simple_types@ULegitPlayerRecords@@@std@@@std@@@std@@QBE?AV01@H@Z 1000dae0 f i Legitbot.obj
 0001:0000cb70       ?ClearRecords@LagComp@@QAEXH@Z 1000db70 f   LagComp.obj
 0001:0000cca0       ?GetInt@ConVar@@QBEHXZ     1000dca0 f i LagComp.obj
 0001:0000ccc0       ?LerpTime@LagComp@@QAEMXZ  1000dcc0 f   LagComp.obj
 0001:0000ce90       ?StoreRecord@LagComp@@QAEXPAVC_BaseEntity@@@Z 1000de90 f   LagComp.obj
 0001:0000d470       ?ValidTick@LagComp@@QAE_NH@Z 1000e470 f   LagComp.obj
 0001:0000d630       ?_Alloc_proxy@?$_Deque_alloc@U?$_Deque_base_types@ULegitPlayerRecords@@V?$allocator@ULegitPlayerRecords@@@std@@@std@@@std@@QAEXXZ 1000e630 f i Legitbot.obj
 0001:0000d630       ?_Alloc_proxy@?$_Deque_alloc@U?$_Deque_base_types@UPlayerRecords@@V?$allocator@UPlayerRecords@@@std@@@std@@@std@@QAEXXZ 1000e630 f i LagComp.obj
 0001:0000d6c0       ?_Free_proxy@?$_Deque_alloc@U?$_Deque_base_types@UPlayerRecords@@V?$allocator@UPlayerRecords@@@std@@@std@@@std@@QAEXXZ 1000e6c0 f i LagComp.obj
 0001:0000d6c0       ?_Free_proxy@?$_Deque_alloc@U?$_Deque_base_types@ULegitPlayerRecords@@V?$allocator@ULegitPlayerRecords@@@std@@@std@@@std@@QAEXXZ 1000e6c0 f i Legitbot.obj
 0001:0000d730       ?_Getblock@?$_Deque_alloc@U?$_Deque_base_types@ULegitPlayerRecords@@V?$allocator@ULegitPlayerRecords@@@std@@@std@@@std@@QBEII@Z 1000e730 f i Legitbot.obj
 0001:0000d730       ?_Getblock@?$_Deque_alloc@U?$_Deque_base_types@UPlayerRecords@@V?$allocator@UPlayerRecords@@@std@@@std@@@std@@QBEII@Z 1000e730 f i LagComp.obj
 0001:0000d760       ?_Growmap@?$deque@UPlayerRecords@@V?$allocator@UPlayerRecords@@@std@@@std@@IAEXI@Z 1000e760 f i LagComp.obj
 0001:0000da10       ?_Make_iter@?$deque@ULegitPlayerRecords@@V?$allocator@ULegitPlayerRecords@@@std@@@std@@QBE?AV?$_Deque_iterator@V?$_Deque_val@U?$_Deque_simple_types@ULegitPlayerRecords@@@std@@@std@@@2@V?$_Deque_const_iterator@V?$_Deque_val@U?$_Deque_simple_types@ULegitPlayerRecords@@@std@@@std@@@2@@Z 1000ea10 f i Legitbot.obj
 0001:0000da10       ?_Make_iter@?$deque@UPlayerRecords@@V?$allocator@UPlayerRecords@@@std@@@std@@QBE?AV?$_Deque_iterator@V?$_Deque_val@U?$_Deque_simple_types@UPlayerRecords@@@std@@@std@@@2@V?$_Deque_const_iterator@V?$_Deque_val@U?$_Deque_simple_types@UPlayerRecords@@@std@@@std@@@2@@Z 1000ea10 f i LagComp.obj
 0001:0000da90       ?_Seek_to@?$_Deque_const_iterator@V?$_Deque_val@U?$_Deque_simple_types@ULegitPlayerRecords@@@std@@@std@@@std@@QAEXABV?$_Deque_unchecked_const_iterator@V?$_Deque_val@U?$_Deque_simple_types@ULegitPlayerRecords@@@std@@@std@@@2@@Z 1000ea90 f i Legitbot.obj
 0001:0000da90       ?_Seek_to@?$_Deque_const_iterator@V?$_Deque_val@U?$_Deque_simple_types@UPlayerRecords@@@std@@@std@@@std@@QAEXABV?$_Deque_unchecked_const_iterator@V?$_Deque_val@U?$_Deque_simple_types@UPlayerRecords@@@std@@@std@@@2@@Z 1000ea90 f i LagComp.obj
 0001:0000dab0       ?_Tidy@?$deque@UPlayerRecords@@V?$allocator@UPlayerRecords@@@std@@@std@@IAEXXZ 1000eab0 f i LagComp.obj
 0001:0000dbc0       ?_Unwrapped@?$_Deque_iterator@V?$_Deque_val@U?$_Deque_simple_types@UPlayerRecords@@@std@@@std@@@std@@QBE?AV?$_Deque_unchecked_iterator@V?$_Deque_val@U?$_Deque_simple_types@UPlayerRecords@@@std@@@std@@@2@XZ 1000ebc0 f i LagComp.obj
 0001:0000dbc0       ?_Unwrapped@?$_Deque_iterator@V?$_Deque_val@U?$_Deque_simple_types@ULegitPlayerRecords@@@std@@@std@@@std@@QBE?AV?$_Deque_unchecked_iterator@V?$_Deque_val@U?$_Deque_simple_types@ULegitPlayerRecords@@@std@@@std@@@2@XZ 1000ebc0 f i Legitbot.obj
 0001:0000dc00       ?_Xlen@?$deque@ULegitPlayerRecords@@V?$allocator@ULegitPlayerRecords@@@std@@@std@@IBEXXZ 1000ec00 f i Legitbot.obj
 0001:0000dc00       ?_Xlen@?$deque@UPlayerRecords@@V?$allocator@UPlayerRecords@@@std@@@std@@IBEXXZ 1000ec00 f i LagComp.obj
 0001:0000dc20       ?allocate@?$allocator@UPlayerRecords@@@std@@QAEPAUPlayerRecords@@I@Z 1000ec20 f i LagComp.obj
 0001:0000dc50       ?allocate@?$allocator@U_Container_proxy@std@@@std@@QAEPAU_Container_proxy@2@I@Z 1000ec50 f i LagComp.obj
 0001:0000dc80       ?deallocate@?$_Default_allocator_traits@V?$allocator@U_Container_proxy@std@@@std@@@std@@SAXAAV?$allocator@U_Container_proxy@std@@@2@QAU_Container_proxy@2@I@Z 1000ec80 f i LagComp.obj
 0001:0000dca0       ?deallocate@?$allocator@UPlayerRecords@@@std@@QAEXQAUPlayerRecords@@I@Z 1000eca0 f i LagComp.obj
 0001:0000dcd0       ?empty@?$deque@ULegitPlayerRecords@@V?$allocator@ULegitPlayerRecords@@@std@@@std@@QBE_NXZ 1000ecd0 f i Legitbot.obj
 0001:0000dcd0       ?empty@?$deque@UPlayerRecords@@V?$allocator@UPlayerRecords@@@std@@@std@@QBE_NXZ 1000ecd0 f i LagComp.obj
 0001:0000dd00       ?end@?$deque@ULegitPlayerRecords@@V?$allocator@ULegitPlayerRecords@@@std@@@std@@QAE?AV?$_Deque_iterator@V?$_Deque_val@U?$_Deque_simple_types@ULegitPlayerRecords@@@std@@@std@@@2@XZ 1000ed00 f i Legitbot.obj
 0001:0000dd00       ?end@?$deque@UPlayerRecords@@V?$allocator@UPlayerRecords@@@std@@@std@@QAE?AV?$_Deque_iterator@V?$_Deque_val@U?$_Deque_simple_types@UPlayerRecords@@@std@@@std@@@2@XZ 1000ed00 f i LagComp.obj
 0001:0000dd80       ?erase@?$deque@UPlayerRecords@@V?$allocator@UPlayerRecords@@@std@@@std@@QAE?AV?$_Deque_iterator@V?$_Deque_val@U?$_Deque_simple_types@UPlayerRecords@@@std@@@std@@@2@V?$_Deque_const_iterator@V?$_Deque_val@U?$_Deque_simple_types@UPlayerRecords@@@std@@@std@@@2@0@Z 1000ed80 f i LagComp.obj
 0001:0000e020       ?erase@?$deque@UPlayerRecords@@V?$allocator@UPlayerRecords@@@std@@@std@@QAE?AV?$_Deque_iterator@V?$_Deque_val@U?$_Deque_simple_types@UPlayerRecords@@@std@@@std@@@2@V?$_Deque_const_iterator@V?$_Deque_val@U?$_Deque_simple_types@UPlayerRecords@@@std@@@std@@@2@@Z 1000f020 f i LagComp.obj
 0001:0000e0c0       ?max_size@?$_Default_allocator_traits@V?$allocator@UPlayerRecords@@@std@@@std@@SAIABV?$allocator@UPlayerRecords@@@2@@Z 1000f0c0 f i LagComp.obj
 0001:0000e0d0       ?max_size@?$deque@UPlayerRecords@@V?$allocator@UPlayerRecords@@@std@@@std@@QBEIXZ 1000f0d0 f i LagComp.obj
 0001:0000e0f0       ?pop_back@?$deque@UPlayerRecords@@V?$allocator@UPlayerRecords@@@std@@@std@@QAEXXZ 1000f0f0 f i LagComp.obj
 0001:0000e1b0       ?pop_front@?$deque@UPlayerRecords@@V?$allocator@UPlayerRecords@@@std@@@std@@QAEXXZ 1000f1b0 f i LagComp.obj
 0001:0000e270       ?push_back@?$deque@UPlayerRecords@@V?$allocator@UPlayerRecords@@@std@@@std@@QAEXABUPlayerRecords@@@Z 1000f270 f i LagComp.obj
 0001:0000e3d0       ?AnimState@C_BaseEntity@@QAEPAVC_AnimState@@XZ 1000f3d0 f i AntiAim.obj
 0001:0000e3f0       ?FreeStanding@@YAXXZ       1000f3f0 f   AntiAim.obj
 0001:0000ebf0       ?OnCreateMove@AntiAim@@QAEXXZ 1000fbf0 f   AntiAim.obj
 0001:0000ed20       ?Real@@YAXXZ               1000fd20 f   AntiAim.obj
 0001:0000ee00       ??$_Get_size_of_n@$0OI@@std@@YAII@Z 1000fe00 f i Legitbot.obj
 0001:0000ee30       ??$_Move_backward_unchecked1@V?$_Deque_unchecked_iterator@V?$_Deque_val@U?$_Deque_simple_types@ULegitPlayerRecords@@@std@@@std@@@std@@V12@@std@@YA?AV?$_Deque_unchecked_iterator@V?$_Deque_val@U?$_Deque_simple_types@ULegitPlayerRecords@@@std@@@std@@@0@V10@00U_General_ptr_iterator_tag@0@@Z 1000fe30 f i Legitbot.obj
 0001:0000eea0       ??$_Move_backward_unchecked@V?$_Deque_unchecked_iterator@V?$_Deque_val@U?$_Deque_simple_types@ULegitPlayerRecords@@@std@@@std@@@std@@V12@@std@@YA?AV?$_Deque_unchecked_iterator@V?$_Deque_val@U?$_Deque_simple_types@ULegitPlayerRecords@@@std@@@std@@@0@V10@00@Z 1000fea0 f i Legitbot.obj
 0001:0000eef0       ??$_Move_unchecked1@V?$_Deque_unchecked_iterator@V?$_Deque_val@U?$_Deque_simple_types@ULegitPlayerRecords@@@std@@@std@@@std@@V12@@std@@YA?AV?$_Deque_unchecked_iterator@V?$_Deque_val@U?$_Deque_simple_types@ULegitPlayerRecords@@@std@@@std@@@0@V10@00U_General_ptr_iterator_tag@0@@Z 1000fef0 f i Legitbot.obj
 0001:0000ef60       ??$_Move_unchecked@V?$_Deque_unchecked_iterator@V?$_Deque_val@U?$_Deque_simple_types@ULegitPlayerRecords@@@std@@@std@@@std@@V12@@std@@YA?AV?$_Deque_unchecked_iterator@V?$_Deque_val@U?$_Deque_simple_types@ULegitPlayerRecords@@@std@@@std@@@0@V10@00@Z 1000ff60 f i Legitbot.obj
 0001:0000efb0       ??$construct@ULegitPlayerRecords@@ABU1@@?$_Default_allocator_traits@V?$allocator@ULegitPlayerRecords@@@std@@@std@@SAXAAV?$allocator@ULegitPlayerRecords@@@1@QAULegitPlayerRecords@@ABU3@@Z 1000ffb0 f i Legitbot.obj
 0001:0000eff0       ??$move@V?$_Deque_iterator@V?$_Deque_val@U?$_Deque_simple_types@ULegitPlayerRecords@@@std@@@std@@@std@@V12@@std@@YA?AV?$_Deque_iterator@V?$_Deque_val@U?$_Deque_simple_types@ULegitPlayerRecords@@@std@@@std@@@0@V10@00@Z 1000fff0 f i Legitbot.obj
 0001:0000f100       ??$move_backward@V?$_Deque_iterator@V?$_Deque_val@U?$_Deque_simple_types@ULegitPlayerRecords@@@std@@@std@@@std@@V12@@std@@YA?AV?$_Deque_iterator@V?$_Deque_val@U?$_Deque_simple_types@ULegitPlayerRecords@@@std@@@std@@@0@V10@00@Z 10010100 f i Legitbot.obj
 0001:0000f210       ??0<lambda_498009bf6358dc471fbe163595f67980>@@QAE@ABVVector@@AAVVector2D@@@Z 10010210 f i Legitbot.obj
 0001:0000f240       ??0LegitPlayerRecords@@QAE@XZ 10010240 f i Legitbot.obj
 0001:0000f260       ??0Legitbot@@QAE@XZ        10010260 f i Legitbot.obj
 0001:0000f290       ??0Vector2D@@QAE@ABV0@@Z   10010290 f i Legitbot.obj
 0001:0000f2c0       ??1?$deque@ULegitPlayerRecords@@V?$allocator@ULegitPlayerRecords@@@std@@@std@@QAE@XZ 100102c0 f i Legitbot.obj
 0001:0000f310       ??1Legitbot@@QAE@XZ        10010310 f i Legitbot.obj
 0001:0000f360       ??4LegitPlayerRecords@@QAEAAU0@$$QAU0@@Z 10010360 f i Legitbot.obj
 0001:0000f3c0       ??D?$_Deque_const_iterator@V?$_Deque_val@U?$_Deque_simple_types@ULegitPlayerRecords@@@std@@@std@@@std@@QBEABULegitPlayerRecords@@XZ 100103c0 f i Legitbot.obj
 0001:0000f420       ??D?$_Deque_iterator@V?$_Deque_val@U?$_Deque_simple_types@ULegitPlayerRecords@@@std@@@std@@@std@@QBEAAULegitPlayerRecords@@XZ 10010420 f i Legitbot.obj
 0001:0000f440       ??D?$_Deque_unchecked_const_iterator@V?$_Deque_val@U?$_Deque_simple_types@ULegitPlayerRecords@@@std@@@std@@@std@@QBEABULegitPlayerRecords@@XZ 10010440 f i Legitbot.obj
 0001:0000f490       ??D?$_Deque_unchecked_iterator@V?$_Deque_val@U?$_Deque_simple_types@ULegitPlayerRecords@@@std@@@std@@@std@@QBEAAULegitPlayerRecords@@XZ 10010490 f i Legitbot.obj
 0001:0000f4b0       ??R<lambda_498009bf6358dc471fbe163595f67980>@@QBE_NXZ 100104b0 f i Legitbot.obj
 0001:0000f750       ?OnCreateMove@Legitbot@@QAEXXZ 10010750 f   Legitbot.obj
 0001:0000ffa0       ?WorldToScreen@Utils@@SA_NABVVector@@AAVVector2D@@@Z 10010fa0 f i Legitbot.obj
 0001:00010050       ?_Growmap@?$deque@ULegitPlayerRecords@@V?$allocator@ULegitPlayerRecords@@@std@@@std@@IAEXI@Z 10011050 f i Legitbot.obj
 0001:00010300       ?_Tidy@?$deque@ULegitPlayerRecords@@V?$allocator@ULegitPlayerRecords@@@std@@@std@@IAEXXZ 10011300 f i Legitbot.obj
 0001:00010410       ?allocate@?$allocator@ULegitPlayerRecords@@@std@@QAEPAULegitPlayerRecords@@I@Z 10011410 f i Legitbot.obj
 0001:00010440       ?at@?$deque@ULegitPlayerRecords@@V?$allocator@ULegitPlayerRecords@@@std@@@std@@QAEAAULegitPlayerRecords@@I@Z 10011440 f i Legitbot.obj
 0001:00010500       ?deallocate@?$allocator@ULegitPlayerRecords@@@std@@QAEXQAULegitPlayerRecords@@I@Z 10011500 f i Legitbot.obj
 0001:00010530       ?erase@?$deque@ULegitPlayerRecords@@V?$allocator@ULegitPlayerRecords@@@std@@@std@@QAE?AV?$_Deque_iterator@V?$_Deque_val@U?$_Deque_simple_types@ULegitPlayerRecords@@@std@@@std@@@2@V?$_Deque_const_iterator@V?$_Deque_val@U?$_Deque_simple_types@ULegitPlayerRecords@@@std@@@std@@@2@0@Z 10011530 f i Legitbot.obj
 0001:000107d0       ?erase@?$deque@ULegitPlayerRecords@@V?$allocator@ULegitPlayerRecords@@@std@@@std@@QAE?AV?$_Deque_iterator@V?$_Deque_val@U?$_Deque_simple_types@ULegitPlayerRecords@@@std@@@std@@@2@V?$_Deque_const_iterator@V?$_Deque_val@U?$_Deque_simple_types@ULegitPlayerRecords@@@std@@@std@@@2@@Z 100117d0 f i Legitbot.obj
 0001:00010870       ?max_size@?$_Default_allocator_traits@V?$allocator@ULegitPlayerRecords@@@std@@@std@@SAIABV?$allocator@ULegitPlayerRecords@@@2@@Z 10011870 f i Legitbot.obj
 0001:00010880       ?max_size@?$deque@ULegitPlayerRecords@@V?$allocator@ULegitPlayerRecords@@@std@@@std@@QBEIXZ 10011880 f i Legitbot.obj
 0001:000108a0       ?pop_back@?$deque@ULegitPlayerRecords@@V?$allocator@ULegitPlayerRecords@@@std@@@std@@QAEXXZ 100118a0 f i Legitbot.obj
 0001:00010960       ?pop_front@?$deque@ULegitPlayerRecords@@V?$allocator@ULegitPlayerRecords@@@std@@@std@@QAEXXZ 10011960 f i Legitbot.obj
 0001:00010a20       ?push_back@?$deque@ULegitPlayerRecords@@V?$allocator@ULegitPlayerRecords@@@std@@@std@@QAEXABULegitPlayerRecords@@@Z 10011a20 f i Legitbot.obj
 0001:00010b80       ??0Resolver@@QAE@XZ        10011b80 f i Resolver.obj
 0001:00010c20       ?AnimOverlays@C_BaseEntity@@QAEPAVAnimationLayer@@XZ 10011c20 f i Resolver.obj
 0001:00010c40       ?AnimationFix@Resolver@@AAEXPAVC_BaseEntity@@@Z 10011c40 f   Resolver.obj
 0001:00011a70       ?ClientAnimations@C_BaseEntity@@QAEX_N@Z 10012a70 f i Resolver.obj
 0001:00011b30       ?FrameStage@Resolver@@QAEXW4ClientFrameStage_t@@@Z 10012b30 f   Resolver.obj
 0001:00011c80       ?GetLowerBodyYaw@C_BaseEntity@@QAEMXZ 10012c80 f i Resolver.obj
 0001:00011d40       ?GetNetChannel@IVEngineClient@@QAEPAVNetChannel@@XZ 10012d40 f i Resolver.obj
 0001:00011d70       ?HandleHits@@YAXPAVC_BaseEntity@@@Z 10012d70 f   Resolver.obj
 0001:00012050       ?NumOverlays@C_BaseEntity@@QAEHXZ 10013050 f i Resolver.obj
 0001:00012060       ?OnCreateMove@Resolver@@QAEXXZ 10013060 f   Resolver.obj
 0001:00012830       ?SetLowerBodyYaw@C_BaseEntity@@QAEXM@Z 10013830 f i Resolver.obj
 0001:000128f0       ?UpdateClientAnimation@C_BaseEntity@@QAEXXZ 100138f0 f i Resolver.obj
 0001:00012920       ??$?0PADX@?$basic_string@DU?$char_traits@D@std@@V?$allocator@D@2@@std@@QAE@PAD0ABV?$allocator@D@1@@Z 10013920 f i c_esp.obj
 0001:000129d0       ??$?HDU?$char_traits@D@std@@V?$allocator@D@1@@std@@YA?AV?$basic_string@DU?$char_traits@D@std@@V?$allocator@D@2@@0@$$QAV10@QBD@Z 100139d0 f i c_esp.obj
 0001:00012a10       ??$?HDU?$char_traits@D@std@@V?$allocator@D@1@@std@@YA?AV?$basic_string@DU?$char_traits@D@std@@V?$allocator@D@2@@0@QBD$$QAV10@@Z 10013a10 f i c_esp.obj
 0001:00012a50       ??$?RABHABH@?$less@X@std@@QBE_NABH0@Z 10013a50 f i c_esp.obj
 0001:00012a80       ??$_Get_unwrapped@V?$_String_iterator@V?$_String_val@U?$_Simple_types@D@std@@@std@@@std@@$0A@@std@@YAPADABV?$_String_iterator@V?$_String_val@U?$_Simple_types@D@std@@@std@@@0@@Z 10013a80 f i c_esp.obj
 0001:00012a90       ??$_Get_unwrapped_n@V?$_String_iterator@V?$_String_val@U?$_Simple_types@D@std@@@std@@@std@@H$0A@@std@@YAPADABV?$_String_iterator@V?$_String_val@U?$_Simple_types@D@std@@@std@@@0@H@Z 10013a90 f i c_esp.obj
 0001:00012ac0       ??$_Idl_distance@V?$_String_iterator@V?$_String_val@U?$_Simple_types@D@std@@@std@@@std@@PAD@std@@YAHABQAD0@Z 10013ac0 f i c_esp.obj
 0001:00012ad0       ??$_Integral_to_string@DH@std@@YA?AV?$basic_string@DU?$char_traits@D@std@@V?$allocator@D@2@@0@H@Z 10013ad0 f i c_esp.obj
 0001:00012b80       ??$_Reallocate_grow_by@V<lambda_4d79bb85f269e6e8002a4599002d832c>@@IPBDI@?$basic_string@DU?$char_traits@D@std@@V?$allocator@D@2@@std@@QAEAAV01@IV<lambda_4d79bb85f269e6e8002a4599002d832c>@@IPBDI@Z 10013b80 f i c_esp.obj
 0001:00012cc0       ??$_Reallocate_grow_by@V<lambda_ab246b20b9526e2ef7792587e4298a77>@@PBDI@?$basic_string@DU?$char_traits@D@std@@V?$allocator@D@2@@std@@QAEAAV01@IV<lambda_ab246b20b9526e2ef7792587e4298a77>@@PBDI@Z 10013cc0 f i c_esp.obj
 0001:00012df0       ??$_Seek_wrapped@V?$_String_iterator@V?$_String_val@U?$_Simple_types@D@std@@@std@@@std@@PAD@std@@YAXAAV?$_String_iterator@V?$_String_val@U?$_Simple_types@D@std@@@std@@@0@ABQAD@Z 10013df0 f i c_esp.obj
 0001:00012e10       ??$_Traits_find@U?$char_traits@D@std@@@std@@YAIQBDII0I@Z 10013e10 f i c_esp.obj
 0001:00012eb0       ??$_UIntegral_to_buff@DI@std@@YAPADPADI@Z 10013eb0 f i c_esp.obj
 0001:00012f70       ??$clamp@H@std@@YAABHABH00@Z 10013f70 f i c_esp.obj
 0001:00012fa0       ??$clamp@HU?$less@X@std@@@std@@YAABHABH00U?$less@X@0@@Z 10013fa0 f i c_esp.obj
 0001:00013010       ??$end@D$0BF@@std@@YAPADAAY0BF@D@Z 10014010 f i c_esp.obj
 0001:00013020       ??$sprintf_s@$0CAH@@@YAHAAY0CAH@DPBDZZ 10014020 f i c_esp.obj
 0001:00013050       ??$transform@V?$_String_iterator@V?$_String_val@U?$_Simple_types@D@std@@@std@@@std@@V12@P6AHH@Z@std@@YA?AV?$_String_iterator@V?$_String_val@U?$_Simple_types@D@std@@@std@@@0@V10@0V10@P6AHH@Z@Z 10014050 f i c_esp.obj
 0001:00013100       ??$vsprintf_s@$0IAA@@@YAHAAY0IAA@DPBDPAD@Z 10014100 f i c_esp.obj
 0001:00013120       ??0?$basic_string@DU?$char_traits@D@std@@V?$allocator@D@2@@std@@QAE@ABV01@@Z 10014120 f i c_esp.obj
 0001:000131a0       ??0Color@@QAE@HHHH@Z       100141a0 f i c_esp.obj
 0001:000131e0       ??0Color@@QAE@XZ           100141e0 f i c_esp.obj
 0001:00013220       ??0c_esp@@QAE@XZ           10014220 f i c_esp.obj
 0001:00013250       ??A?$basic_string@DU?$char_traits@D@std@@V?$allocator@D@2@@std@@QAEAADI@Z 10014250 f i c_esp.obj
 0001:00013280       ??G?$_String_const_iterator@V?$_String_val@U?$_Simple_types@D@std@@@std@@@std@@QBEHABV01@@Z 10014280 f i c_esp.obj
 0001:000132b0       ??H?$_String_iterator@V?$_String_val@U?$_Simple_types@D@std@@@std@@@std@@QBE?AV01@H@Z 100142b0 f i c_esp.obj
 0001:000132e0       ??R<lambda_4d79bb85f269e6e8002a4599002d832c>@@QBEXQADQBDII1I@Z 100142e0 f i c_esp.obj
 0001:00013340       ??R<lambda_ab246b20b9526e2ef7792587e4298a77>@@QBEXQADQBDI1I@Z 10014340 f i c_esp.obj
 0001:000133a0       ??Y?$_String_const_iterator@V?$_String_val@U?$_Simple_types@D@std@@@std@@@std@@QAEAAV01@H@Z 100143a0 f i c_esp.obj
 0001:000133c0       ??Y?$_String_iterator@V?$_String_val@U?$_Simple_types@D@std@@@std@@@std@@QAEAAV01@H@Z 100143c0 f i c_esp.obj
 0001:000133e0       ?BoundBox@c_esp@@AAEXPAVC_BaseEntity@@@Z 100143e0 f   c_esp.obj
 0001:00013550       ?DrawFilledRect@ISurface@@QAEXHHHH@Z 10014550 f i c_esp.obj
 0001:00013590       ?DrawLine@ISurface@@QAEXHHHH@Z 10014590 f i c_esp.obj
 0001:000135d0       ?DrawOutlinedRect@ISurface@@QAEXHHHH@Z 100145d0 f i c_esp.obj
 0001:00013610       ?DrawPrintText@ISurface@@QAEXPB_WH@Z 10014610 f i c_esp.obj
 0001:00013640       ?DrawSetColor@ISurface@@QAEXHHHH@Z 10014640 f i c_esp.obj
 0001:00013680       ?DrawSetTextColor@ISurface@@QAEXHHHH@Z 10014680 f i c_esp.obj
 0001:000136c0       ?DrawSetTextFont@ISurface@@QAEXK@Z 100146c0 f i c_esp.obj
 0001:000136f0       ?DrawSetTextPos@ISurface@@QAEXHH@Z 100146f0 f i c_esp.obj
 0001:00013720       ?DrawT@ISurface@@QAAXHHUColor@@H_NPBDZZ 10014720 f i c_esp.obj
 0001:00013930       ?FilledRect@ISurface@@QAEXHHHHUColor@@@Z 10014930 f i c_esp.obj
 0001:00013980       ?GetAmmo@C_BaseCombatWeapon@@QAEHXZ 10014980 f i c_esp.obj
 0001:00013a40       ?GetCSWpnData_2@C_BaseCombatWeapon@@QAEPAVweapon_info_t@@XZ 10014a40 f i c_esp.obj
 0001:00013a70       ?GetName@C_BaseCombatWeapon@@QAE?AV?$basic_string@DU?$char_traits@D@std@@V?$allocator@D@2@@std@@XZ 10014a70 f i c_esp.obj
 0001:00013ab0       ?GetTextSize@ISurface@@QAEXKPB_WAAH1@Z 10014ab0 f i c_esp.obj
 0001:00013af0       ?Line@ISurface@@QAEXHHHHUColor@@@Z 10014af0 f i c_esp.obj
 0001:00013b30       ?OutlinedRect@ISurface@@QAEXHHHHUColor@@@Z 10014b30 f i c_esp.obj
 0001:00013b80       ?Render@c_esp@@QAEXXZ      10014b80 f   c_esp.obj
 0001:00013d70       ?RenderAmmo@c_esp@@AAEXPAVC_BaseEntity@@@Z 10014d70 f   c_esp.obj
 0001:00014170       ?RenderBox@c_esp@@AAEXXZ   10015170 f   c_esp.obj
 0001:000145b0       ?RenderHealth@c_esp@@AAEXPAVC_BaseEntity@@@Z 100155b0 f   c_esp.obj
 0001:00014a40       ?RenderName@c_esp@@AAEXPAVC_BaseEntity@@H@Z 10015a40 f   c_esp.obj
 0001:00014c80       ?RenderSkeleton@c_esp@@AAEXPAVC_BaseEntity@@@Z 10015c80 f   c_esp.obj
 0001:00015710       ?RenderWeaponName@c_esp@@AAEXPAVC_BaseEntity@@@Z 10016710 f   c_esp.obj
 0001:00015b50       ?_Check_offset@?$_String_val@U?$_Simple_types@D@std@@@std@@QBEXI@Z 10016b50 f i c_esp.obj
 0001:00015b70       ?_Clamp_suffix_size@?$_String_val@U?$_Simple_types@D@std@@@std@@QBEIII@Z 10016b70 f i c_esp.obj
 0001:00015ba0       ?_Construct@?$basic_string@DU?$char_traits@D@std@@V?$allocator@D@2@@std@@QAEXQAD0Urandom_access_iterator_tag@2@@Z 10016ba0 f i c_esp.obj
 0001:00015be0       ?_Construct_lv_contents@?$basic_string@DU?$char_traits@D@std@@V?$allocator@D@2@@std@@QAEXABV12@@Z 10016be0 f i c_esp.obj
 0001:00015ce0       ?_Seek_to@?$_String_const_iterator@V?$_String_val@U?$_Simple_types@D@std@@@std@@@std@@QAEXPBD@Z 10016ce0 f i c_esp.obj
 0001:00015d00       ?_Unwrapped@?$_String_iterator@V?$_String_val@U?$_Simple_types@D@std@@@std@@@std@@QBEPADXZ 10016d00 f i c_esp.obj
 0001:00015d20       ?_Xran@?$_String_val@U?$_Simple_types@D@std@@@std@@SAXXZ 10016d20 f i c_esp.obj
 0001:00015d30       ?append@?$basic_string@DU?$char_traits@D@std@@V?$allocator@D@2@@std@@QAEAAV12@QBD@Z 10016d30 f i c_esp.obj
 0001:00015d60       ?append@?$basic_string@DU?$char_traits@D@std@@V?$allocator@D@2@@std@@QAEAAV12@QBDI@Z 10016d60 f i c_esp.obj
 0001:00015e00       ?begin@?$basic_string@DU?$char_traits@D@std@@V?$allocator@D@2@@std@@QAE?AV?$_String_iterator@V?$_String_val@U?$_Simple_types@D@std@@@std@@@2@XZ 10016e00 f i c_esp.obj
 0001:00015e70       ?clean_name@@YA?AV?$basic_string@DU?$char_traits@D@std@@V?$allocator@D@2@@std@@V12@@Z 10016e70 f   c_esp.obj
 0001:00015fd0       ?end@?$basic_string@DU?$char_traits@D@std@@V?$allocator@D@2@@std@@QAE?AV?$_String_iterator@V?$_String_val@U?$_Simple_types@D@std@@@std@@@2@XZ 10016fd0 f i c_esp.obj
 0001:00016050       ?erase@?$basic_string@DU?$char_traits@D@std@@V?$allocator@D@2@@std@@QAE?AV?$_String_iterator@V?$_String_val@U?$_Simple_types@D@std@@@std@@@2@V?$_String_const_iterator@V?$_String_val@U?$_Simple_types@D@std@@@std@@@2@0@Z 10017050 f i c_esp.obj
 0001:000160d0       ?erase@?$basic_string@DU?$char_traits@D@std@@V?$allocator@D@2@@std@@QAE?AV?$_String_iterator@V?$_String_val@U?$_Simple_types@D@std@@@std@@@2@V?$_String_const_iterator@V?$_String_val@U?$_Simple_types@D@std@@@std@@@2@@Z 100170d0 f i c_esp.obj
 0001:00016130       ?erase@?$basic_string@DU?$char_traits@D@std@@V?$allocator@D@2@@std@@QAEAAV12@II@Z 10017130 f i c_esp.obj
 0001:000161c0       ?find@?$basic_string@DU?$char_traits@D@std@@V?$allocator@D@2@@std@@QBEIQBDI@Z 100171c0 f i c_esp.obj
 0001:00016250       ?find@?$char_traits@D@std@@SAPBDQBDIABD@Z 10017250 f i c_esp.obj
 0001:00016280       ?insert@?$basic_string@DU?$char_traits@D@std@@V?$allocator@D@2@@std@@QAEAAV12@IQBD@Z 10017280 f i c_esp.obj
 0001:000162c0       ?insert@?$basic_string@DU?$char_traits@D@std@@V?$allocator@D@2@@std@@QAEAAV12@IQBDI@Z 100172c0 f i c_esp.obj
 0001:000163e0       ?m_iPrimaryReserveAmmoCount@C_BaseCombatWeapon@@QAEHXZ 100173e0 f i c_esp.obj
 0001:000164a0       ?to_string@std@@YA?AV?$basic_string@DU?$char_traits@D@std@@V?$allocator@D@2@@1@H@Z 100174a0 f i c_esp.obj
 0001:000164d0       ___local_stdio_printf_options 100174d0 f i c_esp.obj
 0001:000164e0       __vsprintf_s_l             100174e0 f i c_esp.obj
 0001:00016530       _vsprintf_s                10017530 f i c_esp.obj
 0001:00016550       ??A?$ImVector@UImDrawCmd@@@@QAEAAUImDrawCmd@@H@Z 10017550 f i imgui_draw.obj
 0001:00016550       ??A?$ImVector@UImDrawCmd@@@@QBEABUImDrawCmd@@H@Z 10017550 f i imgui_impl_dx9.obj
 0001:00016570       ?ImGui_ImplDX9_CreateDeviceObjects@@YA_NXZ 10017570 f   imgui_impl_dx9.obj
 0001:000166c0       ?ImGui_ImplDX9_Init@@YA_NPAXPAUIDirect3DDevice9@@@Z 100176c0 f   imgui_impl_dx9.obj
 0001:000168a0       ?ImGui_ImplDX9_InvalidateDeviceObjects@@YAXXZ 100178a0 f   imgui_impl_dx9.obj
 0001:00016940       ?ImGui_ImplDX9_NewFrame@@YAXXZ 10017940 f   imgui_impl_dx9.obj
 0001:00016ae0       ?ImGui_ImplDX9_RenderDrawLists@@YAXPAUImDrawData@@@Z 10017ae0 f   imgui_impl_dx9.obj
 0001:00017710       ?ImGui_ImplDX9_WndProcHandler@@YAJPAUHWND__@@IIJ@Z 10018710 f   imgui_impl_dx9.obj
 0001:00017950       ??$_Pocma@V?$allocator@D@std@@@std@@YAXAAV?$allocator@D@0@0@Z 10018950 f i imgui.obj
 0001:00017970       ??$_Pocma@V?$allocator@D@std@@@std@@YAXAAV?$allocator@D@0@0U?$integral_constant@_N$00@0@@Z 10018970 f i imgui.obj
 0001:00017990       ??$nigga@H@@YAHHHH@Z       10018990 f i imgui.obj
 0001:000179c0       ??0?$ImVector@PAUImFont@@@@QAE@XZ 100189c0 f i imgui.obj
 0001:000179c0       ??0?$ImVector@UGlyph@ImFont@@@@QAE@XZ 100189c0 f i imgui_draw.obj
 0001:000179c0       ??0?$ImVector@UImGuiStyleMod@@@@QAE@XZ 100189c0 f i imgui.obj
 0001:000179c0       ??0?$ImVector@UImFontConfig@@@@QAE@XZ 100189c0 f i imgui_draw.obj
 0001:000179c0       ??0?$ImVector@PAX@@QAE@XZ  100189c0 f i imgui.obj
 0001:000179c0       ??0?$ImVector@UImDrawChannel@@@@QAE@XZ 100189c0 f i imgui.obj
 0001:000179c0       ??0?$ImVector@D@@QAE@XZ    100189c0 f i imgui.obj
 0001:000179c0       ??0?$ImVector@G@@QAE@XZ    100189c0 f i imgui.obj
 0001:000179c0       ??0?$ImVector@UImVec2@@@@QAE@XZ 100189c0 f i imgui.obj
 0001:000179c0       ??0?$ImVector@UImDrawVert@@@@QAE@XZ 100189c0 f i imgui.obj
 0001:000179c0       ??0?$ImVector@UImDrawCmd@@@@QAE@XZ 100189c0 f i imgui.obj
 0001:000179c0       ??0?$ImVector@UImGuiColMod@@@@QAE@XZ 100189c0 f i imgui.obj
 0001:000179c0       ??0?$ImVector@_N@@QAE@XZ   100189c0 f i imgui.obj
 0001:000179c0       ??0?$ImVector@UImVec4@@@@QAE@XZ 100189c0 f i imgui.obj
 0001:000179c0       ??0?$ImVector@PAUImGuiWindow@@@@QAE@XZ 100189c0 f i imgui.obj
 0001:000179c0       ??0?$ImVector@UCustomRect@ImFontAtlas@@@@QAE@XZ 100189c0 f i imgui_draw.obj
 0001:000179c0       ??0?$ImVector@UImGuiPopupRef@@@@QAE@XZ 100189c0 f i imgui.obj
 0001:000179c0       ??0?$ImVector@UImGuiColumnData@@@@QAE@XZ 100189c0 f i imgui.obj
 0001:000179c0       ??0?$ImVector@UImGuiIniData@@@@QAE@XZ 100189c0 f i imgui.obj
 0001:000179c0       ??0?$ImVector@Ustbrp_rect@@@@QAE@XZ 100189c0 f i imgui_draw.obj
 0001:000179c0       ??0?$ImVector@PAUImDrawList@@@@QAE@XZ 100189c0 f i imgui.obj
 0001:000179c0       ??0?$ImVector@UPair@ImGuiStorage@@@@QAE@XZ 100189c0 f i imgui.obj
 0001:000179c0       ??0?$ImVector@UImGuiGroupData@@@@QAE@XZ 100189c0 f i imgui.obj
 0001:000179c0       ??0?$ImVector@I@@QAE@XZ    100189c0 f i imgui.obj
 0001:000179c0       ??0?$ImVector@M@@QAE@XZ    100189c0 f i imgui.obj
 0001:000179f0       ??0ImColor@@QAE@HHHH@Z     100189f0 f i imgui.obj
 0001:00017a60       ??0ImColor@@QAE@MMMM@Z     10018a60 f i imgui.obj
 0001:00017ab0       ??0ImDrawData@@QAE@XZ      10018ab0 f i imgui.obj
 0001:00017af0       ??0ImDrawList@@QAE@XZ      10018af0 f i imgui.obj
 0001:00017bb0       ??0ImGuiColMod@@QAE@XZ     10018bb0 f i imgui.obj
 0001:00017bd0       ??0ImGuiContext@@QAE@XZ    10018bd0 f i imgui.obj
 0001:00018290       ??0ImGuiDrawContext@@QAE@XZ 10019290 f i imgui.obj
 0001:000185a0       ??0ImGuiIO@@QAE@XZ         100195a0 f   imgui.obj
 0001:000188f0       ??0ImGuiMouseCursorData@@QAE@XZ 100198f0 f i imgui.obj
 0001:00018940       ??0ImGuiPopupRef@@QAE@IPAUImGuiWindow@@IABUImVec2@@@Z 10019940 f i imgui.obj
 0001:00018990       ??0ImGuiSimpleColumns@@QAE@XZ 10019990 f   imgui.obj
 0001:00018a10       ??0ImGuiSizeConstraintCallbackData@@QAE@XZ 10019a10 f i imgui.obj
 0001:00018a40       ??0ImGuiStorage@@QAE@XZ    10019a40 f i imgui.obj
 0001:00018a60       ??0ImGuiStyle@@QAE@XZ      10019a60 f   imgui.obj
 0001:00019f30       ??0ImGuiStyleMod@@QAE@HM@Z 1001af30 f i imgui.obj
 0001:00019f60       ??0ImGuiStyleMod@@QAE@HUImVec2@@@Z 1001af60 f i imgui.obj
 0001:00019fb0       ??0ImGuiTextBuffer@@QAE@XZ 1001afb0 f i imgui.obj
 0001:0001a020       ??0ImGuiTextEditState@@QAE@XZ 1001b020 f i imgui.obj
 0001:0001a0a0       ??0ImGuiWindow@@QAE@PBD@Z  1001b0a0 f   imgui.obj
 0001:0001a5d0       ??0ImRect@@QAE@ABUImVec2@@0@Z 1001b5d0 f i imgui.obj
 0001:0001a610       ??0ImRect@@QAE@ABUImVec4@@@Z 1001b610 f i imgui.obj
 0001:0001a680       ??0ImRect@@QAE@MMMM@Z      1001b680 f i imgui.obj
 0001:0001a6e0       ??0ImRect@@QAE@XZ          1001b6e0 f i imgui.obj
 0001:0001a750       ??0ImVec2@@QAE@XZ          1001b750 f i imgui.obj
 0001:0001a780       ??0ImVec4@@QAE@MMMM@Z      1001b780 f i imgui.obj
 0001:0001a7d0       ??0ImVec4@@QAE@XZ          1001b7d0 f i imgui.obj
 0001:0001a810       ??0Pair@ImGuiStorage@@QAE@IM@Z 1001b810 f i imgui.obj
 0001:0001a840       ??1?$ImVector@UImGuiPopupRef@@@@QAE@XZ 1001b840 f i imgui.obj
 0001:0001a840       ??1?$ImVector@UImGuiGroupData@@@@QAE@XZ 1001b840 f i imgui.obj
 0001:0001a840       ??1?$ImVector@UImDrawVert@@@@QAE@XZ 1001b840 f i imgui.obj
 0001:0001a840       ??1?$ImVector@UImVec4@@@@QAE@XZ 1001b840 f i imgui.obj
 0001:0001a840       ??1?$ImVector@Ustbrp_rect@@@@QAE@XZ 1001b840 f i imgui_draw.obj
 0001:0001a840       ??1?$ImVector@PAUImFont@@@@QAE@XZ 1001b840 f i imgui.obj
 0001:0001a840       ??1?$ImVector@UImVec2@@@@QAE@XZ 1001b840 f i imgui.obj
 0001:0001a840       ??1?$ImVector@PAX@@QAE@XZ  1001b840 f i imgui.obj
 0001:0001a840       ??1?$ImVector@UImGuiColMod@@@@QAE@XZ 1001b840 f i imgui.obj
 0001:0001a840       ??1?$ImVector@PAUImDrawList@@@@QAE@XZ 1001b840 f i imgui.obj
 0001:0001a840       ??1?$ImVector@UPair@ImGuiStorage@@@@QAE@XZ 1001b840 f i imgui.obj
 0001:0001a840       ??1?$ImVector@UGlyph@ImFont@@@@QAE@XZ 1001b840 f i imgui_draw.obj
 0001:0001a840       ??1?$ImVector@UCustomRect@ImFontAtlas@@@@QAE@XZ 1001b840 f i imgui_draw.obj
 0001:0001a840       ??1?$ImVector@UImFontConfig@@@@QAE@XZ 1001b840 f i imgui_draw.obj
 0001:0001a840       ??1?$ImVector@D@@QAE@XZ    1001b840 f i imgui.obj
 0001:0001a840       ??1?$ImVector@UImDrawChannel@@@@QAE@XZ 1001b840 f i imgui.obj
 0001:0001a840       ??1?$ImVector@I@@QAE@XZ    1001b840 f i imgui.obj
 0001:0001a840       ??1?$ImVector@UImGuiIniData@@@@QAE@XZ 1001b840 f i imgui.obj
 0001:0001a840       ??1?$ImVector@PAUImGuiWindow@@@@QAE@XZ 1001b840 f i imgui.obj
 0001:0001a840       ??1?$ImVector@G@@QAE@XZ    1001b840 f i imgui.obj
 0001:0001a840       ??1?$ImVector@UImGuiColumnData@@@@QAE@XZ 1001b840 f i imgui.obj
 0001:0001a840       ??1?$ImVector@UImDrawCmd@@@@QAE@XZ 1001b840 f i imgui.obj
 0001:0001a840       ??1?$ImVector@UImGuiStyleMod@@@@QAE@XZ 1001b840 f i imgui.obj
 0001:0001a840       ??1?$ImVector@M@@QAE@XZ    1001b840 f i imgui.obj
 0001:0001a840       ??1?$ImVector@_N@@QAE@XZ   1001b840 f i imgui.obj
 0001:0001a890       ??1ImDrawList@@QAE@XZ      1001b890 f i imgui.obj
 0001:0001a920       ??1ImGuiContext@@QAE@XZ    1001b920 f i imgui.obj
 0001:0001aa30       ??1ImGuiDrawContext@@QAE@XZ 1001ba30 f i imgui.obj
 0001:0001aaa0       ??1ImGuiStorage@@QAE@XZ    1001baa0 f i imgui.obj
 0001:0001aac0       ??1ImGuiTextEditState@@QAE@XZ 1001bac0 f i imgui.obj
 0001:0001aaf0       ??2@YAPAXIUImPlacementNewDummy@@PAX@Z 1001baf0 f i imgui.obj
 0001:0001ab00       ??4?$basic_string@DU?$char_traits@D@std@@V?$allocator@D@2@@std@@QAEAAV01@$$QAV01@@Z 1001bb00 f i imgui.obj
 0001:0001aba0       ??A?$ImVector@D@@QAEAADH@Z 1001bba0 f i imgui.obj
 0001:0001abc0       ??A?$ImVector@G@@QAEAAGH@Z 1001bbc0 f i imgui.obj
 0001:0001abc0       ??A?$ImVector@G@@QBEABGH@Z 1001bbc0 f i imgui.obj
 0001:0001abe0       ??A?$ImVector@PAUImGuiWindow@@@@QAEAAPAUImGuiWindow@@H@Z 1001bbe0 f i imgui.obj
 0001:0001abe0       ??A?$ImVector@PAUImDrawList@@@@QAEAAPAUImDrawList@@H@Z 1001bbe0 f i imgui.obj
 0001:0001abe0       ??A?$ImVector@PAUImFont@@@@QAEAAPAUImFont@@H@Z 1001bbe0 f i imgui.obj
 0001:0001abe0       ??A?$ImVector@M@@QAEAAMH@Z 1001bbe0 f i imgui_draw.obj
 0001:0001abe0       ??A?$ImVector@M@@QBEABMH@Z 1001bbe0 f i imgui.obj
 0001:0001ac00       ??A?$ImVector@UImGuiColumnData@@@@QAEAAUImGuiColumnData@@H@Z 1001bc00 f i imgui.obj
 0001:0001ac20       ??A?$ImVector@UImGuiIniData@@@@QAEAAUImGuiIniData@@H@Z 1001bc20 f i imgui.obj
 0001:0001ac40       ??A?$ImVector@UImDrawChannel@@@@QAEAAUImDrawChannel@@H@Z 1001bc40 f i imgui_draw.obj
 0001:0001ac40       ??A?$ImVector@UImGuiPopupRef@@@@QAEAAUImGuiPopupRef@@H@Z 1001bc40 f i imgui.obj
 0001:0001ac60       ??BImColor@@QBEIXZ         1001bc60 f i imgui.obj
 0001:0001b2e0       ?Add@ImRect@@QAEXABU1@@Z   1001c2e0 f i imgui.obj
 0001:0001b400       ?AddInputCharacter@ImGuiIO@@QAEXG@Z 1001c400 f   imgui.obj
 0001:0001b840       ?Begin@ImGui@@YA_NPBDPA_NABUImVec2@@MH@Z 1001c840 f   imgui.obj
 0001:0001efc0       ?Begin@ImGui@@YA_NPBDPA_NH@Z 1001ffc0 f   imgui.obj
 0001:0001f010       ?BeginChild@ImGui@@YA_NIABUImVec2@@_NH@Z 10020010 f   imgui.obj
 0001:0001f030       ?BeginChild@ImGui@@YA_NPBDABUImVec2@@_NH@Z 10020030 f   imgui.obj
 0001:0001f330       ?BeginChildFrame@ImGui@@YA_NIABUImVec2@@H@Z 10020330 f   imgui.obj
 0001:0001f3e0       ?BeginColumns@ImGui@@YAXPBDHH@Z 100203e0 f   imgui.obj
 0001:0001f870       ?BeginGroup@ImGui@@YAXXZ   10020870 f   imgui.obj
 0001:0001f9d0       ?BeginPopup@ImGui@@YA_NPBD@Z 100209d0 f   imgui.obj
 0001:0001fb40       ?Button@ImGui@@YA_NPBDABUImVec2@@@Z 10020b40 f   imgui.obj
 0001:0001fb60       ?ButtonBehavior@ImGui@@YA_NABUImRect@@IPA_N1H@Z 10020b60 f   imgui.obj
 0001:0001fe70       ?ButtonEx@ImGui@@YA_NPBDABUImVec2@@H@Z 10020e70 f   imgui.obj
 0001:000200f0       ?ButtonExT@ImGui@@YA_NPBDABUImVec2@@HHH_NUImColor@@@Z 100210f0 f   imgui.obj
 0001:000205c0       ?ButtonT@ImGui@@YA_NPBDABUImVec2@@HHUImColor@@_N@Z 100215c0 f   imgui.obj
 0001:00020600       ?CalcFontSize@ImGuiWindow@@QBEMXZ 10021600 f i imgui.obj
 0001:00020630       ?CalcItemSize@ImGui@@YA?AUImVec2@@U2@MM@Z 10021630 f   imgui.obj
 0001:000207a0       ?CalcItemWidth@ImGui@@YAMXZ 100217a0 f   imgui.obj
 0001:00020820       ?CalcTextSize@ImGui@@YA?AUImVec2@@PBD0_NM@Z 10021820 f   imgui.obj
 0001:00020950       ?CalcWrapWidthForPos@ImGui@@YAMABUImVec2@@M@Z 10021950 f   imgui.obj
 0001:00020b10       ?Checkbox@ImGui@@YA_NPBDPA_N@Z 10021b10 f   imgui.obj
 0001:000213f0       ?CheckboxFlags@ImGui@@YA_NPBDPAII@Z 100223f0 f   imgui.obj
 0001:00021500       ?ClearActiveID@ImGui@@YAXXZ 10022500 f   imgui.obj
 0001:00021520       ?ClearSelection@ImGuiTextEditState@@QAEXXZ 10022520 f i imgui.obj
 0001:000215b0       ?ClipWith@ImRect@@QAEXABU1@@Z 100225b0 f i imgui.obj
 0001:00021630       ?CloseButton@ImGui@@YA_NIABUImVec2@@M@Z 10022630 f   imgui.obj
 0001:00021940       ?CloseCurrentPopup@ImGui@@YAXXZ 10022940 f   imgui.obj
 0001:00021c40       ?ColorButton@ImGui@@YA_NPBDABUImVec4@@HUImVec2@@@Z 10022c40 f   imgui.obj
 0001:00022360       ?ColorConvertFloat4ToU32@ImGui@@YAIABUImVec4@@@Z 10023360 f   imgui.obj
 0001:00022460       ?ColorConvertHSVtoRGB@ImGui@@YAXMMMAAM00@Z 10023460 f   imgui.obj
 0001:00022670       ?ColorConvertRGBtoHSV@ImGui@@YAXMMMAAM00@Z 10023670 f   imgui.obj
 0001:00022790       ?ColorEdit4@ImGui@@YA_NPBDQAMH@Z 10023790 f   imgui.obj
 0001:00023830       ?ColorPicker4@ImGui@@YA_NPBDQAMHPBM@Z 10024830 f   imgui.obj
 0001:00024e40       ?Columns@ImGui@@YAXHPBD_N@Z 10025e40 f   imgui.obj
 0001:00024eb0       ?Combo@ImGui@@YA_NPBDPAHP6A_NPAXHPAPBD@Z2HH@Z 10025eb0 f   imgui.obj
 0001:000258a0       ?Combo@ImGui@@YA_NPBDPAHPBQBDHH@Z 100268a0 f   imgui.obj
 0001:000258d0       ?Contains@ImRect@@QBE_NABUImVec2@@@Z 100268d0 f i imgui.obj
 0001:00025940       ?CreateContext@ImGui@@YAPAUImGuiContext@@P6APAXI@ZP6AXPAX@Z@Z 10026940 f   imgui.obj
 0001:00025db0       ?CursorAnimReset@ImGuiTextEditState@@QAEXXZ 10026db0 f i imgui.obj
 0001:00025dd0       ?CursorClamp@ImGuiTextEditState@@QAEXXZ 10026dd0 f i imgui.obj
 0001:00026200       ?DragBehavior@ImGui@@YA_NABUImRect@@IPAMMMMHM@Z 10027200 f   imgui.obj
 0001:000266a0       ?DragFloat@ImGui@@YA_NPBDPAMMMM0M@Z 100276a0 f   imgui.obj
 0001:00026b10       ?DragInt@ImGui@@YA_NPBDPAHMHH0@Z 10027b10 f   imgui.obj
 0001:00026b90       ?Dummy@ImGui@@YAXABUImVec2@@@Z 10027b90 f   imgui.obj
 0001:00026c10       ?End@ImGui@@YAXXZ          10027c10 f   imgui.obj
 0001:00026cd0       ?EndChild@ImGui@@YAX_N@Z   10027cd0 f   imgui.obj
 0001:00027a10       ?EndChildFrame@ImGui@@YAXXZ 10028a10 f   imgui.obj
 0001:00027a40       ?EndColumns@ImGui@@YAXXZ   10028a40 f   imgui.obj
 0001:00027e40       ?EndFrame@ImGui@@YAXXZ     10028e40 f   imgui.obj
 0001:00028130       ?EndGroup@ImGui@@YAXXZ     10029130 f   imgui.obj
 0001:00028370       ?EndPopup@ImGui@@YAXXZ     10029370 f   imgui.obj
 0001:000283a0       ?Expand@ImRect@@QAEXABUImVec2@@@Z 100293a0 f i imgui.obj
 0001:000288f0       ?FindRenderedTextEnd@ImGui@@YAPBDPBD0@Z 100298f0 f   imgui.obj
 0001:00028960       ?FindWindowByName@ImGui@@YAPAUImGuiWindow@@PBD@Z 10029960 f   imgui.obj
 0001:00028a70       ?FocusWindow@ImGui@@YAXPAUImGuiWindow@@@Z 10029a70 f   imgui.obj
 0001:00028ba0       ?FocusableItemRegister@ImGui@@YA_NPAUImGuiWindow@@_N1@Z 10029ba0 f   imgui.obj
 0001:00028cc0       ?FocusableItemUnregister@ImGui@@YAXPAUImGuiWindow@@@Z 10029cc0 f   imgui.obj
 0001:00028cf0       ?GetBL@ImRect@@QBE?AUImVec2@@XZ 10029cf0 f i imgui.obj
 0001:00028d30       ?GetBR@ImRect@@QBE?AUImVec2@@XZ 10029d30 f i imgui.obj
 0001:00028d60       ?GetCenter@ImRect@@QBE?AUImVec2@@XZ 10029d60 f i imgui.obj
 0001:00028dc0       ?GetCharAdvance@ImFont@@QBEMG@Z 10029dc0 f i imgui.obj
 0001:00028e10       ?GetClipboardText@ImGui@@YAPBDXZ 10029e10 f   imgui.obj
 0001:00028f90       ?GetColorU32@ImGui@@YAIABUImVec4@@@Z 10029f90 f   imgui.obj
 0001:00028fe0       ?GetColorU32@ImGui@@YAIHM@Z 10029fe0 f   imgui.obj
 0001:00029040       ?GetColorU32@ImGui@@YAII@Z 1002a040 f   imgui.obj
 0001:000290a0       ?GetColumnOffset@ImGui@@YAMH@Z 1002a0a0 f   imgui.obj
 0001:00029120       ?GetColumnWidth@ImGui@@YAMH@Z 1002a120 f   imgui.obj
 0001:000291a0       ?GetContentRegionAvail@ImGui@@YA?AUImVec2@@XZ 1002a1a0 f   imgui.obj
 0001:00029200       ?GetContentRegionMax@ImGui@@YA?AUImVec2@@XZ 1002a200 f   imgui.obj
 0001:00029270       ?GetCurrentWindow@ImGui@@YAPAUImGuiWindow@@XZ 1002a270 f i imgui.obj
 0001:000292a0       ?GetCurrentWindowRead@ImGui@@YAPAUImGuiWindow@@XZ 1002a2a0 f i imgui.obj
 0001:000292c0       ?GetCursorPosX@ImGui@@YAMXZ 1002a2c0 f   imgui.obj
 0001:00029300       ?GetCursorPosY@ImGui@@YAMXZ 1002a300 f   imgui.obj
 0001:00029340       ?GetCursorScreenPos@ImGui@@YA?AUImVec2@@XZ 1002a340 f   imgui.obj
 0001:00029490       ?GetFloat@ImGuiStorage@@QBEMIM@Z 1002a490 f   imgui.obj
 0001:000294e0       ?GetFrameCount@ImGui@@YAHXZ 1002a4e0 f   imgui.obj
 0001:00029560       ?GetHeight@ImRect@@QBEMXZ  1002a560 f i imgui.obj
 0001:00029590       ?GetID@ImGuiWindow@@QAEIPBD0@Z 1002a590 f   imgui.obj
 0001:00029600       ?GetID@ImGuiWindow@@QAEIPBX@Z 1002a600 f   imgui.obj
 0001:00029650       ?GetIDNoKeepAlive@ImGuiWindow@@QAEIPBD0@Z 1002a650 f   imgui.obj
 0001:000296b0       ?GetIO@ImGui@@YAAAUImGuiIO@@XZ 1002a6b0 f   imgui.obj
 0001:00029720       ?GetMouseDragDelta@ImGui@@YA?AUImVec2@@HM@Z 1002a720 f   imgui.obj
 0001:000297c0       ?GetScrollMaxX@ImGui@@YAMXZ 1002a7c0 f   imgui.obj
 0001:00029810       ?GetScrollMaxY@ImGui@@YAMXZ 1002a810 f   imgui.obj
 0001:00029860       ?GetSize@ImRect@@QBE?AUImVec2@@XZ 1002a860 f i imgui.obj
 0001:000298b0       ?GetStyle@ImGui@@YAAAUImGuiStyle@@XZ 1002a8b0 f   imgui.obj
 0001:000298d0       ?GetTR@ImRect@@QBE?AUImVec2@@XZ 1002a8d0 f i imgui.obj
 0001:00029910       ?GetTextLineHeight@ImGui@@YAMXZ 1002a910 f   imgui.obj
 0001:00029930       ?GetVarPtr@ImGuiStyleVarInfo@@QBEPAXXZ 1002a930 f i imgui.obj
 0001:000299f0       ?GetWidth@ImRect@@QBEMXZ   1002a9f0 f i imgui.obj
 0001:00029a20       ?GetWindowContentRegionMax@ImGui@@YA?AUImVec2@@XZ 1002aa20 f   imgui.obj
 0001:00029a50       ?GetWindowDrawList@ImGui@@YAPAUImDrawList@@XZ 1002aa50 f   imgui.obj
 0001:00029a70       ?GetWindowPos@ImGui@@YA?AUImVec2@@XZ 1002aa70 f   imgui.obj
 0001:00029ab0       ?GetWindowSize@ImGui@@YA?AUImVec2@@XZ 1002aab0 f   imgui.obj
 0001:00029ae0       ?GetWindowWidth@ImGui@@YAMXZ 1002aae0 f   imgui.obj
 0001:00029b00       ?HasSelection@ImGuiTextEditState@@QBE_NXZ 1002ab00 f i imgui.obj
 0001:00029d30       ?ImFileLoadToMemory@@YAPAXPBD0PAHH@Z 1002ad30 f   imgui.obj
 0001:00029e60       ?ImFileOpen@@YAPAU_iobuf@@PBD0@Z 1002ae60 f   imgui.obj
 0001:00029fc0       ?ImFormatString@@YAHPADHPBDZZ 1002afc0 f   imgui.obj
 0001:0002a020       ?ImFormatStringV@@YAHPADHPBD0@Z 1002b020 f   imgui.obj
 0001:0002a070       ?ImHash@@YAIPBXHI@Z        1002b070 f   imgui.obj
 0001:0002a4a0       ?ImStrbolW@@YAPBGPBG0@Z    1002b4a0 f   imgui.obj
 0001:0002a4d0       ?ImStrdup@@YAPADPBD@Z      1002b4d0 f   imgui.obj
 0001:0002a530       ?ImStrlenW@@YAHPBG@Z       1002b530 f   imgui.obj
 0001:0002a570       ?ImStrncpy@@YAXPADPBDH@Z   1002b570 f   imgui.obj
 0001:0002a5a0       ?ImTextCharFromUtf8@@YAHPAIPBD1@Z 1002b5a0 f   imgui.obj
 0001:0002ab70       ?ImTextCountCharsFromUtf8@@YAHPBD0@Z 1002bb70 f   imgui.obj
 0001:0002ac40       ?ImTextCountUtf8BytesFromStr@@YAHPBG0@Z 1002bc40 f   imgui.obj
 0001:0002acb0       ?ImTextStrFromUtf8@@YAHPAGHPBD1PAPBD@Z 1002bcb0 f   imgui.obj
 0001:0002ad50       ?ImTextStrToUtf8@@YAHPADHPBG1@Z 1002bd50 f   imgui.obj
 0001:0002ae60       ?InputScalarAsWidgetReplacement@ImGui@@YA_NABUImRect@@PBDW4ImGuiDataType@@PAXIH@Z 1002be60 f   imgui.obj
 0001:0002b1c0       ?InputTextEx@ImGui@@YA_NPBDPADHABUImVec2@@HP6AHPAUImGuiTextEditCallbackData@@@ZPAX@Z 1002c1c0 f   imgui.obj
 0001:0002ddb0       ?InvisibleButton@ImGui@@YA_NPBDABUImVec2@@@Z 1002edb0 f   imgui.obj
 0001:0002df30       ?IsClippedEx@ImGui@@YA_NABUImRect@@PBI_N@Z 1002ef30 f   imgui.obj
 0001:0002dfa0       ?IsHovered@ImGui@@YA_NABUImRect@@I_N@Z 1002efa0 f   imgui.obj
 0001:0002e080       ?IsItemActive@ImGui@@YA_NXZ 1002f080 f   imgui.obj
 0001:0002e0e0       ?IsItemHovered@ImGui@@YA_NXZ 1002f0e0 f   imgui.obj
 0001:0002e100       ?IsKeyPressed@ImGui@@YA_NH_N@Z 1002f100 f   imgui.obj
 0001:0002e270       ?IsMouseClicked@ImGui@@YA_NH_N@Z 1002f270 f   imgui.obj
 0001:0002e3a0       ?IsMouseHoveringRect@ImGui@@YA_NABUImVec2@@0_N@Z 1002f3a0 f   imgui.obj
 0001:0002e440       ?IsPopupOpen@ImGui@@YA_NI@Z 1002f440 f   imgui.obj
 0001:0002e510       ?ItemAdd@ImGui@@YA_NABUImRect@@PBI@Z 1002f510 f   imgui.obj
 0001:0002e640       ?ItemSize@ImGui@@YAXABUImRect@@M@Z 1002f640 f   imgui.obj
 0001:0002e670       ?ItemSize@ImGui@@YAXABUImVec2@@M@Z 1002f670 f   imgui.obj
 0001:0002e880       ?KeepAliveID@ImGui@@YAXI@Z 1002f880 f   imgui.obj
 0001:0002eaf0       ?LogFinish@ImGui@@YAXXZ    1002faf0 f   imgui.obj
 0001:0002ed60       ?LogText@ImGui@@YAXPBDZZ   1002fd60 f   imgui.obj
 0001:0002eea0       ?MemAlloc@ImGui@@YAPAXI@Z  1002fea0 f   imgui.obj
 0001:0002eee0       ?MemFree@ImGui@@YAXPAX@Z   1002fee0 f   imgui.obj
 0001:0002ef20       ?MenuBarHeight@ImGuiWindow@@QBEMXZ 1002ff20 f i imgui.obj
 0001:0002ef80       ?MenuBarRect@ImGuiWindow@@QBE?AUImRect@@XZ 1002ff80 f i imgui.obj
 0001:0002f020       ?NewFrame@ImGui@@YAXXZ     10030020 f   imgui.obj
 0001:000301f0       ?NextColumn@ImGui@@YAXXZ   100311f0 f   imgui.obj
 0001:000303f0       ?OnKeyPressed@ImGuiTextEditState@@QAEXH@Z 100313f0 f   imgui.obj
 0001:00030430       ?OpenPopup@ImGui@@YAXPBD@Z 10031430 f   imgui.obj
 0001:00030470       ?OpenPopupEx@ImGui@@YAXI_N@Z 10031470 f   imgui.obj
 0001:000305b0       ?Overlaps@ImRect@@QBE_NABU1@@Z 100315b0 f i imgui.obj
 0001:00030620       ?ParseFormatPrecision@ImGui@@YAHPBDH@Z 10031620 f   imgui.obj
 0001:000306d0       ?PathClear@ImDrawList@@QAEXXZ 100316d0 f i imgui.obj
 0001:000306f0       ?PathFillConvex@ImDrawList@@QAEXI@Z 100316f0 f i imgui.obj
 0001:00030730       ?PathLineTo@ImDrawList@@QAEXABUImVec2@@@Z 10031730 f i imgui.obj
 0001:00030760       ?PathStroke@ImDrawList@@QAEXI_NM@Z 10031760 f i imgui.obj
 0001:000307f0       ?PopClipRect@ImGui@@YAXXZ  100317f0 f   imgui.obj
 0001:00030850       ?PopFont@ImGui@@YAXXZ      10031850 f   imgui.obj
 0001:000308d0       ?PopID@ImGui@@YAXXZ        100318d0 f   imgui.obj
 0001:000308f0       ?PopItemWidth@ImGui@@YAXXZ 100318f0 f   imgui.obj
 0001:00030960       ?PopStyleColor@ImGui@@YAXH@Z 10031960 f   imgui.obj
 0001:000309d0       ?PopStyleVar@ImGui@@YAXH@Z 100319d0 f   imgui.obj
 0001:00030b00       ?PushClipRect@ImGui@@YAXABUImVec2@@0_N@Z 10031b00 f   imgui.obj
 0001:00030b80       ?PushColumnClipRect@ImGui@@YAXH@Z 10031b80 f   imgui.obj
 0001:00030c00       ?PushFont@ImGui@@YAXPAUImFont@@@Z 10031c00 f   imgui.obj
 0001:00030c70       ?PushID@ImGui@@YAXH@Z      10031c70 f   imgui.obj
 0001:00030cb0       ?PushID@ImGui@@YAXPBD@Z    10031cb0 f   imgui.obj
 0001:00030cf0       ?PushID@ImGui@@YAXPBX@Z    10031cf0 f   imgui.obj
 0001:00030d30       ?PushItemWidth@ImGui@@YAXM@Z 10031d30 f   imgui.obj
 0001:00030da0       ?PushStyleColor@ImGui@@YAXHABUImVec4@@@Z 10031da0 f   imgui.obj
 0001:00030e30       ?PushStyleVar@ImGui@@YAXHABUImVec2@@@Z 10031e30 f   imgui.obj
 0001:00030ea0       ?PushStyleVar@ImGui@@YAXHM@Z 10031ea0 f   imgui.obj
 0001:00030f10       ?RadioButton@ImGui@@YA_NPBD_N@Z 10031f10 f   imgui.obj
 0001:00031500       ?Rect@ImGuiWindow@@QBE?AUImRect@@XZ 10032500 f i imgui.obj
 0001:00031560       ?Render@ImGui@@YAXXZ       10032560 f   imgui.obj
 0001:00031c20       ?RenderCollapseTriangle@ImGui@@YAXUImVec2@@_NM@Z 10032c20 f   imgui.obj
 0001:00031f70       ?RenderColorRectWithAlphaCheckerboard@ImGui@@YAXUImVec2@@0IM0MH@Z 10032f70 f   imgui.obj
 0001:00032290       ?RenderFrame@ImGui@@YAXUImVec2@@0I_NM@Z 10033290 f   imgui.obj
 0001:00032410       ?RenderFrameBorder@ImGui@@YAXUImVec2@@0M@Z 10033410 f   imgui.obj
 0001:00032550       ?RenderText@ImGui@@YAXUImVec2@@PBD1_N@Z 10033550 f   imgui.obj
 0001:00032740       ?RenderTextClipped@ImGui@@YAXABUImVec2@@0PBD1PBU2@0PBUImRect@@@Z 10033740 f   imgui.obj
 0001:00032c50       ?RenderTextWrapped@ImGui@@YAXUImVec2@@PBD1M@Z 10033c50 f   imgui.obj
 0001:00032d50       ?RoundScalar@ImGui@@YAMMH@Z 10033d50 f   imgui.obj
 0001:00033210       ?SameLine@ImGui@@YAXMM@Z   10034210 f   imgui.obj
 0001:00034060       ?SelectAll@ImGuiTextEditState@@QAEXXZ 10035060 f i imgui.obj
 0001:000340a0       ?Selectable@ImGui@@YA_NPBD_NHABUImVec2@@@Z 100350a0 f   imgui.obj
 0001:00034670       ?Separator@ImGui@@YAXXZ    10035670 f   imgui.obj
 0001:00034870       ?SetActiveID@ImGui@@YAXIPAUImGuiWindow@@@Z 10035870 f   imgui.obj
 0001:000348c0       ?SetClipboardText@ImGui@@YAXPBD@Z 100358c0 f   imgui.obj
 0001:00034990       ?SetColumnOffset@ImGui@@YAXHM@Z 10035990 f   imgui.obj
 0001:00034c20       ?SetCursorPosX@ImGui@@YAXM@Z 10035c20 f   imgui.obj
 0001:00034c90       ?SetCursorPosY@ImGui@@YAXM@Z 10035c90 f   imgui.obj
 0001:00034d00       ?SetCursorScreenPos@ImGui@@YAXABUImVec2@@@Z 10035d00 f   imgui.obj
 0001:00034d60       ?SetFloat@ImGuiStorage@@QAEXIM@Z 10035d60 f   imgui.obj
 0001:00034de0       ?SetHoveredID@ImGui@@YAXI@Z 10035de0 f   imgui.obj
 0001:00034e10       ?SetNextWindowPos@ImGui@@YAXABUImVec2@@H@Z 10035e10 f   imgui.obj
 0001:00034e60       ?SetNextWindowSize@ImGui@@YAXABUImVec2@@H@Z 10035e60 f   imgui.obj
 0001:00034eb0       ?SetScrollFromPosY@ImGui@@YAXMM@Z 10035eb0 f   imgui.obj
 0001:00034f10       ?SetScrollHere@ImGui@@YAXM@Z 10035f10 f   imgui.obj
 0001:00034fe0       ?SetWindowFocus@ImGui@@YAXXZ 10035fe0 f   imgui.obj
 0001:00035200       ?Spacing@ImGui@@YAXXZ      10036200 f   imgui.obj
 0001:00035250       ?TextColored@ImGui@@YAXABUImVec4@@PBDZZ 10036250 f   imgui.obj
 0001:00035280       ?TextColoredV@ImGui@@YAXABUImVec4@@PBDPAD@Z 10036280 f   imgui.obj
 0001:000352b0       ?TextUnformatted@ImGui@@YAXPBD0@Z 100362b0 f   imgui.obj
 0001:000357c0       ?TextV@ImGui@@YAXPBDPAD@Z  100367c0 f   imgui.obj
 0001:00035830       ?TitleBarHeight@ImGuiWindow@@QBEMXZ 10036830 f i imgui.obj
 0001:00035890       ?TitleBarRect@ImGuiWindow@@QBE?AUImRect@@XZ 10036890 f i imgui.obj
 0001:00035910       ?Update@ImGuiSimpleColumns@@QAEXHM_N@Z 10036910 f   imgui.obj
 0001:00035a10       ?_Assign_rv_contents@?$basic_string@DU?$char_traits@D@std@@V?$allocator@D@2@@std@@QAEX$$QAV12@U?$integral_constant@_N$00@2@@Z 10036a10 f i imgui.obj
 0001:00035a50       ?_Move_alloc@?$_String_alloc@U?$_String_base_types@DV?$allocator@D@std@@@std@@@std@@QAEXAAV?$allocator@D@2@@Z 10036a50 f i imgui.obj
 0001:00035a80       ?_grow_capacity@?$ImVector@Ustbrp_rect@@@@QBEHH@Z 10036a80 f i imgui_draw.obj
 0001:00035a80       ?_grow_capacity@?$ImVector@UImGuiStyleMod@@@@QBEHH@Z 10036a80 f i imgui.obj
 0001:00035a80       ?_grow_capacity@?$ImVector@UImGuiColumnData@@@@QBEHH@Z 10036a80 f i imgui.obj
 0001:00035a80       ?_grow_capacity@?$ImVector@PAUImFont@@@@QBEHH@Z 10036a80 f i imgui.obj
 0001:00035a80       ?_grow_capacity@?$ImVector@PAUImDrawList@@@@QBEHH@Z 10036a80 f i imgui.obj
 0001:00035a80       ?_grow_capacity@?$ImVector@I@@QBEHH@Z 10036a80 f i imgui.obj
 0001:00035a80       ?_grow_capacity@?$ImVector@UImGuiGroupData@@@@QBEHH@Z 10036a80 f i imgui.obj
 0001:00035a80       ?_grow_capacity@?$ImVector@UImDrawCmd@@@@QBEHH@Z 10036a80 f i imgui_draw.obj
 0001:00035a80       ?_grow_capacity@?$ImVector@PAUImGuiWindow@@@@QBEHH@Z 10036a80 f i imgui.obj
 0001:00035a80       ?_grow_capacity@?$ImVector@PAX@@QBEHH@Z 10036a80 f i imgui_draw.obj
 0001:00035a80       ?_grow_capacity@?$ImVector@UImGuiIniData@@@@QBEHH@Z 10036a80 f i imgui.obj
 0001:00035a80       ?_grow_capacity@?$ImVector@UImDrawVert@@@@QBEHH@Z 10036a80 f i imgui_draw.obj
 0001:00035a80       ?_grow_capacity@?$ImVector@UCustomRect@ImFontAtlas@@@@QBEHH@Z 10036a80 f i imgui_draw.obj
 0001:00035a80       ?_grow_capacity@?$ImVector@UImFontConfig@@@@QBEHH@Z 10036a80 f i imgui_draw.obj
 0001:00035a80       ?_grow_capacity@?$ImVector@G@@QBEHH@Z 10036a80 f i imgui.obj
 0001:00035a80       ?_grow_capacity@?$ImVector@UImDrawChannel@@@@QBEHH@Z 10036a80 f i imgui_draw.obj
 0001:00035a80       ?_grow_capacity@?$ImVector@UImGuiColMod@@@@QBEHH@Z 10036a80 f i imgui.obj
 0001:00035a80       ?_grow_capacity@?$ImVector@UGlyph@ImFont@@@@QBEHH@Z 10036a80 f i imgui_draw.obj
 0001:00035a80       ?_grow_capacity@?$ImVector@UImVec4@@@@QBEHH@Z 10036a80 f i imgui_draw.obj
 0001:00035a80       ?_grow_capacity@?$ImVector@UImVec2@@@@QBEHH@Z 10036a80 f i imgui.obj
 0001:00035a80       ?_grow_capacity@?$ImVector@_N@@QBEHH@Z 10036a80 f i imgui.obj
 0001:00035a80       ?_grow_capacity@?$ImVector@UImGuiPopupRef@@@@QBEHH@Z 10036a80 f i imgui.obj
 0001:00035a80       ?_grow_capacity@?$ImVector@M@@QBEHH@Z 10036a80 f i imgui.obj
 0001:00035a80       ?_grow_capacity@?$ImVector@D@@QBEHH@Z 10036a80 f i imgui.obj
 0001:00035ae0       ?appendv@ImGuiTextBuffer@@QAEXPBDPAD@Z 10036ae0 f   imgui.obj
 0001:00035bb0       ?back@?$ImVector@PAX@@QAEAAPAXXZ 10036bb0 f i imgui_draw.obj
 0001:00035bb0       ?back@?$ImVector@PAUImGuiWindow@@@@QAEAAPAUImGuiWindow@@XZ 10036bb0 f i imgui.obj
 0001:00035bb0       ?back@?$ImVector@I@@QAEAAIXZ 10036bb0 f i imgui.obj
 0001:00035bb0       ?back@?$ImVector@PAUImFont@@@@QAEAAPAUImFont@@XZ 10036bb0 f i imgui.obj
 0001:00035bb0       ?back@?$ImVector@M@@QAEAAMXZ 10036bb0 f i imgui.obj
 0001:00035bd0       ?back@?$ImVector@UImDrawCmd@@@@QAEAAUImDrawCmd@@XZ 10036bd0 f i imgui.obj
 0001:00035bf0       ?back@?$ImVector@UImGuiColMod@@@@QAEAAUImGuiColMod@@XZ 10036bf0 f i imgui.obj
 0001:00035c10       ?back@?$ImVector@UImGuiGroupData@@@@QAEAAUImGuiGroupData@@XZ 10036c10 f i imgui.obj
 0001:00035c10       ?back@?$ImVector@UGlyph@ImFont@@@@QAEAAUGlyph@ImFont@@XZ 10036c10 f i imgui_draw.obj
 0001:00035c30       ?back@?$ImVector@UImGuiIniData@@@@QAEAAUImGuiIniData@@XZ 10036c30 f i imgui.obj
 0001:00035c50       ?back@?$ImVector@UImGuiStyleMod@@@@QAEAAUImGuiStyleMod@@XZ 10036c50 f i imgui.obj
 0001:00035c70       ?back@?$ImVector@UImVec4@@@@QAEAAUImVec4@@XZ 10036c70 f i imgui.obj
 0001:00035c90       ?begin@?$ImVector@UPair@ImGuiStorage@@@@QAEPAUPair@ImGuiStorage@@XZ 10036c90 f i imgui.obj
 0001:00035c90       ?begin@?$ImVector@PAUImGuiWindow@@@@QAEPAPAUImGuiWindow@@XZ 10036c90 f i imgui.obj
 0001:00035c90       ?begin@?$ImVector@D@@QAEPADXZ 10036c90 f i imgui.obj
 0001:00035cb0       ?begin@ImGuiTextBuffer@@QBEPBDXZ 10036cb0 f i imgui.obj
 0001:00035cd0       ?clear@?$ImVector@M@@QAEXXZ 10036cd0 f i imgui_draw.obj
 0001:00035cd0       ?clear@?$ImVector@PAUImFont@@@@QAEXXZ 10036cd0 f i imgui.obj
 0001:00035cd0       ?clear@?$ImVector@UCustomRect@ImFontAtlas@@@@QAEXXZ 10036cd0 f i imgui_draw.obj
 0001:00035cd0       ?clear@?$ImVector@UImFontConfig@@@@QAEXXZ 10036cd0 f i imgui_draw.obj
 0001:00035cd0       ?clear@?$ImVector@PAX@@QAEXXZ 10036cd0 f i imgui_draw.obj
 0001:00035cd0       ?clear@?$ImVector@UImDrawVert@@@@QAEXXZ 10036cd0 f i imgui_draw.obj
 0001:00035cd0       ?clear@?$ImVector@UImVec2@@@@QAEXXZ 10036cd0 f i imgui_draw.obj
 0001:00035cd0       ?clear@?$ImVector@G@@QAEXXZ 10036cd0 f i imgui.obj
 0001:00035cd0       ?clear@?$ImVector@UGlyph@ImFont@@@@QAEXXZ 10036cd0 f i imgui_draw.obj
 0001:00035cd0       ?clear@?$ImVector@D@@QAEXXZ 10036cd0 f i imgui.obj
 0001:00035cd0       ?clear@?$ImVector@UImVec4@@@@QAEXXZ 10036cd0 f i imgui_draw.obj
 0001:00035cd0       ?clear@?$ImVector@UImDrawCmd@@@@QAEXXZ 10036cd0 f i imgui_draw.obj
 0001:00035cd0       ?clear@?$ImVector@UImDrawChannel@@@@QAEXXZ 10036cd0 f i imgui_draw.obj
 0001:00035d10       ?clear@ImGuiTextBuffer@@QAEXXZ 10036d10 f i imgui.obj
 0001:00035d40       ?empty@?$ImVector@UImGuiGroupData@@@@QBE_NXZ 10036d40 f i imgui.obj
 0001:00035d40       ?empty@?$ImVector@PAUImDrawList@@@@QBE_NXZ 10036d40 f i imgui.obj
 0001:00035d40       ?empty@?$ImVector@UImGuiPopupRef@@@@QBE_NXZ 10036d40 f i imgui.obj
 0001:00035d40       ?empty@?$ImVector@M@@QBE_NXZ 10036d40 f i imgui.obj
 0001:00035d40       ?empty@?$ImVector@UImDrawVert@@@@QBE_NXZ 10036d40 f i imgui.obj
 0001:00035d40       ?empty@?$ImVector@UImFontConfig@@@@QBE_NXZ 10036d40 f i imgui_draw.obj
 0001:00035d40       ?empty@?$ImVector@PAX@@QBE_NXZ 10036d40 f i imgui_draw.obj
 0001:00035d40       ?empty@?$ImVector@UCustomRect@ImFontAtlas@@@@QBE_NXZ 10036d40 f i imgui_draw.obj
 0001:00035d40       ?empty@?$ImVector@PAUImGuiWindow@@@@QBE_NXZ 10036d40 f i imgui.obj
 0001:00035d40       ?empty@?$ImVector@UImDrawCmd@@@@QBE_NXZ 10036d40 f i imgui.obj
 0001:00035d40       ?empty@?$ImVector@PAUImFont@@@@QBE_NXZ 10036d40 f i imgui.obj
 0001:00035d70       ?end@?$ImVector@UPair@ImGuiStorage@@@@QBEPBUPair@ImGuiStorage@@XZ 10036d70 f i imgui.obj
 0001:00035d70       ?end@?$ImVector@UPair@ImGuiStorage@@@@QAEPAUPair@ImGuiStorage@@XZ 10036d70 f i imgui.obj
 0001:00035d90       ?erase@?$ImVector@PAUImGuiWindow@@@@QAEPAPAUImGuiWindow@@PBQAU2@@Z 10036d90 f i imgui.obj
 0001:00035e00       ?front@?$ImVector@D@@QBEABDXZ 10036e00 f i imgui.obj
 0001:00035e20       ?insert@?$ImVector@PAUImGuiWindow@@@@QAEPAPAUImGuiWindow@@PBQAU2@ABQAU2@@Z 10036e20 f i imgui.obj
 0001:00035ee0       ?insert@?$ImVector@UPair@ImGuiStorage@@@@QAEPAUPair@ImGuiStorage@@PBU23@ABU23@@Z 10036ee0 f i imgui.obj
 0001:000360a0       ?pop_back@?$ImVector@UImGuiPopupRef@@@@QAEXXZ 100370a0 f i imgui.obj
 0001:000360a0       ?pop_back@?$ImVector@I@@QAEXXZ 100370a0 f i imgui.obj
 0001:000360a0       ?pop_back@?$ImVector@PAUImFont@@@@QAEXXZ 100370a0 f i imgui.obj
 0001:000360a0       ?pop_back@?$ImVector@UImGuiStyleMod@@@@QAEXXZ 100370a0 f i imgui.obj
 0001:000360a0       ?pop_back@?$ImVector@PAUImGuiWindow@@@@QAEXXZ 100370a0 f i imgui.obj
 0001:000360a0       ?pop_back@?$ImVector@M@@QAEXXZ 100370a0 f i imgui.obj
 0001:000360a0       ?pop_back@?$ImVector@UImDrawCmd@@@@QAEXXZ 100370a0 f i imgui.obj
 0001:000360a0       ?pop_back@?$ImVector@UImGuiColMod@@@@QAEXXZ 100370a0 f i imgui.obj
 0001:000360a0       ?pop_back@?$ImVector@UImVec4@@@@QAEXXZ 100370a0 f i imgui_draw.obj
 0001:000360a0       ?pop_back@?$ImVector@UImGuiGroupData@@@@QAEXXZ 100370a0 f i imgui.obj
 0001:000360a0       ?pop_back@?$ImVector@PAX@@QAEXXZ 100370a0 f i imgui_draw.obj
 0001:000360c0       ?push_back@?$ImVector@D@@QAEXABD@Z 100370c0 f i imgui.obj
 0001:00036120       ?push_back@?$ImVector@PAUImGuiWindow@@@@QAEXABQAUImGuiWindow@@@Z 10037120 f i imgui.obj
 0001:00036120       ?push_back@?$ImVector@PAUImFont@@@@QAEXABQAUImFont@@@Z 10037120 f i imgui.obj
 0001:00036120       ?push_back@?$ImVector@PAUImDrawList@@@@QAEXABQAUImDrawList@@@Z 10037120 f i imgui.obj
 0001:00036120       ?push_back@?$ImVector@PAX@@QAEXABQAX@Z 10037120 f i imgui_draw.obj
 0001:00036120       ?push_back@?$ImVector@I@@QAEXABI@Z 10037120 f i imgui.obj
 0001:00036120       ?push_back@?$ImVector@M@@QAEXABM@Z 10037120 f i imgui.obj
 0001:00036180       ?push_back@?$ImVector@UImGuiColMod@@@@QAEXABUImGuiColMod@@@Z 10037180 f i imgui.obj
 0001:000361f0       ?push_back@?$ImVector@UImGuiPopupRef@@@@QAEXABUImGuiPopupRef@@@Z 100371f0 f i imgui.obj
 0001:00036270       ?push_back@?$ImVector@UCustomRect@ImFontAtlas@@@@QAEXABUCustomRect@ImFontAtlas@@@Z 10037270 f i imgui_draw.obj
 0001:00036270       ?push_back@?$ImVector@UImGuiStyleMod@@@@QAEXABUImGuiStyleMod@@@Z 10037270 f i imgui.obj
 0001:000362e0       ?push_back@?$ImVector@UImVec2@@@@QAEXABUImVec2@@@Z 100372e0 f i imgui.obj
 0001:00036340       ?reserve@?$ImVector@D@@QAEXH@Z 10037340 f i imgui.obj
 0001:00036340       ?reserve@?$ImVector@_N@@QAEXH@Z 10037340 f i imgui.obj
 0001:000363b0       ?reserve@?$ImVector@G@@QAEXH@Z 100373b0 f i imgui.obj
 0001:00036430       ?reserve@?$ImVector@PAX@@QAEXH@Z 10037430 f i imgui_draw.obj
 0001:00036430       ?reserve@?$ImVector@PAUImGuiWindow@@@@QAEXH@Z 10037430 f i imgui.obj
 0001:00036430       ?reserve@?$ImVector@PAUImFont@@@@QAEXH@Z 10037430 f i imgui.obj
 0001:00036430       ?reserve@?$ImVector@M@@QAEXH@Z 10037430 f i imgui.obj
 0001:00036430       ?reserve@?$ImVector@I@@QAEXH@Z 10037430 f i imgui.obj
 0001:00036430       ?reserve@?$ImVector@PAUImDrawList@@@@QAEXH@Z 10037430 f i imgui.obj
 0001:000364b0       ?reserve@?$ImVector@UImDrawVert@@@@QAEXH@Z 100374b0 f i imgui_draw.obj
 0001:000364b0       ?reserve@?$ImVector@UImGuiColMod@@@@QAEXH@Z 100374b0 f i imgui.obj
 0001:000364b0       ?reserve@?$ImVector@UImGuiColumnData@@@@QAEXH@Z 100374b0 f i imgui.obj
 0001:00036520       ?reserve@?$ImVector@UGlyph@ImFont@@@@QAEXH@Z 10037520 f i imgui_draw.obj
 0001:00036520       ?reserve@?$ImVector@UImGuiGroupData@@@@QAEXH@Z 10037520 f i imgui.obj
 0001:00036590       ?reserve@?$ImVector@UImGuiIniData@@@@QAEXH@Z 10037590 f i imgui.obj
 0001:00036600       ?reserve@?$ImVector@UImDrawChannel@@@@QAEXH@Z 10037600 f i imgui_draw.obj
 0001:00036600       ?reserve@?$ImVector@UImGuiPopupRef@@@@QAEXH@Z 10037600 f i imgui.obj
 0001:00036670       ?reserve@?$ImVector@UImGuiStyleMod@@@@QAEXH@Z 10037670 f i imgui.obj
 0001:00036670       ?reserve@?$ImVector@UCustomRect@ImFontAtlas@@@@QAEXH@Z 10037670 f i imgui_draw.obj
 0001:000366e0       ?reserve@?$ImVector@UPair@ImGuiStorage@@@@QAEXH@Z 100376e0 f i imgui.obj
 0001:000366e0       ?reserve@?$ImVector@UImVec2@@@@QAEXH@Z 100376e0 f i imgui.obj
 0001:00036760       ?resize@?$ImVector@_N@@QAEXH@Z 10037760 f i imgui.obj
 0001:00036760       ?resize@?$ImVector@D@@QAEXH@Z 10037760 f i imgui.obj
 0001:000367a0       ?resize@?$ImVector@G@@QAEXH@Z 100377a0 f i imgui.obj
 0001:000367e0       ?resize@?$ImVector@PAX@@QAEXH@Z 100377e0 f i imgui_draw.obj
 0001:000367e0       ?resize@?$ImVector@PAUImGuiWindow@@@@QAEXH@Z 100377e0 f i imgui.obj
 0001:000367e0       ?resize@?$ImVector@I@@QAEXH@Z 100377e0 f i imgui.obj
 0001:000367e0       ?resize@?$ImVector@PAUImDrawList@@@@QAEXH@Z 100377e0 f i imgui.obj
 0001:000367e0       ?resize@?$ImVector@M@@QAEXH@Z 100377e0 f i imgui.obj
 0001:00036820       ?resize@?$ImVector@UImGuiColumnData@@@@QAEXH@Z 10037820 f i imgui.obj
 0001:00036820       ?resize@?$ImVector@UImDrawVert@@@@QAEXH@Z 10037820 f i imgui_draw.obj
 0001:00036860       ?resize@?$ImVector@UGlyph@ImFont@@@@QAEXH@Z 10037860 f i imgui_draw.obj
 0001:00036860       ?resize@?$ImVector@UImGuiGroupData@@@@QAEXH@Z 10037860 f i imgui.obj
 0001:000368a0       ?resize@?$ImVector@UImGuiIniData@@@@QAEXH@Z 100378a0 f i imgui.obj
 0001:000368e0       ?resize@?$ImVector@UImDrawChannel@@@@QAEXH@Z 100378e0 f i imgui_draw.obj
 0001:000368e0       ?resize@?$ImVector@UImGuiPopupRef@@@@QAEXH@Z 100378e0 f i imgui.obj
 0001:00036920       ?resize@?$ImVector@UImVec2@@@@QAEXH@Z 10037920 f i imgui.obj
 0001:00036960       ?size@ImGuiTextBuffer@@QBEHXZ 10037960 f i imgui.obj
 0001:00038770       ?swap@?$ImVector@PAUImGuiWindow@@@@QAEXAAV1@@Z 10039770 f i imgui.obj
 0001:000387e0       ___local_stdio_scanf_options 100397e0 f i imgui.obj
 0001:000387f0       __vfprintf_l               100397f0 f i imgui.obj
 0001:00038820       __vsnprintf_l              10039820 f i imgui.obj
 0001:00038880       __vsscanf_l                10039880 f i imgui.obj
 0001:000388b0       _fmodf                     100398b0 f i imgui.obj
 0001:000388f0       _fprintf                   100398f0 f i imgui.obj
 0001:00038930       _powf                      10039930 f i imgui.obj
 0001:00038960       _sscanf                    10039960 f i imgui.obj
 0001:000389a0       _vfprintf                  100399a0 f i imgui.obj
 0001:000389c0       _vsnprintf                 100399c0 f i imgui.obj
 0001:00038a10       ??0CustomRect@ImFontAtlas@@QAE@XZ 10039a10 f i imgui_draw.obj
 0001:00038a60       ??0ImDrawChannel@@QAE@XZ   10039a60 f i imgui_draw.obj
 0001:00038ac0       ??0ImDrawCmd@@QAE@XZ       10039ac0 f i imgui_draw.obj
 0001:00038b40       ??0ImFont@@QAE@XZ          10039b40 f   imgui_draw.obj
 0001:00038be0       ??0ImFontAtlas@@QAE@XZ     10039be0 f   imgui_draw.obj
 0001:00038cd0       ??0ImFontConfig@@QAE@XZ    10039cd0 f   imgui_draw.obj
 0001:00038dd0       ??1ImFont@@QAE@XZ          10039dd0 f   imgui_draw.obj
 0001:00038e30       ??1ImFontAtlas@@QAE@XZ     10039e30 f   imgui_draw.obj
 0001:00038e90       ??A?$ImVector@UCustomRect@ImFontAtlas@@@@QAEAAUCustomRect@ImFontAtlas@@H@Z 10039e90 f i imgui_draw.obj
 0001:00038eb0       ??A?$ImVector@UGlyph@ImFont@@@@QAEAAUGlyph@ImFont@@H@Z 10039eb0 f i imgui_draw.obj
 0001:00038ed0       ??A?$ImVector@UImFontConfig@@@@QAEAAUImFontConfig@@H@Z 10039ed0 f i imgui_draw.obj
 0001:00038ef0       ??A?$ImVector@Ustbrp_rect@@@@QAEAAUstbrp_rect@@H@Z 10039ef0 f i imgui_draw.obj
 0001:00038f10       ??_GImFont@@QAEPAXI@Z      10039f10 f i imgui_draw.obj
 0001:00038f40       ?AddCircle@ImDrawList@@QAEXABUImVec2@@MIHM@Z 10039f40 f   imgui_draw.obj
 0001:00038fd0       ?AddCircleFilled@ImDrawList@@QAEXABUImVec2@@MIH@Z 10039fd0 f   imgui_draw.obj
 0001:00039050       ?AddConvexPolyFilled@ImDrawList@@QAEXPBUImVec2@@HI_N@Z 1003a050 f   imgui_draw.obj
 0001:00039680       ?AddDrawCmd@ImDrawList@@QAEXXZ 1003a680 f   imgui_draw.obj
 0001:00039720       ?AddFont@ImFontAtlas@@QAEPAUImFont@@PBUImFontConfig@@@Z 1003a720 f   imgui_draw.obj
 0001:00039860       ?AddFontDefault@ImFontAtlas@@QAEPAUImFont@@PBUImFontConfig@@@Z 1003a860 f   imgui_draw.obj
 0001:000399c0       ?AddFontFromFileTTF@ImFontAtlas@@QAEPAUImFont@@PBDMPBUImFontConfig@@PBG@Z 1003a9c0 f   imgui_draw.obj
 0001:00039b90       ?AddFontFromMemoryCompressedBase85TTF@ImFontAtlas@@QAEPAUImFont@@PBDMPBUImFontConfig@@PBG@Z 1003ab90 f   imgui_draw.obj
 0001:00039c40       ?AddFontFromMemoryCompressedTTF@ImFontAtlas@@QAEPAUImFont@@PBXHMPBUImFontConfig@@PBG@Z 1003ac40 f   imgui_draw.obj
 0001:00039d30       ?AddFontFromMemoryTTF@ImFontAtlas@@QAEPAUImFont@@PAXHMPBUImFontConfig@@PBG@Z 1003ad30 f   imgui_draw.obj
 0001:00039df0       ?AddImage@ImDrawList@@QAEXPAXABUImVec2@@111I@Z 1003adf0 f   imgui_draw.obj
 0001:00039e90       ?AddLine@ImDrawList@@QAEXABUImVec2@@0IM@Z 1003ae90 f   imgui_draw.obj
 0001:00039f50       ?AddPolyline@ImDrawList@@QAEXPBUImVec2@@HI_NM1@Z 1003af50 f   imgui_draw.obj
 0001:0003b3c0       ?AddRect@ImDrawList@@QAEXABUImVec2@@0IMHM@Z 1003c3c0 f   imgui_draw.obj
 0001:0003b490       ?AddRectFilled@ImDrawList@@QAEXABUImVec2@@0IMH@Z 1003c490 f   imgui_draw.obj
 0001:0003b510       ?AddRectFilledMultiColor@ImDrawList@@QAEXABUImVec2@@0IIII@Z 1003c510 f   imgui_draw.obj
 0001:0003b660       ?AddText@ImDrawList@@QAEXABUImVec2@@IPBD1@Z 1003c660 f   imgui_draw.obj
 0001:0003b6a0       ?AddText@ImDrawList@@QAEXPBUImFont@@MABUImVec2@@IPBD2MPBUImVec4@@@Z 1003c6a0 f   imgui_draw.obj
 0001:0003b850       ?AddTriangleFilled@ImDrawList@@QAEXABUImVec2@@00I@Z 1003c850 f   imgui_draw.obj
 0001:0003b8a0       ?Build@ImFontAtlas@@QAE_NXZ 1003c8a0 f   imgui_draw.obj
 0001:0003b8c0       ?BuildLookupTable@ImFont@@QAEXXZ 1003c8c0 f   imgui_draw.obj
 0001:0003bb80       ?CalcTextSizeA@ImFont@@QBE?AUImVec2@@MMMPBD0PAPBD@Z 1003cb80 f   imgui_draw.obj
 0001:0003be90       ?CalcWordWrapPositionA@ImFont@@QBEPBDMPBD0M@Z 1003ce90 f   imgui_draw.obj
 0001:0003c0d0       ?ChannelsMerge@ImDrawList@@QAEXXZ 1003d0d0 f   imgui_draw.obj
 0001:0003c2c0       ?ChannelsSetCurrent@ImDrawList@@QAEXH@Z 1003d2c0 f   imgui_draw.obj
 0001:0003c390       ?ChannelsSplit@ImDrawList@@QAEXH@Z 1003d390 f   imgui_draw.obj
 0001:0003c590       ?Clear@ImDrawList@@QAEXXZ  1003d590 f   imgui_draw.obj
 0001:0003c640       ?Clear@ImFont@@QAEXXZ      1003d640 f   imgui_draw.obj
 0001:0003c700       ?Clear@ImFontAtlas@@QAEXXZ 1003d700 f   imgui_draw.obj
 0001:0003c730       ?ClearFonts@ImFontAtlas@@QAEXXZ 1003d730 f   imgui_draw.obj
 0001:0003c7b0       ?ClearFreeMemory@ImDrawList@@QAEXXZ 1003d7b0 f   imgui_draw.obj
 0001:0003c8d0       ?ClearInputData@ImFontAtlas@@QAEXXZ 1003d8d0 f   imgui_draw.obj
 0001:0003ca40       ?ClearTexData@ImFontAtlas@@QAEXXZ 1003da40 f   imgui_draw.obj
 0001:0003ca90       ?CustomRectRegister@ImFontAtlas@@QAEHIHH@Z 1003da90 f   imgui_draw.obj
 0001:0003cc50       ?FindGlyph@ImFont@@QBEPBUGlyph@1@G@Z 1003dc50 f   imgui_draw.obj
 0001:0003ccc0       ?GetGlyphRangesDefault@ImFontAtlas@@QAEPBGXZ 1003dcc0 f   imgui_draw.obj
 0001:0003cce0       ?GetTexDataAsAlpha8@ImFontAtlas@@QAEXPAPAEPAH11@Z 1003dce0 f   imgui_draw.obj
 0001:0003cd60       ?GetTexDataAsRGBA32@ImFontAtlas@@QAEXPAPAEPAH11@Z 1003dd60 f   imgui_draw.obj
 0001:0003ce60       ?GrowIndex@ImFont@@QAEXH@Z 1003de60 f   imgui_draw.obj
 0001:0003cf10       ?ImFontAtlasBuildPackCustomRects@@YAXPAUImFontAtlas@@PAX@Z 1003df10 f   imgui_draw.obj
 0001:0003d0f0       ?ImFontAtlasBuildRegisterDefaultCustomRects@@YAXPAUImFontAtlas@@@Z 1003e0f0 f   imgui_draw.obj
 0001:0003d120       ?ImFontAtlasBuildRenderDefaultTexData@@YAXPAUImFontAtlas@@@Z 1003e120 f   imgui_draw.obj
 0001:0003d850       ?ImFontAtlasBuildSetupFont@@YAXPAUImFontAtlas@@PAUImFont@@PAUImFontConfig@@MM@Z 1003e850 f   imgui_draw.obj
 0001:0003d8e0       ?ImFontAtlasBuildWithStbTruetype@@YA_NPAUImFontAtlas@@@Z 1003e8e0 f   imgui_draw.obj
 0001:0003e570       ?PathArcTo@ImDrawList@@QAEXABUImVec2@@MMMH@Z 1003f570 f   imgui_draw.obj
 0001:0003e6a0       ?PathArcToFast@ImDrawList@@QAEXABUImVec2@@MHH@Z 1003f6a0 f   imgui_draw.obj
 0001:0003e8b0       ?PathRect@ImDrawList@@QAEXABUImVec2@@0MH@Z 1003f8b0 f   imgui_draw.obj
 0001:0003ec20       ?PopClipRect@ImDrawList@@QAEXXZ 1003fc20 f   imgui_draw.obj
 0001:0003ec40       ?PopTextureID@ImDrawList@@QAEXXZ 1003fc40 f   imgui_draw.obj
 0001:0003ec60       ?PrimRect@ImDrawList@@QAEXABUImVec2@@0I@Z 1003fc60 f   imgui_draw.obj
 0001:0003eed0       ?PrimRectUV@ImDrawList@@QAEXABUImVec2@@000I@Z 1003fed0 f   imgui_draw.obj
 0001:0003f170       ?PrimReserve@ImDrawList@@QAEXHH@Z 10040170 f   imgui_draw.obj
 0001:0003f210       ?PrimWriteIdx@ImDrawList@@QAEXG@Z 10040210 f i imgui_draw.obj
 0001:0003f240       ?PrimWriteVtx@ImDrawList@@QAEXABUImVec2@@0I@Z 10040240 f i imgui_draw.obj
 0001:0003f2a0       ?PushClipRect@ImDrawList@@QAEXUImVec2@@0_N@Z 100402a0 f   imgui_draw.obj
 0001:0003f3e0       ?PushClipRectFullScreen@ImDrawList@@QAEXXZ 100403e0 f   imgui_draw.obj
 0001:0003f480       ?PushTextureID@ImDrawList@@QAEXABQAX@Z 10040480 f   imgui_draw.obj
 0001:0003f4b0       ?RenderText@ImFont@@QBEXPAUImDrawList@@MUImVec2@@IABUImVec4@@PBD3M_N@Z 100404b0 f   imgui_draw.obj
 0001:0003fd30       ?UpdateClipRect@ImDrawList@@QAEXXZ 10040d30 f   imgui_draw.obj
 0001:0003fea0       ?UpdateTextureID@ImDrawList@@QAEXXZ 10040ea0 f   imgui_draw.obj
 0001:0003ffd0       ?back@?$ImVector@UImFontConfig@@@@QAEAAUImFontConfig@@XZ 10040fd0 f i imgui_draw.obj
 0001:0003fff0       ?push_back@?$ImVector@UImDrawCmd@@@@QAEXABUImDrawCmd@@@Z 10040ff0 f i imgui_draw.obj
 0001:00040050       ?push_back@?$ImVector@UImFontConfig@@@@QAEXABUImFontConfig@@@Z 10041050 f i imgui_draw.obj
 0001:000400b0       ?push_back@?$ImVector@UImVec4@@@@QAEXABUImVec4@@@Z 100410b0 f i imgui_draw.obj
 0001:00040210       ?reserve@?$ImVector@UImDrawCmd@@@@QAEXH@Z 10041210 f i imgui_draw.obj
 0001:00040290       ?reserve@?$ImVector@UImFontConfig@@@@QAEXH@Z 10041290 f i imgui_draw.obj
 0001:00040300       ?reserve@?$ImVector@UImVec4@@@@QAEXH@Z 10041300 f i imgui_draw.obj
 0001:00040300       ?reserve@?$ImVector@Ustbrp_rect@@@@QAEXH@Z 10041300 f i imgui_draw.obj
 0001:00040380       ?resize@?$ImVector@UImDrawCmd@@@@QAEXH@Z 10041380 f i imgui_draw.obj
 0001:000403c0       ?resize@?$ImVector@UImVec4@@@@QAEXH@Z 100413c0 f i imgui_draw.obj
 0001:000403c0       ?resize@?$ImVector@Ustbrp_rect@@@@QAEXH@Z 100413c0 f i imgui_draw.obj
 0001:00047f70       __snprintf                 10048f70 f i imgui_draw.obj
 0001:00047fb0       __vsnprintf                10048fb0 f i imgui_draw.obj
 0001:00049960       ??$GetOriginal@P6IXPAVISurface@@PAX@Z@VMTHook@@QAEP6IXPAVISurface@@PAX@ZI@Z 1004a960 f i lock_cursor_hook.obj
 0001:00049960       ??$GetOriginal@P6EXPAXPAVIMatRenderContext@@ABUDrawModelState_t@@ABUModelRenderInfo_t@@PAVmatrix3x4_t@@@Z@VMTHook@@QAEP6EXPAXPAVIMatRenderContext@@ABUDrawModelState_t@@ABUModelRenderInfo_t@@PAVmatrix3x4_t@@@ZI@Z 1004a960 f i dme_hook.obj
 0001:00049960       ??$GetOriginal@P6I_NPAVIClientMode@@PAXMPAVCUserCmd@@@Z@VMTHook@@QAEP6I_NPAVIClientMode@@PAXMPAVCUserCmd@@@ZI@Z 1004a960 f i createmove_hook.obj
 0001:00049960       ??$GetOriginal@P6GXPAUIDirect3DDevice9@@PAU_D3DPRESENT_PARAMETERS_@@@Z@VMTHook@@QAEP6GXPAUIDirect3DDevice9@@PAU_D3DPRESENT_PARAMETERS_@@@ZI@Z 1004a960 f i directx_preset_hook.obj
 0001:00049960       ??$GetOriginal@P6IXPAX0PAVCViewSetup@@@Z@VMTHook@@QAEP6IXPAX0PAVCViewSetup@@@ZI@Z 1004a960 f i oview_hook.obj
 0001:00049960       ??$GetOriginal@P6EXPAXI_N1@Z@VMTHook@@QAEP6EXPAXI_N1@ZI@Z 1004a960 f i painttraverse_hook.obj
 0001:00049960       ??$GetOriginal@P6GXW4ClientFrameStage_t@@@Z@VMTHook@@QAEP6GXW4ClientFrameStage_t@@@ZI@Z 1004a960 f i fsn_hook.obj
 0001:00049960       ??$GetOriginal@P6GXPAUIDirect3DDevice9@@@Z@VMTHook@@QAEP6GXPAUIDirect3DDevice9@@@ZI@Z 1004a960 f i directx_preset_hook.obj
 0001:00049960       ??$GetOriginal@P6IXPAX0@Z@VMTHook@@QAEP6IXPAX0@ZI@Z 1004a960 f i sceneend_hook.obj
 0001:00049980       ??AVector@@QAEAAMH@Z       1004a980 f i createmove_hook.obj
 0001:000499a0       ?Clamp@Vector@@QAE?AV1@XZ  1004a9a0 f i createmove_hook.obj
 0001:00049a70       ?CreateMove@c_hooks@@SI_NPAVIClientMode@@PAXMPAVCUserCmd@@@Z 1004aa70 f   createmove_hook.obj
 0001:00049c90       ?DoAutostrafe@Misc@@ABEXXZ 1004ac90 f i createmove_hook.obj
 0001:00049e30       ?DoBhop@Misc@@ABEXXZ       1004ae30 f i createmove_hook.obj
 0001:00049f00       ?DoFakeLag@Misc@@ABEXXZ    1004af00 f i createmove_hook.obj
 0001:0004a480       ?MovementFix@Misc@@QAEXAAVVector@@@Z 1004b480 f i createmove_hook.obj
 0001:0004a7e0       ?OnCreateMove@Misc@@QAEXXZ 1004b7e0 f i createmove_hook.obj
 0001:0004a820       ?Hooked_EndScene@c_hooks@@SGXPAUIDirect3DDevice9@@@Z 1004b820 f   directx_preset_hook.obj
 0001:0004a920       ?Hooked_EndScene_Reset@c_hooks@@SGXPAUIDirect3DDevice9@@PAU_D3DPRESENT_PARAMETERS_@@@Z 1004b920 f   directx_preset_hook.obj
 0001:0004aa10       ?create_objects@@YGXPAUIDirect3DDevice9@@@Z 1004ba10 f   directx_preset_hook.obj
 0001:0004aa30       ?end_present@@YGXPAUIDirect3DDevice9@@@Z 1004ba30 f   directx_preset_hook.obj
 0001:0004ab20       ?invalidate_objects@@YGXXZ 1004bb20 f   directx_preset_hook.obj
 0001:0004ab30       ?post_render@@YGXXZ        1004bb30 f   directx_preset_hook.obj
 0001:0004ab40       ?pre_render@@YGXPAUIDirect3DDevice9@@@Z 1004bb40 f   directx_preset_hook.obj
 0001:0004adf0       ?setup_resent@@YGXPAUIDirect3DDevice9@@@Z 1004bdf0 f   directx_preset_hook.obj
 0001:0004be90       ?DrawModelExecute@c_hooks@@SIXPAX0PAVIMatRenderContext@@ABUDrawModelState_t@@ABUModelRenderInfo_t@@PAVmatrix3x4_t@@@Z 1004ce90 f   dme_hook.obj
 0001:0004c0f0       ?FindMaterial@IMaterialSystem@@QAEPAVIMaterial@@PBD0_N0@Z 1004d0f0 f i dme_hook.obj
 0001:0004c130       ?ForcedMaterialOverride@CModelRender@@QAEXPAVIMaterial@@W4OverrideType_t@@@Z 1004d130 f i dme_hook.obj
 0001:0004c160       ?GetModelName@IVModelInfo@@QAEPBDPBUmodel_t@@@Z 1004d160 f i dme_hook.obj
 0001:0004c190       ?modulate@@YAXPBMPAVIMaterial@@@Z 1004d190 f   dme_hook.obj
 0001:0004c2b0       ?set_vector@IMaterialVar@@QAEXVVector@@@Z 1004d2b0 f i dme_hook.obj
 0001:0004c2f0       ?set_vector_internal@IMaterialVar@@AAEXMMM@Z 1004d2f0 f i dme_hook.obj
 0001:0004c340       ?FireGameEvent@Event@@UAEXPAVIGameEvent@@@Z 1004d340 f   event_hook.obj
 0001:0004c4a0       ?FrameStageNotify@c_hooks@@SGXW4ClientFrameStage_t@@@Z 1004d4a0 f   fsn_hook.obj
 0001:0004c570       ?SetValue@ConVar@@QAEXH@Z  1004d570 f i fsn_hook.obj
 0001:0004c5a0       ?ThirdPerson@Misc@@QAEXW4ClientFrameStage_t@@@Z 1004d5a0 f i fsn_hook.obj
 0001:0004c750       ??__Kms@chrono_literals@literals@std@@YA?AV?$duration@_JU?$ratio@$00$0DOI@@std@@@chrono@3@_K@Z 1004d750 f i hooking_init.obj
 0001:0004c770       ?FontCreate@ISurface@@QAEKXZ 1004d770 f i hooking_init.obj
 0001:0004c7a0       ?SetFontGlyphSet@ISurface@@QAEXKPBDHHHHH@Z 1004d7a0 f i hooking_init.obj
 0001:0004c7f0       ?init_fonts@hooking@@QAEXXZ 1004d7f0 f   hooking_init.obj
 0001:0004c8a0       ?window_handle@hooking@@QAEXXZ 1004d8a0 f   hooking_init.obj
 0001:0004c8f0       ?LockCursor@c_hooks@@SIXPAVISurface@@PAX@Z 1004d8f0 f   lock_cursor_hook.obj
 0001:0004c9c0       ?UnLockCursor@ISurface@@QAEXXZ 1004d9c0 f i lock_cursor_hook.obj
 0001:0004c9f0       ?GetViewPunchAngle@C_BaseEntity@@QAE?AVVector@@XZ 1004d9f0 f i oview_hook.obj
 0001:0004ca20       ?IsScoped@C_BaseEntity@@QAE_NXZ 1004da20 f i oview_hook.obj
 0001:0004cae0       ?OverrideView@c_hooks@@SIXPAX0PAVCViewSetup@@@Z 1004dae0 f   oview_hook.obj
 0001:0004cde0       ?Crosshair@Misc@@QAEXXZ    1004dde0 f i painttraverse_hook.obj
 0001:0004d210       ?GetName@IPanel@@QAEPBDI@Z 1004e210 f i painttraverse_hook.obj
 0001:0004d240       ?PaintTraverse@c_hooks@@SIXPAXHI_N1@Z 1004e240 f   painttraverse_hook.obj
 0001:0004d470       ?SceneEnd@c_hooks@@SIXPAX0@Z 1004e470 f   sceneend_hook.obj
 0001:0004d530       ?WndProc@c_hooks@@SGJPAUHWND__@@IIJ@Z 1004e530 f   wndproc_hook.obj
 0001:0004d5f0       ??$?8DU?$char_traits@D@std@@V?$allocator@D@1@@std@@YA_NABV?$basic_string@DU?$char_traits@D@std@@V?$allocator@D@2@@0@QBD@Z 1004e5f0 f i config_system.obj
 0001:0004d610       ??$_Destroy_range1@V?$allocator@V?$basic_string@DU?$char_traits@D@std@@V?$allocator@D@2@@std@@@std@@@std@@YAXPAV?$basic_string@DU?$char_traits@D@std@@V?$allocator@D@2@@0@0AAV?$allocator@V?$basic_string@DU?$char_traits@D@std@@V?$allocator@D@2@@std@@@0@U?$integral_constant@_N$0A@@0@@Z 1004e610 f i config_system.obj
 0001:0004d650       ??$_Destroy_range@V?$allocator@V?$basic_string@DU?$char_traits@D@std@@V?$allocator@D@2@@std@@@std@@@std@@YAXPAV?$basic_string@DU?$char_traits@D@std@@V?$allocator@D@2@@0@0AAV?$allocator@V?$basic_string@DU?$char_traits@D@std@@V?$allocator@D@2@@std@@@0@@Z 1004e650 f i config_system.obj
 0001:0004d680       ??$_Fgetc@D@std@@YA_NAADPAU_iobuf@@@Z 1004e680 f i config_system.obj
 0001:0004d6b0       ??$_Fputc@D@std@@YA_NDPAU_iobuf@@@Z 1004e6b0 f i config_system.obj
 0001:0004d6f0       ??$_Reallocate_grow_by@V<lambda_15711c68e099a15a58f4d77303cb286d>@@D@?$basic_string@DU?$char_traits@D@std@@V?$allocator@D@2@@std@@QAEAAV01@IV<lambda_15711c68e099a15a58f4d77303cb286d>@@D@Z 1004e6f0 f i config_system.obj
 0001:0004d820       ??$_Ungetc@D@std@@YA_NABDPAU_iobuf@@@Z 1004e820 f i config_system.obj
 0001:0004d860       ??$destroy@V?$basic_string@DU?$char_traits@D@std@@V?$allocator@D@2@@std@@@?$_Default_allocator_traits@V?$allocator@V?$basic_string@DU?$char_traits@D@std@@V?$allocator@D@2@@std@@@std@@@std@@SAXAAV?$allocator@V?$basic_string@DU?$char_traits@D@std@@V?$allocator@D@2@@std@@@1@QAV?$basic_string@DU?$char_traits@D@std@@V?$allocator@D@2@@1@@Z 1004e860 f i config_system.obj
 0001:0004d870       ??$use_facet@V?$codecvt@DDU_Mbstatet@@@std@@@std@@YAABV?$codecvt@DDU_Mbstatet@@@0@ABVlocale@0@@Z 1004e870 f i config_system.obj
 0001:0004d990       ??0<unnamed-type-cfg>@c_config@@QAE@XZ 1004e990 f i config_system.obj
 0001:0004db10       ??0?$basic_filebuf@DU?$char_traits@D@std@@@std@@QAE@PAU_iobuf@@@Z 1004eb10 f i config_system.obj
 0001:0004db80       ??0?$basic_string@DU?$char_traits@D@std@@V?$allocator@D@2@@std@@QAE@XZ 1004eb80 f i config_system.obj
 0001:0004dbd0       ??0?$basic_string@_WU?$char_traits@_W@std@@V?$allocator@_W@2@@std@@QAE@XZ 1004ebd0 f i config_system.obj
 0001:0004dc20       ??0?$fpos@U_Mbstatet@@@std@@QAE@U_Mbstatet@@_J@Z 1004ec20 f i config_system.obj
 0001:0004dc60       ??0?$fpos@U_Mbstatet@@@std@@QAE@_J@Z 1004ec60 f i config_system.obj
 0001:0004dca0       ??0_Ref_count_base@std@@IAE@XZ 1004eca0 f i config_system.obj
 0001:0004dcd0       ??0bad_cast@std@@QAE@ABV01@@Z 1004ecd0 f i config_system.obj
 0001:0004dd00       ??0bad_cast@std@@QAE@XZ    1004ed00 f i config_system.obj
 0001:0004dd30       ??0c_config@@QAE@XZ        1004ed30 f i config_system.obj
 0001:0004dd70       ??0exception@std@@QAE@QBDH@Z 1004ed70 f i config_system.obj
 0001:0004dda0       ??0path@filesystem@std@@QAE@XZ 1004eda0 f i config_system.obj
 0001:0004ddc0       ??1?$basic_filebuf@DU?$char_traits@D@std@@@std@@UAE@XZ 1004edc0 f i config_system.obj
 0001:0004de30       ??1?$basic_ofstream@DU?$char_traits@D@std@@@std@@UAE@XZ 1004ee30 f i config_system.obj
 0001:0004de90       ??1?$basic_string@_WU?$char_traits@_W@std@@V?$allocator@_W@2@@std@@QAE@XZ 1004ee90 f i config_system.obj
 0001:0004dee0       ??1?$unique_ptr@V_Facet_base@std@@U?$default_delete@V_Facet_base@std@@@2@@std@@QAE@XZ 1004eee0 f i config_system.obj
 0001:0004df20       ??1?$vector@V?$basic_string@DU?$char_traits@D@std@@V?$allocator@D@2@@std@@V?$allocator@V?$basic_string@DU?$char_traits@D@std@@V?$allocator@D@2@@std@@@2@@std@@QAE@XZ 1004ef20 f i config_system.obj
 0001:0004df60       ??1c_config@@QAE@XZ        1004ef60 f i config_system.obj
 0001:0004df90       ??1locale@std@@QAE@XZ      1004ef90 f i config_system.obj
 0001:0004e010       ??1path@filesystem@std@@QAE@XZ 1004f010 f i config_system.obj
 0001:0004e030       ??B?$fpos@U_Mbstatet@@@std@@QBE_JXZ 1004f030 f i config_system.obj
 0001:0004e060       ??R<lambda_15711c68e099a15a58f4d77303cb286d>@@QBEXQADQBDID@Z 1004f060 f i config_system.obj
 0001:0004e0c0       ??R?$default_delete@V_Facet_base@std@@@std@@QBEXPAV_Facet_base@1@@Z 1004f0c0 f i config_system.obj
 0001:0004e100       ??_D?$basic_ofstream@DU?$char_traits@D@std@@@std@@QAEXXZ 1004f100 f i config_system.obj
 0001:0004e122       ??_E?$basic_ofstream@DU?$char_traits@D@std@@@std@@$4PPPPPPPM@A@AEPAXI@Z 1004f122 f i config_system.obj
 0001:0004e130       ??_E?$basic_filebuf@DU?$char_traits@D@std@@@std@@UAEPAXI@Z 1004f130 f i config_system.obj
 0001:0004e130       ??_G?$basic_filebuf@DU?$char_traits@D@std@@@std@@UAEPAXI@Z 1004f130 f i config_system.obj
 0001:0004e160       ??_G?$basic_ofstream@DU?$char_traits@D@std@@@std@@UAEPAXI@Z 1004f160 f i config_system.obj
 0001:0004e160       ??_E?$basic_ofstream@DU?$char_traits@D@std@@@std@@UAEPAXI@Z 1004f160 f i config_system.obj
 0001:0004e1a0       ??_G?$basic_string@DU?$char_traits@D@std@@V?$allocator@D@2@@std@@QAEPAXI@Z 1004f1a0 f i config_system.obj
 0001:0004e1d0       ?_Destroy@?$vector@V?$basic_string@DU?$char_traits@D@std@@V?$allocator@D@2@@std@@V?$allocator@V?$basic_string@DU?$char_traits@D@std@@V?$allocator@D@2@@std@@@2@@std@@AAEXPAV?$basic_string@DU?$char_traits@D@std@@V?$allocator@D@2@@2@0@Z 1004f1d0 f i config_system.obj
 0001:0004e200       ?_Endwrite@?$basic_filebuf@DU?$char_traits@D@std@@@std@@IAE_NXZ 1004f200 f i config_system.obj
 0001:0004e330       ?_Equal@?$basic_string@DU?$char_traits@D@std@@V?$allocator@D@2@@std@@QBE_NQBD@Z 1004f330 f i config_system.obj
 0001:0004e3b0       ?_Get_deleter@_Ref_count_base@std@@UBEPAXABVtype_info@@@Z 1004f3b0 f i config_system.obj
 0001:0004e3c0       ?_Getfacet@locale@std@@QBEPBVfacet@12@I@Z 1004f3c0 f i config_system.obj
 0001:0004e450       ?_Incref@_Ref_count_base@std@@QAEXXZ 1004f450 f i config_system.obj
 0001:0004e470       ?_Init@?$basic_filebuf@DU?$char_traits@D@std@@@std@@IAEXPAU_iobuf@@W4_Initfl@12@@Z 1004f470 f i config_system.obj
 0001:0004e540       ?_Initcvt@?$basic_filebuf@DU?$char_traits@D@std@@@std@@IAEXABV?$codecvt@DDU_Mbstatet@@@2@@Z 1004f540 f i config_system.obj
 0001:0004e590       ?_Large_string_engaged@?$_String_val@U?$_Simple_types@_W@std@@@std@@QBE_NXZ 1004f590 f i config_system.obj
 0001:0004e5c0       ?_Lock@?$basic_filebuf@DU?$char_traits@D@std@@@std@@UAEXXZ 1004f5c0 f i config_system.obj
 0001:0004e5f0       ?_Reset_back@?$basic_filebuf@DU?$char_traits@D@std@@@std@@AAEXXZ 1004f5f0 f i config_system.obj
 0001:0004e630       ?_Set_back@?$basic_filebuf@DU?$char_traits@D@std@@@std@@AAEXXZ 1004f630 f i config_system.obj
 0001:0004e690       ?_Tidy@?$vector@V?$basic_string@DU?$char_traits@D@std@@V?$allocator@D@2@@std@@V?$allocator@V?$basic_string@DU?$char_traits@D@std@@V?$allocator@D@2@@std@@@2@@std@@AAEXXZ 1004f690 f i config_system.obj
 0001:0004e740       ?_Tidy_deallocate@?$basic_string@_WU?$char_traits@_W@std@@V?$allocator@_W@2@@std@@QAEXXZ 1004f740 f i config_system.obj
 0001:0004e7f0       ?_Tidy_init@?$basic_string@_WU?$char_traits@_W@std@@V?$allocator@_W@2@@std@@QAEXXZ 1004f7f0 f i config_system.obj
 0001:0004e840       ?_Unlock@?$basic_filebuf@DU?$char_traits@D@std@@@std@@UAEXXZ 1004f840 f i config_system.obj
 0001:0004e870       ?assign@?$_WChar_traits@_W@std@@SAXAA_WAB_W@Z 1004f870 f i config_system.obj
 0001:0004e890       ?capacity@?$vector@V?$basic_string@DU?$char_traits@D@std@@V?$allocator@D@2@@std@@V?$allocator@V?$basic_string@DU?$char_traits@D@std@@V?$allocator@D@2@@std@@@2@@std@@QBEIXZ 1004f890 f i config_system.obj
 0001:0004e8c0       ?close@?$basic_filebuf@DU?$char_traits@D@std@@@std@@QAEPAV12@XZ 1004f8c0 f i config_system.obj
 0001:0004e930       ?deallocate@?$allocator@V?$basic_string@DU?$char_traits@D@std@@V?$allocator@D@2@@std@@@std@@QAEXQAV?$basic_string@DU?$char_traits@D@std@@V?$allocator@D@2@@2@I@Z 1004f930 f i config_system.obj
 0001:0004e950       ?deallocate@?$allocator@_W@std@@QAEXQA_WI@Z 1004f950 f i config_system.obj
 0001:0004e970       ?empty@?$basic_string@DU?$char_traits@D@std@@V?$allocator@D@2@@std@@QBE_NXZ 1004f970 f i config_system.obj
 0001:0004e9a0       ?eq_int_type@?$char_traits@D@std@@SA_NABH0@Z 1004f9a0 f i config_system.obj
 0001:0004e9d0       ?front@?$basic_string@DU?$char_traits@D@std@@V?$allocator@D@2@@std@@QAEAADXZ 1004f9d0 f i config_system.obj
 0001:0004e9f0       ?imbue@?$basic_filebuf@DU?$char_traits@D@std@@@std@@MAEXABVlocale@2@@Z 1004f9f0 f i config_system.obj
 0001:0004ea20       ?not_eof@?$char_traits@D@std@@SAHABH@Z 1004fa20 f i config_system.obj
 0001:0004ea70       ?overflow@?$basic_filebuf@DU?$char_traits@D@std@@@std@@MAEHH@Z 1004fa70 f i config_system.obj
 0001:0004ec60       ?pbackfail@?$basic_filebuf@DU?$char_traits@D@std@@@std@@MAEHH@Z 1004fc60 f i config_system.obj
 0001:0004edc0       ?push_back@?$basic_string@DU?$char_traits@D@std@@V?$allocator@D@2@@std@@QAEXD@Z 1004fdc0 f i config_system.obj
 0001:0004ee50       ?seekoff@?$basic_filebuf@DU?$char_traits@D@std@@@std@@MAE?AV?$fpos@U_Mbstatet@@@2@_JHH@Z 1004fe50 f i config_system.obj
 0001:0004ef30       ?seekpos@?$basic_filebuf@DU?$char_traits@D@std@@@std@@MAE?AV?$fpos@U_Mbstatet@@@2@V32@H@Z 1004ff30 f i config_system.obj
 0001:0004efd0       ?setbuf@?$basic_filebuf@DU?$char_traits@D@std@@@std@@MAEPAV?$basic_streambuf@DU?$char_traits@D@std@@@2@PAD_J@Z 1004ffd0 f i config_system.obj
 0001:0004f050       ?state@?$fpos@U_Mbstatet@@@std@@QBE?AU_Mbstatet@@XZ 10050050 f i config_system.obj
 0001:0004f080       ?sync@?$basic_filebuf@DU?$char_traits@D@std@@@std@@MAEHXZ 10050080 f i config_system.obj
 0001:0004f100       ?to_char_type@?$char_traits@D@std@@SADABH@Z 10050100 f i config_system.obj
 0001:0004f110       ?to_int_type@?$char_traits@D@std@@SAHABD@Z 10050110 f i config_system.obj
 0001:0004f120       ?uflow@?$basic_filebuf@DU?$char_traits@D@std@@@std@@MAEHXZ 10050120 f i config_system.obj
 0001:0004f3b0       ?underflow@?$basic_filebuf@DU?$char_traits@D@std@@@std@@MAEHXZ 100503b0 f i config_system.obj
 0001:0004f450       ?xsgetn@?$basic_filebuf@DU?$char_traits@D@std@@@std@@MAE_JPAD_J@Z 10050450 f i config_system.obj
 0001:0004f570       ?xsputn@?$basic_filebuf@DU?$char_traits@D@std@@@std@@MAE_JPBD_J@Z 10050570 f i config_system.obj
 0001:0004f690       ??0c_menu@@QAE@XZ          10050690 f i menu_system.obj
 0001:0004f6c0       ?Render@c_menu@@QAEXXZ     100506c0 f   menu_system.obj
 0001:000504c0       ?apply_fonts@c_menu@@QAEXXZ 100514c0 f   menu_system.obj
 0001:00050540       ?legit_tab@@YAXXZ          10051540 f   menu_system.obj
 0001:00050860       ?misc_tab@@YAXXZ           10051860 f   menu_system.obj
 0001:00050a80       ?rage_tab@@YAXXZ           10051a80 f   menu_system.obj
 0001:00050da0       ?visuals_tab@@YAXXZ        10051da0 f   menu_system.obj
 0001:00051400       ?FireRate@C_BaseEntity@@QAEMXZ 10052400 f   CEntity.obj
 0001:00051c70       ?FixSetupBones@C_BaseEntity@@QAEXPAVmatrix3x4_t@@@Z 10052c70 f   CEntity.obj
 0001:00051d40       ?GetAbsOrigin@C_BaseEntity@@QAE?AVVector@@XZ 10052d40 f i CEntity.obj
 0001:00051d80       ?GetHitbox@mstudiohitboxset_t@@QBEPAUmstudiobbox_t@@H@Z 10052d80 f i CEntity.obj
 0001:00051da0       ?GetHitboxPosition@C_BaseEntity@@QAE?AVVector@@HPAVmatrix3x4_t@@@Z 10052da0 f   CEntity.obj
 0001:00051f10       ?GetHitboxPosition@C_BaseEntity@@QAE?AVVector@@HPAVmatrix3x4_t@@PAM@Z 10052f10 f   CEntity.obj
 0001:00052090       ?GetHitboxSet@studiohdr_t@@QBEPAUmstudiohitboxset_t@@H@Z 10053090 f i CEntity.obj
 0001:000520c0       ?GetStudiomodel@IVModelInfo@@QAEPAUstudiohdr_t@@PBUmodel_t@@@Z 100530c0 f i CEntity.obj
 0001:000520f0       ?IsKnifeorNade@C_BaseEntity@@QAE_NXZ 100530f0 f   CEntity.obj
 0001:00052310       ?SetAbsAngles@C_BaseEntity@@QAEXVVector@@@Z 10053310 f   CEntity.obj
 0001:000523d0       ?SetAbsOrigin@C_BaseEntity@@QAEXVVector@@@Z 100533d0 f   CEntity.obj
 0001:00052480       ??$?6U?$char_traits@D@std@@@std@@YAAAV?$basic_ostream@DU?$char_traits@D@std@@@0@AAV10@PBD@Z 10053480 f i Interfaces.obj
 0001:00052800       ??$?6V?$basic_ofstream@DU?$char_traits@D@std@@@std@@$$BY0OF@D$0A@@std@@YA$$QAV?$basic_ofstream@DU?$char_traits@D@std@@@0@$$QAV10@AAY0OF@$$CBD@Z 10053800 f i Interfaces.obj
 0001:00052800       ??$?6V?$basic_ofstream@DU?$char_traits@D@std@@@std@@$$BY0MO@D$0A@@std@@YA$$QAV?$basic_ofstream@DU?$char_traits@D@std@@@0@$$QAV10@AAY0MO@$$CBD@Z 10053800 f i Interfaces.obj
 0001:00052830       ??$CaptureInterface@VIGameEventManager@@@interfaces@@YAPAVIGameEventManager@@PBD0@Z 10053830 f i Interfaces.obj
 0001:000528e0       ??$FindClass@VCModelRender@@@interfaces@@YAPAVCModelRender@@V?$basic_string@DU?$char_traits@D@std@@V?$allocator@D@2@@std@@0_N@Z 100538e0 f i Interfaces.obj
 0001:00052ac0       ??$FindClass@VCPrediction@@@interfaces@@YAPAVCPrediction@@V?$basic_string@DU?$char_traits@D@std@@V?$allocator@D@2@@std@@0_N@Z 10053ac0 f i Interfaces.obj
 0001:00052ca0       ??$FindClass@VIBaseClientDLL@@@interfaces@@YAPAVIBaseClientDLL@@V?$basic_string@DU?$char_traits@D@std@@V?$allocator@D@2@@std@@0_N@Z 10053ca0 f i Interfaces.obj
 0001:00052e80       ??$FindClass@VICVar@@@interfaces@@YAPAVICVar@@V?$basic_string@DU?$char_traits@D@std@@V?$allocator@D@2@@std@@0_N@Z 10053e80 f i Interfaces.obj
 0001:00053060       ??$FindClass@VIClientEntityList@@@interfaces@@YAPAVIClientEntityList@@V?$basic_string@DU?$char_traits@D@std@@V?$allocator@D@2@@std@@0_N@Z 10054060 f i Interfaces.obj
 0001:00053240       ??$FindClass@VIEngineTrace@@@interfaces@@YAPAVIEngineTrace@@V?$basic_string@DU?$char_traits@D@std@@V?$allocator@D@2@@std@@0_N@Z 10054240 f i Interfaces.obj
 0001:00053420       ??$FindClass@VIGameMovement@@@interfaces@@YAPAVIGameMovement@@V?$basic_string@DU?$char_traits@D@std@@V?$allocator@D@2@@std@@0_N@Z 10054420 f i Interfaces.obj
 0001:00053600       ??$FindClass@VIMaterialSystem@@@interfaces@@YAPAVIMaterialSystem@@V?$basic_string@DU?$char_traits@D@std@@V?$allocator@D@2@@std@@0_N@Z 10054600 f i Interfaces.obj
 0001:000537e0       ??$FindClass@VIPanel@@@interfaces@@YAPAVIPanel@@V?$basic_string@DU?$char_traits@D@std@@V?$allocator@D@2@@std@@0_N@Z 100547e0 f i Interfaces.obj
 0001:000539c0       ??$FindClass@VIPhysicsSurfaceProps@@@interfaces@@YAPAVIPhysicsSurfaceProps@@V?$basic_string@DU?$char_traits@D@std@@V?$allocator@D@2@@std@@0_N@Z 100549c0 f i Interfaces.obj
 0001:00053ba0       ??$FindClass@VISurface@@@interfaces@@YAPAVISurface@@V?$basic_string@DU?$char_traits@D@std@@V?$allocator@D@2@@std@@0_N@Z 10054ba0 f i Interfaces.obj
 0001:00053d80       ??$FindClass@VIVEngineClient@@@interfaces@@YAPAVIVEngineClient@@V?$basic_string@DU?$char_traits@D@std@@V?$allocator@D@2@@std@@0_N@Z 10054d80 f i Interfaces.obj
 0001:00053f60       ??$FindClass@VIVModelInfo@@@interfaces@@YAPAVIVModelInfo@@V?$basic_string@DU?$char_traits@D@std@@V?$allocator@D@2@@std@@0_N@Z 10054f60 f i Interfaces.obj
 0001:00054140       ??$FindClass@VIVRenderView@@@interfaces@@YAPAVIVRenderView@@V?$basic_string@DU?$char_traits@D@std@@V?$allocator@D@2@@std@@0_N@Z 10055140 f i Interfaces.obj
 0001:00054320       ??$sprintf_s@$0BAA@@@YAHAAY0BAA@DPBDZZ 10055320 f i Interfaces.obj
 0001:00054350       ??0?$basic_ofstream@DU?$char_traits@D@std@@@std@@QAE@PBDHH@Z 10055350 f i Interfaces.obj
 0001:00054470       ??0_Sentry_base@?$basic_ostream@DU?$char_traits@D@std@@@std@@QAE@AAV12@@Z 10055470 f i Interfaces.obj
 0001:000544d0       ??0sentry@?$basic_ostream@DU?$char_traits@D@std@@@std@@QAE@AAV12@@Z 100554d0 f i Interfaces.obj
 0001:000545a0       ??1_Sentry_base@?$basic_ostream@DU?$char_traits@D@std@@@std@@QAE@XZ 100555a0 f i Interfaces.obj
 0001:00054620       ??1sentry@?$basic_ostream@DU?$char_traits@D@std@@@std@@QAE@XZ 10055620 f i Interfaces.obj
 0001:00054680       ??Bsentry@?$basic_ostream@DU?$char_traits@D@std@@@std@@QBE_NXZ 10055680 f i Interfaces.obj
 0001:000546a0       ?Init@interfaces@@YAXXZ    100556a0 f   Interfaces.obj
 0001:00054c50       ?open@?$basic_filebuf@DU?$char_traits@D@std@@@std@@QAEPAV12@PBDHH@Z 10055c50 f i Interfaces.obj
 0001:00054d10       ??$isinf@M@@YA_NM@Z        10055d10 f i Math.obj
 0001:00054d50       ??$isnan@M@@YA_NM@Z        10055d50 f i Math.obj
 0001:00054d90       ??AVector@@QBEMH@Z         10055d90 f i Math.obj
 0001:00054db0       ??Amatrix3x4_t@@QBEPBMH@Z  10055db0 f i Math.obj
 0001:00054dd0       ?AngleVectors@Math@@QAEXABVVector@@PAV2@11@Z 10055dd0 f   Math.obj
 0001:00054fb0       ?AngleVectors@Math@@QAEXABVVector@@PAV2@@Z 10055fb0 f   Math.obj
 0001:000550b0       ?CalcAngle@Math@@QAE?AVVector@@ABV2@0@Z 100560b0 f   Math.obj
 0001:00055300       ?Clamp@Math@@QAE_NAAVVector@@@Z 10056300 f   Math.obj
 0001:000553f0       ?ClampAngles@Math@@QAEXAAVVector@@@Z 100563f0 f   Math.obj
 0001:00055490       ?CrossProduct@@YA?AVVector@@ABV1@0@Z 10056490 f i Math.obj
 0001:00055520       ?Distance@Math@@QAEMVVector2D@@0@Z 10056520 f   Math.obj
 0001:00055580       ?DotProduct@@YAMABVVector@@0@Z 10056580 f i Math.obj
 0001:000555d0       ?GRD_TO_BOG@Math@@QAEMM@Z  100565d0 f   Math.obj
 0001:00055600       ?NormalizeAngles@Math@@QAEXAAVVector@@@Z 10056600 f   Math.obj
 0001:000556b0       ?NormalizeYaw@Math@@QAEMM@Z 100566b0 f   Math.obj
 0001:00055750       ?RandomFloat@Math@@QAEMMM@Z 10056750 f   Math.obj
 0001:000557e0       ?VectorAngles@Math@@QAEXABVVector@@AAV2@1@Z 100567e0 f   Math.obj
 0001:000559e0       ?VectorAngles@Math@@QAEXABVVector@@AAV2@@Z 100569e0 f   Math.obj
 0001:00055c60       ?VectorTransform@Math@@QAEXVVector@@Vmatrix3x4_t@@AAV2@@Z 10056c60 f   Math.obj
 0001:00055ed0       ?atan2@@YAMMM@Z            10056ed0 f i Math.obj
 0001:00055f00       ?atan@@YAMM@Z              10056f00 f i Math.obj
 0001:00055f20       ?fpclassify@@YAHM@Z        10056f20 f i Math.obj
 0001:00055f40       ?round@@YAMM@Z             10056f40 f i Math.obj
 0001:00055f60       ?sin_cos@@YAXMPAM0@Z       10056f60 f   Math.obj
 0001:00055fa0       _atan2f                    10056fa0 f i Math.obj
 0001:00055fe0       _atanf                     10056fe0 f i Math.obj
 0001:00056000       ??$?0AAU?$equal_to@V?$basic_string@DU?$char_traits@D@std@@V?$allocator@D@2@@std@@@std@@M@?$_Compressed_pair@U?$equal_to@V?$basic_string@DU?$char_traits@D@std@@V?$allocator@D@2@@std@@@std@@M$00@std@@QAE@U_One_then_variadic_args_t@1@AAU?$equal_to@V?$basic_string@DU?$char_traits@D@std@@V?$allocator@D@2@@std@@@1@$$QAM@Z 10057000 f i NetvarManager.obj
 0001:00056030       ??$?0AAU?$hash@V?$basic_string@DU?$char_traits@D@std@@V?$allocator@D@2@@std@@@std@@U_One_then_variadic_args_t@1@AAU?$equal_to@V?$basic_string@DU?$char_traits@D@std@@V?$allocator@D@2@@std@@@1@M@?$_Compressed_pair@U?$hash@V?$basic_string@DU?$char_traits@D@std@@V?$allocator@D@2@@std@@@std@@V?$_Compressed_pair@U?$equal_to@V?$basic_string@DU?$char_traits@D@std@@V?$allocator@D@2@@std@@@std@@M$00@2@$00@std@@QAE@U_One_then_variadic_args_t@1@AAU?$hash@V?$basic_string@DU?$char_traits@D@std@@V?$allocator@D@2@@std@@@1@$$QAU21@AAU?$equal_to@V?$basic_string@DU?$char_traits@D@std@@V?$allocator@D@2@@std@@@1@$$QAM@Z 10057030 f i NetvarManager.obj
 0001:000560a0       ??$?0ABV?$allocator@U?$pair@$$CBV?$basic_string@DU?$char_traits@D@std@@V?$allocator@D@2@@std@@V?$shared_ptr@UNode@NetvarTree@@@2@@std@@@std@@$$V@?$_Compressed_pair@V?$allocator@U?$_List_node@U?$pair@$$CBV?$basic_string@DU?$char_traits@D@std@@V?$allocator@D@2@@std@@V?$shared_ptr@UNode@NetvarTree@@@2@@std@@PAX@std@@@std@@V?$_List_val@U?$_List_simple_types@U?$pair@$$CBV?$basic_string@DU?$char_traits@D@std@@V?$allocator@D@2@@std@@V?$shared_ptr@UNode@NetvarTree@@@2@@std@@@std@@@2@$00@std@@QAE@U_One_then_variadic_args_t@1@ABV?$allocator@U?$pair@$$CBV?$basic_string@DU?$char_traits@D@std@@V?$allocator@D@2@@std@@V?$shared_ptr@UNode@NetvarTree@@@2@@std@@@1@@Z 100570a0 f i NetvarManager.obj
 0001:000560d0       ??$?0ABV?$allocator@U?$pair@$$CBV?$basic_string@DU?$char_traits@D@std@@V?$allocator@D@2@@std@@V?$shared_ptr@UNode@NetvarTree@@@2@@std@@@std@@X@?$_List_alloc@U?$_List_base_types@U?$pair@$$CBV?$basic_string@DU?$char_traits@D@std@@V?$allocator@D@2@@std@@V?$shared_ptr@UNode@NetvarTree@@@2@@std@@V?$allocator@U?$pair@$$CBV?$basic_string@DU?$char_traits@D@std@@V?$allocator@D@2@@std@@V?$shared_ptr@UNode@NetvarTree@@@2@@std@@@2@@std@@@std@@QAE@ABV?$allocator@U?$pair@$$CBV?$basic_string@DU?$char_traits@D@std@@V?$allocator@D@2@@std@@V?$shared_ptr@UNode@NetvarTree@@@2@@std@@@1@@Z 100570d0 f i NetvarManager.obj
 0001:00056130       ??$?0ABV?$allocator@U?$pair@$$CBV?$basic_string@DU?$char_traits@D@std@@V?$allocator@D@2@@std@@V?$shared_ptr@UNode@NetvarTree@@@2@@std@@@std@@X@?$_List_buy@U?$pair@$$CBV?$basic_string@DU?$char_traits@D@std@@V?$allocator@D@2@@std@@V?$shared_ptr@UNode@NetvarTree@@@2@@std@@V?$allocator@U?$pair@$$CBV?$basic_string@DU?$char_traits@D@std@@V?$allocator@D@2@@std@@V?$shared_ptr@UNode@NetvarTree@@@2@@std@@@2@@std@@QAE@ABV?$allocator@U?$pair@$$CBV?$basic_string@DU?$char_traits@D@std@@V?$allocator@D@2@@std@@V?$shared_ptr@UNode@NetvarTree@@@2@@std@@@1@@Z 10057130 f i NetvarManager.obj
 0001:00056160       ??$?0ABV?$allocator@V?$_List_unchecked_iterator@V?$_List_val@U?$_List_simple_types@U?$pair@$$CBV?$basic_string@DU?$char_traits@D@std@@V?$allocator@D@2@@std@@V?$shared_ptr@UNode@NetvarTree@@@2@@std@@@std@@@std@@@std@@@std@@$$V@?$_Compressed_pair@V?$allocator@V?$_List_unchecked_iterator@V?$_List_val@U?$_List_simple_types@U?$pair@$$CBV?$basic_string@DU?$char_traits@D@std@@V?$allocator@D@2@@std@@V?$shared_ptr@UNode@NetvarTree@@@2@@std@@@std@@@std@@@std@@@std@@V?$_Vector_val@U?$_Simple_types@V?$_List_unchecked_iterator@V?$_List_val@U?$_List_simple_types@U?$pair@$$CBV?$basic_string@DU?$char_traits@D@std@@V?$allocator@D@2@@std@@V?$shared_ptr@UNode@NetvarTree@@@2@@std@@@std@@@std@@@std@@@std@@@2@$00@std@@QAE@U_One_then_variadic_args_t@1@ABV?$allocator@V?$_List_unchecked_iterator@V?$_List_val@U?$_List_simple_types@U?$pair@$$CBV?$basic_string@DU?$char_traits@D@std@@V?$allocator@D@2@@std@@V?$shared_ptr@UNode@NetvarTree@@@2@@std@@@std@@@std@@@std@@@1@@Z 10057160 f i NetvarManager.obj
 0001:00056190       ??$?0ABV?$allocator@V?$_List_unchecked_iterator@V?$_List_val@U?$_List_simple_types@U?$pair@$$CBV?$basic_string@DU?$char_traits@D@std@@V?$allocator@D@2@@std@@V?$shared_ptr@UNode@NetvarTree@@@2@@std@@@std@@@std@@@std@@@std@@X@?$_Vector_alloc@U?$_Vec_base_types@V?$_List_unchecked_iterator@V?$_List_val@U?$_List_simple_types@U?$pair@$$CBV?$basic_string@DU?$char_traits@D@std@@V?$allocator@D@2@@std@@V?$shared_ptr@UNode@NetvarTree@@@2@@std@@@std@@@std@@@std@@V?$allocator@V?$_List_unchecked_iterator@V?$_List_val@U?$_List_simple_types@U?$pair@$$CBV?$basic_string@DU?$char_traits@D@std@@V?$allocator@D@2@@std@@V?$shared_ptr@UNode@NetvarTree@@@2@@std@@@std@@@std@@@std@@@2@@std@@@std@@QAE@ABV?$allocator@V?$_List_unchecked_iterator@V?$_List_val@U?$_List_simple_types@U?$pair@$$CBV?$basic_string@DU?$char_traits@D@std@@V?$allocator@D@2@@std@@V?$shared_ptr@UNode@NetvarTree@@@2@@std@@@std@@@std@@@std@@@1@@Z 10057190 f i NetvarManager.obj
 0001:000561d0       ??$?0H@?$_Ref_count_obj@UNode@NetvarTree@@@std@@QAE@$$QAH@Z 100571d0 f i NetvarManager.obj
 0001:00056260       ??$?0PBDABV?$shared_ptr@UNode@NetvarTree@@@std@@$0A@@?$pair@$$CBV?$basic_string@DU?$char_traits@D@std@@V?$allocator@D@2@@std@@V?$shared_ptr@UNode@NetvarTree@@@2@@std@@QAE@$$QAPBDABV?$shared_ptr@UNode@NetvarTree@@@1@@Z 10057260 f i NetvarManager.obj
 0001:000562b0       ??$_Buynode@PBDABV?$shared_ptr@UNode@NetvarTree@@@std@@@?$_List_buy@U?$pair@$$CBV?$basic_string@DU?$char_traits@D@std@@V?$allocator@D@2@@std@@V?$shared_ptr@UNode@NetvarTree@@@2@@std@@V?$allocator@U?$pair@$$CBV?$basic_string@DU?$char_traits@D@std@@V?$allocator@D@2@@std@@V?$shared_ptr@UNode@NetvarTree@@@2@@std@@@2@@std@@QAEPAU?$_List_node@U?$pair@$$CBV?$basic_string@DU?$char_traits@D@std@@V?$allocator@D@2@@std@@V?$shared_ptr@UNode@NetvarTree@@@2@@std@@PAX@1@PAU21@0$$QAPBDABV?$shared_ptr@UNode@NetvarTree@@@1@@Z 100572b0 f i NetvarManager.obj
 0001:000563a0       ??$_Copy_construct_from@UNode@NetvarTree@@@?$_Ptr_base@UNode@NetvarTree@@@std@@IAEXABV?$shared_ptr@UNode@NetvarTree@@@1@@Z 100573a0 f i NetvarManager.obj
 0001:000563e0       ??$_Enable_shared_from_this@UNode@NetvarTree@@U12@@std@@YAXABV?$shared_ptr@UNode@NetvarTree@@@0@PAUNode@NetvarTree@@@Z 100573e0 f i NetvarManager.obj
 0001:00056410       ??$_Insert@PBDABV?$shared_ptr@UNode@NetvarTree@@@std@@@?$list@U?$pair@$$CBV?$basic_string@DU?$char_traits@D@std@@V?$allocator@D@2@@std@@V?$shared_ptr@UNode@NetvarTree@@@2@@std@@V?$allocator@U?$pair@$$CBV?$basic_string@DU?$char_traits@D@std@@V?$allocator@D@2@@std@@V?$shared_ptr@UNode@NetvarTree@@@2@@std@@@2@@std@@QAEXV?$_List_unchecked_const_iterator@V?$_List_val@U?$_List_simple_types@U?$pair@$$CBV?$basic_string@DU?$char_traits@D@std@@V?$allocator@D@2@@std@@V?$shared_ptr@UNode@NetvarTree@@@2@@std@@@std@@@std@@U_Iterator_base0@2@@1@$$QAPBDABV?$shared_ptr@UNode@NetvarTree@@@1@@Z 10057410 f i NetvarManager.obj
 0001:00056490       ??$_Move_construct_from@UNode@NetvarTree@@@?$_Ptr_base@UNode@NetvarTree@@@std@@IAEX$$QAV01@@Z 10057490 f i NetvarManager.obj
 0001:000564d0       ??$_Set_ptr_rep_and_enable_shared@UNode@NetvarTree@@@?$shared_ptr@UNode@NetvarTree@@@std@@AAEXPAUNode@NetvarTree@@PAV_Ref_count_base@1@@Z 100574d0 f i NetvarManager.obj
 0001:00056500       ??$construct@U?$pair@$$CBV?$basic_string@DU?$char_traits@D@std@@V?$allocator@D@2@@std@@V?$shared_ptr@UNode@NetvarTree@@@2@@std@@PBDABV?$shared_ptr@UNode@NetvarTree@@@2@@?$_Default_allocator_traits@V?$allocator@U?$_List_node@U?$pair@$$CBV?$basic_string@DU?$char_traits@D@std@@V?$allocator@D@2@@std@@V?$shared_ptr@UNode@NetvarTree@@@2@@std@@PAX@std@@@std@@@std@@SAXAAV?$allocator@U?$_List_node@U?$pair@$$CBV?$basic_string@DU?$char_traits@D@std@@V?$allocator@D@2@@std@@V?$shared_ptr@UNode@NetvarTree@@@2@@std@@PAX@std@@@1@QAU?$pair@$$CBV?$basic_string@DU?$char_traits@D@std@@V?$allocator@D@2@@std@@V?$shared_ptr@UNode@NetvarTree@@@2@@1@$$QAPBDABV?$shared_ptr@UNode@NetvarTree@@@1@@Z 10057500 f i NetvarManager.obj
 0001:00056550       ??$emplace@PBDABV?$shared_ptr@UNode@NetvarTree@@@std@@@?$_Hash@V?$_Umap_traits@V?$basic_string@DU?$char_traits@D@std@@V?$allocator@D@2@@std@@V?$shared_ptr@UNode@NetvarTree@@@2@V?$_Uhash_compare@V?$basic_string@DU?$char_traits@D@std@@V?$allocator@D@2@@std@@U?$hash@V?$basic_string@DU?$char_traits@D@std@@V?$allocator@D@2@@std@@@2@U?$equal_to@V?$basic_string@DU?$char_traits@D@std@@V?$allocator@D@2@@std@@@2@@2@V?$allocator@U?$pair@$$CBV?$basic_string@DU?$char_traits@D@std@@V?$allocator@D@2@@std@@V?$shared_ptr@UNode@NetvarTree@@@2@@std@@@2@$0A@@std@@@std@@QAE?AU?$pair@V?$_List_iterator@V?$_List_val@U?$_List_simple_types@U?$pair@$$CBV?$basic_string@DU?$char_traits@D@std@@V?$allocator@D@2@@std@@V?$shared_ptr@UNode@NetvarTree@@@2@@std@@@std@@@std@@@std@@_N@1@$$QAPBDABV?$shared_ptr@UNode@NetvarTree@@@1@@Z 10057550 f i NetvarManager.obj
 0001:000565d0       ??$emplace_front@PBDABV?$shared_ptr@UNode@NetvarTree@@@std@@@?$list@U?$pair@$$CBV?$basic_string@DU?$char_traits@D@std@@V?$allocator@D@2@@std@@V?$shared_ptr@UNode@NetvarTree@@@2@@std@@V?$allocator@U?$pair@$$CBV?$basic_string@DU?$char_traits@D@std@@V?$allocator@D@2@@std@@V?$shared_ptr@UNode@NetvarTree@@@2@@std@@@2@@std@@QAEAAU?$pair@$$CBV?$basic_string@DU?$char_traits@D@std@@V?$allocator@D@2@@std@@V?$shared_ptr@UNode@NetvarTree@@@2@@1@$$QAPBDABV?$shared_ptr@UNode@NetvarTree@@@1@@Z 100575d0 f i NetvarManager.obj
 0001:00056640       ??$make_shared@UNode@NetvarTree@@H@std@@YA?AV?$shared_ptr@UNode@NetvarTree@@@0@$$QAH@Z 10057640 f i NetvarManager.obj
 0001:00056720       ??0?$_Hash@V?$_Umap_traits@V?$basic_string@DU?$char_traits@D@std@@V?$allocator@D@2@@std@@V?$shared_ptr@UNode@NetvarTree@@@2@V?$_Uhash_compare@V?$basic_string@DU?$char_traits@D@std@@V?$allocator@D@2@@std@@U?$hash@V?$basic_string@DU?$char_traits@D@std@@V?$allocator@D@2@@std@@@2@U?$equal_to@V?$basic_string@DU?$char_traits@D@std@@V?$allocator@D@2@@std@@@2@@2@V?$allocator@U?$pair@$$CBV?$basic_string@DU?$char_traits@D@std@@V?$allocator@D@2@@std@@V?$shared_ptr@UNode@NetvarTree@@@2@@std@@@2@$0A@@std@@@std@@QAE@ABV?$_Uhash_compare@V?$basic_string@DU?$char_traits@D@std@@V?$allocator@D@2@@std@@U?$hash@V?$basic_string@DU?$char_traits@D@std@@V?$allocator@D@2@@std@@@2@U?$equal_to@V?$basic_string@DU?$char_traits@D@std@@V?$allocator@D@2@@std@@@2@@1@ABV?$allocator@U?$pair@$$CBV?$basic_string@DU?$char_traits@D@std@@V?$allocator@D@2@@std@@V?$shared_ptr@UNode@NetvarTree@@@2@@std@@@1@@Z 10057720 f i NetvarManager.obj
 0001:000567e0       ??0?$_Uhash_compare@V?$basic_string@DU?$char_traits@D@std@@V?$allocator@D@2@@std@@U?$hash@V?$basic_string@DU?$char_traits@D@std@@V?$allocator@D@2@@std@@@2@U?$equal_to@V?$basic_string@DU?$char_traits@D@std@@V?$allocator@D@2@@std@@@2@@std@@QAE@U?$hash@V?$basic_string@DU?$char_traits@D@std@@V?$allocator@D@2@@std@@@1@U?$equal_to@V?$basic_string@DU?$char_traits@D@std@@V?$allocator@D@2@@std@@@1@@Z 100577e0 f i NetvarManager.obj
 0001:00056820       ??0?$_Umap_traits@V?$basic_string@DU?$char_traits@D@std@@V?$allocator@D@2@@std@@V?$shared_ptr@UNode@NetvarTree@@@2@V?$_Uhash_compare@V?$basic_string@DU?$char_traits@D@std@@V?$allocator@D@2@@std@@U?$hash@V?$basic_string@DU?$char_traits@D@std@@V?$allocator@D@2@@std@@@2@U?$equal_to@V?$basic_string@DU?$char_traits@D@std@@V?$allocator@D@2@@std@@@2@@2@V?$allocator@U?$pair@$$CBV?$basic_string@DU?$char_traits@D@std@@V?$allocator@D@2@@std@@V?$shared_ptr@UNode@NetvarTree@@@2@@std@@@2@$0A@@std@@QAE@ABV?$_Uhash_compare@V?$basic_string@DU?$char_traits@D@std@@V?$allocator@D@2@@std@@U?$hash@V?$basic_string@DU?$char_traits@D@std@@V?$allocator@D@2@@std@@@2@U?$equal_to@V?$basic_string@DU?$char_traits@D@std@@V?$allocator@D@2@@std@@@2@@1@@Z 10057820 f i NetvarManager.obj
 0001:00056840       ??0?$list@U?$pair@$$CBV?$basic_string@DU?$char_traits@D@std@@V?$allocator@D@2@@std@@V?$shared_ptr@UNode@NetvarTree@@@2@@std@@V?$allocator@U?$pair@$$CBV?$basic_string@DU?$char_traits@D@std@@V?$allocator@D@2@@std@@V?$shared_ptr@UNode@NetvarTree@@@2@@std@@@2@@std@@QAE@ABV?$allocator@U?$pair@$$CBV?$basic_string@DU?$char_traits@D@std@@V?$allocator@D@2@@std@@V?$shared_ptr@UNode@NetvarTree@@@2@@std@@@1@@Z 10057840 f i NetvarManager.obj
 0001:00056860       ??0?$shared_ptr@UNode@NetvarTree@@@std@@QAE@$$QAV01@@Z 10057860 f i NetvarManager.obj
 0001:000568c0       ??0?$shared_ptr@UNode@NetvarTree@@@std@@QAE@ABV01@@Z 100578c0 f i NetvarManager.obj
 0001:00056910       ??0?$unordered_map@V?$basic_string@DU?$char_traits@D@std@@V?$allocator@D@2@@std@@V?$shared_ptr@UNode@NetvarTree@@@2@U?$hash@V?$basic_string@DU?$char_traits@D@std@@V?$allocator@D@2@@std@@@2@U?$equal_to@V?$basic_string@DU?$char_traits@D@std@@V?$allocator@D@2@@std@@@2@V?$allocator@U?$pair@$$CBV?$basic_string@DU?$char_traits@D@std@@V?$allocator@D@2@@std@@V?$shared_ptr@UNode@NetvarTree@@@2@@std@@@2@@std@@QAE@XZ 10057910 f i NetvarManager.obj
 0001:00056950       ??0?$vector@V?$_List_unchecked_iterator@V?$_List_val@U?$_List_simple_types@U?$pair@$$CBV?$basic_string@DU?$char_traits@D@std@@V?$allocator@D@2@@std@@V?$shared_ptr@UNode@NetvarTree@@@2@@std@@@std@@@std@@@std@@V?$allocator@V?$_List_unchecked_iterator@V?$_List_val@U?$_List_simple_types@U?$pair@$$CBV?$basic_string@DU?$char_traits@D@std@@V?$allocator@D@2@@std@@V?$shared_ptr@UNode@NetvarTree@@@2@@std@@@std@@@std@@@std@@@2@@std@@QAE@ABV?$allocator@V?$_List_unchecked_iterator@V?$_List_val@U?$_List_simple_types@U?$pair@$$CBV?$basic_string@DU?$char_traits@D@std@@V?$allocator@D@2@@std@@V?$shared_ptr@UNode@NetvarTree@@@2@@std@@@std@@@std@@@std@@@1@@Z 10057950 f i NetvarManager.obj
 0001:000569a0       ??0NetvarTree@@QAE@XZ      100579a0 f   NetvarManager.obj
 0001:00056a80       ??0Node@NetvarTree@@QAE@H@Z 10057a80 f i NetvarManager.obj
 0001:00056ab0       ??_G?$_Ref_count_obj@UNode@NetvarTree@@@std@@UAEPAXI@Z 10057ab0 f i NetvarManager.obj
 0001:00056ab0       ??_E?$_Ref_count_obj@UNode@NetvarTree@@@std@@UAEPAXI@Z 10057ab0 f i NetvarManager.obj
 0001:00056ae0       ??_GNode@NetvarTree@@QAEPAXI@Z 10057ae0 f i NetvarManager.obj
 0001:00056b10       ?GetDataTable@RecvProp@@QBEPAVRecvTable@@XZ 10057b10 f i NetvarManager.obj
 0001:00056b30       ?GetName@RecvTable@@QAEPBDXZ 10057b30 f i NetvarManager.obj
 0001:00056b50       ?GetNumProps@RecvTable@@QAEHXZ 10057b50 f i NetvarManager.obj
 0001:00056b50       ?GetType@RecvProp@@QBE?AW4SendPropType@@XZ 10057b50 f i NetvarManager.obj
 0001:00056b70       ?GetOffset@RecvProp@@QBEHXZ 10057b70 f i NetvarManager.obj
 0001:00056b90       ?GetProp@RecvTable@@QAEPAVRecvProp@@H@Z 10057b90 f i NetvarManager.obj
 0001:00056bb0       ?PopulateNodes@NetvarTree@@AAEXPAVRecvTable@@PAV?$unordered_map@V?$basic_string@DU?$char_traits@D@std@@V?$allocator@D@2@@std@@V?$shared_ptr@UNode@NetvarTree@@@2@U?$hash@V?$basic_string@DU?$char_traits@D@std@@V?$allocator@D@2@@std@@@2@U?$equal_to@V?$basic_string@DU?$char_traits@D@std@@V?$allocator@D@2@@std@@@2@V?$allocator@U?$pair@$$CBV?$basic_string@DU?$char_traits@D@std@@V?$allocator@D@2@@std@@V?$shared_ptr@UNode@NetvarTree@@@2@@std@@@2@@std@@@Z 10057bb0 f   NetvarManager.obj
 0001:00056cb0       ?_Buyheadnode@?$_List_alloc@U?$_List_base_types@U?$pair@$$CBV?$basic_string@DU?$char_traits@D@std@@V?$allocator@D@2@@std@@V?$shared_ptr@UNode@NetvarTree@@@2@@std@@V?$allocator@U?$pair@$$CBV?$basic_string@DU?$char_traits@D@std@@V?$allocator@D@2@@std@@V?$shared_ptr@UNode@NetvarTree@@@2@@std@@@2@@std@@@std@@QAEPAU?$_List_node@U?$pair@$$CBV?$basic_string@DU?$char_traits@D@std@@V?$allocator@D@2@@std@@V?$shared_ptr@UNode@NetvarTree@@@2@@std@@PAX@2@XZ 10057cb0 f i NetvarManager.obj
 0001:00056cd0       ?_Delete_this@?$_Ref_count_obj@UNode@NetvarTree@@@std@@EAEXXZ 10057cd0 f i NetvarManager.obj
 0001:00056d10       ?_Destroy@?$_Ref_count_obj@UNode@NetvarTree@@@std@@EAEXXZ 10057d10 f i NetvarManager.obj
 0001:00056d60       ?_Getptr@?$_Ref_count_obj@UNode@NetvarTree@@@std@@QAEPAUNode@NetvarTree@@XZ 10057d60 f i NetvarManager.obj
 0001:00056d80       ?_Set_ptr_rep@?$_Ptr_base@UNode@NetvarTree@@@std@@IAEXPAUNode@NetvarTree@@PAV_Ref_count_base@2@@Z 10057d80 f i NetvarManager.obj
 0001:00056d9e       _K32GetModuleInformation@16 10057d9e f   kernel32:KERNEL32.dll
 0001:00056da4       ?_Xlength_error@std@@YAXPBD@Z 10057da4 f   msvcprt:MSVCP140.dll
 0001:00056daa       __Xtime_get_ticks          10057daa f   msvcprt:MSVCP140.dll
 0001:00056db0       __Thrd_sleep               10057db0 f   msvcprt:MSVCP140.dll
 0001:00056db6       ?_Xout_of_range@std@@YAXPBD@Z 10057db6 f   msvcprt:MSVCP140.dll
 0001:00056dbc       ??1_Fac_node@std@@QAE@XZ   10057dbc f i msvcprt:locale0_implib.obj
 0001:00056e1b       ??1_Fac_tidy_reg_t@std@@QAE@XZ 10057e1b f i msvcprt:locale0_implib.obj
 0001:00056e42       ?_Facet_Register@std@@YAXPAV_Facet_base@1@@Z 10057e42 f   msvcprt:locale0_implib.obj
 0001:00056e6e       ?_Getgloballocale@locale@std@@CAPAV_Locimp@12@XZ 10057e6e f   msvcprt:MSVCP140.dll
 0001:00056e74       ?showmanyc@?$basic_streambuf@DU?$char_traits@D@std@@@std@@MAE_JXZ 10057e74 f   msvcprt:MSVCP140.dll
 0001:00056e7a       ?uncaught_exception@std@@YA_NXZ 10057e7a f   msvcprt:MSVCP140.dll
 0001:00056e80       ?_Fiopen@std@@YAPAU_iobuf@@PBDHH@Z 10057e80 f   msvcprt:MSVCP140.dll
 0001:00056e86       ??_L@YGXPAXIIP6EX0@Z1@Z    10057e86 f   MSVCRT:ehvecctr.obj
 0001:00056efa       ??_M@YGXPAXIIP6EX0@Z@Z     10057efa f   MSVCRT:ehvecdtr.obj
 0001:00056f7f       ?__ArrayUnwind@@YGXPAXIIP6EX0@Z@Z 10057f7f f   MSVCRT:ehvecdtr.obj
 0001:00056ff8       ??2@YAPAXI@Z               10057ff8 f   MSVCRT:new_scalar.obj
 0001:00057028       ??3@YAXPAXI@Z              10058028 f   MSVCRT:delete_scalar_size.obj
 0001:00057036       ??_U@YAPAXI@Z              10058036 f   MSVCRT:new_array.obj
 0001:0005703f       ??_V@YAXPAX@Z              1005803f f   MSVCRT:delete_array.obj
 0001:00057088       ___scrt_acquire_startup_lock 10058088 f   MSVCRT:utility.obj
 0001:000570ba       ___scrt_dllmain_after_initialize_c 100580ba f   MSVCRT:utility.obj
 0001:000570e5       ___scrt_dllmain_before_initialize_c 100580e5 f   MSVCRT:utility.obj
 0001:000570f3       ___scrt_dllmain_crt_thread_attach 100580f3 f   MSVCRT:utility.obj
 0001:00057112       ___scrt_dllmain_crt_thread_detach 10058112 f   MSVCRT:utility.obj
 0001:0005711f       ___scrt_dllmain_exception_filter 1005811f f   MSVCRT:utility.obj
 0001:00057153       ___scrt_dllmain_uninitialize_c 10058153 f   MSVCRT:utility.obj
 0001:00057176       ___scrt_dllmain_uninitialize_critical 10058176 f   MSVCRT:utility.obj
 0001:00057183       ___scrt_initialize_crt     10058183 f   MSVCRT:utility.obj
 0001:000571bc       ___scrt_initialize_onexit_tables 100581bc f   MSVCRT:utility.obj
 0001:00057261       ___scrt_is_nonwritable_in_current_image 10058261 f   MSVCRT:utility.obj
 0001:000572f5       ___scrt_release_startup_lock 100582f5 f   MSVCRT:utility.obj
 0001:00057312       ___scrt_uninitialize_crt   10058312 f   MSVCRT:utility.obj
 0001:0005733a       __onexit                   1005833a f   MSVCRT:utility.obj
 0001:00057375       _atexit                    10058375 f   MSVCRT:utility.obj
 0001:0005738a       @__security_check_cookie@4 1005838a f   MSVCRT:secchk.obj
 0001:0005739b       ??_Gtype_info@@UAEPAXI@Z   1005839b f i MSVCRT:std_type_info_static.obj
 0001:0005739b       ??_Etype_info@@UAEPAXI@Z   1005839b f i MSVCRT:std_type_info_static.obj
 0001:000573c0       __alldiv                   100583c0 f   MSVCRT:lldiv.obj
 0001:00057470       __allmul                   10058470 f   MSVCRT:llmul.obj
 0001:000574a4       ___raise_securityfailure   100584a4 f   MSVCRT:gs_report.obj
 0001:000574cc       ___report_gsfailure        100584cc f   MSVCRT:gs_report.obj
 0001:000575c5       ___report_rangecheckfailure 100585c5 f   MSVCRT:gs_report.obj
 0001:000575d1       ___report_securityfailure  100585d1 f   MSVCRT:gs_report.obj
 0001:000576c6       ??$__crt_fast_encode_pointer@P6GXPAU_RTL_CONDITION_VARIABLE@@@Z@@YAP6GXPAU_RTL_CONDITION_VARIABLE@@@ZQ6GX0@Z@Z 100586c6 f i MSVCRT:thread_safe_statics.obj
 0001:000576c6       ??$__crt_fast_encode_pointer@P6GHPAU_RTL_CONDITION_VARIABLE@@PAU_RTL_CRITICAL_SECTION@@K@Z@@YAP6GHPAU_RTL_CONDITION_VARIABLE@@PAU_RTL_CRITICAL_SECTION@@K@ZQ6GH01K@Z@Z 100586c6 f i MSVCRT:thread_safe_statics.obj
 0001:000577ee       __Init_thread_abort        100587ee f   MSVCRT:thread_safe_statics.obj
 0001:00057812       __Init_thread_footer       10058812 f   MSVCRT:thread_safe_statics.obj
 0001:0005785c       __Init_thread_header       1005885c f   MSVCRT:thread_safe_statics.obj
 0001:000578ae       __Init_thread_notify       100588ae f   MSVCRT:thread_safe_statics.obj
 0001:000578f0       __Init_thread_wait         100588f0 f   MSVCRT:thread_safe_statics.obj
 0001:00057950       __chkstk                   10058950 f   MSVCRT:chkstk.obj
 0001:00057950       __alloca_probe             10058950 f   MSVCRT:chkstk.obj
 0001:00057980       __ftol2_sse                10058980 f   MSVCRT:ftol2.obj
 0001:00057989       __ftol2_pentium4           10058989 f   MSVCRT:ftol2.obj
 0001:0005799c       __ftol2_sse_excpt          1005899c f   MSVCRT:ftol2.obj
 0001:000579c0       __ftol2                    100589c0 f   MSVCRT:ftol2.obj
 0001:00057a40       __ftoui3                   10058a40 f   MSVCRT:ftol3.obj
 0001:00057a4f       __ftoul3                   10058a4f f   MSVCRT:ftol3.obj
 0001:00057a5e       __ftol3                    10058a5e f   MSVCRT:ftol3.obj
 0001:00057a6b       __ftol3_NaN                10058a6b f   MSVCRT:ftol3.obj
 0001:00057a83       __ftol3_work               10058a83 f   MSVCRT:ftol3.obj
 0001:00057b09       __ftol3_common             10058b09 f   MSVCRT:ftol3.obj
 0001:00057bcb       __ftol3_arg_error          10058bcb f   MSVCRT:ftol3.obj
 0001:00057bdd       __ftol3_except             10058bdd f   MSVCRT:ftol3.obj
 0001:00057c21       __dtoui3                   10058c21 f   MSVCRT:ftol3.obj
 0001:00057c30       __dtoul3                   10058c30 f   MSVCRT:ftol3.obj
 0001:00057c3f       __dtol3                    10058c3f f   MSVCRT:ftol3.obj
 0001:00057c4c       __dtol3_NaN                10058c4c f   MSVCRT:ftol3.obj
 0001:00057c69       __dtol3_work               10058c69 f   MSVCRT:ftol3.obj
 0001:00057d50       __ultod3                   10058d50 f   MSVCRT:ftol3.obj
 0001:00057d90       __ltod3                    10058d90 f   MSVCRT:ftol3.obj
 0001:00057dc0       __alloca_probe_16          10058dc0 f   MSVCRT:alloca16.obj
 0001:00057dd6       __alloca_probe_8           10058dd6     MSVCRT:alloca16.obj
 0001:00057df0       __allshl                   10058df0 f   MSVCRT:llshl.obj
 0001:0005812f       __DllMainCRTStartup@12     1005912f f   MSVCRT:dll_dllmain.obj
 0001:00058152       @_guard_check_icall_nop@4  10059152 f i MSVCRT:guard_support.obj
 0001:00058160       __SEH_prolog4              10059160 f   MSVCRT:sehprolg4.obj
 0001:000581a6       __SEH_epilog4              100591a6 f   MSVCRT:sehprolg4.obj
 0001:000581bb       __except_handler4          100591bb f   MSVCRT:chandler4gs.obj
 0001:000581de       ??0bad_alloc@std@@QAE@ABV01@@Z 100591de f i MSVCRT:throw_bad_alloc.obj
 0001:000581f9       ??0bad_alloc@std@@QAE@XZ   100591f9 f i MSVCRT:throw_bad_alloc.obj
 0001:00058211       ??0bad_array_new_length@std@@QAE@ABV01@@Z 10059211 f i MSVCRT:throw_bad_alloc.obj
 0001:0005822c       ??0bad_array_new_length@std@@QAE@XZ 1005922c f i MSVCRT:throw_bad_alloc.obj
 0001:00058244       ??1bad_array_new_length@std@@UAE@XZ 10059244 f i MSVCRT:throw_bad_alloc.obj
 0001:00058244       ??1bad_alloc@std@@UAE@XZ   10059244 f i MSVCRT:throw_bad_alloc.obj
 0001:00058255       ??_Gbad_array_new_length@std@@UAEPAXI@Z 10059255 f i MSVCRT:throw_bad_alloc.obj
 0001:00058255       ??_Ebad_array_new_length@std@@UAEPAXI@Z 10059255 f i MSVCRT:throw_bad_alloc.obj
 0001:00058255       ??_Ebad_alloc@std@@UAEPAXI@Z 10059255 f i MSVCRT:throw_bad_alloc.obj
 0001:00058255       ??_Gbad_alloc@std@@UAEPAXI@Z 10059255 f i MSVCRT:throw_bad_alloc.obj
 0001:00058282       ?__scrt_throw_std_bad_alloc@@YAXXZ 10059282 f   MSVCRT:throw_bad_alloc.obj
 0001:0005829f       ?__scrt_throw_std_bad_array_new_length@@YAXXZ 1005929f f   MSVCRT:throw_bad_alloc.obj
 0001:000582bc       ??3@YAXPAX@Z               100592bc f   MSVCRT:delete_scalar.obj
 0001:000582c1       ___isa_available_init      100592c1 f   MSVCRT:cpu_disp.obj
 0001:00058458       __get_startup_argv_mode    10059458 f   MSVCRT:argv_mode.obj
 0001:0005845c       ___scrt_is_ucrt_dll_in_use 1005945c f   MSVCRT:ucrt_detection.obj
 0001:00058468       ___scrt_fastfail           10059468 f   MSVCRT:utility_desktop.obj
 0001:00058582       __crt_debugger_hook        10059582 f   MSVCRT:utility_desktop.obj
 0001:000585d7       ___security_init_cookie    100595d7 f   MSVCRT:gs_support.obj
 0001:00058622       ?__scrt_initialize_type_info@@YAXXZ 10059622 f   MSVCRT:tncleanup.obj
 0001:0005862e       ?__scrt_uninitialize_type_info@@YAXXZ 1005962e f   MSVCRT:tncleanup.obj
 0001:0005863a       ___scrt_initialize_default_local_stdio_options 1005963a f   MSVCRT:default_local_stdio_options.obj
 0001:00058657       ___scrt_get_dyn_tls_init_callback 10059657 f   MSVCRT:dyn_tls_init.obj
 0001:0005865d       __RTC_Initialize           1005965d f   MSVCRT:initsect.obj
 0001:00058689       __RTC_Terminate            10059689 f   MSVCRT:initsect.obj
 0001:000586b5       _ImmGetContext@4           100596b5 f   imm32:IMM32.dll
 0001:000586bb       _ImmSetCompositionWindow@8 100596bb f   imm32:IMM32.dll
 0001:000586c1       __purecall                 100596c1 f   vcruntime:VCRUNTIME140.dll
 0001:000586c7       ___std_exception_copy      100596c7 f   vcruntime:VCRUNTIME140.dll
 0001:000586cd       ___std_exception_destroy   100596cd f   vcruntime:VCRUNTIME140.dll
 0001:000586d3       __CxxThrowException@8      100596d3 f   vcruntime:VCRUNTIME140.dll
 0001:000586d9       ___CxxFrameHandler3        100596d9 f   vcruntime:VCRUNTIME140.dll
 0001:000586df       _memcpy                    100596df f   vcruntime:VCRUNTIME140.dll
 0001:000586e5       _memmove                   100596e5 f   vcruntime:VCRUNTIME140.dll
 0001:000586eb       _memset                    100596eb f   vcruntime:VCRUNTIME140.dll
 0001:000586f1       _memcmp                    100596f1 f   vcruntime:VCRUNTIME140.dll
 0001:000586f7       _memchr                    100596f7 f   vcruntime:VCRUNTIME140.dll
 0001:000586fd       _strchr                    100596fd f   vcruntime:VCRUNTIME140.dll
 0001:00058703       _strstr                    10059703 f   vcruntime:VCRUNTIME140.dll
 0001:00058709       __except_handler4_common   10059709 f   vcruntime:VCRUNTIME140.dll
 0001:0005870f       ___std_type_info_destroy_list 1005970f f   vcruntime:VCRUNTIME140.dll
 0001:00058715       __libm_sse2_cos_precise    10059715 f   ucrt:api-ms-win-crt-math-l1-1-0.dll
 0001:0005871b       __libm_sse2_sin_precise    1005971b f   ucrt:api-ms-win-crt-math-l1-1-0.dll
 0001:00058721       __libm_sse2_sqrt_precise   10059721 f   ucrt:api-ms-win-crt-math-l1-1-0.dll
 0001:00058727       __libm_sse2_tan_precise    10059727 f   ucrt:api-ms-win-crt-math-l1-1-0.dll
 0001:0005872d       __libm_sse2_pow_precise    1005972d f   ucrt:api-ms-win-crt-math-l1-1-0.dll
 0001:00058733       _free                      10059733 f   ucrt:api-ms-win-crt-heap-l1-1-0.dll
 0001:00058739       _malloc                    10059739 f   ucrt:api-ms-win-crt-heap-l1-1-0.dll
 0001:0005873f       __CIfmod                   1005973f f   ucrt:api-ms-win-crt-math-l1-1-0.dll
 0001:00058745       _ceil                      10059745 f   ucrt:api-ms-win-crt-math-l1-1-0.dll
 0001:0005874b       _floor                     1005974b f   ucrt:api-ms-win-crt-math-l1-1-0.dll
 0001:00058751       _terminate                 10059751 f   ucrt:api-ms-win-crt-runtime-l1-1-0.dll
 0001:00058757       __CIatan2                  10059757 f   ucrt:api-ms-win-crt-math-l1-1-0.dll
 0001:0005875d       __libm_sse2_atan_precise   1005975d f   ucrt:api-ms-win-crt-math-l1-1-0.dll
 0001:00058763       __callnewh                 10059763 f   ucrt:api-ms-win-crt-heap-l1-1-0.dll
 0001:00058769       __seh_filter_dll           10059769 f   ucrt:api-ms-win-crt-runtime-l1-1-0.dll
 0001:0005876f       __configure_narrow_argv    1005976f f   ucrt:api-ms-win-crt-runtime-l1-1-0.dll
 0001:00058775       __initialize_narrow_environment 10059775 f   ucrt:api-ms-win-crt-runtime-l1-1-0.dll
 0001:0005877b       __initialize_onexit_table  1005977b f   ucrt:api-ms-win-crt-runtime-l1-1-0.dll
 0001:00058781       __register_onexit_function 10059781 f   ucrt:api-ms-win-crt-runtime-l1-1-0.dll
 0001:00058787       __execute_onexit_table     10059787 f   ucrt:api-ms-win-crt-runtime-l1-1-0.dll
 0001:0005878d       __crt_atexit               1005978d f   ucrt:api-ms-win-crt-runtime-l1-1-0.dll
 0001:00058793       __cexit                    10059793 f   ucrt:api-ms-win-crt-runtime-l1-1-0.dll
 0001:00058799       __except1                  10059799 f   ucrt:api-ms-win-crt-math-l1-1-0.dll
 0001:0005879f       __initterm                 1005979f f   ucrt:api-ms-win-crt-runtime-l1-1-0.dll
 0001:000587a5       __initterm_e               100597a5 f   ucrt:api-ms-win-crt-runtime-l1-1-0.dll
 0001:000587ab       _IsProcessorFeaturePresent@4 100597ab f   kernel32:KERNEL32.dll
 0001:000587b1       ___vcrt_uninitialize_critical 100597b1 f   MSVCRT:ucrt_stubs.obj
 0001:000587b1       ___vcrt_initialize         100597b1 f   MSVCRT:ucrt_stubs.obj
 0001:000587b1       ___acrt_thread_attach      100597b1 f   MSVCRT:ucrt_stubs.obj
 0001:000587b1       ___acrt_initialize         100597b1 f   MSVCRT:ucrt_stubs.obj
 0001:000587b1       ___vcrt_thread_detach      100597b1 f   MSVCRT:ucrt_stubs.obj
 0001:000587b1       ___scrt_stub_for_acrt_thread_detach 100597b1 f   MSVCRT:ucrt_stubs.obj
 0001:000587b1       ___acrt_uninitialize       100597b1 f   MSVCRT:ucrt_stubs.obj
 0001:000587b1       ___scrt_stub_for_acrt_initialize 100597b1 f   MSVCRT:ucrt_stubs.obj
 0001:000587b1       ___vcrt_uninitialize       100597b1 f   MSVCRT:ucrt_stubs.obj
 0001:000587b1       ___acrt_uninitialize_critical 100597b1 f   MSVCRT:ucrt_stubs.obj
 0001:000587b1       ___scrt_stub_for_acrt_thread_attach 100597b1 f   MSVCRT:ucrt_stubs.obj
 0001:000587b1       ___acrt_thread_detach      100597b1 f   MSVCRT:ucrt_stubs.obj
 0001:000587b1       ___scrt_stub_for_acrt_uninitialize 100597b1 f   MSVCRT:ucrt_stubs.obj
 0001:000587b1       ___scrt_stub_for_acrt_uninitialize_critical 100597b1 f   MSVCRT:ucrt_stubs.obj
 0001:000587b1       ___vcrt_thread_attach      100597b1 f   MSVCRT:ucrt_stubs.obj
 0001:000587b4       ___scrt_stub_for_is_c_termination_complete 100597b4 f   MSVCRT:ucrt_stubs.obj
 0001:000587b4       __is_c_termination_complete 100597b4 f   MSVCRT:ucrt_stubs.obj
 0002:00000000       __imp__ImmGetContext@4     1005c000     imm32:IMM32.dll
 0002:00000004       __imp__ImmSetCompositionWindow@8 1005c004     imm32:IMM32.dll
 0002:00000008       \177IMM32_NULL_THUNK_DATA  1005c008     imm32:IMM32.dll
 0002:0000000c       __imp__K32GetModuleInformation@16 1005c00c     kernel32:KERNEL32.dll
 0002:00000010       __imp__Sleep@4             1005c010     kernel32:KERNEL32.dll
 0002:00000014       __imp__CreateThread@24     1005c014     kernel32:KERNEL32.dll
 0002:00000018       __imp__DisableThreadLibraryCalls@4 1005c018     kernel32:KERNEL32.dll
 0002:0000001c       __imp__FreeLibraryAndExitThread@8 1005c01c     kernel32:KERNEL32.dll
 0002:00000020       __imp__GetModuleHandleW@4  1005c020     kernel32:KERNEL32.dll
 0002:00000024       __imp__QueryPerformanceCounter@4 1005c024     kernel32:KERNEL32.dll
 0002:00000028       __imp__QueryPerformanceFrequency@4 1005c028     kernel32:KERNEL32.dll
 0002:0000002c       __imp__GlobalAlloc@8       1005c02c     kernel32:KERNEL32.dll
 0002:00000030       __imp__GlobalUnlock@4      1005c030     kernel32:KERNEL32.dll
 0002:00000034       __imp__GlobalLock@4        1005c034     kernel32:KERNEL32.dll
 0002:00000038       __imp__GetProcAddress@8    1005c038     kernel32:KERNEL32.dll
 0002:0000003c       __imp__GetSystemTimeAsFileTime@4 1005c03c     kernel32:KERNEL32.dll
 0002:00000040       __imp__GetCurrentThreadId@0 1005c040     kernel32:KERNEL32.dll
 0002:00000044       __imp__GetCurrentProcessId@0 1005c044     kernel32:KERNEL32.dll
 0002:00000048       __imp__IsDebuggerPresent@0 1005c048     kernel32:KERNEL32.dll
 0002:0000004c       __imp__CreateEventW@16     1005c04c     kernel32:KERNEL32.dll
 0002:00000050       __imp__WaitForSingleObjectEx@12 1005c050     kernel32:KERNEL32.dll
 0002:00000054       __imp__ResetEvent@4        1005c054     kernel32:KERNEL32.dll
 0002:00000058       __imp__SetEvent@4          1005c058     kernel32:KERNEL32.dll
 0002:0000005c       __imp__DeleteCriticalSection@4 1005c05c     kernel32:KERNEL32.dll
 0002:00000060       __imp__InitializeCriticalSectionAndSpinCount@8 1005c060     kernel32:KERNEL32.dll
 0002:00000064       __imp__LeaveCriticalSection@4 1005c064     kernel32:KERNEL32.dll
 0002:00000068       __imp__EnterCriticalSection@4 1005c068     kernel32:KERNEL32.dll
 0002:0000006c       __imp__IsProcessorFeaturePresent@4 1005c06c     kernel32:KERNEL32.dll
 0002:00000070       __imp__TerminateProcess@8  1005c070     kernel32:KERNEL32.dll
 0002:00000074       __imp__SetUnhandledExceptionFilter@4 1005c074     kernel32:KERNEL32.dll
 0002:00000078       __imp__VirtualProtect@16   1005c078     kernel32:KERNEL32.dll
 0002:0000007c       __imp__CloseHandle@4       1005c07c     kernel32:KERNEL32.dll
 0002:00000080       __imp__InitializeSListHead@4 1005c080     kernel32:KERNEL32.dll
 0002:00000084       __imp__GetModuleHandleA@4  1005c084     kernel32:KERNEL32.dll
 0002:00000088       __imp__UnhandledExceptionFilter@4 1005c088     kernel32:KERNEL32.dll
 0002:0000008c       __imp__GetCurrentProcess@0 1005c08c     kernel32:KERNEL32.dll
 0002:00000090       \177KERNEL32_NULL_THUNK_DATA 1005c090     kernel32:KERNEL32.dll
 0002:00000094       __imp_?egptr@?$basic_streambuf@DU?$char_traits@D@std@@@std@@IBEPADXZ 1005c094     msvcprt:MSVCP140.dll
 0002:00000098       __imp_?gbump@?$basic_streambuf@DU?$char_traits@D@std@@@std@@IAEXH@Z 1005c098     msvcprt:MSVCP140.dll
 0002:0000009c       __imp_?setg@?$basic_streambuf@DU?$char_traits@D@std@@@std@@IAEXPAD00@Z 1005c09c     msvcprt:MSVCP140.dll
 0002:000000a0       __imp_?epptr@?$basic_streambuf@DU?$char_traits@D@std@@@std@@IBEPADXZ 1005c0a0     msvcprt:MSVCP140.dll
 0002:000000a4       __imp_?_Gndec@?$basic_streambuf@DU?$char_traits@D@std@@@std@@IAEPADXZ 1005c0a4     msvcprt:MSVCP140.dll
 0002:000000a8       __imp_?_Gninc@?$basic_streambuf@DU?$char_traits@D@std@@@std@@IAEPADXZ 1005c0a8     msvcprt:MSVCP140.dll
 0002:000000ac       __imp_?_Gnavail@?$basic_streambuf@DU?$char_traits@D@std@@@std@@IBE_JXZ 1005c0ac     msvcprt:MSVCP140.dll
 0002:000000b0       __imp_?pbump@?$basic_streambuf@DU?$char_traits@D@std@@@std@@IAEXH@Z 1005c0b0     msvcprt:MSVCP140.dll
 0002:000000b4       __imp_?_Pninc@?$basic_streambuf@DU?$char_traits@D@std@@@std@@IAEPADXZ 1005c0b4     msvcprt:MSVCP140.dll
 0002:000000b8       __imp_?_Pnavail@?$basic_streambuf@DU?$char_traits@D@std@@@std@@IBE_JXZ 1005c0b8     msvcprt:MSVCP140.dll
 0002:000000bc       __imp_?_Init@?$basic_streambuf@DU?$char_traits@D@std@@@std@@IAEXXZ 1005c0bc     msvcprt:MSVCP140.dll
 0002:000000c0       __imp_?_Init@?$basic_streambuf@DU?$char_traits@D@std@@@std@@IAEXPAPAD0PAH001@Z 1005c0c0     msvcprt:MSVCP140.dll
 0002:000000c4       __imp_?xsgetn@?$basic_streambuf@DU?$char_traits@D@std@@@std@@MAE_JPAD_J@Z 1005c0c4     msvcprt:MSVCP140.dll
 0002:000000c8       __imp_?xsputn@?$basic_streambuf@DU?$char_traits@D@std@@@std@@MAE_JPBD_J@Z 1005c0c8     msvcprt:MSVCP140.dll
 0002:000000cc       __imp_??1?$basic_ios@DU?$char_traits@D@std@@@std@@UAE@XZ 1005c0cc     msvcprt:MSVCP140.dll
 0002:000000d0       __imp_?setstate@?$basic_ios@DU?$char_traits@D@std@@@std@@QAEXH_N@Z 1005c0d0     msvcprt:MSVCP140.dll
 0002:000000d4       __imp_??0?$basic_ios@DU?$char_traits@D@std@@@std@@IAE@XZ 1005c0d4     msvcprt:MSVCP140.dll
 0002:000000d8       __imp_??0?$basic_ostream@DU?$char_traits@D@std@@@std@@QAE@PAV?$basic_streambuf@DU?$char_traits@D@std@@@1@_N@Z 1005c0d8     msvcprt:MSVCP140.dll
 0002:000000dc       __imp_??1?$basic_ostream@DU?$char_traits@D@std@@@std@@UAE@XZ 1005c0dc     msvcprt:MSVCP140.dll
 0002:000000e0       __imp_?showmanyc@?$basic_streambuf@DU?$char_traits@D@std@@@std@@MAE_JXZ 1005c0e0     msvcprt:MSVCP140.dll
 0002:000000e4       __imp_?id@?$codecvt@DDU_Mbstatet@@@std@@2V0locale@2@A 1005c0e4     msvcprt:MSVCP140.dll
 0002:000000e8       __imp_?uncaught_exception@std@@YA_NXZ 1005c0e8     msvcprt:MSVCP140.dll
 0002:000000ec       __imp_?flags@ios_base@std@@QBEHXZ 1005c0ec     msvcprt:MSVCP140.dll
 0002:000000f0       __imp_?width@ios_base@std@@QBE_JXZ 1005c0f0     msvcprt:MSVCP140.dll
 0002:000000f4       __imp_?width@ios_base@std@@QAE_J_J@Z 1005c0f4     msvcprt:MSVCP140.dll
 0002:000000f8       __imp_?sputc@?$basic_streambuf@DU?$char_traits@D@std@@@std@@QAEHD@Z 1005c0f8     msvcprt:MSVCP140.dll
 0002:000000fc       __imp_?sputn@?$basic_streambuf@DU?$char_traits@D@std@@@std@@QAE_JPBD_J@Z 1005c0fc     msvcprt:MSVCP140.dll
 0002:00000100       __imp_?tie@?$basic_ios@DU?$char_traits@D@std@@@std@@QBEPAV?$basic_ostream@DU?$char_traits@D@std@@@2@XZ 1005c100     msvcprt:MSVCP140.dll
 0002:00000104       __imp_?rdbuf@?$basic_ios@DU?$char_traits@D@std@@@std@@QBEPAV?$basic_streambuf@DU?$char_traits@D@std@@@2@XZ 1005c104     msvcprt:MSVCP140.dll
 0002:00000108       __imp_?fill@?$basic_ios@DU?$char_traits@D@std@@@std@@QBEDXZ 1005c108     msvcprt:MSVCP140.dll
 0002:0000010c       __imp_?_Osfx@?$basic_ostream@DU?$char_traits@D@std@@@std@@QAEXXZ 1005c10c     msvcprt:MSVCP140.dll
 0002:00000110       __imp_?flush@?$basic_ostream@DU?$char_traits@D@std@@@std@@QAEAAV12@XZ 1005c110     msvcprt:MSVCP140.dll
 0002:00000114       __imp_?_Fiopen@std@@YAPAU_iobuf@@PBDHH@Z 1005c114     msvcprt:MSVCP140.dll
 0002:00000118       __imp_?good@ios_base@std@@QBE_NXZ 1005c118     msvcprt:MSVCP140.dll
 0002:0000011c       __imp_?gptr@?$basic_streambuf@DU?$char_traits@D@std@@@std@@IBEPADXZ 1005c11c     msvcprt:MSVCP140.dll
 0002:00000120       __imp_?eback@?$basic_streambuf@DU?$char_traits@D@std@@@std@@IBEPADXZ 1005c120     msvcprt:MSVCP140.dll
 0002:00000124       __imp_?getloc@?$basic_streambuf@DU?$char_traits@D@std@@@std@@QBE?AVlocale@2@XZ 1005c124     msvcprt:MSVCP140.dll
 0002:00000128       __imp_?_Getcat@?$codecvt@DDU_Mbstatet@@@std@@SAIPAPBVfacet@locale@2@PBV42@@Z 1005c128     msvcprt:MSVCP140.dll
 0002:0000012c       __imp_?unshift@?$codecvt@DDU_Mbstatet@@@std@@QBEHAAU_Mbstatet@@PAD1AAPAD@Z 1005c12c     msvcprt:MSVCP140.dll
 0002:00000130       __imp_?out@?$codecvt@DDU_Mbstatet@@@std@@QBEHAAU_Mbstatet@@PBD1AAPBDPAD3AAPAD@Z 1005c130     msvcprt:MSVCP140.dll
 0002:00000134       __imp_?in@?$codecvt@DDU_Mbstatet@@@std@@QBEHAAU_Mbstatet@@PBD1AAPBDPAD3AAPAD@Z 1005c134     msvcprt:MSVCP140.dll
 0002:00000138       __imp_??0?$basic_streambuf@DU?$char_traits@D@std@@@std@@IAE@XZ 1005c138     msvcprt:MSVCP140.dll
 0002:0000013c       __imp_?always_noconv@codecvt_base@std@@QBE_NXZ 1005c13c     msvcprt:MSVCP140.dll
 0002:00000140       __imp_?_Getgloballocale@locale@std@@CAPAV_Locimp@12@XZ 1005c140     msvcprt:MSVCP140.dll
 0002:00000144       __imp_??Bid@locale@std@@QAEIXZ 1005c144     msvcprt:MSVCP140.dll
 0002:00000148       __imp_??1?$basic_streambuf@DU?$char_traits@D@std@@@std@@UAE@XZ 1005c148     msvcprt:MSVCP140.dll
 0002:0000014c       __imp_??1_Lockit@std@@QAE@XZ 1005c14c     msvcprt:MSVCP140.dll
 0002:00000150       __imp_??0_Lockit@std@@QAE@H@Z 1005c150     msvcprt:MSVCP140.dll
 0002:00000154       __imp_?pptr@?$basic_streambuf@DU?$char_traits@D@std@@@std@@IBEPADXZ 1005c154     msvcprt:MSVCP140.dll
 0002:00000158       __imp_?_Xout_of_range@std@@YAXPBD@Z 1005c158     msvcprt:MSVCP140.dll
 0002:0000015c       __imp___Thrd_sleep         1005c15c     msvcprt:MSVCP140.dll
 0002:00000160       __imp___Xtime_get_ticks    1005c160     msvcprt:MSVCP140.dll
 0002:00000164       __imp_?_Xlength_error@std@@YAXPBD@Z 1005c164     msvcprt:MSVCP140.dll
 0002:00000168       \177MSVCP140_NULL_THUNK_DATA 1005c168     msvcprt:MSVCP140.dll
 0002:0000016c       __imp__SetWindowLongA@12   1005c16c     user32:USER32.dll
 0002:00000170       __imp__CallWindowProcA@20  1005c170     user32:USER32.dll
 0002:00000174       __imp__EmptyClipboard@0    1005c174     user32:USER32.dll
 0002:00000178       __imp__GetClipboardData@4  1005c178     user32:USER32.dll
 0002:0000017c       __imp__SetClipboardData@8  1005c17c     user32:USER32.dll
 0002:00000180       __imp__CloseClipboard@0    1005c180     user32:USER32.dll
 0002:00000184       __imp__OpenClipboard@4     1005c184     user32:USER32.dll
 0002:00000188       __imp__SetCursor@4         1005c188     user32:USER32.dll
 0002:0000018c       __imp__GetClientRect@8     1005c18c     user32:USER32.dll
 0002:00000190       __imp__GetKeyState@4       1005c190     user32:USER32.dll
 0002:00000194       __imp__MessageBoxA@16      1005c194     user32:USER32.dll
 0002:00000198       __imp__GetAsyncKeyState@4  1005c198     user32:USER32.dll
 0002:0000019c       __imp__FindWindowA@8       1005c19c     user32:USER32.dll
 0002:000001a0       \177USER32_NULL_THUNK_DATA 1005c1a0     user32:USER32.dll
 0002:000001a4       __imp___except_handler4_common 1005c1a4     vcruntime:VCRUNTIME140.dll
 0002:000001a8       __imp__strstr              1005c1a8     vcruntime:VCRUNTIME140.dll
 0002:000001ac       __imp__strchr              1005c1ac     vcruntime:VCRUNTIME140.dll
 0002:000001b0       __imp__memchr              1005c1b0     vcruntime:VCRUNTIME140.dll
 0002:000001b4       __imp__memset              1005c1b4     vcruntime:VCRUNTIME140.dll
 0002:000001b8       __imp____std_type_info_destroy_list 1005c1b8     vcruntime:VCRUNTIME140.dll
 0002:000001bc       __imp__memcpy              1005c1bc     vcruntime:VCRUNTIME140.dll
 0002:000001c0       __imp____CxxFrameHandler3  1005c1c0     vcruntime:VCRUNTIME140.dll
 0002:000001c4       __imp___CxxThrowException@8 1005c1c4     vcruntime:VCRUNTIME140.dll
 0002:000001c8       __imp____std_exception_destroy 1005c1c8     vcruntime:VCRUNTIME140.dll
 0002:000001cc       __imp____std_exception_copy 1005c1cc     vcruntime:VCRUNTIME140.dll
 0002:000001d0       __imp___purecall           1005c1d0     vcruntime:VCRUNTIME140.dll
 0002:000001d4       __imp__memmove             1005c1d4     vcruntime:VCRUNTIME140.dll
 0002:000001d8       __imp__memcmp              1005c1d8     vcruntime:VCRUNTIME140.dll
 0002:000001dc       \177VCRUNTIME140_NULL_THUNK_DATA 1005c1dc     vcruntime:VCRUNTIME140.dll
 0002:000001e0       __imp__atoi                1005c1e0     ucrt:api-ms-win-crt-convert-l1-1-0.dll
 0002:000001e4       __imp__mbstowcs_s          1005c1e4     ucrt:api-ms-win-crt-convert-l1-1-0.dll
 0002:000001e8       \177api-ms-win-crt-convert-l1-1-0_NULL_THUNK_DATA 1005c1e8     ucrt:api-ms-win-crt-convert-l1-1-0.dll
 0002:000001ec       __imp___unlock_file        1005c1ec     ucrt:api-ms-win-crt-filesystem-l1-1-0.dll
 0002:000001f0       __imp___lock_file          1005c1f0     ucrt:api-ms-win-crt-filesystem-l1-1-0.dll
 0002:000001f4       \177api-ms-win-crt-filesystem-l1-1-0_NULL_THUNK_DATA 1005c1f4     ucrt:api-ms-win-crt-filesystem-l1-1-0.dll
 0002:000001f8       __imp___callnewh           1005c1f8     ucrt:api-ms-win-crt-heap-l1-1-0.dll
 0002:000001fc       __imp__malloc              1005c1fc     ucrt:api-ms-win-crt-heap-l1-1-0.dll
 0002:00000200       __imp__free                1005c200     ucrt:api-ms-win-crt-heap-l1-1-0.dll
 0002:00000204       \177api-ms-win-crt-heap-l1-1-0_NULL_THUNK_DATA 1005c204     ucrt:api-ms-win-crt-heap-l1-1-0.dll
 0002:00000208       __imp___libm_sse2_pow_precise 1005c208     ucrt:api-ms-win-crt-math-l1-1-0.dll
 0002:0000020c       __imp___except1            1005c20c     ucrt:api-ms-win-crt-math-l1-1-0.dll
 0002:00000210       __imp___libm_sse2_sin_precise 1005c210     ucrt:api-ms-win-crt-math-l1-1-0.dll
 0002:00000214       __imp___libm_sse2_cos_precise 1005c214     ucrt:api-ms-win-crt-math-l1-1-0.dll
 0002:00000218       __imp___libm_sse2_atan_precise 1005c218     ucrt:api-ms-win-crt-math-l1-1-0.dll
 0002:0000021c       __imp___libm_sse2_tan_precise 1005c21c     ucrt:api-ms-win-crt-math-l1-1-0.dll
 0002:00000220       __imp__ceil                1005c220     ucrt:api-ms-win-crt-math-l1-1-0.dll
 0002:00000224       __imp__floor               1005c224     ucrt:api-ms-win-crt-math-l1-1-0.dll
 0002:00000228       __imp___CIfmod             1005c228     ucrt:api-ms-win-crt-math-l1-1-0.dll
 0002:0000022c       __imp___CIatan2            1005c22c     ucrt:api-ms-win-crt-math-l1-1-0.dll
 0002:00000230       __imp__roundf              1005c230     ucrt:api-ms-win-crt-math-l1-1-0.dll
 0002:00000234       __imp__fmaxf               1005c234     ucrt:api-ms-win-crt-math-l1-1-0.dll
 0002:00000238       __imp___libm_sse2_sqrt_precise 1005c238     ucrt:api-ms-win-crt-math-l1-1-0.dll
 0002:0000023c       __imp___fdtest             1005c23c     ucrt:api-ms-win-crt-math-l1-1-0.dll
 0002:00000240       \177api-ms-win-crt-math-l1-1-0_NULL_THUNK_DATA 1005c240     ucrt:api-ms-win-crt-math-l1-1-0.dll
 0002:00000244       __imp___seh_filter_dll     1005c244     ucrt:api-ms-win-crt-runtime-l1-1-0.dll
 0002:00000248       __imp___cexit              1005c248     ucrt:api-ms-win-crt-runtime-l1-1-0.dll
 0002:0000024c       __imp___crt_atexit         1005c24c     ucrt:api-ms-win-crt-runtime-l1-1-0.dll
 0002:00000250       __imp___execute_onexit_table 1005c250     ucrt:api-ms-win-crt-runtime-l1-1-0.dll
 0002:00000254       __imp___initterm           1005c254     ucrt:api-ms-win-crt-runtime-l1-1-0.dll
 0002:00000258       __imp___initterm_e         1005c258     ucrt:api-ms-win-crt-runtime-l1-1-0.dll
 0002:0000025c       __imp___register_onexit_function 1005c25c     ucrt:api-ms-win-crt-runtime-l1-1-0.dll
 0002:00000260       __imp___invalid_parameter_noinfo_noreturn 1005c260     ucrt:api-ms-win-crt-runtime-l1-1-0.dll
 0002:00000264       __imp___initialize_onexit_table 1005c264     ucrt:api-ms-win-crt-runtime-l1-1-0.dll
 0002:00000268       __imp___initialize_narrow_environment 1005c268     ucrt:api-ms-win-crt-runtime-l1-1-0.dll
 0002:0000026c       __imp___configure_narrow_argv 1005c26c     ucrt:api-ms-win-crt-runtime-l1-1-0.dll
 0002:00000270       __imp__terminate           1005c270     ucrt:api-ms-win-crt-runtime-l1-1-0.dll
 0002:00000274       \177api-ms-win-crt-runtime-l1-1-0_NULL_THUNK_DATA 1005c274     ucrt:api-ms-win-crt-runtime-l1-1-0.dll
 0002:00000278       __imp____stdio_common_vfprintf 1005c278     ucrt:api-ms-win-crt-stdio-l1-1-0.dll
 0002:0000027c       __imp__ftell               1005c27c     ucrt:api-ms-win-crt-stdio-l1-1-0.dll
 0002:00000280       __imp____stdio_common_vsscanf 1005c280     ucrt:api-ms-win-crt-stdio-l1-1-0.dll
 0002:00000284       __imp__fread               1005c284     ucrt:api-ms-win-crt-stdio-l1-1-0.dll
 0002:00000288       __imp__fflush              1005c288     ucrt:api-ms-win-crt-stdio-l1-1-0.dll
 0002:0000028c       __imp__fclose              1005c28c     ucrt:api-ms-win-crt-stdio-l1-1-0.dll
 0002:00000290       __imp___wfopen             1005c290     ucrt:api-ms-win-crt-stdio-l1-1-0.dll
 0002:00000294       __imp____acrt_iob_func     1005c294     ucrt:api-ms-win-crt-stdio-l1-1-0.dll
 0002:00000298       __imp____stdio_common_vsprintf 1005c298     ucrt:api-ms-win-crt-stdio-l1-1-0.dll
 0002:0000029c       __imp___get_stream_buffer_pointers 1005c29c     ucrt:api-ms-win-crt-stdio-l1-1-0.dll
 0002:000002a0       __imp__fgetc               1005c2a0     ucrt:api-ms-win-crt-stdio-l1-1-0.dll
 0002:000002a4       __imp__fputc               1005c2a4     ucrt:api-ms-win-crt-stdio-l1-1-0.dll
 0002:000002a8       __imp__fsetpos             1005c2a8     ucrt:api-ms-win-crt-stdio-l1-1-0.dll
 0002:000002ac       __imp___fseeki64           1005c2ac     ucrt:api-ms-win-crt-stdio-l1-1-0.dll
 0002:000002b0       __imp__fwrite              1005c2b0     ucrt:api-ms-win-crt-stdio-l1-1-0.dll
 0002:000002b4       __imp__setvbuf             1005c2b4     ucrt:api-ms-win-crt-stdio-l1-1-0.dll
 0002:000002b8       __imp____stdio_common_vsprintf_s 1005c2b8     ucrt:api-ms-win-crt-stdio-l1-1-0.dll
 0002:000002bc       __imp__ungetc              1005c2bc     ucrt:api-ms-win-crt-stdio-l1-1-0.dll
 0002:000002c0       __imp__fseek               1005c2c0     ucrt:api-ms-win-crt-stdio-l1-1-0.dll
 0002:000002c4       __imp__fgetpos             1005c2c4     ucrt:api-ms-win-crt-stdio-l1-1-0.dll
 0002:000002c8       \177api-ms-win-crt-stdio-l1-1-0_NULL_THUNK_DATA 1005c2c8     ucrt:api-ms-win-crt-stdio-l1-1-0.dll
 0002:000002cc       __imp__strncpy             1005c2cc     ucrt:api-ms-win-crt-string-l1-1-0.dll
 0002:000002d0       __imp__isprint             1005c2d0     ucrt:api-ms-win-crt-string-l1-1-0.dll
 0002:000002d4       __imp__toupper             1005c2d4     ucrt:api-ms-win-crt-string-l1-1-0.dll
 0002:000002d8       \177api-ms-win-crt-string-l1-1-0_NULL_THUNK_DATA 1005c2d8     ucrt:api-ms-win-crt-string-l1-1-0.dll
 0002:000002dc       __imp__qsort               1005c2dc     ucrt:api-ms-win-crt-utility-l1-1-0.dll
 0002:000002e0       __imp__rand                1005c2e0     ucrt:api-ms-win-crt-utility-l1-1-0.dll
 0002:000002e4       \177api-ms-win-crt-utility-l1-1-0_NULL_THUNK_DATA 1005c2e4     ucrt:api-ms-win-crt-utility-l1-1-0.dll
 0002:000002e8       ___guard_check_icall_fptr  1005c2e8     MSVCRT:guard_support.obj
 0002:000002ec       ___xc_a                    1005c2ec     MSVCRT:initializers.obj
 0002:000003b8       ___xc_z                    1005c3b8     MSVCRT:initializers.obj
 0002:000003bc       ___xi_a                    1005c3bc     MSVCRT:initializers.obj
 0002:000003c4       ___xi_z                    1005c3c4     MSVCRT:initializers.obj
 0002:000003c8       ___xl_a                    1005c3c8     MSVCRT:tlssup.obj
 0002:000003cc       ___xl_z                    1005c3cc     MSVCRT:tlssup.obj
 0002:000003d0       ___xp_a                    1005c3d0     MSVCRT:initializers.obj
 0002:000003d4       ___xp_z                    1005c3d4     MSVCRT:initializers.obj
 0002:000003d8       ___xt_a                    1005c3d8     MSVCRT:initializers.obj
 0002:000003dc       ___xt_z                    1005c3dc     MSVCRT:initializers.obj
 0002:00000460       ??_7exception@std@@6B@     1005c460     c_hooks.obj
 0002:00000468       ??_C@_0BC@EOODALEL@Unknown?5exception@ 1005c468     c_hooks.obj
 0002:00000480       ??_7runtime_error@std@@6B@ 1005c480     c_hooks.obj
 0002:0000048c       ??_7IGameEventListener@@6B@ 1005c48c     c_hooks.obj
 0002:0000049c       ??_7Event@@6B@             1005c49c     c_hooks.obj
 0002:000004a8       ??_C@_0M@GPCKBPEK@player_hurt@ 1005c4a8     c_hooks.obj
 0002:000004b4       ??_C@_0BK@ILCFOOBA@Failed?5to?5protect?5region?$CB@ 1005c4b4     c_hooks.obj
 0002:000004d0       ??_C@_0BA@JFNIOLAK@string?5too?5long@ 1005c4d0     c_hooks.obj
 0002:00000560       ?piecewise_construct@std@@3Upiecewise_construct_t@1@B 1005c560     Aimbot.obj
 0002:00000564       ??_C@_0O@NDBNDAKG@DT_BaseEntity@ 1005c564     Aimbot.obj
 0002:00000574       ??_C@_0BA@MIGFFMNM@m_hActiveWeapon@ 1005c574     Aimbot.obj
 0002:00000584       ??_C@_0BH@EFEKCINC@DT_BaseCombatCharacter@ 1005c584     Aimbot.obj
 0002:0000059c       ??_C@_0L@OEKNBODE@m_iTeamNum@ 1005c59c     Aimbot.obj
 0002:000005a8       ??_C@_08JPGJABNM@m_fFlags@ 1005c5a8     Aimbot.obj
 0002:000005b4       ??_C@_0O@KNDKHNCF@DT_BasePlayer@ 1005c5b4     Aimbot.obj
 0002:000005c4       ??_C@_0BD@IDNCLOOB@m_flSimulationTime@ 1005c5c4     Aimbot.obj
 0002:000005d8       ??_C@_0M@LGBCIIFJ@DT_CSPlayer@ 1005c5d8     Aimbot.obj
 0002:000005e4       ??_C@_0M@GDCAJHLF@m_lifeState@ 1005c5e4     Aimbot.obj
 0002:000005f0       ??_C@_09FOIALPOM@m_iHealth@ 1005c5f0     Aimbot.obj
 0002:000005fc       ??_C@_0M@MBFMJJPI@m_nTickBase@ 1005c5fc     Aimbot.obj
 0002:00000608       ??_C@_09JINBMJKL@localdata@ 1005c608     Aimbot.obj
 0002:00000614       ??_C@_0P@PAJMEMKA@m_angEyeAngles@ 1005c614     Aimbot.obj
 0002:00000624       ??_C@_0M@BAFECOKC@m_vecOrigin@ 1005c624     Aimbot.obj
 0002:00000630       ??_C@_0BB@CHJEEOLK@m_vecVelocity?$FL0?$FN@ 1005c630     Aimbot.obj
 0002:00000644       ??_C@_0BD@LCOIAPKE@m_fAccuracyPenalty@ 1005c644     Aimbot.obj
 0002:00000658       ??_C@_0BA@GJLMCNFJ@DT_WeaponCSBase@ 1005c658     Aimbot.obj
 0002:00000668       ??_C@_0BA@PHEHCCBG@m_fLastShotTime@ 1005c668     Aimbot.obj
 0002:00000678       ??_C@_0BG@IBOJPCLN@m_flNextPrimaryAttack@ 1005c678     Aimbot.obj
 0002:00000690       ??_C@_0BG@JBGBGMFE@LocalActiveWeaponData@ 1005c690     Aimbot.obj
 0002:000006a8       ??_C@_0BE@OBECLDDP@DT_BaseCombatWeapon@ 1005c6a8     Aimbot.obj
 0002:000006bc       ??_C@_0BL@KOKKEGGO@invalid?5deque?$DMT?$DO?5subscript@ 1005c6bc     Aimbot.obj
 0002:000006d8       ??_C@_0BD@OLBABOEK@vector?$DMT?$DO?5too?5long@ 1005c6d8     Aimbot.obj
 0002:000006ec       ??_C@_0BB@MOGOBHAF@list?$DMT?$DO?5too?5long@ 1005c6ec     Aimbot.obj
 0002:00000700       __real@00000000            1005c700     Aimbot.obj
 0002:00000704       __real@34000000            1005c704     Aimbot.obj
 0002:00000708       __real@3eae147b            1005c708     Aimbot.obj
 0002:0000070c       __real@3f800000            1005c70c     Aimbot.obj
 0002:00000710       __real@3fe0000000000000    1005c710     Aimbot.obj
 0002:00000718       __real@400921fb54442d18    1005c718     Aimbot.obj
 0002:00000720       __real@400ccccd            1005c720     Aimbot.obj
 0002:00000728       __real@4066800000000000    1005c728     Aimbot.obj
 0002:00000730       __real@40a00000            1005c730     Aimbot.obj
 0002:00000734       __real@40c90fdb            1005c734     Aimbot.obj
 0002:00000738       __real@41200000            1005c738     Aimbot.obj
 0002:0000073c       __real@41e80000            1005c73c     Aimbot.obj
 0002:00000740       __real@41f00000            1005c740     Aimbot.obj
 0002:00000744       __real@42c80000            1005c744     Aimbot.obj
 0002:00000748       __real@43340000            1005c748     Aimbot.obj
 0002:0000074c       __real@43570000            1005c74c     Aimbot.obj
 0002:00000750       __real@43800000            1005c750     Aimbot.obj
 0002:00000754       __real@43b20000            1005c754     Aimbot.obj
 0002:00000758       __real@43c80000            1005c758     Aimbot.obj
 0002:0000075c       __real@453b8000            1005c75c     Aimbot.obj
 0002:00000760       __real@47c35000            1005c760     Aimbot.obj
 0002:00000764       __real@49742400            1005c764     Aimbot.obj
 0002:00000770       __xmm@41f00000000000000000000000000000 1005c770     Aimbot.obj
 0002:00000780       __xmm@7fffffffffffffff7fffffffffffffff 1005c780     Aimbot.obj
 0002:00000790       __xmm@80000000800000008000000080000000 1005c790     Aimbot.obj
 0002:00000828       ??_C@_0N@IIBEIILJ@m_ArmorValue@ 1005c828     Autowall.obj
 0002:00000838       ??_C@_0N@KELFAIEF@m_bHasHelmet@ 1005c838     Autowall.obj
 0002:0000084c       ??_7ITraceFilter@@6B@      1005c84c     Autowall.obj
 0002:00000858       ??_7C_TraceFilter@@6B@     1005c858     Autowall.obj
 0002:00000860       __real@3d4ccccd            1005c860     Autowall.obj
 0002:00000864       __real@3dcccccd            1005c864     Autowall.obj
 0002:00000868       __real@3e23d70a            1005c868     Autowall.obj
 0002:0000086c       __real@3f000000            1005c86c     Autowall.obj
 0002:00000870       __real@3f400000            1005c870     Autowall.obj
 0002:00000878       __real@3f60624dd2f1a9fc    1005c878     Autowall.obj
 0002:00000880       __real@3fa00000            1005c880     Autowall.obj
 0002:00000884       __real@40000000            1005c884     Autowall.obj
 0002:00000888       __real@40400000            1005c888     Autowall.obj
 0002:0000088c       __real@40800000            1005c88c     Autowall.obj
 0002:00000890       __real@41c00000            1005c890     Autowall.obj
 0002:00000894       __real@42200000            1005c894     Autowall.obj
 0002:0000090c       ??_C@_0BE@HFJPMIJB@m_hConstraintEntity@ 1005c90c     EnginePrediction.obj
 0002:000009ac       ??_C@_0BC@KBDMBKEH@deque?$DMT?$DO?5too?5long@ 1005c9ac     LagComp.obj
 0002:000009c0       __real@3e4ccccd            1005c9c0     LagComp.obj
 0002:000009c4       __real@42340000            1005c9c4     AntiAim.obj
 0002:000009c8       __real@42480000            1005c9c8     AntiAim.obj
 0002:000009cc       __real@42a00000            1005c9cc     AntiAim.obj
 0002:000009d0       __real@42b3cccd            1005c9d0     AntiAim.obj
 0002:000009d4       __real@42b40000            1005c9d4     AntiAim.obj
 0002:000009d8       ??_C@_0CC@KGCKDAPP@0F?510?505?5?$DP?5?$DP?5?$DP?5?$DP?58D?585?5?$DP?5?$DP?5?$DP?5?$DP?5@ 1005c9d8     Legitbot.obj
 0002:000009fc       ??_C@_0BE@FJNGABL@client_panorama?4dll@ 1005c9fc     Legitbot.obj
 0002:00000a10       __real@3a83126f            1005ca10     Legitbot.obj
 0002:00000a14       ??_C@_0BH@BMLKANBG@m_bClientSideAnimation@ 1005ca14     Resolver.obj
 0002:00000a2c       ??_C@_0BB@POPPCPOC@DT_BaseAnimating@ 1005ca2c     Resolver.obj
 0002:00000a40       ??_C@_0BH@GJAPHBOD@m_flLowerBodyYawTarget@ 1005ca40     Resolver.obj
 0002:00000a58       __real@3e75c28f            1005ca58     Resolver.obj
 0002:00000a5c       __real@42680000            1005ca5c     Resolver.obj
 0002:00000a60       __real@42700000            1005ca60     Resolver.obj
 0002:00000a64       __real@428c0000            1005ca64     Resolver.obj
 0002:00000a68       __real@c2680000            1005ca68     Resolver.obj
 0002:00000a6c       __real@c2700000            1005ca6c     Resolver.obj
 0002:00000a70       __real@c2b40000            1005ca70     Resolver.obj
 0002:00000a90       ??_C@_08CHHOFABL@m_iClip1@ 1005ca90     c_esp.obj
 0002:00000a9c       ??_C@_0BL@GKAMNBOO@m_iPrimaryReserveAmmoCount@ 1005ca9c     c_esp.obj
 0002:00000ab8       ??_C@_0BI@CFPLBAOH@invalid?5string?5position@ 1005cab8     c_esp.obj
 0002:00000ad0       __real@41000000            1005cad0     c_esp.obj
 0002:00000ad4       __real@437f0000            1005cad4     c_esp.obj
 0002:00000ad8       __real@bf800000            1005cad8     imgui_impl_dx9.obj
 0002:00001de0       ??_C@_09GBFFKCDJ@?$CD?$CDOverlay@ 1005dde0     imgui.obj
 0002:00001e14       __real@1e3ce508            1005de14     imgui.obj
 0002:00001e18       __real@358637bd            1005de18     imgui.obj
 0002:00001e1c       __real@3727c5ac            1005de1c     imgui.obj
 0002:00001e20       __real@38d1b717            1005de20     imgui.obj
 0002:00001e24       __real@3b808081            1005de24     imgui.obj
 0002:00001e28       __real@3c23d70a            1005de28     imgui.obj
 0002:00001e2c       __real@3c888889            1005de2c     imgui.obj
 0002:00001e30       __real@3cdd2f1b            1005de30     imgui.obj
 0002:00001e34       __real@3d9fbe77            1005de34     imgui.obj
 0002:00001e38       __real@3da3d70a            1005de38     imgui.obj
 0002:00001e3c       __real@3e19999a            1005de3c     imgui.obj
 0002:00001e40       __real@3e2aaaab            1005de40     imgui.obj
 0002:00001e44       __real@3e6147ae            1005de44     imgui.obj
 0002:00001e48       __real@3e800000            1005de48     imgui.obj
 0002:00001e4c       __real@3e8a3d71            1005de4c     imgui.obj
 0002:00001e50       __real@3e99999a            1005de50     imgui.obj
 0002:00001e54       __real@3ea3d70a            1005de54     imgui.obj
 0002:00001e58       __real@3eb33333            1005de58     imgui.obj
 0002:00001e5c       __real@3ec28f5c            1005de5c     imgui.obj
 0002:00001e60       __real@3ecccccd            1005de60     imgui.obj
 0002:00001e64       __real@3ee66666            1005de64     imgui.obj
 0002:00001e68       __real@3f07ae14            1005de68     imgui.obj
 0002:00001e6c       __real@3f0a3d71            1005de6c     imgui.obj
 0002:00001e70       __real@3f0ccccd            1005de70     imgui.obj
 0002:00001e74       __real@3f170a3d            1005de74     imgui.obj
 0002:00001e78       __real@3f19999a            1005de78     imgui.obj
 0002:00001e7c       __real@3f2147ae            1005de7c     imgui.obj
 0002:00001e80       __real@3f266666            1005de80     imgui.obj
 0002:00001e84       __real@3f2b851f            1005de84     imgui.obj
 0002:00001e88       __real@3f333333            1005de88     imgui.obj
 0002:00001e8c       __real@3f350481            1005de8c     imgui.obj
 0002:00001e90       __real@3f4ccccd            1005de90     imgui.obj
 0002:00001e94       __real@3f547ae1            1005de94     imgui.obj
 0002:00001e98       __real@3f5db22d            1005de98     imgui.obj
 0002:00001e9c       __real@3f5db3d0            1005de9c     imgui.obj
 0002:00001ea0       __real@3f5eb852            1005dea0     imgui.obj
 0002:00001ea4       __real@3f666666            1005dea4     imgui.obj
 0002:00001ea8       __real@3f733333            1005dea8     imgui.obj
 0002:00001eac       __real@3f7d70a4            1005deac     imgui.obj
 0002:00001eb0       __real@3f99999a            1005deb0     imgui.obj
 0002:00001eb4       __real@3faccccd            1005deb4     imgui.obj
 0002:00001eb8       __real@3fc00000            1005deb8     imgui.obj
 0002:00001ebc       __real@40200000            1005debc     imgui.obj
 0002:00001ec0       __real@403f5c29            1005dec0     imgui.obj
 0002:00001ec4       __real@40c00000            1005dec4     imgui.obj
 0002:00001ec8       __real@40e00000            1005dec8     imgui.obj
 0002:00001ecc       __real@41100000            1005decc     imgui.obj
 0002:00001ed0       __real@41300000            1005ded0     imgui.obj
 0002:00001ed4       __real@41400000            1005ded4     imgui.obj
 0002:00001ed8       __real@41600000            1005ded8     imgui.obj
 0002:00001edc       __real@41700000            1005dedc     imgui.obj
 0002:00001ee0       __real@41800000            1005dee0     imgui.obj
 0002:00001ee4       __real@41880000            1005dee4     imgui.obj
 0002:00001ee8       __real@41900000            1005dee8     imgui.obj
 0002:00001eec       __real@41a00000            1005deec     imgui.obj
 0002:00001ef0       __real@41a80000            1005def0     imgui.obj
 0002:00001ef4       __real@41b00000            1005def4     imgui.obj
 0002:00001ef8       __real@42000000            1005def8     imgui.obj
 0002:00001efc       __real@42f00000            1005defc     imgui.obj
 0002:00001f00       __real@43200000            1005df00     imgui.obj
 0002:00001f04       __real@432f0000            1005df04     imgui.obj
 0002:00001f08       __real@43410000            1005df08     imgui.obj
 0002:00001f0c       __real@43b40000            1005df0c     imgui.obj
 0002:00001f10       __real@461c3c00            1005df10     imgui.obj
 0002:00001f14       __real@7f7fffff            1005df14     imgui.obj
 0002:00001f18       __real@be99999a            1005df18     imgui.obj
 0002:00001f1c       __real@beaaaaab            1005df1c     imgui.obj
 0002:00001f20       __real@bf000000            1005df20     imgui.obj
 0002:00001f24       __real@bf5db22d            1005df24     imgui.obj
 0002:00001f28       __real@bf5db3d0            1005df28     imgui.obj
 0002:00001f2c       __real@c0000000            1005df2c     imgui.obj
 0002:00001f30       __real@c1000000            1005df30     imgui.obj
 0002:00001f34       __real@c61c3c00            1005df34     imgui.obj
 0002:00001f38       __real@ff7fffff            1005df38     imgui.obj
 0002:000058c0       __real@3ffeb852            100618c0     imgui_draw.obj
 0002:000058c4       __real@40490fdb            100618c4     imgui_draw.obj
 0002:000058c8       __real@41500000            100618c8     imgui_draw.obj
 0002:000058cc       __real@41980000            100618cc     imgui_draw.obj
 0002:000058d0       __real@41b80000            100618d0     imgui_draw.obj
 0002:000058d4       __real@41f80000            100618d4     imgui_draw.obj
 0002:000058d8       __real@425c0000            100618d8     imgui_draw.obj
 0002:000058dc       __real@42920000            100618dc     imgui_draw.obj
 0002:000058e0       __real@42b60000            100618e0     imgui_draw.obj
 0002:000058e4       __real@46000000            100618e4     imgui_draw.obj
 0002:000058e8       __real@46800000            100618e8     imgui_draw.obj
 0002:000058ec       __real@47800000            100618ec     imgui_draw.obj
 0002:000058f0       __real@c6000000            100618f0     imgui_draw.obj
 0002:000058f4       __real@3e500000            100618f4     createmove_hook.obj
 0002:000058f8       __real@3e600000            100618f8     createmove_hook.obj
 0002:000058fc       __real@42b20000            100618fc     createmove_hook.obj
 0002:00005900       __real@43e10000            10061900     createmove_hook.obj
 0002:00005904       __real@461c4000            10061904     createmove_hook.obj
 0002:00005908       __real@c2b20000            10061908     createmove_hook.obj
 0002:0000590c       __real@c3340000            1006190c     createmove_hook.obj
 0002:00005910       __real@c3e10000            10061910     createmove_hook.obj
 0002:00005914       __real@3dc8c8c9            10061914     directx_preset_hook.obj
 0002:00005918       __real@3e0c8c8d            10061918     directx_preset_hook.obj
 0002:0000591c       __real@3e0f5c29            1006191c     directx_preset_hook.obj
 0002:00005920       __real@3e2e147b            10061920     directx_preset_hook.obj
 0002:00005924       __real@3e851eb8            10061924     directx_preset_hook.obj
 0002:00005928       __real@3edc28f6            10061928     directx_preset_hook.obj
 0002:0000592c       __real@3f078788            1006192c     directx_preset_hook.obj
 0002:00005930       __real@3f179798            10061930     directx_preset_hook.obj
 0002:00005934       __real@3f1c28f6            10061934     directx_preset_hook.obj
 0002:00005938       __real@3f70a3d7            10061938     directx_preset_hook.obj
 0002:0000593c       __real@3f7ae148            1006193c     directx_preset_hook.obj
 0002:000059c0       ??_C@_09NFOPKLIK@sv_cheats@ 100619c0     fsn_hook.obj
 0002:000059cc       ??_C@_0M@BIELKGOF@thirdperson@ 100619cc     fsn_hook.obj
 0002:000059d8       ??_C@_0M@INGIFFDB@firstperson@ 100619d8     fsn_hook.obj
 0002:00005a20       ??_C@_0M@PPOAODEA@m_bIsScoped@ 10061a20     oview_hook.obj
 0002:00005a2c       __real@3ee66663            10061a2c     oview_hook.obj
 0002:00005a4c       ??_C@_0BL@OOBMLGKK@weapon_debug_spread_show?50@ 10061a4c     painttraverse_hook.obj
 0002:00005a68       ??_C@_0M@HPFLIJIB@crosshair?50@ 10061a68     painttraverse_hook.obj
 0002:00005a74       ??_C@_0BL@MFDBOFGJ@weapon_debug_spread_show?53@ 10061a74     painttraverse_hook.obj
 0002:00005a90       ??_C@_0M@GGEALIMA@crosshair?51@ 10061a90     painttraverse_hook.obj
 0002:00005aac       ??_7bad_cast@std@@6B@      10061aac     config_system.obj
 0002:00005ab4       ??_C@_08EPJLHIJG@bad?5cast@ 10061ab4     config_system.obj
 0002:00005ac4       ??_7?$basic_filebuf@DU?$char_traits@D@std@@@std@@6B@ 10061ac4     config_system.obj
 0002:00005b04       ??_7?$basic_ofstream@DU?$char_traits@D@std@@@std@@6B@ 10061b04     config_system.obj
 0002:00005b08       ??_8?$basic_ofstream@DU?$char_traits@D@std@@@std@@7B@ 10061b08     config_system.obj
 0002:000085d8       __real@42be0000            100645d8     menu_system.obj
 0002:000085dc       __real@43180000            100645dc     menu_system.obj
 0002:000085e0       __real@43490000            100645e0     menu_system.obj
 0002:000085e4       __real@437a0000            100645e4     menu_system.obj
 0002:000085e8       __real@43868000            100645e8     menu_system.obj
 0002:000085ec       __real@43908000            100645ec     menu_system.obj
 0002:000085f0       __real@43b48000            100645f0     menu_system.obj
 0002:000085f4       __real@43e38000            100645f4     menu_system.obj
 0002:000085f8       __real@440e0000            100645f8     menu_system.obj
 0002:000085fc       __real@44160000            100645fc     menu_system.obj
 0002:00008600       __real@c0400000            10064600     menu_system.obj
 0002:000088e4       __real@3a51b717            100648e4     CEntity.obj
 0002:000088e8       __real@3d8f5c29            100648e8     CEntity.obj
 0002:000088ec       __real@3d99999a            100648ec     CEntity.obj
 0002:000088f0       __real@3db645a2            100648f0     CEntity.obj
 0002:000088f4       __real@3df5c28f            100648f4     CEntity.obj
 0002:000088f8       __real@3e2d0e56            100648f8     CEntity.obj
 0002:000088fc       __real@3e656042            100648fc     CEntity.obj
 0002:00008900       __real@3f5851ec            10064900     CEntity.obj
 0002:00008904       __real@3f61cac1            10064904     CEntity.obj
 0002:00008908       __real@3fbb4396            10064908     CEntity.obj
 0002:00009348       __real@3c8efa35            10065348     Math.obj
 0002:00009350       __real@3f91df46a2529d39    10065350     Math.obj
 0002:00009358       __real@404ca5dc1a63c1f8    10065358     Math.obj
 0002:00009360       __real@c3b40000            10065360     Math.obj
 0002:00009368       ??_7?$_Ref_count_obj@UNode@NetvarTree@@@std@@6B@ 10065368     NetvarManager.obj
 0002:00009378       ??_C@_1BK@MGMFAEKH@?$AAk?$AAe?$AAr?$AAn?$AAe?$AAl?$AA3?$AA2?$AA?4?$AAd?$AAl?$AAl@ 10065378     msvcprt:filesystem.obj
 0002:00009398       ??_7type_info@@6B@         10065398     MSVCRT:std_type_info_static.obj
 0002:000093a8       ??_C@_1EC@JIJBPKFM@?$AAa?$AAp?$AAi?$AA?9?$AAm?$AAs?$AA?9?$AAw?$AAi?$AAn?$AA?9?$AAc?$AAo?$AAr?$AAe@ 100653a8     MSVCRT:thread_safe_statics.obj
 0002:000093ec       ??_C@_0BM@HLJJNPAH@InitializeConditionVariable@ 100653ec     MSVCRT:thread_safe_statics.obj
 0002:00009408       ??_C@_0BJ@JEBJOJFJ@SleepConditionVariableCS@ 10065408     MSVCRT:thread_safe_statics.obj
 0002:00009424       ??_C@_0BJ@PGPPEPCC@WakeAllConditionVariable@ 10065424     MSVCRT:thread_safe_statics.obj
 0002:000094c4       __pDefaultRawDllMain       100654c4     MSVCRT:dll_dllmain.obj
 0002:000094c4       __pRawDllMain              100654c4     MSVCRT:dll_dllmain.obj
 0002:000094cc       ??_7bad_alloc@std@@6B@     100654cc     MSVCRT:throw_bad_alloc.obj
 0002:000094d4       ??_C@_0P@GHFPNOJB@bad?5allocation@ 100654d4     MSVCRT:throw_bad_alloc.obj
 0002:000094e8       ??_7bad_array_new_length@std@@6B@ 100654e8     MSVCRT:throw_bad_alloc.obj
 0002:000094f0       ??_C@_0BF@KINCDENJ@bad?5array?5new?5length@ 100654f0     MSVCRT:throw_bad_alloc.obj
 0002:00009568       __load_config_used         10065568     MSVCRT:loadcfg.obj
 0002:00009608       __tls_used                 10065608     MSVCRT:tlssup.obj
 0002:00009620       ??_R4exception@std@@6B@    10065620     c_hooks.obj
 0002:00009634       ??_R3exception@std@@8      10065634     c_hooks.obj
 0002:00009644       ??_R2exception@std@@8      10065644     c_hooks.obj
 0002:0000964c       ??_R1A@?0A@EA@exception@std@@8 1006564c     c_hooks.obj
 0002:00009668       ??_R4runtime_error@std@@6B@ 10065668     c_hooks.obj
 0002:0000967c       ??_R3runtime_error@std@@8  1006567c     c_hooks.obj
 0002:0000968c       ??_R2runtime_error@std@@8  1006568c     c_hooks.obj
 0002:00009698       ??_R1A@?0A@EA@runtime_error@std@@8 10065698     c_hooks.obj
 0002:000096b4       ??_R4IGameEventListener@@6B@ 100656b4     c_hooks.obj
 0002:000096c8       ??_R3IGameEventListener@@8 100656c8     c_hooks.obj
 0002:000096d8       ??_R2IGameEventListener@@8 100656d8     c_hooks.obj
 0002:000096e0       ??_R1A@?0A@EA@IGameEventListener@@8 100656e0     c_hooks.obj
 0002:000096fc       ??_R4Event@@6B@            100656fc     c_hooks.obj
 0002:00009710       ??_R3Event@@8              10065710     c_hooks.obj
 0002:00009720       ??_R2Event@@8              10065720     c_hooks.obj
 0002:0000972c       ??_R1A@?0A@EA@Event@@8     1006572c     c_hooks.obj
 0002:00009748       ??_R4ITraceFilter@@6B@     10065748     Autowall.obj
 0002:0000975c       ??_R3ITraceFilter@@8       1006575c     Autowall.obj
 0002:0000976c       ??_R2ITraceFilter@@8       1006576c     Autowall.obj
 0002:00009774       ??_R1A@?0A@EA@ITraceFilter@@8 10065774     Autowall.obj
 0002:00009790       ??_R4C_TraceFilter@@6B@    10065790     Autowall.obj
 0002:000097a4       ??_R3C_TraceFilter@@8      100657a4     Autowall.obj
 0002:000097b4       ??_R2C_TraceFilter@@8      100657b4     Autowall.obj
 0002:000097c0       ??_R1A@?0A@EA@C_TraceFilter@@8 100657c0     Autowall.obj
 0002:000097dc       ??_R4?$basic_filebuf@DU?$char_traits@D@std@@@std@@6B@ 100657dc     config_system.obj
 0002:000097f0       ??_R3?$basic_filebuf@DU?$char_traits@D@std@@@std@@8 100657f0     config_system.obj
 0002:00009800       ??_R2?$basic_filebuf@DU?$char_traits@D@std@@@std@@8 10065800     config_system.obj
 0002:0000980c       ??_R1A@?0A@EA@?$basic_filebuf@DU?$char_traits@D@std@@@std@@8 1006580c     config_system.obj
 0002:00009828       ??_R1A@?0A@EA@?$basic_streambuf@DU?$char_traits@D@std@@@std@@8 10065828     config_system.obj
 0002:00009844       ??_R3?$basic_streambuf@DU?$char_traits@D@std@@@std@@8 10065844     config_system.obj
 0002:00009854       ??_R2?$basic_streambuf@DU?$char_traits@D@std@@@std@@8 10065854     config_system.obj
 0002:0000985c       ??_R1A@A@3FA@?$basic_ios@DU?$char_traits@D@std@@@std@@8 1006585c     config_system.obj
 0002:00009878       ??_R3?$basic_ios@DU?$char_traits@D@std@@@std@@8 10065878     config_system.obj
 0002:00009888       ??_R2?$basic_ios@DU?$char_traits@D@std@@@std@@8 10065888     config_system.obj
 0002:00009898       ??_R1A@?0A@EA@?$basic_ios@DU?$char_traits@D@std@@@std@@8 10065898     config_system.obj
 0002:000098b4       ??_R1A@?0A@EA@ios_base@std@@8 100658b4     config_system.obj
 0002:000098d0       ??_R3ios_base@std@@8       100658d0     config_system.obj
 0002:000098e0       ??_R2ios_base@std@@8       100658e0     config_system.obj
 0002:000098ec       ??_R17?0A@EA@?$_Iosb@H@std@@8 100658ec     config_system.obj
 0002:00009908       ??_R3?$_Iosb@H@std@@8      10065908     config_system.obj
 0002:00009918       ??_R2?$_Iosb@H@std@@8      10065918     config_system.obj
 0002:00009920       ??_R1A@?0A@EA@?$_Iosb@H@std@@8 10065920     config_system.obj
 0002:0000993c       ??_R1A@A@3EA@ios_base@std@@8 1006593c     config_system.obj
 0002:00009958       ??_R17A@3EA@?$_Iosb@H@std@@8 10065958     config_system.obj
 0002:00009974       ??_R4?$basic_ofstream@DU?$char_traits@D@std@@@std@@6B@ 10065974     config_system.obj
 0002:00009988       ??_R3?$basic_ofstream@DU?$char_traits@D@std@@@std@@8 10065988     config_system.obj
 0002:00009998       ??_R2?$basic_ofstream@DU?$char_traits@D@std@@@std@@8 10065998     config_system.obj
 0002:000099b0       ??_R1A@?0A@EA@?$basic_ofstream@DU?$char_traits@D@std@@@std@@8 100659b0     config_system.obj
 0002:000099cc       ??_R1A@?0A@EA@?$basic_ostream@DU?$char_traits@D@std@@@std@@8 100659cc     config_system.obj
 0002:000099e8       ??_R3?$basic_ostream@DU?$char_traits@D@std@@@std@@8 100659e8     config_system.obj
 0002:000099f8       ??_R2?$basic_ostream@DU?$char_traits@D@std@@@std@@8 100659f8     config_system.obj
 0002:00009a0c       ??_R4bad_cast@std@@6B@     10065a0c     config_system.obj
 0002:00009a20       ??_R3bad_cast@std@@8       10065a20     config_system.obj
 0002:00009a30       ??_R2bad_cast@std@@8       10065a30     config_system.obj
 0002:00009a3c       ??_R1A@?0A@EA@bad_cast@std@@8 10065a3c     config_system.obj
 0002:00009a58       ??_R3_Ref_count_base@std@@8 10065a58     config_system.obj
 0002:00009a68       ??_R2_Ref_count_base@std@@8 10065a68     config_system.obj
 0002:00009a70       ??_R1A@?0A@EA@_Ref_count_base@std@@8 10065a70     config_system.obj
 0002:00009a8c       ??_R4?$_Ref_count_obj@UNode@NetvarTree@@@std@@6B@ 10065a8c     NetvarManager.obj
 0002:00009aa0       ??_R3?$_Ref_count_obj@UNode@NetvarTree@@@std@@8 10065aa0     NetvarManager.obj
 0002:00009ab0       ??_R2?$_Ref_count_obj@UNode@NetvarTree@@@std@@8 10065ab0     NetvarManager.obj
 0002:00009abc       ??_R1A@?0A@EA@?$_Ref_count_obj@UNode@NetvarTree@@@std@@8 10065abc     NetvarManager.obj
 0002:00009ad8       ??_R4type_info@@6B@        10065ad8     MSVCRT:std_type_info_static.obj
 0002:00009aec       ??_R3type_info@@8          10065aec     MSVCRT:std_type_info_static.obj
 0002:00009afc       ??_R2type_info@@8          10065afc     MSVCRT:std_type_info_static.obj
 0002:00009b04       ??_R1A@?0A@EA@type_info@@8 10065b04     MSVCRT:std_type_info_static.obj
 0002:00009b20       ??_R4bad_alloc@std@@6B@    10065b20     MSVCRT:throw_bad_alloc.obj
 0002:00009b34       ??_R3bad_alloc@std@@8      10065b34     MSVCRT:throw_bad_alloc.obj
 0002:00009b44       ??_R2bad_alloc@std@@8      10065b44     MSVCRT:throw_bad_alloc.obj
 0002:00009b50       ??_R1A@?0A@EA@bad_alloc@std@@8 10065b50     MSVCRT:throw_bad_alloc.obj
 0002:00009b6c       ??_R4bad_array_new_length@std@@6B@ 10065b6c     MSVCRT:throw_bad_alloc.obj
 0002:00009b80       ??_R3bad_array_new_length@std@@8 10065b80     MSVCRT:throw_bad_alloc.obj
 0002:00009b90       ??_R2bad_array_new_length@std@@8 10065b90     MSVCRT:throw_bad_alloc.obj
 0002:00009ba0       ??_R1A@?0A@EA@bad_array_new_length@std@@8 10065ba0     MSVCRT:throw_bad_alloc.obj
 0002:00009bc0       ___safe_se_handler_table   10065bc0     <linker-defined>
 0002:0000a114       ___rtc_iaa                 10066114     MSVCRT:initsect.obj
 0002:0000a118       ___rtc_izz                 10066118     MSVCRT:initsect.obj
 0002:0000a11c       ___rtc_taa                 1006611c     MSVCRT:initsect.obj
 0002:0000a120       ___rtc_tzz                 10066120     MSVCRT:initsect.obj
 0002:0000a124       __tls_start                10066124     MSVCRT:tlssup.obj
 0002:0000a128       __Init_thread_epoch        10066128     MSVCRT:thread_safe_statics.obj
 0002:0000a12c       __tls_end                  1006612c     MSVCRT:tlssup.obj
 0002:0000a2bc       __TI2?AVruntime_error@std@@ 100662bc     c_hooks.obj
 0002:0000a2cc       __CTA2?AVruntime_error@std@@ 100662cc     c_hooks.obj
 0002:0000a2d8       __CT??_R0?AVruntime_error@std@@@8??0runtime_error@std@@QAE@ABV01@@Z12 100662d8     c_hooks.obj
 0002:0000a2f4       __CT??_R0?AVexception@std@@@8??0exception@std@@QAE@ABV01@@Z12 100662f4     c_hooks.obj
 0002:0000b430       __TI2?AVbad_cast@std@@     10067430     config_system.obj
 0002:0000b440       __CTA2?AVbad_cast@std@@    10067440     config_system.obj
 0002:0000b44c       __CT??_R0?AVbad_cast@std@@@8??0bad_cast@std@@QAE@ABV01@@Z12 1006744c     config_system.obj
 0002:0000b90c       __TI2?AVbad_alloc@std@@    1006790c     MSVCRT:throw_bad_alloc.obj
 0002:0000b91c       __CTA2?AVbad_alloc@std@@   1006791c     MSVCRT:throw_bad_alloc.obj
 0002:0000b928       __CT??_R0?AVbad_alloc@std@@@8??0bad_alloc@std@@QAE@ABV01@@Z12 10067928     MSVCRT:throw_bad_alloc.obj
 0002:0000b944       __TI3?AVbad_array_new_length@std@@ 10067944     MSVCRT:throw_bad_alloc.obj
 0002:0000b954       __CTA3?AVbad_array_new_length@std@@ 10067954     MSVCRT:throw_bad_alloc.obj
 0002:0000b964       __CT??_R0?AVbad_array_new_length@std@@@8??0bad_array_new_length@std@@QAE@ABV01@@Z12 10067964     MSVCRT:throw_bad_alloc.obj
 0002:0000b980       __IMPORT_DESCRIPTOR_KERNEL32 10067980     kernel32:KERNEL32.dll
 0002:0000b994       __IMPORT_DESCRIPTOR_USER32 10067994     user32:USER32.dll
 0002:0000b9a8       __IMPORT_DESCRIPTOR_MSVCP140 100679a8     msvcprt:MSVCP140.dll
 0002:0000b9bc       __IMPORT_DESCRIPTOR_IMM32  100679bc     imm32:IMM32.dll
 0002:0000b9d0       __IMPORT_DESCRIPTOR_VCRUNTIME140 100679d0     vcruntime:VCRUNTIME140.dll
 0002:0000b9e4       __IMPORT_DESCRIPTOR_api-ms-win-crt-runtime-l1-1-0 100679e4     ucrt:api-ms-win-crt-runtime-l1-1-0.dll
 0002:0000b9f8       __IMPORT_DESCRIPTOR_api-ms-win-crt-heap-l1-1-0 100679f8     ucrt:api-ms-win-crt-heap-l1-1-0.dll
 0002:0000ba0c       __IMPORT_DESCRIPTOR_api-ms-win-crt-math-l1-1-0 10067a0c     ucrt:api-ms-win-crt-math-l1-1-0.dll
 0002:0000ba20       __IMPORT_DESCRIPTOR_api-ms-win-crt-utility-l1-1-0 10067a20     ucrt:api-ms-win-crt-utility-l1-1-0.dll
 0002:0000ba34       __IMPORT_DESCRIPTOR_api-ms-win-crt-string-l1-1-0 10067a34     ucrt:api-ms-win-crt-string-l1-1-0.dll
 0002:0000ba48       __IMPORT_DESCRIPTOR_api-ms-win-crt-convert-l1-1-0 10067a48     ucrt:api-ms-win-crt-convert-l1-1-0.dll
 0002:0000ba5c       __IMPORT_DESCRIPTOR_api-ms-win-crt-stdio-l1-1-0 10067a5c     ucrt:api-ms-win-crt-stdio-l1-1-0.dll
 0002:0000ba70       __IMPORT_DESCRIPTOR_api-ms-win-crt-filesystem-l1-1-0 10067a70     ucrt:api-ms-win-crt-filesystem-l1-1-0.dll
 0002:0000ba84       __NULL_IMPORT_DESCRIPTOR   10067a84     kernel32:KERNEL32.dll
 0003:00000024       ?GImGui@@3PAUImGuiContext@@A 1006a024     imgui.obj
 0003:0000002c       ?maxSpeed@?1??DoFakeLag@Misc@@ABEXXZ@4MA 1006a02c     createmove_hook.obj
 0003:00000030       ?Acceleration@?1??DoFakeLag@Misc@@ABEXXZ@4MA 1006a030     createmove_hook.obj
 0003:00000034       ?stop@?1??DoFakeLag@Misc@@ABEXXZ@4_NA 1006a034     createmove_hook.obj
 0003:00000035       ?stop2@?1??DoFakeLag@Misc@@ABEXXZ@4_NA 1006a035     createmove_hook.obj
 0003:00000038       ?bSendPacket@g@@3_NA       1006a038     GlobalVars.obj
 0003:0000003c       ?TargetIndex@g@@3HA        1006a03c     GlobalVars.obj
 0003:00000040       ___scrt_native_dllmain_reason 1006a040     MSVCRT:utility.obj
 0003:00000044       ___security_cookie_complement 1006a044     MSVCRT:gs_cookie.obj
 0003:00000048       ___security_cookie         1006a048     MSVCRT:gs_cookie.obj
 0003:0000004c       __fltused                  1006a04c     MSVCRT:fltused.obj
 0003:00000050       __Init_global_epoch        1006a050     MSVCRT:thread_safe_statics.obj
 0003:00000060       ___isa_enabled             1006a060     MSVCRT:cpu_disp.obj
 0003:00000064       ___scrt_ucrt_dll_is_in_use 1006a064     MSVCRT:ucrt_stubs.obj
 0003:00000068       ??_R0?AVruntime_error@std@@@8 1006a068     c_hooks.obj
 0003:00000088       ??_R0?AVexception@std@@@8  1006a088     c_hooks.obj
 0003:000000a4       ??_R0?AVIGameEventListener@@@8 1006a0a4     c_hooks.obj
 0003:000000c8       ??_R0?AVEvent@@@8          1006a0c8     c_hooks.obj
 0003:000000dc       ??_R0?AVITraceFilter@@@8   1006a0dc     Autowall.obj
 0003:000000f8       ??_R0?AVC_TraceFilter@@@8  1006a0f8     Autowall.obj
 0003:00000114       ??_R0?AVbad_cast@std@@@8   1006a114     config_system.obj
 0003:00000130       ??_R0?AV?$basic_filebuf@DU?$char_traits@D@std@@@std@@@8 1006a130     config_system.obj
 0003:0000016c       ??_R0?AV?$basic_streambuf@DU?$char_traits@D@std@@@std@@@8 1006a16c     config_system.obj
 0003:000001a8       ??_R0?AV?$basic_ios@DU?$char_traits@D@std@@@std@@@8 1006a1a8     config_system.obj
 0003:000001e0       ??_R0?AVios_base@std@@@8   1006a1e0     config_system.obj
 0003:000001fc       ??_R0?AV?$_Iosb@H@std@@@8  1006a1fc     config_system.obj
 0003:00000218       ??_R0?AV?$basic_ofstream@DU?$char_traits@D@std@@@std@@@8 1006a218     config_system.obj
 0003:00000254       ??_R0?AV?$basic_ostream@DU?$char_traits@D@std@@@std@@@8 1006a254     config_system.obj
 0003:00000290       ??_R0?AV_Ref_count_base@std@@@8 1006a290     config_system.obj
 0003:000002b4       ??_R0?AV?$_Ref_count_obj@UNode@NetvarTree@@@std@@@8 1006a2b4     NetvarManager.obj
 0003:000002ec       ??_R0?AVtype_info@@@8      1006a2ec     MSVCRT:std_type_info_static.obj
 0003:00000304       ??_R0?AVbad_alloc@std@@@8  1006a304     MSVCRT:throw_bad_alloc.obj
 0003:00000320       ??_R0?AVbad_array_new_length@std@@@8 1006a320     MSVCRT:throw_bad_alloc.obj
 0003:00000348       ?g_Misc@@3VMisc@@A         1006a348     c_hooks.obj
 0003:00000350       ?hooks@@3Vc_hooks@@A       1006a350     c_hooks.obj
 0003:00000488       ?g_Event@@3VEvent@@A       1006a488     c_hooks.obj
 0003:00000490       ?HThisModule@@3PAUHINSTANCE__@@A 1006a490     dll_main.obj
 0003:000004a8       ?g_Aimbot@@3VAimbot@@A     1006a4a8     Aimbot.obj
 0003:00061d34       ?m_hActiveWeapon@?1??GetActiveWeapon@C_BaseEntity@@QAEPAVC_BaseCombatWeapon@@XZ@4HA 100cbd34     Aimbot.obj
 0003:00061d38       ?$TSS0@?1??GetActiveWeapon@C_BaseEntity@@QAEPAVC_BaseCombatWeapon@@XZ@4HA 100cbd38     Aimbot.obj
 0003:00061d3c       ?m_iTeamNum@?1??GetTeam@C_BaseEntity@@QAEHXZ@4HA 100cbd3c     Aimbot.obj
 0003:00061d40       ?$TSS0@?1??GetTeam@C_BaseEntity@@QAEHXZ@4HA 100cbd40     Aimbot.obj
 0003:00061d44       ?m_fFlags@?1??GetFlags@C_BaseEntity@@QAE?AW4EntityFlags@@XZ@4HA 100cbd44     Aimbot.obj
 0003:00061d48       ?$TSS0@?1??GetFlags@C_BaseEntity@@QAE?AW4EntityFlags@@XZ@4HA 100cbd48     Aimbot.obj
 0003:00061d4c       ?m_flSimulationTime@?1??GetSimulationTime@C_BaseEntity@@QAEMXZ@4HA 100cbd4c     Aimbot.obj
 0003:00061d50       ?$TSS0@?1??GetSimulationTime@C_BaseEntity@@QAEMXZ@4HA 100cbd50     Aimbot.obj
 0003:00061d54       ?m_lifeState@?1??GetLifeState@C_BaseEntity@@QAE_NXZ@4HA 100cbd54     Aimbot.obj
 0003:00061d58       ?$TSS0@?1??GetLifeState@C_BaseEntity@@QAE_NXZ@4HA 100cbd58     Aimbot.obj
 0003:00061d5c       ?m_iHealth@?1??GetHealth@C_BaseEntity@@QAEHXZ@4HA 100cbd5c     Aimbot.obj
 0003:00061d60       ?$TSS0@?1??GetHealth@C_BaseEntity@@QAEHXZ@4HA 100cbd60     Aimbot.obj
 0003:00061d64       ?m_nTickBase@?1??GetTickBase@C_BaseEntity@@QAEHXZ@4HA 100cbd64     Aimbot.obj
 0003:00061d68       ?$TSS0@?1??GetTickBase@C_BaseEntity@@QAEHXZ@4HA 100cbd68     Aimbot.obj
 0003:00061d6c       ?m_angEyeAngles@?1??GetEyeAngles@C_BaseEntity@@QAE?AVVector@@XZ@4HA 100cbd6c     Aimbot.obj
 0003:00061d70       ?$TSS0@?1??GetEyeAngles@C_BaseEntity@@QAE?AVVector@@XZ@4HA 100cbd70     Aimbot.obj
 0003:00061d74       ?m_vecOrigin@?1??GetOrigin@C_BaseEntity@@QAE?AVVector@@XZ@4HA 100cbd74     Aimbot.obj
 0003:00061d78       ?$TSS0@?1??GetOrigin@C_BaseEntity@@QAE?AVVector@@XZ@4HA 100cbd78     Aimbot.obj
 0003:00061d7c       ?m_vecVelocity@?1??GetVelocity@C_BaseEntity@@QAE?AVVector@@XZ@4HA 100cbd7c     Aimbot.obj
 0003:00061d80       ?$TSS0@?1??GetVelocity@C_BaseEntity@@QAE?AVVector@@XZ@4HA 100cbd80     Aimbot.obj
 0003:00061d84       ?m_fAccuracyPenalty@?1??GetAccuracyPenalty@C_BaseCombatWeapon@@QAEMXZ@4HA 100cbd84     Aimbot.obj
 0003:00061d88       ?$TSS0@?1??GetAccuracyPenalty@C_BaseCombatWeapon@@QAEMXZ@4HA 100cbd88     Aimbot.obj
 0003:00061d8c       ?m_fLastShotTime@?1??GetLastShotTime@C_BaseCombatWeapon@@QAEMXZ@4HA 100cbd8c     Aimbot.obj
 0003:00061d90       ?$TSS0@?1??GetLastShotTime@C_BaseCombatWeapon@@QAEMXZ@4HA 100cbd90     Aimbot.obj
 0003:00061d94       ?m_flNextPrimaryAttack@?1??GetNextPrimaryAttack@C_BaseCombatWeapon@@QAEMXZ@4HA 100cbd94     Aimbot.obj
 0003:00061d98       ?$TSS0@?1??GetNextPrimaryAttack@C_BaseCombatWeapon@@QAEMXZ@4HA 100cbd98     Aimbot.obj
 0003:00062204       ?g_Autowall@@3VAutowall@@A 100cc204     Autowall.obj
 0003:00062210       ?m_ArmorValue@?1??ArmorValue@C_BaseEntity@@QAEHXZ@4HA 100cc210     Autowall.obj
 0003:00062214       ?$TSS0@?1??ArmorValue@C_BaseEntity@@QAEHXZ@4HA 100cc214     Autowall.obj
 0003:00062218       ?m_bHasHelmet@?1??HasHelmet@C_BaseEntity@@QAE_NXZ@4HA 100cc218     Autowall.obj
 0003:0006221c       ?$TSS0@?1??HasHelmet@C_BaseEntity@@QAE_NXZ@4HA 100cc21c     Autowall.obj
 0003:00062230       ?flOldCurtime@@3MA         100cc230     EnginePrediction.obj
 0003:00062234       ?flOldFrametime@@3MA       100cc234     EnginePrediction.obj
 0003:00062238       ?m_nPredictionRandomSeed@@3PAHA 100cc238     EnginePrediction.obj
 0003:0006223c       ?m_pSetPredictionPlayer@@3PAHA 100cc23c     EnginePrediction.obj
 0003:00062248       ?m_hConstraintEntity@?1??SetCurrentCommand@C_BaseEntity@@QAEXPAVCUserCmd@@@Z@4HA 100cc248     EnginePrediction.obj
 0003:0006224c       ?$TSS0@?1??SetCurrentCommand@C_BaseEntity@@QAEXPAVCUserCmd@@@Z@4HA 100cc24c     EnginePrediction.obj
 0003:00062258       ?g_LagComp@@3VLagComp@@A   100cc258     LagComp.obj
 0003:00062a7c       ?Swtich@@3_NA              100cca7c     AntiAim.obj
 0003:00062a7d       ?g_AntiAim@@3VAntiAim@@A   100cca7d     AntiAim.obj
 0003:00062aa8       ?g_Legitbot@@3VLegitbot@@A 100ccaa8     Legitbot.obj
 0003:00062fbc       ?pViewMatrix@?1???R<lambda_498009bf6358dc471fbe163595f67980>@@QBE_NXZ@4IA 100ccfbc     Legitbot.obj
 0003:000631d8       ?g_Resolver@@3VResolver@@A 100cd1d8     Resolver.obj
 0003:00063430       ?m_bClientSideAnimation@?1??ClientAnimations@C_BaseEntity@@QAEX_N@Z@4HA 100cd430     Resolver.obj
 0003:00063434       ?$TSS0@?1??ClientAnimations@C_BaseEntity@@QAEX_N@Z@4HA 100cd434     Resolver.obj
 0003:00063438       ?m_flLowerBodyYawTarget@?1??GetLowerBodyYaw@C_BaseEntity@@QAEMXZ@4HA 100cd438     Resolver.obj
 0003:0006343c       ?$TSS0@?1??GetLowerBodyYaw@C_BaseEntity@@QAEMXZ@4HA 100cd43c     Resolver.obj
 0003:00063440       ?m_flLowerBodyYawTarget@?1??SetLowerBodyYaw@C_BaseEntity@@QAEXM@Z@4HA 100cd440     Resolver.obj
 0003:00063444       ?$TSS0@?1??SetLowerBodyYaw@C_BaseEntity@@QAEXM@Z@4HA 100cd444     Resolver.obj
 0003:00072d20       ?_OptionsStorage@?1??__local_stdio_printf_options@@9@4_KA 100dcd20     c_esp.obj
 0003:00072d28       ?esp@@3Vc_esp@@A           100dcd28     c_esp.obj
 0003:00072d78       ?m_iClip1@?1??GetAmmo@C_BaseCombatWeapon@@QAEHXZ@4HA 100dcd78     c_esp.obj
 0003:00072d7c       ?$TSS0@?1??GetAmmo@C_BaseCombatWeapon@@QAEHXZ@4HA 100dcd7c     c_esp.obj
 0003:00072d80       ?primary_reserve@?1??m_iPrimaryReserveAmmoCount@C_BaseCombatWeapon@@QAEHXZ@4HA 100dcd80     c_esp.obj
 0003:00072d84       ?$TSS0@?1??m_iPrimaryReserveAmmoCount@C_BaseCombatWeapon@@QAEHXZ@4HA 100dcd84     c_esp.obj
 0003:00072db0       ?_OptionsStorage@?1??__local_stdio_scanf_options@@9@4_KA 100dcdb0     imgui.obj
 0003:00076870       ?bLastJumped@?1??DoBhop@Misc@@ABEXXZ@4_NA 100e0870     createmove_hook.obj
 0003:00076871       ?bShouldFake@?1??DoBhop@Misc@@ABEXXZ@4_NA 100e0871     createmove_hook.obj
 0003:00076872       ?init@?1??DoFakeLag@Misc@@ABEXXZ@4_NA 100e0872     createmove_hook.obj
 0003:0007687c       ?m_pStateBlockDraw@@3PAUIDirect3DStateBlock9@@A 100e087c     directx_preset_hook.obj
 0003:00076880       ?m_pStateBlockText@@3PAUIDirect3DStateBlock9@@A 100e0880     directx_preset_hook.obj
 0003:00076884       ?state_block@@3PAUIDirect3DStateBlock9@@A 100e0884     directx_preset_hook.obj
 0003:00076888       ?dwOld_D3DRS_COLORWRITEENABLE@@3KA 100e0888     directx_preset_hook.obj
 0003:000768d4       ?init@?1??ThirdPerson@Misc@@QAEXW4ClientFrameStage_t@@@Z@4_NA 100e08d4     fsn_hook.obj
 0003:000768e0       ?c_hooking@@3PAVhooking@@A 100e08e0     hooking_init.obj
 0003:00076904       ?m_bIsScoped@?1??IsScoped@C_BaseEntity@@QAE_NXZ@4HA 100e0904     oview_hook.obj
 0003:00076908       ?$TSS0@?1??IsScoped@C_BaseEntity@@QAE_NXZ@4HA 100e0908     oview_hook.obj
 0003:0007691c       ?init@?1??Crosshair@Misc@@QAEXXZ@4_NA 100e091c     painttraverse_hook.obj
 0003:0007691d       ?init2@?1??Crosshair@Misc@@QAEXXZ@4_NA 100e091d     painttraverse_hook.obj
 0003:00076950       ?galaxy_vars@@3Vc_config@@A 100e0950     config_system.obj
 0003:00076a2c       ?_Stinit@?1??_Init@?$basic_filebuf@DU?$char_traits@D@std@@@std@@IAEXPAU_iobuf@@W4_Initfl@23@@Z@4U_Mbstatet@@A 100e0a2c     config_system.obj
 0003:00076a34       ?_Psave@?$_Facetptr@V?$codecvt@DDU_Mbstatet@@@std@@@std@@2PBVfacet@locale@2@B 100e0a34     config_system.obj
 0003:00076a38       ?Main@@3PAUImFont@@A       100e0a38     menu_system.obj
 0003:00076a3c       ?MainCaps@@3PAUImFont@@A   100e0a3c     menu_system.obj
 0003:00076a48       ?menu@@3Vc_menu@@A         100e0a48     menu_system.obj
 0003:00076a70       ?pCmd@g@@3PAVCUserCmd@@A   100e0a70     GlobalVars.obj
 0003:00076a74       ?pLocalEntity@g@@3PAVC_BaseEntity@@A 100e0a74     GlobalVars.obj
 0003:00076a78       ?uRandomSeed@g@@3IA        100e0a78     GlobalVars.obj
 0003:00076a7c       ?LagPeek@g@@3_NA           100e0a7c     GlobalVars.obj
 0003:00076a80       ?Shot@g@@3PA_NA            100e0a80     GlobalVars.obj
 0003:00076ac4       ?weapon_font@g@@3KA        100e0ac4     GlobalVars.obj
 0003:00076ac8       ?Hit@g@@3PA_NA             100e0ac8     GlobalVars.obj
 0003:00076b0c       ?CourierNew@g@@3KA         100e0b0c     GlobalVars.obj
 0003:00076b10       ?MissedShots@g@@3PAHA      100e0b10     GlobalVars.obj
 0003:00076c14       ?Tahoma@g@@3KA             100e0c14     GlobalVars.obj
 0003:00076c18       ?FakeAngle@g@@3VVector@@A  100e0c18     GlobalVars.obj
 0003:00076c24       ?OriginalView@g@@3VVector@@A 100e0c24     GlobalVars.obj
 0003:00076c30       ?AimbotHitbox@g@@3PAY0BM@VVector@@A 100e0c30     GlobalVars.obj
 0003:0007c188       ?RealAngle@g@@3VVector@@A  100e6188     GlobalVars.obj
 0003:0007c198       ?EnemyEyeAngs@g@@3PAVVector@@A 100e6198     GlobalVars.obj
 0003:0007c4a4       ?g_pEngine@@3PAVIVEngineClient@@A 100e64a4     Interfaces.obj
 0003:0007c4a8       ?g_pTrace@@3PAVIEngineTrace@@A 100e64a8     Interfaces.obj
 0003:0007c4ac       ?g_pSurfaceData@@3PAVIPhysicsSurfaceProps@@A 100e64ac     Interfaces.obj
 0003:0007c4b0       ?g_pCvar@@3PAVICVar@@A     100e64b0     Interfaces.obj
 0003:0007c4b4       ?g_pEntityList@@3PAVIClientEntityList@@A 100e64b4     Interfaces.obj
 0003:0007c4b8       ?g_pModelInfo@@3PAVIVModelInfo@@A 100e64b8     Interfaces.obj
 0003:0007c4bc       ?g_pModelRender@@3PAVCModelRender@@A 100e64bc     Interfaces.obj
 0003:0007c4c0       ?g_pMaterialSys@@3PAVIMaterialSystem@@A 100e64c0     Interfaces.obj
 0003:0007c4c4       ?g_pRenderView@@3PAVIVRenderView@@A 100e64c4     Interfaces.obj
 0003:0007c4c8       ?g_pPanel@@3PAVIPanel@@A   100e64c8     Interfaces.obj
 0003:0007c4cc       ?g_pClientMode@@3PAVIClientMode@@A 100e64cc     Interfaces.obj
 0003:0007c4d0       ?g_pGlobalVars@@3PAVCGlobalVarsBase@@A 100e64d0     Interfaces.obj
 0003:0007c4d4       ?g_pClientDll@@3PAVIBaseClientDLL@@A 100e64d4     Interfaces.obj
 0003:0007c4d8       ?g_pMoveHelper@@3PAVIMoveHelper@@A 100e64d8     Interfaces.obj
 0003:0007c4dc       ?g_pMovement@@3PAVIGameMovement@@A 100e64dc     Interfaces.obj
 0003:0007c4e0       ?g_pPrediction@@3PAVCPrediction@@A 100e64e0     Interfaces.obj
 0003:0007c4e4       ?g_pEventManager@@3PAVIGameEventManager@@A 100e64e4     Interfaces.obj
 0003:0007c4e8       ?g_pSurface@@3PAVISurface@@A 100e64e8     Interfaces.obj
 0003:0007c4f4       ?g_Math@@3VMath@@A         100e64f4     Math.obj
 0003:0007c508       ?g_pNetvars@@3V?$unique_ptr@VNetvarTree@@U?$default_delete@VNetvarTree@@@std@@@std@@A 100e6508     NetvarManager.obj
 0003:0007c514       ?GetFinalPathNameByHandleW_p@?A0xb24c12bc@@3P6GKPAXPA_WKK@ZA 100e6514     msvcprt:filesystem.obj
 0003:0007c518       ?_GetFileInformationByHandleEx_p@?A0xb24c12bc@@3P6GHPAXW4_FILE_INFO_BY_HANDLE_CLASS@@0K@ZA 100e6518     msvcprt:filesystem.obj
 0003:0007c51c       ?_SetFileInformationByHandle_p@?A0xb24c12bc@@3P6GHPAXW4_FILE_INFO_BY_HANDLE_CLASS@@0K@ZA 100e651c     msvcprt:filesystem.obj
 0003:0007c520       ?_CreateSymbolicLinkW_p@?A0xb24c12bc@@3P6GEPB_W0K@ZA 100e6520     msvcprt:filesystem.obj
 0003:0007c524       ___scrt_current_native_startup_state 100e6524     MSVCRT:utility.obj
 0003:0007c528       ___scrt_native_startup_lock 100e6528     MSVCRT:utility.obj
 0003:0007c88c       __tls_index                100e688c     MSVCRT:tlssup.obj
 0003:0007c894       ___isa_available           100e6894     MSVCRT:cpu_disp.obj
 0003:0007c898       ___favor                   100e6898     MSVCRT:cpu_disp.obj
 0003:0007c89c       ___scrt_debugger_hook_flag 100e689c     MSVCRT:utility_desktop.obj
 0003:0007c8a0       ?__type_info_root_node@@3U__type_info_node@@A 100e68a0     MSVCRT:tncleanup.obj
 0003:0007c8a8       ___dyn_tls_init_callback   100e68a8     <common>

 entry point at        0001:0005812f

 Static symbols

 0000:fff14000       .debug$S                   10000000     vcruntime:VCRUNTIME140.dll
 0000:fff14000       .debug$S                   10000000     kernel32:KERNEL32.dll
 0000:fff14000       .debug$S                   10000000     kernel32:KERNEL32.dll
 0000:fff14000       .debug$S                   10000000     kernel32:KERNEL32.dll
 0000:fff14000       .debug$S                   10000000     kernel32:KERNEL32.dll
 0000:fff14000       .debug$S                   10000000     kernel32:KERNEL32.dll
 0000:fff14000       .debug$S                   10000000     kernel32:KERNEL32.dll
 0000:fff14000       .debug$S                   10000000     kernel32:KERNEL32.dll
 0000:fff14000       .debug$S                   10000000     kernel32:KERNEL32.dll
 0000:fff14000       .debug$S                   10000000     kernel32:KERNEL32.dll
 0000:fff14000       .debug$S                   10000000     kernel32:KERNEL32.dll
 0000:fff14000       .debug$S                   10000000     kernel32:KERNEL32.dll
 0000:fff14000       .debug$S                   10000000     kernel32:KERNEL32.dll
 0000:fff14000       .debug$S                   10000000     kernel32:KERNEL32.dll
 0000:fff14000       .debug$S                   10000000     kernel32:KERNEL32.dll
 0000:fff14000       .debug$S                   10000000     kernel32:KERNEL32.dll
 0000:fff14000       .debug$S                   10000000     kernel32:KERNEL32.dll
 0000:fff14000       .debug$S                   10000000     kernel32:KERNEL32.dll
 0000:fff14000       .debug$S                   10000000     kernel32:KERNEL32.dll
 0000:fff14000       .debug$S                   10000000     kernel32:KERNEL32.dll
 0000:fff14000       .debug$S                   10000000     kernel32:KERNEL32.dll
 0000:fff14000       .debug$S                   10000000     kernel32:KERNEL32.dll
 0000:fff14000       .debug$S                   10000000     kernel32:KERNEL32.dll
 0000:fff14000       .debug$S                   10000000     kernel32:KERNEL32.dll
 0000:fff14000       .debug$S                   10000000     kernel32:KERNEL32.dll
 0000:fff14000       .debug$S                   10000000     kernel32:KERNEL32.dll
 0000:fff14000       .debug$S                   10000000     kernel32:KERNEL32.dll
 0000:fff14000       .debug$S                   10000000     kernel32:KERNEL32.dll
 0000:fff14000       .debug$S                   10000000     kernel32:KERNEL32.dll
 0000:fff14000       .debug$S                   10000000     kernel32:KERNEL32.dll
 0000:fff14000       .debug$S                   10000000     kernel32:KERNEL32.dll
 0000:fff14000       .debug$S                   10000000     kernel32:KERNEL32.dll
 0000:fff14000       .debug$S                   10000000     kernel32:KERNEL32.dll
 0000:fff14000       .debug$S                   10000000     kernel32:KERNEL32.dll
 0000:fff14000       .debug$S                   10000000     kernel32:KERNEL32.dll
 0000:fff14000       .debug$S                   10000000     kernel32:KERNEL32.dll
 0000:fff14000       .debug$S                   10000000     kernel32:KERNEL32.dll
 0000:fff14000       .debug$S                   10000000     kernel32:KERNEL32.dll
 0000:fff14000       .debug$S                   10000000     kernel32:KERNEL32.dll
 0000:fff14000       .debug$S                   10000000     kernel32:KERNEL32.dll
 0000:fff14000       .debug$S                   10000000     kernel32:KERNEL32.dll
 0000:fff14000       .debug$S                   10000000     kernel32:KERNEL32.dll
 0000:fff14000       .debug$S                   10000000     kernel32:KERNEL32.dll
 0000:fff14000       .debug$S                   10000000     kernel32:KERNEL32.dll
 0000:fff14000       .debug$S                   10000000     kernel32:KERNEL32.dll
 0000:fff14000       .debug$S                   10000000     kernel32:KERNEL32.dll
 0000:fff14000       .debug$S                   10000000     kernel32:KERNEL32.dll
 0002:fffa4000       .idata$6                   10000000     ucrt:api-ms-win-crt-locale-l1-1-0.dll
 0000:fff14000       .debug$S                   10000000     msvcprt:MSVCP140.dll
 0000:fff14000       .debug$S                   10000000     msvcprt:MSVCP140.dll
 0000:fff14000       .debug$S                   10000000     msvcprt:MSVCP140.dll
 0000:fff14000       .debug$S                   10000000     msvcprt:MSVCP140.dll
 0000:fff14000       .debug$S                   10000000     msvcprt:MSVCP140.dll
 0000:fff14000       .debug$S                   10000000     msvcprt:MSVCP140.dll
 0000:fff14000       .debug$S                   10000000     msvcprt:MSVCP140.dll
 0000:fff14000       .debug$S                   10000000     kernel32:KERNEL32.dll
 0000:fff14000       .debug$S                   10000000     ucrt:api-ms-win-crt-runtime-l1-1-0.dll
 0000:fff14000       .debug$S                   10000000     ucrt:api-ms-win-crt-runtime-l1-1-0.dll
 0000:fff14000       .debug$S                   10000000     ucrt:api-ms-win-crt-math-l1-1-0.dll
 0000:fff14000       .debug$S                   10000000     ucrt:api-ms-win-crt-runtime-l1-1-0.dll
 0000:fff14000       .debug$S                   10000000     ucrt:api-ms-win-crt-runtime-l1-1-0.dll
 0000:fff14000       .debug$S                   10000000     ucrt:api-ms-win-crt-runtime-l1-1-0.dll
 0000:fff14000       .debug$S                   10000000     ucrt:api-ms-win-crt-runtime-l1-1-0.dll
 0000:fff14000       .debug$S                   10000000     ucrt:api-ms-win-crt-runtime-l1-1-0.dll
 0000:fff14000       .debug$S                   10000000     ucrt:api-ms-win-crt-runtime-l1-1-0.dll
 0000:fff14000       .debug$S                   10000000     ucrt:api-ms-win-crt-runtime-l1-1-0.dll
 0000:fff14000       .debug$S                   10000000     ucrt:api-ms-win-crt-runtime-l1-1-0.dll
 0000:fff14000       .debug$S                   10000000     ucrt:api-ms-win-crt-runtime-l1-1-0.dll
 0000:fff14000       .debug$S                   10000000     ucrt:api-ms-win-crt-heap-l1-1-0.dll
 0000:fff14000       .debug$S                   10000000     ucrt:api-ms-win-crt-locale-l1-1-0.dll
 0000:fff14000       .debug$S                   10000000     ucrt:api-ms-win-crt-math-l1-1-0.dll
 0000:fff14000       .debug$S                   10000000     ucrt:api-ms-win-crt-math-l1-1-0.dll
 0000:fff14000       .debug$S                   10000000     ucrt:api-ms-win-crt-math-l1-1-0.dll
 0000:fff14000       .debug$S                   10000000     ucrt:api-ms-win-crt-math-l1-1-0.dll
 0000:fff14000       .debug$S                   10000000     ucrt:api-ms-win-crt-runtime-l1-1-0.dll
 0000:fff14000       .debug$S                   10000000     ucrt:api-ms-win-crt-filesystem-l1-1-0.dll
 0000:fff14000       .debug$S                   10000000     ucrt:api-ms-win-crt-filesystem-l1-1-0.dll
 0000:fff14000       .debug$S                   10000000     ucrt:api-ms-win-crt-stdio-l1-1-0.dll
 0000:fff14000       .debug$S                   10000000     ucrt:api-ms-win-crt-stdio-l1-1-0.dll
 0000:fff14000       .debug$S                   10000000     ucrt:api-ms-win-crt-stdio-l1-1-0.dll
 0000:fff14000       .debug$S                   10000000     ucrt:api-ms-win-crt-stdio-l1-1-0.dll
 0000:fff14000       .debug$S                   10000000     ucrt:api-ms-win-crt-stdio-l1-1-0.dll
 0000:fff14000       .debug$S                   10000000     ucrt:api-ms-win-crt-stdio-l1-1-0.dll
 0000:fff14000       .debug$S                   10000000     ucrt:api-ms-win-crt-stdio-l1-1-0.dll
 0000:fff14000       .debug$S                   10000000     ucrt:api-ms-win-crt-stdio-l1-1-0.dll
 0000:fff14000       .debug$S                   10000000     ucrt:api-ms-win-crt-stdio-l1-1-0.dll
 0000:fff14000       .debug$S                   10000000     ucrt:api-ms-win-crt-math-l1-1-0.dll
 0000:fff14000       .debug$S                   10000000     ucrt:api-ms-win-crt-math-l1-1-0.dll
 0000:fff14000       .debug$S                   10000000     ucrt:api-ms-win-crt-math-l1-1-0.dll
 0000:fff14000       .debug$S                   10000000     ucrt:api-ms-win-crt-stdio-l1-1-0.dll
 0000:fff14000       .debug$S                   10000000     ucrt:api-ms-win-crt-stdio-l1-1-0.dll
 0000:fff14000       .debug$S                   10000000     ucrt:api-ms-win-crt-stdio-l1-1-0.dll
 0000:fff14000       .debug$S                   10000000     ucrt:api-ms-win-crt-stdio-l1-1-0.dll
 0000:fff14000       .debug$S                   10000000     ucrt:api-ms-win-crt-stdio-l1-1-0.dll
 0000:fff14000       .debug$S                   10000000     ucrt:api-ms-win-crt-stdio-l1-1-0.dll
 0000:fff14000       .debug$S                   10000000     ucrt:api-ms-win-crt-stdio-l1-1-0.dll
 0000:fff14000       .debug$S                   10000000     ucrt:api-ms-win-crt-stdio-l1-1-0.dll
 0000:fff14000       .debug$S                   10000000     ucrt:api-ms-win-crt-stdio-l1-1-0.dll
 0000:fff14000       .debug$S                   10000000     ucrt:api-ms-win-crt-stdio-l1-1-0.dll
 0000:fff14000       .debug$S                   10000000     ucrt:api-ms-win-crt-convert-l1-1-0.dll
 0000:fff14000       .debug$S                   10000000     ucrt:api-ms-win-crt-utility-l1-1-0.dll
 0000:fff14000       .debug$S                   10000000     ucrt:api-ms-win-crt-heap-l1-1-0.dll
 0000:fff14000       .debug$S                   10000000     ucrt:api-ms-win-crt-heap-l1-1-0.dll
 0000:fff14000       .debug$S                   10000000     ucrt:api-ms-win-crt-string-l1-1-0.dll
 0000:fff14000       .debug$S                   10000000     ucrt:api-ms-win-crt-string-l1-1-0.dll
 0000:fff14000       .debug$S                   10000000     ucrt:api-ms-win-crt-stdio-l1-1-0.dll
 0000:fff14000       .debug$S                   10000000     ucrt:api-ms-win-crt-convert-l1-1-0.dll
 0000:fff14000       .debug$S                   10000000     ucrt:api-ms-win-crt-string-l1-1-0.dll
 0000:fff14000       .debug$S                   10000000     ucrt:api-ms-win-crt-utility-l1-1-0.dll
 0000:fff14000       .debug$S                   10000000     ucrt:api-ms-win-crt-math-l1-1-0.dll
 0000:fff14000       .debug$S                   10000000     ucrt:api-ms-win-crt-math-l1-1-0.dll
 0000:fff14000       .debug$S                   10000000     ucrt:api-ms-win-crt-math-l1-1-0.dll
 0000:fff14000       .debug$S                   10000000     ucrt:api-ms-win-crt-math-l1-1-0.dll
 0000:fff14000       .debug$S                   10000000     ucrt:api-ms-win-crt-math-l1-1-0.dll
 0000:fff14000       .debug$S                   10000000     ucrt:api-ms-win-crt-math-l1-1-0.dll
 0000:fff14000       .debug$S                   10000000     ucrt:api-ms-win-crt-heap-l1-1-0.dll
 0000:fff14000       .debug$S                   10000000     ucrt:api-ms-win-crt-runtime-l1-1-0.dll
 0000:fff14000       .debug$S                   10000000     kernel32:KERNEL32.dll
 0000:fff14000       .debug$S                   10000000     vcruntime:VCRUNTIME140.dll
 0000:fff14000       .debug$S                   10000000     vcruntime:VCRUNTIME140.dll
 0000:fff14000       .debug$S                   10000000     vcruntime:VCRUNTIME140.dll
 0000:fff14000       .debug$S                   10000000     vcruntime:VCRUNTIME140.dll
 0000:fff14000       .debug$S                   10000000     vcruntime:VCRUNTIME140.dll
 0000:fff14000       .debug$S                   10000000     vcruntime:VCRUNTIME140.dll
 0000:fff14000       .debug$S                   10000000     vcruntime:VCRUNTIME140.dll
 0000:fff14000       .debug$S                   10000000     vcruntime:VCRUNTIME140.dll
 0000:fff14000       .debug$S                   10000000     vcruntime:VCRUNTIME140.dll
 0000:fff14000       .debug$S                   10000000     vcruntime:VCRUNTIME140.dll
 0000:fff14000       .debug$S                   10000000     msvcprt:MSVCP140.dll
 0000:fff14000       .debug$S                   10000000     vcruntime:VCRUNTIME140.dll
 0000:fff14000       .debug$S                   10000000     vcruntime:VCRUNTIME140.dll
 0000:fff14000       .debug$S                   10000000     vcruntime:VCRUNTIME140.dll
 0000:fff14000       .debug$S                   10000000     vcruntime:VCRUNTIME140.dll
 0000:fff14000       .debug$S                   10000000     kernel32:KERNEL32.dll
 0000:fff14000       .debug$S                   10000000     imm32:IMM32.dll
 0000:fff14000       .debug$S                   10000000     imm32:IMM32.dll
 0000:fff14000       .debug$S                   10000000     kernel32:KERNEL32.dll
 0000:fff14000       .debug$S                   10000000     msvcprt:MSVCP140.dll
 0000:fff14000       .debug$S                   10000000     msvcprt:MSVCP140.dll
 0000:fff14000       .debug$S                   10000000     kernel32:KERNEL32.dll
 0000:fff14000       .debug$S                   10000000     kernel32:KERNEL32.dll
 0000:fff14000       .debug$S                   10000000     msvcprt:MSVCP140.dll
 0000:fff14000       .debug$S                   10000000     msvcprt:MSVCP140.dll
 0000:fff14000       .debug$S                   10000000     msvcprt:MSVCP140.dll
 0000:fff14000       .debug$S                   10000000     msvcprt:MSVCP140.dll
 0000:fff14000       .debug$S                   10000000     kernel32:KERNEL32.dll
 0000:fff14000       .debug$S                   10000000     kernel32:KERNEL32.dll
 0000:fff14000       .debug$S                   10000000     kernel32:KERNEL32.dll
 0000:fff14000       .debug$S                   10000000     kernel32:KERNEL32.dll
 0000:fff14000       .debug$S                   10000000     kernel32:KERNEL32.dll
 0000:fff14000       .debug$S                   10000000     msvcprt:MSVCP140.dll
 0000:fff14000       .debug$S                   10000000     kernel32:KERNEL32.dll
 0000:fff14000       .debug$S                   10000000     msvcprt:MSVCP140.dll
 0000:fff14000       .debug$S                   10000000     msvcprt:MSVCP140.dll
 0000:fff14000       .debug$S                   10000000     msvcprt:MSVCP140.dll
 0000:fff14000       .debug$S                   10000000     kernel32:KERNEL32.dll
 0000:fff14000       .debug$S                   10000000     kernel32:KERNEL32.dll
 0000:fff14000       .debug$S                   10000000     kernel32:KERNEL32.dll
 0000:fff14000       .debug$S                   10000000     msvcprt:MSVCP140.dll
 0000:fff14000       .debug$S                   10000000     user32:USER32.dll
 0000:fff14000       .debug$S                   10000000     user32:USER32.dll
 0000:fff14000       .debug$S                   10000000     msvcprt:MSVCP140.dll
 0000:fff14000       .debug$S                   10000000     msvcprt:MSVCP140.dll
 0000:fff14000       .debug$S                   10000000     msvcprt:MSVCP140.dll
 0000:fff14000       .debug$S                   10000000     user32:USER32.dll
 0000:fff14000       .debug$S                   10000000     user32:USER32.dll
 0000:fff14000       .debug$S                   10000000     msvcprt:MSVCP140.dll
 0000:fff14000       .debug$S                   10000000     msvcprt:MSVCP140.dll
 0000:fff14000       .debug$S                   10000000     msvcprt:MSVCP140.dll
 0000:fff14000       .debug$S                   10000000     msvcprt:MSVCP140.dll
 0000:fff14000       .debug$S                   10000000     msvcprt:MSVCP140.dll
 0000:fff14000       .debug$S                   10000000     user32:USER32.dll
 0000:fff14000       .debug$S                   10000000     user32:USER32.dll
 0000:fff14000       .debug$S                   10000000     user32:USER32.dll
 0000:fff14000       .debug$S                   10000000     msvcprt:MSVCP140.dll
 0000:fff14000       .debug$S                   10000000     user32:USER32.dll
 0000:fff14000       .debug$S                   10000000     user32:USER32.dll
 0000:fff14000       .debug$S                   10000000     user32:USER32.dll
 0000:fff14000       .debug$S                   10000000     user32:USER32.dll
 0000:fff14000       .debug$S                   10000000     user32:USER32.dll
 0000:fff14000       .debug$S                   10000000     user32:USER32.dll
 0000:fff14000       .debug$S                   10000000     shell32:SHELL32.dll
 0002:fffa4000       .idata$6                   10000000     shell32:SHELL32.dll
 0000:fff14000       .debug$S                   10000000     ole32:ole32.dll
 0000:fff14000       .debug$S                   10000000     msvcprt:MSVCP140.dll
 0002:fffa4000       .idata$6                   10000000     ole32:ole32.dll
 0000:fff14000       .debug$S                   10000000     msvcprt:MSVCP140.dll
 0000:fff14000       .debug$S                   10000000     msvcprt:MSVCP140.dll
 0000:fff14000       .debug$S                   10000000     msvcprt:MSVCP140.dll
 0000:fff14000       .debug$S                   10000000     msvcprt:MSVCP140.dll
 0000:fff14000       .debug$S                   10000000     msvcprt:MSVCP140.dll
 0000:fff14000       .debug$S                   10000000     msvcprt:MSVCP140.dll
 0000:fff14000       .debug$S                   10000000     msvcprt:MSVCP140.dll
 0000:fff14000       .debug$S                   10000000     msvcprt:MSVCP140.dll
 0000:fff14000       .debug$S                   10000000     msvcprt:MSVCP140.dll
 0000:fff14000       .debug$S                   10000000     msvcprt:MSVCP140.dll
 0000:fff14000       .debug$S                   10000000     msvcprt:MSVCP140.dll
 0000:fff14000       .debug$S                   10000000     msvcprt:MSVCP140.dll
 0000:fff14000       .debug$S                   10000000     msvcprt:MSVCP140.dll
 0000:fff14000       .debug$S                   10000000     msvcprt:MSVCP140.dll
 0000:fff14000       .debug$S                   10000000     msvcprt:MSVCP140.dll
 0000:fff14000       .debug$S                   10000000     msvcprt:MSVCP140.dll
 0000:fff14000       .debug$S                   10000000     msvcprt:MSVCP140.dll
 0000:fff14000       .debug$S                   10000000     msvcprt:MSVCP140.dll
 0000:fff14000       .debug$S                   10000000     msvcprt:MSVCP140.dll
 0000:fff14000       .debug$S                   10000000     msvcprt:MSVCP140.dll
 0000:fff14000       .debug$S                   10000000     msvcprt:MSVCP140.dll
 0000:fff14000       .debug$S                   10000000     msvcprt:MSVCP140.dll
 0000:fff14000       .debug$S                   10000000     msvcprt:MSVCP140.dll
 0000:fff14000       .debug$S                   10000000     msvcprt:MSVCP140.dll
 0000:fff14000       .debug$S                   10000000     msvcprt:MSVCP140.dll
 0000:fff14000       .debug$S                   10000000     msvcprt:MSVCP140.dll
 0000:fff14000       .debug$S                   10000000     msvcprt:MSVCP140.dll
 0000:fff14000       .debug$S                   10000000     msvcprt:MSVCP140.dll
 0000:fff14000       .debug$S                   10000000     msvcprt:MSVCP140.dll
 0000:fff14000       .debug$S                   10000000     msvcprt:MSVCP140.dll
 0000:fff14000       .debug$S                   10000000     msvcprt:MSVCP140.dll
 0000:fff14000       .debug$S                   10000000     msvcprt:MSVCP140.dll
 0000:fff14000       .debug$S                   10000000     msvcprt:MSVCP140.dll
 0000:fff14000       .debug$S                   10000000     msvcprt:MSVCP140.dll
 0000:fff14000       .debug$S                   10000000     msvcprt:MSVCP140.dll
 0000:fff14000       .debug$S                   10000000     msvcprt:MSVCP140.dll
 0000:fff14000       .debug$S                   10000000     msvcprt:MSVCP140.dll
 0000:fff14000       .debug$S                   10000000     msvcprt:MSVCP140.dll
 0000:fff14000       .debug$S                   10000000     msvcprt:MSVCP140.dll
 0000:fff14000       .debug$S                   10000000     msvcprt:MSVCP140.dll
 0001:00000000       ??__Eg_Event@@YAXXZ        10001000 f   c_hooks.obj
 0001:00000020       ??__Ehooks@@YAXXZ          10001020 f   c_hooks.obj
 0001:00000040       ??__Evec2_origin@@YAXXZ    10001040 f   c_hooks.obj
 0001:00000070       ??__Evec2_origin@@YAXXZ    10001070 f   dll_main.obj
 0001:000000a0       ??__Eg_Aimbot@@YAXXZ       100010a0 f   Aimbot.obj
 0001:000000b0       ??__Evec2_origin@@YAXXZ    100010b0 f   Aimbot.obj
 0001:000000e0       ??__Evec2_origin@@YAXXZ    100010e0 f   Autowall.obj
 0001:00000110       ??__Evec2_origin@@YAXXZ    10001110 f   EnginePrediction.obj
 0001:00000140       ??__Eg_LagComp@@YAXXZ      10001140 f   LagComp.obj
 0001:00000160       ??__Evec2_origin@@YAXXZ    10001160 f   LagComp.obj
 0001:00000190       ??__Evec2_origin@@YAXXZ    10001190 f   AntiAim.obj
 0001:000001c0       ??__Eg_Legitbot@@YAXXZ     100011c0 f   Legitbot.obj
 0001:000001e0       ??__Evec2_origin@@YAXXZ    100011e0 f   Legitbot.obj
 0001:00000210       ??__Eg_Resolver@@YAXXZ     10001210 f   Resolver.obj
 0001:00000220       ??__Evec2_origin@@YAXXZ    10001220 f   Resolver.obj
 0001:00000250       ??__Eesp@@YAXXZ            10001250 f   c_esp.obj
 0001:00000260       ??__Evec2_origin@@YAXXZ    10001260 f   c_esp.obj
 0001:00000290       ??__EGImDefaultContext@@YAXXZ 10001290 f   imgui.obj
 0001:000002b0       ??__EGImDefaultFontAtlas@@YAXXZ 100012b0 f   imgui.obj
 0001:000002d0       ??__EGNullClipRect@@YAXXZ  100012d0 f   imgui_draw.obj
 0001:00000320       ??__Evec2_origin@@YAXXZ    10001320 f   bone_processing_hook.obj
 0001:00000350       ??__Evec2_origin@@YAXXZ    10001350 f   createmove_hook.obj
 0001:00000380       ??__Evec2_origin@@YAXXZ    10001380 f   directx_preset_hook.obj
 0001:000003b0       ??__Evec2_origin@@YAXXZ    100013b0 f   dme_hook.obj
 0001:000003e0       ??__Evec2_origin@@YAXXZ    100013e0 f   event_hook.obj
 0001:00000410       ??__Evec2_origin@@YAXXZ    10001410 f   fsn_hook.obj
 0001:00000440       ??__Evec2_origin@@YAXXZ    10001440 f   hooking_init.obj
 0001:00000470       ??__Evec2_origin@@YAXXZ    10001470 f   lock_cursor_hook.obj
 0001:000004a0       ??__Evec2_origin@@YAXXZ    100014a0 f   oview_hook.obj
 0001:000004d0       ??__Evec2_origin@@YAXXZ    100014d0 f   painttraverse_hook.obj
 0001:00000500       ??__Evec2_origin@@YAXXZ    10001500 f   sceneend_hook.obj
 0001:00000530       ??__Evec2_origin@@YAXXZ    10001530 f   wndproc_hook.obj
 0001:00000560       ??__Egalaxy_vars@@YAXXZ    10001560 f   config_system.obj
 0001:00000580       ??__Emenu@@YAXXZ           10001580 f   menu_system.obj
 0001:00000590       ??__Evec2_origin@@YAXXZ    10001590 f   menu_system.obj
 0001:000005c0       ??__Ew_printf@XorCompileTime@@YAXXZ 100015c0 f   menu_system.obj
 0001:000005d0       ??__Ew_printf_s@XorCompileTime@@YAXXZ 100015d0 f   menu_system.obj
 0001:000005e0       ??__Ew_sprintf@XorCompileTime@@YAXXZ 100015e0 f   menu_system.obj
 0001:000005f0       ??__Ew_sprintf_s@XorCompileTime@@YAXXZ 100015f0 f   menu_system.obj
 0001:00000600       ??__Evec2_origin@@YAXXZ    10001600 f   CEntity.obj
 0001:00000630       ??__EAimbotHitbox@g@@YAXXZ 10001630 f   GlobalVars.obj
 0001:00000650       ??__EEnemyEyeAngs@g@@YAXXZ 10001650 f   GlobalVars.obj
 0001:00000670       ??__EFakeAngle@g@@YAXXZ    10001670 f   GlobalVars.obj
 0001:00000680       ??__EOriginalView@g@@YAXXZ 10001680 f   GlobalVars.obj
 0001:00000690       ??__ERealAngle@g@@YAXXZ    10001690 f   GlobalVars.obj
 0001:000006a0       ??__Evec2_origin@@YAXXZ    100016a0 f   GlobalVars.obj
 0001:000006d0       ??__Evec2_origin@@YAXXZ    100016d0 f   Interfaces.obj
 0001:00000700       ??__Evec2_origin@@YAXXZ    10001700 f   Math.obj
 0001:00000730       ??__Eg_pNetvars@@YAXXZ     10001730 f   NetvarManager.obj
 0001:0000074c       ??__E_Fac_tidy_reg@std@@YAXXZ 1000174c f   msvcprt:locale0_implib.obj
 0001:000021b2       __catch$?RestoreTable@ShadowVTManager@@QAEXXZ$0 100031b2 f i c_hooks.obj
 0001:00003666       __catch$?attach@@YGKPAX@Z$0 10004666 f   dll_main.obj
 0001:00003ed1       __catch$??$_Buynode@ABUpiecewise_construct_t@std@@V?$tuple@$$QAV?$basic_string@DU?$char_traits@D@std@@V?$allocator@D@2@@std@@@2@V?$tuple@$$V@2@@?$_List_buy@U?$pair@$$CBV?$basic_string@DU?$char_traits@D@std@@V?$allocator@D@2@@std@@V?$shared_ptr@UNode@NetvarTree@@@2@@std@@V?$allocator@U?$pair@$$CBV?$basic_string@DU?$char_traits@D@std@@V?$allocator@D@2@@std@@V?$shared_ptr@UNode@NetvarTree@@@2@@std@@@2@@std@@QAEPAU?$_List_node@U?$pair@$$CBV?$basic_string@DU?$char_traits@D@std@@V?$allocator@D@2@@std@@V?$shared_ptr@UNode@NetvarTree@@@2@@std@@PAX@1@PAU21@0ABUpiecewise_construct_t@1@$$QAV?$tuple@$$QAV?$basic_string@DU?$char_traits@D@std@@V?$allocator@D@2@@std@@@1@$$QAV?$tuple@$$V@1@@Z$0 10004ed1 f i Aimbot.obj
 0001:000041e9       __catch$??$_Emplace_reallocate@H@?$vector@HV?$allocator@H@std@@@std@@QAEPAHQAH$$QAH@Z$0 100051e9 f i Aimbot.obj
 0001:000044e2       __catch$??$_Insert@AAU?$pair@$$CBV?$basic_string@DU?$char_traits@D@std@@V?$allocator@D@2@@std@@V?$shared_ptr@UNode@NetvarTree@@@2@@std@@V?$_List_unchecked_iterator@V?$_List_val@U?$_List_simple_types@U?$pair@$$CBV?$basic_string@DU?$char_traits@D@std@@V?$allocator@D@2@@std@@V?$shared_ptr@UNode@NetvarTree@@@2@@std@@@std@@@std@@@2@@?$_Hash@V?$_Umap_traits@V?$basic_string@DU?$char_traits@D@std@@V?$allocator@D@2@@std@@V?$shared_ptr@UNode@NetvarTree@@@2@V?$_Uhash_compare@V?$basic_string@DU?$char_traits@D@std@@V?$allocator@D@2@@std@@U?$hash@V?$basic_string@DU?$char_traits@D@std@@V?$allocator@D@2@@std@@@2@U?$equal_to@V?$basic_string@DU?$char_traits@D@std@@V?$allocator@D@2@@std@@@2@@2@V?$allocator@U?$pair@$$CBV?$basic_string@DU?$char_traits@D@std@@V?$allocator@D@2@@std@@V?$shared_ptr@UNode@NetvarTree@@@2@@std@@@2@$0A@@std@@@std@@IAE?AU?$pair@V?$_List_iterator@V?$_List_val@U?$_List_simple_types@U?$pair@$$CBV?$basic_string@DU?$char_traits@D@std@@V?$allocator@D@2@@std@@V?$shared_ptr@UNode@NetvarTree@@@2@@std@@@std@@@std@@@std@@_N@1@AAU?$pair@$$CBV?$basic_string@DU?$char_traits@D@std@@V?$allocator@D@2@@std@@V?$shared_ptr@UNode@NetvarTree@@@2@@1@V?$_List_unchecked_iterator@V?$_List_val@U?$_List_simple_types@U?$pair@$$CBV?$basic_string@DU?$char_traits@D@std@@V?$allocator@D@2@@std@@V?$shared_ptr@UNode@NetvarTree@@@2@@std@@@std@@@std@@@1@@Z$0 100054e2 f i Aimbot.obj
 0001:0000459c       __catch$??$_Insert@AAU?$pair@$$CBV?$basic_string@DU?$char_traits@D@std@@V?$allocator@D@2@@std@@V?$shared_ptr@UNode@NetvarTree@@@2@@std@@V?$_List_unchecked_iterator@V?$_List_val@U?$_List_simple_types@U?$pair@$$CBV?$basic_string@DU?$char_traits@D@std@@V?$allocator@D@2@@std@@V?$shared_ptr@UNode@NetvarTree@@@2@@std@@@std@@@std@@@2@@?$_Hash@V?$_Umap_traits@V?$basic_string@DU?$char_traits@D@std@@V?$allocator@D@2@@std@@V?$shared_ptr@UNode@NetvarTree@@@2@V?$_Uhash_compare@V?$basic_string@DU?$char_traits@D@std@@V?$allocator@D@2@@std@@U?$hash@V?$basic_string@DU?$char_traits@D@std@@V?$allocator@D@2@@std@@@2@U?$equal_to@V?$basic_string@DU?$char_traits@D@std@@V?$allocator@D@2@@std@@@2@@2@V?$allocator@U?$pair@$$CBV?$basic_string@DU?$char_traits@D@std@@V?$allocator@D@2@@std@@V?$shared_ptr@UNode@NetvarTree@@@2@@std@@@2@$0A@@std@@@std@@IAE?AU?$pair@V?$_List_iterator@V?$_List_val@U?$_List_simple_types@U?$pair@$$CBV?$basic_string@DU?$char_traits@D@std@@V?$allocator@D@2@@std@@V?$shared_ptr@UNode@NetvarTree@@@2@@std@@@std@@@std@@@std@@_N@1@AAU?$pair@$$CBV?$basic_string@DU?$char_traits@D@std@@V?$allocator@D@2@@std@@V?$shared_ptr@UNode@NetvarTree@@@2@@1@V?$_List_unchecked_iterator@V?$_List_val@U?$_List_simple_types@U?$pair@$$CBV?$basic_string@DU?$char_traits@D@std@@V?$allocator@D@2@@std@@V?$shared_ptr@UNode@NetvarTree@@@2@@std@@@std@@@std@@@1@@Z$2 1000559c f i Aimbot.obj
 0001:00005150       ??0<lambda_42d221394b547edb48c6f2ecbde06d0c>@@QAE@ABQAUImGuiWindow@@@Z 10006150 f i imgui.obj
 0001:00005150       ??0<lambda_d047aa5cc1f86c7b1c4b875d1253a0f3>@@QAE@ABQAUImGuiWindow@@@Z 10006150 f i imgui.obj
 0001:000090fa       __catch$?_Buynode0@?$_List_alloc@U?$_List_base_types@U?$pair@$$CBV?$basic_string@DU?$char_traits@D@std@@V?$allocator@D@2@@std@@V?$shared_ptr@UNode@NetvarTree@@@2@@std@@V?$allocator@U?$pair@$$CBV?$basic_string@DU?$char_traits@D@std@@V?$allocator@D@2@@std@@V?$shared_ptr@UNode@NetvarTree@@@2@@std@@@2@@std@@@std@@QAEPAU?$_List_node@U?$pair@$$CBV?$basic_string@DU?$char_traits@D@std@@V?$allocator@D@2@@std@@V?$shared_ptr@UNode@NetvarTree@@@2@@std@@PAX@2@PAU32@0@Z$0 1000a0fa f i Aimbot.obj
 0001:00009a1b       __catch$?_Reallocate_exactly@?$vector@V?$_List_unchecked_iterator@V?$_List_val@U?$_List_simple_types@U?$pair@$$CBV?$basic_string@DU?$char_traits@D@std@@V?$allocator@D@2@@std@@V?$shared_ptr@UNode@NetvarTree@@@2@@std@@@std@@@std@@@std@@V?$allocator@V?$_List_unchecked_iterator@V?$_List_val@U?$_List_simple_types@U?$pair@$$CBV?$basic_string@DU?$char_traits@D@std@@V?$allocator@D@2@@std@@V?$shared_ptr@UNode@NetvarTree@@@2@@std@@@std@@@std@@@std@@@2@@std@@AAEXI@Z$0 1000aa1b f i Aimbot.obj
 0001:0000afe4       $LN8                       1000bfe4     Autowall.obj
 0001:00010ba0       ??R<lambda_f338f303ecc4ff2fd081edb185de3335>@@QBEMMMMMM@Z 10011ba0 f   Resolver.obj
 0001:000165a0       ?ImGui_ImplDX9_CreateFontsTexture@@YA_NXZ 100175a0 f   imgui_impl_dx9.obj
 0001:0001791c       $LN22                      1001891c     imgui_impl_dx9.obj
 0001:0001ac80       ??D@YA?AUImVec2@@ABU0@0@Z  1001bc80 f   imgui_draw.obj
 0001:0001ac80       ??D@YA?AUImVec2@@ABU0@0@Z  1001bc80 f   imgui.obj
 0001:0001acc0       ??D@YA?AUImVec2@@ABU0@M@Z  1001bcc0 f   imgui.obj
 0001:0001acc0       ??D@YA?AUImVec2@@ABU0@M@Z  1001bcc0 f   imgui_draw.obj
 0001:0001ad00       ??G@YA?AUImVec2@@ABU0@0@Z  1001bd00 f   imgui.obj
 0001:0001ad00       ??G@YA?AUImVec2@@ABU0@0@Z  1001bd00 f   imgui_draw.obj
 0001:0001ad40       ??H@YA?AUImVec2@@ABU0@0@Z  1001bd40 f   imgui.obj
 0001:0001ad40       ??H@YA?AUImVec2@@ABU0@0@Z  1001bd40 f   imgui_draw.obj
 0001:0001ad80       ??K@YA?AUImVec2@@ABU0@0@Z  1001bd80 f   imgui.obj
 0001:0001adc0       ??R<lambda_42d221394b547edb48c6f2ecbde06d0c>@@QBEXHHM@Z 1001bdc0 f   imgui.obj
 0001:0001aee0       ??R<lambda_d047aa5cc1f86c7b1c4b875d1253a0f3>@@QBEXHH_NM@Z 1001bee0 f   imgui.obj
 0001:0001b270       ??X@YAAAUImVec2@@AAU0@M@Z  1001c270 f   imgui.obj
 0001:0001b270       ??X@YAAAUImVec2@@AAU0@M@Z  1001c270 f   imgui_draw.obj
 0001:0001b2a0       ??Y@YAAAUImVec2@@AAU0@ABU0@@Z 1001c2a0 f   imgui.obj
 0001:0001b360       ?AddDrawListToRenderList@@YAXAAV?$ImVector@PAUImDrawList@@@@PAUImDrawList@@@Z 1001c360 f   imgui.obj
 0001:0001b450       ?AddWindowSettings@@YAPAUImGuiIniData@@PBD@Z 1001c450 f   imgui.obj
 0001:0001b520       ?AddWindowToRenderList@@YAXAAV?$ImVector@PAUImDrawList@@@@PAUImGuiWindow@@@Z 1001c520 f   imgui.obj
 0001:0001b5c0       ?AddWindowToSortedBuffer@@YAXAAV?$ImVector@PAUImGuiWindow@@@@PAUImGuiWindow@@@Z 1001c5c0 f   imgui.obj
 0001:0001b680       ?ApplySizeFullWithConstraint@@YAXPAUImGuiWindow@@UImVec2@@@Z 1001c680 f   imgui.obj
 0001:0001f070       ?BeginChildEx@@YA_NPBDIABUImVec2@@_NH@Z 10020070 f   imgui.obj
 0001:0001fa30       ?BeginPopupEx@@YA_NIH@Z    10020a30 f   imgui.obj
 0001:00020a00       ?CheckStacksSize@@YAXPAUImGuiWindow@@_N@Z 10021a00 f   imgui.obj
 0001:00021470       ?ChildWindowComparer@@YAHPBX0@Z 10022470 f   imgui.obj
 0001:00021550       ?ClearSetNextWindowData@@YAXXZ 10022550 f   imgui.obj
 0001:00021a10       ?CloseInactivePopups@@YAXXZ 10022a10 f   imgui.obj
 0001:00021b80       ?ClosePopup@@YAXI@Z        10022b80 f   imgui.obj
 0001:00021bc0       ?ClosePopupToLevel@@YAXH@Z 10022bc0 f   imgui.obj
 0001:00022658       $LN12                      10023658     imgui.obj
 0001:00023610       ?ColorEditOptionsPopup@@YAXH@Z 10024610 f   imgui.obj
 0001:00024b80       ?ColorPickerOptionsPopup@@YAXHPAM@Z 10025b80 f   imgui.obj
 0001:00024e00       ?ColorSquareSize@@YAMXZ    10025e00 f   imgui.obj
 0001:00025a20       ?CreateNewWindow@@YAPAUImGuiWindow@@PBDUImVec2@@H@Z 10026a20 f   imgui.obj
 0001:00025e30       ?DataTypeApplyOpFromText@@YA_NPBD0W4ImGuiDataType@@PAX0@Z 10026e30 f   imgui.obj
 0001:00026150       ?DataTypeFormatString@@YAXW4ImGuiDataType@@PAXHPADH@Z 10027150 f   imgui.obj
 0001:00028410       ?FindBestPopupWindowPos@@YA?AUImVec2@@ABU1@0PAHABUImRect@@@Z 10029410 f   imgui.obj
 0001:000287f0       ?FindHoveredWindow@@YAPAUImGuiWindow@@UImVec2@@_N@Z 100297f0 f   imgui.obj
 0001:000289f0       ?FindWindowSettings@@YAPAUImGuiIniData@@PBD@Z 100299f0 f   imgui.obj
 0001:00028e60       ?GetClipboardTextFn_DefaultImpl@@YAPBDPAX@Z 10029e60 f   imgui.obj
 0001:00029370       ?GetDefaultFont@@YAPAUImFont@@XZ 1002a370 f   imgui.obj
 0001:000293c0       ?GetDraggedColumnOffset@@YAMH@Z 1002a3c0 f   imgui.obj
 0001:000294f0       ?GetFrontMostModalRootWindow@@YAPAUImGuiWindow@@XZ 1002a4f0 f   imgui.obj
 0001:000296c0       ?GetMinimumStepAtDecimalPrecision@@YAMH@Z 1002a6c0 f   imgui.obj
 0001:000298c0       ?GetStyleVarInfo@@YAPBUImGuiStyleVarInfo@@H@Z 1002a8c0 f   imgui.obj
 0001:00029950       ?GetVisibleRect@@YA?AUImRect@@XZ 1002a950 f   imgui.obj
 0001:00029b30       ?ImAlphaBlendColor@@YAIII@Z 1002ab30 f   imgui.obj
 0001:00029c20       ?ImCharIsSpace@@YA_NH@Z    1002ac20 f   imgui_draw.obj
 0001:00029c20       ?ImCharIsSpace@@YA_NH@Z    1002ac20 f   imgui.obj
 0001:00029c50       ?ImClamp@@YA?AUImVec2@@ABU1@0U1@@Z 1002ac50 f   imgui.obj
 0001:00029ce0       ?ImClamp@@YAMMMM@Z         1002ace0 f   imgui.obj
 0001:00029f60       ?ImFloor@@YA?AUImVec2@@ABU1@@Z 1002af60 f   imgui.obj
 0001:00029fa0       ?ImFloor@@YAMM@Z           1002afa0 f   imgui.obj
 0001:0002a1e0       ?ImLengthSqr@@YAMABUImVec2@@@Z 1002b1e0 f   imgui.obj
 0001:0002a220       ?ImLerp@@YAHHHM@Z          1002b220 f   imgui.obj
 0001:0002a250       ?ImLerp@@YAMMMM@Z          1002b250 f   imgui.obj
 0001:0002a280       ?ImMax@@YA?AUImVec2@@ABU1@0@Z 1002b280 f   imgui.obj
 0001:0002a300       ?ImMax@@YAHHH@Z            1002b300 f   imgui.obj
 0001:0002a300       ?ImMax@@YAHHH@Z            1002b300 f   imgui_draw.obj
 0001:0002a330       ?ImMax@@YAMMM@Z            1002b330 f   imgui_draw.obj
 0001:0002a330       ?ImMax@@YAMMM@Z            1002b330 f   imgui.obj
 0001:0002a360       ?ImMin@@YA?AUImVec2@@ABU1@0@Z 1002b360 f   imgui.obj
 0001:0002a3e0       ?ImMin@@YAHHH@Z            1002b3e0 f   imgui.obj
 0001:0002a410       ?ImMin@@YAMMM@Z            1002b410 f   imgui_draw.obj
 0001:0002a410       ?ImMin@@YAMMM@Z            1002b410 f   imgui.obj
 0001:0002a440       ?ImSaturate@@YAMM@Z        1002b440 f   imgui.obj
 0001:0002a9e0       ?ImTextCharToUtf8@@YAHPADHI@Z 1002b9e0 f   imgui.obj
 0001:0002abe0       ?ImTextCountUtf8BytesFromChar@@YAHI@Z 1002bbe0 f   imgui.obj
 0001:0002adf0       ?ImeSetInputScreenPosFn_DefaultImpl@@YAXHH@Z 1002bdf0 f   imgui.obj
 0001:0002af80       ?InputTextCalcTextLenAndLineCount@@YAHPBDPAPBD@Z 1002bf80 f   imgui.obj
 0001:0002b010       ?InputTextCalcTextSizeW@@YA?AUImVec2@@PBG0PAPBGPAU1@_N@Z 1002c010 f   imgui.obj
 0001:0002dbd0       ?InputTextFilterCharacter@@YA_NPAIHP6AHPAUImGuiTextEditCallbackData@@@ZPAX@Z 1002ebd0 f   imgui.obj
 0001:0002e240       ?IsKeyPressedMap@@YA_NH_N@Z 1002f240 f   imgui.obj
 0001:0002e4a0       ?IsWindowContentHoverable@@YA_NPAUImGuiWindow@@@Z 1002f4a0 f   imgui.obj
 0001:0002e850       ?Items_ArrayGetter@@YA_NPAXHPAPBD@Z 1002f850 f   imgui.obj
 0001:0002e8b0       ?LoadIniSettingsFromDisk@@YAXPBD@Z 1002f8b0 f   imgui.obj
 0001:0002ebc0       ?LogRenderedText@@YAXABUImVec2@@PBD1@Z 1002fbc0 f   imgui.obj
 0001:0002ede0       ?LowerBound@@YAPAUPair@ImGuiStorage@@AAV?$ImVector@UPair@ImGuiStorage@@@@I@Z 1002fde0 f   imgui.obj
 0001:0002ee60       ?MarkIniSettingsDirty@@YAXPAUImGuiWindow@@@Z 1002fe60 f   imgui.obj
 0001:000303c0       ?OffsetNormToPixels@@YAMPAUImGuiWindow@@M@Z 100313c0 f   imgui.obj
 0001:000307b0       ?PixelsToOffsetNorm@@YAMPAUImGuiWindow@@M@Z 100317b0 f   imgui.obj
 0001:00032e20       ?STB_TEXTEDIT_DELETECHARS@ImGuiStb@@YAXPAUImGuiTextEditState@@HH@Z 10033e20 f   imgui.obj
 0001:00032ed0       ?STB_TEXTEDIT_GETCHAR@ImGuiStb@@YAGPBUImGuiTextEditState@@H@Z 10033ed0 f   imgui.obj
 0001:00032ef0       ?STB_TEXTEDIT_GETWIDTH@ImGuiStb@@YAMPAUImGuiTextEditState@@HH@Z 10033ef0 f   imgui.obj
 0001:00032f80       ?STB_TEXTEDIT_INSERTCHARS@ImGuiStb@@YA_NPAUImGuiTextEditState@@HPBGH@Z 10033f80 f   imgui.obj
 0001:00033080       ?STB_TEXTEDIT_KEYTOTEXT@ImGuiStb@@YAHH@Z 10034080 f   imgui.obj
 0001:000330b0       ?STB_TEXTEDIT_LAYOUTROW@ImGuiStb@@YAXPAUStbTexteditRow@1@PAUImGuiTextEditState@@H@Z 100340b0 f   imgui.obj
 0001:00033150       ?STB_TEXTEDIT_MOVEWORDLEFT_IMPL@ImGuiStb@@YAHPAUImGuiTextEditState@@H@Z 10034150 f   imgui.obj
 0001:000331a0       ?STB_TEXTEDIT_MOVEWORDRIGHT_IMPL@ImGuiStb@@YAHPAUImGuiTextEditState@@H@Z 100341a0 f   imgui.obj
 0001:00033200       ?STB_TEXTEDIT_STRINGLEN@ImGuiStb@@YAHPBUImGuiTextEditState@@@Z 10034200 f   imgui.obj
 0001:00033320       ?SaveIniSettingsToDisk@@YAXPBD@Z 10034320 f   imgui.obj
 0001:00033520       ?Scrollbar@@YAXPAUImGuiWindow@@_N@Z 10034520 f   imgui.obj
 0001:00034900       ?SetClipboardTextFn_DefaultImpl@@YAXPAXPBD@Z 10035900 f   imgui.obj
 0001:00034b30       ?SetCurrentFont@@YAXPAUImFont@@@Z 10035b30 f   imgui.obj
 0001:00034be0       ?SetCurrentWindow@@YAXPAUImGuiWindow@@@Z 10035be0 f   imgui.obj
 0001:00034fa0       ?SetWindowCollapsed@@YAXPAUImGuiWindow@@_NH@Z 10035fa0 f   imgui.obj
 0001:00035000       ?SetWindowPos@@YAXPAUImGuiWindow@@ABUImVec2@@H@Z 10036000 f   imgui.obj
 0001:000350f0       ?SetWindowScrollY@@YAXPAUImGuiWindow@@M@Z 100360f0 f   imgui.obj
 0001:00035140       ?SetWindowSize@@YAXPAUImGuiWindow@@ABUImVec2@@H@Z 10036140 f   imgui.obj
 0001:00035fa0       ?is_separator@ImGuiStb@@YA_NI@Z 10036fa0 f   imgui.obj
 0001:00036010       ?is_word_boundary_from_right@ImGuiStb@@YAHPAUImGuiTextEditState@@H@Z 10037010 f   imgui.obj
 0001:00036980       ?stb_text_create_undo_record@ImGuiStb@@YAPAUStbUndoRecord@1@PAUStbUndoState@1@H@Z 10037980 f   imgui.obj
 0001:00036a30       ?stb_text_createundo@ImGuiStb@@YAPAGPAUStbUndoState@1@HHH@Z 10037a30 f   imgui.obj
 0001:00036ad0       ?stb_text_locate_coord@ImGuiStb@@YAHPAUImGuiTextEditState@@MM@Z 10037ad0 f   imgui.obj
 0001:00036ca0       ?stb_text_makeundo_delete@ImGuiStb@@YAXPAUImGuiTextEditState@@PAUSTB_TexteditState@1@HH@Z 10037ca0 f   imgui.obj
 0001:00036d10       ?stb_text_makeundo_insert@ImGuiStb@@YAXPAUSTB_TexteditState@1@HH@Z 10037d10 f   imgui.obj
 0001:00036d30       ?stb_text_makeundo_replace@ImGuiStb@@YAXPAUImGuiTextEditState@@PAUSTB_TexteditState@1@HHH@Z 10037d30 f   imgui.obj
 0001:00036da0       ?stb_text_redo@ImGuiStb@@YAXPAUImGuiTextEditState@@PAUSTB_TexteditState@1@@Z 10037da0 f   imgui.obj
 0001:00036fa0       ?stb_text_undo@ImGuiStb@@YAXPAUImGuiTextEditState@@PAUSTB_TexteditState@1@@Z 10037fa0 f   imgui.obj
 0001:000371e0       ?stb_textedit_clamp@ImGuiStb@@YAXPAUImGuiTextEditState@@PAUSTB_TexteditState@1@@Z 100381e0 f   imgui.obj
 0001:00037260       ?stb_textedit_clear_state@ImGuiStb@@YAXPAUSTB_TexteditState@1@H@Z 10038260 f   imgui.obj
 0001:000372f0       ?stb_textedit_click@ImGuiStb@@YAXPAUImGuiTextEditState@@PAUSTB_TexteditState@1@MM@Z 100382f0 f   imgui.obj
 0001:00037340       ?stb_textedit_cut@ImGuiStb@@YAHPAUImGuiTextEditState@@PAUSTB_TexteditState@1@@Z 10038340 f   imgui.obj
 0001:00037380       ?stb_textedit_delete@ImGuiStb@@YAXPAUImGuiTextEditState@@PAUSTB_TexteditState@1@HH@Z 10038380 f   imgui.obj
 0001:000373c0       ?stb_textedit_delete_selection@ImGuiStb@@YAXPAUImGuiTextEditState@@PAUSTB_TexteditState@1@@Z 100383c0 f   imgui.obj
 0001:00037480       ?stb_textedit_discard_redo@ImGuiStb@@YAXPAUStbUndoState@1@@Z 10038480 f   imgui.obj
 0001:000375e0       ?stb_textedit_discard_undo@ImGuiStb@@YAXPAUStbUndoState@1@@Z 100385e0 f   imgui.obj
 0001:00037700       ?stb_textedit_drag@ImGuiStb@@YAXPAUImGuiTextEditState@@PAUSTB_TexteditState@1@MM@Z 10038700 f   imgui.obj
 0001:00037760       ?stb_textedit_find_charpos@ImGuiStb@@YAXPAUStbFindState@1@PAUImGuiTextEditState@@HH@Z 10038760 f   imgui.obj
 0001:00037960       ?stb_textedit_flush_redo@ImGuiStb@@YAXPAUStbUndoState@1@@Z 10038960 f   imgui.obj
 0001:00037990       ?stb_textedit_initialize_state@ImGuiStb@@YAXPAUSTB_TexteditState@1@H@Z 10038990 f   imgui.obj
 0001:000379b0       ?stb_textedit_key@ImGuiStb@@YAXPAUImGuiTextEditState@@PAUSTB_TexteditState@1@H@Z 100389b0 f   imgui.obj
 0001:00038540       $LN100                     10039540     imgui.obj
 0001:00038578       $LN101                     10039578     imgui.obj
 0001:000385b0       ?stb_textedit_move_to_first@ImGuiStb@@YAXPAUSTB_TexteditState@1@@Z 100395b0 f   imgui.obj
 0001:000385f0       ?stb_textedit_move_to_last@ImGuiStb@@YAXPAUImGuiTextEditState@@PAUSTB_TexteditState@1@@Z 100395f0 f   imgui.obj
 0001:00038640       ?stb_textedit_paste@ImGuiStb@@YAHPAUImGuiTextEditState@@PAUSTB_TexteditState@1@PBGH@Z 10039640 f   imgui.obj
 0001:000386f0       ?stb_textedit_prep_selection_at_cursor@ImGuiStb@@YAXPAUSTB_TexteditState@1@@Z 100396f0 f   imgui.obj
 0001:00038730       ?stb_textedit_sortselection@ImGuiStb@@YAXPAUSTB_TexteditState@1@@Z 10039730 f   imgui.obj
 0001:0003cae0       ?Decode85@@YAXPBEPAE@Z     1003dae0 f   imgui_draw.obj
 0001:0003cc20       ?Decode85Byte@@YAID@Z      1003dc20 f   imgui_draw.obj
 0001:0003ccb0       ?GetDefaultCompressedFontDataTTFBase85@@YAPBDXZ 1003dcb0 f   imgui_draw.obj
 0001:0003e4a0       ?ImInvLength@@YAMABUImVec2@@M@Z 1003f4a0 f   imgui_draw.obj
 0001:0003e510       ?ImUpperPowerOfTwo@@YAHH@Z 1003f510 f   imgui_draw.obj
 0001:00040120       ?rect_height_compare@@YAHPBX0@Z 10041120 f   imgui_draw.obj
 0001:000401b0       ?rect_original_order@@YAHPBX0@Z 100411b0 f   imgui_draw.obj
 0001:00040400       ?stb__lit@@YAXPAEI@Z       10041400 f   imgui_draw.obj
 0001:00040470       ?stb__match@@YAXPAEI@Z     10041470 f   imgui_draw.obj
 0001:00040500       ?stb_adler32@@YAIIPAEI@Z   10041500 f   imgui_draw.obj
 0001:000406e0       ?stb_decompress@@YAIPAE0I@Z 100416e0 f   imgui_draw.obj
 0001:000408d0       ?stb_decompress_length@@YAIPAE@Z 100418d0 f   imgui_draw.obj
 0001:00040920       ?stb_decompress_token@@YAPAEPAE@Z 10041920 f   imgui_draw.obj
 0001:00040d10       ?stbrp__skyline_find_best_pos@@YA?AUstbrp__findresult@@PAUstbrp_context@@HH@Z 10041d10 f   imgui_draw.obj
 0001:00040f50       ?stbrp__skyline_find_min_y@@YAHPAUstbrp_context@@PAUstbrp_node@@HHPAH@Z 10041f50 f   imgui_draw.obj
 0001:00041050       ?stbrp__skyline_pack_rectangle@@YA?AUstbrp__findresult@@PAUstbrp_context@@HH@Z 10042050 f   imgui_draw.obj
 0001:000411c0       ?stbtt_FlattenCurves@@YAPAUstbtt__point@@PAUstbtt_vertex@@HMPAPAHPAHPAX@Z 100421c0 f   imgui_draw.obj
 0001:000415ec       $LN25                      100425ec     imgui_draw.obj
 0001:00041600       ?stbtt_GetFontOffsetForIndex_internal@@YAHPAEH@Z 10042600 f   imgui_draw.obj
 0001:00041730       ?stbtt_InitFont_internal@@YAHPAUstbtt_fontinfo@@PAEH@Z 10042730 f   imgui_draw.obj
 0001:00041e80       ?stbtt__GetGlyfOffset@@YAHPBUstbtt_fontinfo@@H@Z 10042e80 f   imgui_draw.obj
 0001:00041f80       ?stbtt__GetGlyphInfoT2@@YAHPBUstbtt_fontinfo@@HPAH111@Z 10042f80 f   imgui_draw.obj
 0001:00042090       ?stbtt__GetGlyphShapeT2@@YAHPBUstbtt_fontinfo@@HPAPAUstbtt_vertex@@@Z 10043090 f   imgui_draw.obj
 0001:000421b0       ?stbtt__GetGlyphShapeTT@@YAHPBUstbtt_fontinfo@@HPAPAUstbtt_vertex@@@Z 100431b0 f   imgui_draw.obj
 0001:00042f80       ?stbtt__add_point@@YAXPAUstbtt__point@@HMM@Z 10043f80 f   imgui_draw.obj
 0001:00042fb0       ?stbtt__buf_get8@@YAEPAUstbtt__buf@@@Z 10043fb0 f   imgui_draw.obj
 0001:00042ff0       ?stbtt__buf_get@@YAIPAUstbtt__buf@@H@Z 10043ff0 f   imgui_draw.obj
 0001:00043040       ?stbtt__buf_peek8@@YAEPAUstbtt__buf@@@Z 10044040 f   imgui_draw.obj
 0001:00043070       ?stbtt__buf_range@@YA?AUstbtt__buf@@PBU1@HH@Z 10044070 f   imgui_draw.obj
 0001:00043120       ?stbtt__buf_seek@@YAXPAUstbtt__buf@@H@Z 10044120 f   imgui_draw.obj
 0001:00043160       ?stbtt__buf_skip@@YAXPAUstbtt__buf@@H@Z 10044160 f   imgui_draw.obj
 0001:00043180       ?stbtt__cff_get_index@@YA?AUstbtt__buf@@PAU1@@Z 10044180 f   imgui_draw.obj
 0001:00043240       ?stbtt__cff_index_count@@YAHPAUstbtt__buf@@@Z 10044240 f   imgui_draw.obj
 0001:00043270       ?stbtt__cff_index_get@@YA?AUstbtt__buf@@U1@H@Z 10044270 f   imgui_draw.obj
 0001:00043340       ?stbtt__cff_int@@YAIPAUstbtt__buf@@@Z 10044340 f   imgui_draw.obj
 0001:00043420       ?stbtt__cff_skip_operand@@YAXPAUstbtt__buf@@@Z 10044420 f   imgui_draw.obj
 0001:000434a0       ?stbtt__cid_get_glyph_subrs@@YA?AUstbtt__buf@@PBUstbtt_fontinfo@@H@Z 100444a0 f   imgui_draw.obj
 0001:00043670       ?stbtt__close_shape@@YAHPAUstbtt_vertex@@HHHHHHHHH@Z 10044670 f   imgui_draw.obj
 0001:00043760       ?stbtt__csctx_close_shape@@YAXPAUstbtt__csctx@@@Z 10044760 f   imgui_draw.obj
 0001:000437c0       ?stbtt__csctx_rccurve_to@@YAXPAUstbtt__csctx@@MMMMMM@Z 100447c0 f   imgui_draw.obj
 0001:00043870       ?stbtt__csctx_rline_to@@YAXPAUstbtt__csctx@@MM@Z 10044870 f   imgui_draw.obj
 0001:000438d0       ?stbtt__csctx_rmove_to@@YAXPAUstbtt__csctx@@MM@Z 100448d0 f   imgui_draw.obj
 0001:00043970       ?stbtt__csctx_v@@YAXPAUstbtt__csctx@@EHHHHHH@Z 10044970 f   imgui_draw.obj
 0001:00043a30       ?stbtt__dict_get@@YA?AUstbtt__buf@@PAU1@H@Z 10044a30 f   imgui_draw.obj
 0001:00043b50       ?stbtt__dict_get_ints@@YAXPAUstbtt__buf@@HHPAI@Z 10044b50 f   imgui_draw.obj
 0001:00043bd0       ?stbtt__fill_active_edges_new@@YAXPAM0HPAUstbtt__active_edge@@M@Z 10044bd0 f   imgui_draw.obj
 0001:00044650       ?stbtt__find_table@@YAIPAEIPBD@Z 10045650 f   imgui_draw.obj
 0001:00044760       ?stbtt__get_subr@@YA?AUstbtt__buf@@U1@H@Z 10045760 f   imgui_draw.obj
 0001:00044840       ?stbtt__get_subrs@@YA?AUstbtt__buf@@U1@0@Z 10045840 f   imgui_draw.obj
 0001:000449d0       ?stbtt__h_prefilter@@YAXPAEHHHI@Z 100459d0 f   imgui_draw.obj
 0001:00044c84       $LN31                      10045c84     imgui_draw.obj
 0001:00044ca0       ?stbtt__handle_clipped_edge@@YAXPAMHPAUstbtt__active_edge@@MMMM@Z 10045ca0 f   imgui_draw.obj
 0001:00044e50       ?stbtt__hheap_alloc@@YAPAXPAUstbtt__hheap@@IPAX@Z 10045e50 f   imgui_draw.obj
 0001:00044f20       ?stbtt__hheap_cleanup@@YAXPAUstbtt__hheap@@PAX@Z 10045f20 f   imgui_draw.obj
 0001:00044f60       ?stbtt__hheap_free@@YAXPAUstbtt__hheap@@PAX@Z 10045f60 f   imgui_draw.obj
 0001:00044f80       ?stbtt__isfont@@YAHPAE@Z   10045f80 f   imgui_draw.obj
 0001:000451e0       ?stbtt__new_active@@YAPAUstbtt__active_edge@@PAUstbtt__hheap@@PAUstbtt__edge@@HMPAX@Z 100461e0 f   imgui_draw.obj
 0001:00045310       ?stbtt__new_buf@@YA?AUstbtt__buf@@PBXI@Z 10046310 f   imgui_draw.obj
 0001:00045350       ?stbtt__oversample_shift@@YAMH@Z 10046350 f   imgui_draw.obj
 0001:00045390       ?stbtt__rasterize@@YAXPAUstbtt__bitmap@@PAUstbtt__point@@PAHHMMMMHHHPAX@Z 10046390 f   imgui_draw.obj
 0001:00045660       ?stbtt__rasterize_sorted_edges@@YAXPAUstbtt__bitmap@@PAUstbtt__edge@@HHHHPAX@Z 10046660 f   imgui_draw.obj
 0001:00045a80       ?stbtt__run_charstring@@YAHPBUstbtt_fontinfo@@HPAUstbtt__csctx@@@Z 10046a80 f   imgui_draw.obj
 0001:0004702c       $LN104                     1004802c     imgui_draw.obj
 0001:0004707c       $LN103                     1004807c     imgui_draw.obj
 0001:0004709c       $LN105                     1004809c     imgui_draw.obj
 0001:000470b0       ?stbtt__sort_edges@@YAXPAUstbtt__edge@@H@Z 100480b0 f   imgui_draw.obj
 0001:000470e0       ?stbtt__sort_edges_ins_sort@@YAXPAUstbtt__edge@@H@Z 100480e0 f   imgui_draw.obj
 0001:00047200       ?stbtt__sort_edges_quicksort@@YAXPAUstbtt__edge@@H@Z 10048200 f   imgui_draw.obj
 0001:00047550       ?stbtt__tesselate_cubic@@YAXPAUstbtt__point@@PAHMMMMMMMMMH@Z 10048550 f   imgui_draw.obj
 0001:00047900       ?stbtt__tesselate_curve@@YAHPAUstbtt__point@@PAHMMMMMMMH@Z 10048900 f   imgui_draw.obj
 0001:00047b00       ?stbtt__track_vertex@@YAXPAUstbtt__csctx@@HH@Z 10048b00 f   imgui_draw.obj
 0001:00047b90       ?stbtt__v_prefilter@@YAXPAEHHHI@Z 10048b90 f   imgui_draw.obj
 0001:00047e94       $LN31                      10048e94     imgui_draw.obj
 0001:00047eb0       ?stbtt_setvertex@@YAXPAUstbtt_vertex@@EHHHH@Z 10048eb0 f   imgui_draw.obj
 0001:00047ef0       ?ttLONG@@YAHPAE@Z          10048ef0 f   imgui_draw.obj
 0001:00047ef0       ?ttULONG@@YAIPAE@Z         10048ef0 f   imgui_draw.obj
 0001:00047f40       ?ttUSHORT@@YAGPAE@Z        10048f40 f   imgui_draw.obj
 0001:00047f40       ?ttSHORT@@YAFPAE@Z         10048f40 f   imgui_draw.obj
 0001:00047fd0       _stbrp_init_target         10048fd0 f   imgui_draw.obj
 0001:00048100       _stbrp_pack_rects          10049100 f   imgui_draw.obj
 0001:000482e0       _stbrp_setup_allow_out_of_mem 100492e0 f   imgui_draw.obj
 0001:00048320       _stbtt_FindGlyphIndex      10049320 f   imgui_draw.obj
 0001:00048710       _stbtt_GetFontOffsetForIndex 10049710 f   imgui_draw.obj
 0001:00048730       _stbtt_GetFontVMetrics     10049730 f   imgui_draw.obj
 0001:000487b0       _stbtt_GetGlyphBitmapBox   100497b0 f   imgui_draw.obj
 0001:00048800       _stbtt_GetGlyphBitmapBoxSubpixel 10049800 f   imgui_draw.obj
 0001:00048970       _stbtt_GetGlyphBox         10049970 f   imgui_draw.obj
 0001:00048a60       _stbtt_GetGlyphHMetrics    10049a60 f   imgui_draw.obj
 0001:00048b50       _stbtt_GetGlyphShape       10049b50 f   imgui_draw.obj
 0001:00048b90       _stbtt_GetPackedQuad       10049b90 f   imgui_draw.obj
 0001:00048d90       _stbtt_InitFont            10049d90 f   imgui_draw.obj
 0001:00048db0       _stbtt_MakeGlyphBitmapSubpixel 10049db0 f   imgui_draw.obj
 0001:00048eb0       _stbtt_PackBegin           10049eb0 f   imgui_draw.obj
 0001:00048fd0       _stbtt_PackEnd             10049fd0 f   imgui_draw.obj
 0001:00049000       _stbtt_PackFontRangesGatherRects 1004a000 f   imgui_draw.obj
 0001:00049220       _stbtt_PackFontRangesRenderIntoRects 1004a220 f   imgui_draw.obj
 0001:000497b0       _stbtt_PackSetOversampling 1004a7b0 f   imgui_draw.obj
 0001:000497e0       _stbtt_Rasterize           1004a7e0 f   imgui_draw.obj
 0001:000498c0       _stbtt_ScaleForMappingEmToPixels 1004a8c0 f   imgui_draw.obj
 0001:00049900       _stbtt_ScaleForPixelHeight 1004a900 f   imgui_draw.obj
 0001:000504a4       $LN17                      100514a4     menu_system.obj
 0001:0005277d       __catch$??$?6U?$char_traits@D@std@@@std@@YAAAV?$basic_ostream@DU?$char_traits@D@std@@@0@AAV10@PBD@Z$0 1005377d f i Interfaces.obj
 0001:0005634e       __catch$??$_Buynode@PBDABV?$shared_ptr@UNode@NetvarTree@@@std@@@?$_List_buy@U?$pair@$$CBV?$basic_string@DU?$char_traits@D@std@@V?$allocator@D@2@@std@@V?$shared_ptr@UNode@NetvarTree@@@2@@std@@V?$allocator@U?$pair@$$CBV?$basic_string@DU?$char_traits@D@std@@V?$allocator@D@2@@std@@V?$shared_ptr@UNode@NetvarTree@@@2@@std@@@2@@std@@QAEPAU?$_List_node@U?$pair@$$CBV?$basic_string@DU?$char_traits@D@std@@V?$allocator@D@2@@std@@V?$shared_ptr@UNode@NetvarTree@@@2@@std@@PAX@1@PAU21@0$$QAPBDABV?$shared_ptr@UNode@NetvarTree@@@1@@Z$0 1005734e f i NetvarManager.obj
 0001:00057044       ?find_pe_section@@YAPAU_IMAGE_SECTION_HEADER@@QAEI@Z 10058044 f   MSVCRT:utility.obj
 0001:000573c0       $$000000                   100583c0     MSVCRT:lldiv.obj
 0001:00057470       $$000000                   10058470     MSVCRT:llmul.obj
 0001:0005769f       ?__scrt_initialize_thread_safe_statics@@YAHXZ 1005869f f   MSVCRT:thread_safe_statics.obj
 0001:000576e3       ?__scrt_initialize_thread_safe_statics_platform_specific@@YAXXZ 100586e3 f   MSVCRT:thread_safe_statics.obj
 0001:000577d2       ?__scrt_uninitialize_thread_safe_statics@@YAXXZ 100587d2 f   MSVCRT:thread_safe_statics.obj
 0001:00057950       $$000000                   10058950     MSVCRT:chkstk.obj
 0001:00057980       $$000000                   10058980     MSVCRT:ftol2.obj
 0001:00057a40       $$000000                   10058a40     MSVCRT:ftol3.obj
 0001:00057dc0       $$000000                   10058dc0     MSVCRT:alloca16.obj
 0001:00057df0       $$000000                   10058df0     MSVCRT:llshl.obj
 0001:00057e0f       ?dllmain_crt_dispatch@@YGHQAUHINSTANCE__@@KQAX@Z 10058e0f f   MSVCRT:dll_dllmain.obj
 0001:00057e62       ?dllmain_crt_process_attach@@YAHQAUHINSTANCE__@@QAX@Z 10058e62 f   MSVCRT:dll_dllmain.obj
 0001:00057f6c       ?dllmain_crt_process_detach@@YAH_N@Z 10058f6c f   MSVCRT:dll_dllmain.obj
 0001:00057ffe       ?dllmain_dispatch@@YAHQAUHINSTANCE__@@KQAX@Z 10058ffe f   MSVCRT:dll_dllmain.obj
 0001:00058104       ?dllmain_raw@@YGHQAUHINSTANCE__@@KQAX@Z 10059104 f   MSVCRT:dll_dllmain.obj
 0001:00058160       $$000000                   10059160     MSVCRT:sehprolg4.obj
 0001:0005858a       ___get_entropy             1005958a f   MSVCRT:gs_support.obj
 0001:000587c0       __ehhandler$??1?$ImVector@UImGuiStyleMod@@@@QAE@XZ 100597c0 f   imgui.obj
 0001:000587c0       __ehhandler$??1?$ImVector@UImGuiPopupRef@@@@QAE@XZ 100597c0 f   imgui.obj
 0001:000587c0       __ehhandler$??1?$deque@UPlayerRecords@@V?$allocator@UPlayerRecords@@@std@@@std@@QAE@XZ 100597c0 f   LagComp.obj
 0001:000587c0       __ehhandler$??1?$_Deque_alloc@U?$_Deque_base_types@ULegitPlayerRecords@@V?$allocator@ULegitPlayerRecords@@@std@@@std@@@std@@QAE@XZ 100597c0 f   Legitbot.obj
 0001:000587c0       __ehhandler$??1?$deque@ULegitPlayerRecords@@V?$allocator@ULegitPlayerRecords@@@std@@@std@@QAE@XZ 100597c0 f   Legitbot.obj
 0001:000587c0       __ehhandler$??1?$ImVector@PAUImDrawList@@@@QAE@XZ 100597c0 f   imgui.obj
 0001:000587c0       __ehhandler$??1?$ImVector@PAUImFont@@@@QAE@XZ 100597c0 f   imgui.obj
 0001:000587c0       __ehhandler$??$?0U?$default_delete@V_Facet_base@std@@@std@@$0A@@?$unique_ptr@V_Facet_base@std@@U?$default_delete@V_Facet_base@std@@@2@@std@@QAE@PAV_Facet_base@1@@Z 100597c0 f   config_system.obj
 0001:000587c0       __ehhandler$??$?0U?$default_delete@VVMTHook@@@std@@$0A@@?$unique_ptr@VVMTHook@@U?$default_delete@VVMTHook@@@std@@@std@@QAE@XZ 100597c0 f   c_hooks.obj
 0001:000587c0       __ehhandler$??1ImDrawList@@QAE@XZ 100597c0 f   imgui.obj
 0001:000587c0       __ehhandler$??1?$ImVector@_N@@QAE@XZ 100597c0 f   imgui.obj
 0001:000587c0       __ehhandler$?c_str@?$basic_string@DU?$char_traits@D@std@@V?$allocator@D@2@@std@@QBEPBDXZ 100597c0 f   Aimbot.obj
 0001:000587c0       __ehhandler$??1?$ImVector@UPair@ImGuiStorage@@@@QAE@XZ 100597c0 f   imgui.obj
 0001:000587c0       __ehhandler$??1?$ImVector@UImDrawCmd@@@@QAE@XZ 100597c0 f   imgui.obj
 0001:000587c0       __ehhandler$??1?$ImVector@UImGuiColMod@@@@QAE@XZ 100597c0 f   imgui.obj
 0001:000587c0       __ehhandler$??$?0U?$default_delete@VShadowVTManager@@@std@@$0A@@?$unique_ptr@VShadowVTManager@@U?$default_delete@VShadowVTManager@@@std@@@std@@QAE@XZ 100597c0 f   c_hooks.obj
 0001:000587c0       __ehhandler$??0c_hooks@@QAE@XZ 100597c0 f   c_hooks.obj
 0001:000587c0       __ehhandler$??1c_hooks@@QAE@XZ 100597c0 f   c_hooks.obj
 0001:000587c0       __ehhandler$??1?$ImVector@UImGuiGroupData@@@@QAE@XZ 100597c0 f   imgui.obj
 0001:000587c0       __ehhandler$??1?$basic_string@_WU?$char_traits@_W@std@@V?$allocator@_W@2@@std@@QAE@XZ 100597c0 f   config_system.obj
 0001:000587c0       __ehhandler$??1?$_Deque_alloc@U?$_Deque_base_types@UPlayerRecords@@V?$allocator@UPlayerRecords@@@std@@@std@@@std@@QAE@XZ 100597c0 f   LagComp.obj
 0001:000587c0       __ehhandler$??1?$basic_filebuf@DU?$char_traits@D@std@@@std@@UAE@XZ 100597c0 f   config_system.obj
 0001:000587c0       __ehhandler$??1?$ImVector@UImGuiColumnData@@@@QAE@XZ 100597c0 f   imgui.obj
 0001:000587c0       __ehhandler$??1?$ImVector@I@@QAE@XZ 100597c0 f   imgui.obj
 0001:000587c0       __ehhandler$??$?0U?$default_delete@VNetvarTree@@@std@@$0A@@?$unique_ptr@VNetvarTree@@U?$default_delete@VNetvarTree@@@std@@@std@@QAE@PAVNetvarTree@@@Z 100597c0 f   c_hooks.obj
 0001:000587c0       __ehhandler$??$?0U?$default_delete@VVMTHook@@@std@@$0A@@?$unique_ptr@VVMTHook@@U?$default_delete@VVMTHook@@@std@@@std@@QAE@PAVVMTHook@@@Z 100597c0 f   c_hooks.obj
 0001:000587c0       __ehhandler$??$?0PAIU?$default_delete@$$BY0A@I@std@@$0A@X@?$unique_ptr@$$BY0A@IU?$default_delete@$$BY0A@I@std@@@std@@QAE@PAI@Z 100597c0 f   c_hooks.obj
 0001:000587c0       __ehhandler$??1?$ImVector@D@@QAE@XZ 100597c0 f   imgui.obj
 0001:000587c0       __ehhandler$??$?0U?$default_delete@VNetvarTree@@@std@@$0A@@?$unique_ptr@VNetvarTree@@U?$default_delete@VNetvarTree@@@std@@@std@@QAE@XZ 100597c0 f   NetvarManager.obj
 0001:000587c0       __ehhandler$??0?$shared_ptr@UNode@NetvarTree@@@std@@QAE@$$QAV01@@Z 100597c0 f   NetvarManager.obj
 0001:000587c0       __ehhandler$??0?$shared_ptr@UNode@NetvarTree@@@std@@QAE@ABV01@@Z 100597c0 f   NetvarManager.obj
 0001:000587c0       __ehhandler$??0?$vector@V?$_List_unchecked_iterator@V?$_List_val@U?$_List_simple_types@U?$pair@$$CBV?$basic_string@DU?$char_traits@D@std@@V?$allocator@D@2@@std@@V?$shared_ptr@UNode@NetvarTree@@@2@@std@@@std@@@std@@@std@@V?$allocator@V?$_List_unchecked_iterator@V?$_List_val@U?$_List_simple_types@U?$pair@$$CBV?$basic_string@DU?$char_traits@D@std@@V?$allocator@D@2@@std@@V?$shared_ptr@UNode@NetvarTree@@@2@@std@@@std@@@std@@@std@@@2@@std@@QAE@ABV?$allocator@V?$_List_unchecked_iterator@V?$_List_val@U?$_List_simple_types@U?$pair@$$CBV?$basic_string@DU?$char_traits@D@std@@V?$allocator@D@2@@std@@V?$shared_ptr@UNode@NetvarTree@@@2@@std@@@std@@@std@@@std@@@1@@Z 100597c0 f   NetvarManager.obj
 0001:000587c0       __ehhandler$??0?$vector@HV?$allocator@H@std@@@std@@QAE@XZ 100597c0 f   Aimbot.obj
 0001:000587c0       __ehhandler$??1?$unique_ptr@$$BY0A@IU?$default_delete@$$BY0A@I@std@@@std@@QAE@XZ 100597c0 f   c_hooks.obj
 0001:000587c0       __ehhandler$??1?$ImVector@UImGuiIniData@@@@QAE@XZ 100597c0 f   imgui.obj
 0001:000587c0       __ehhandler$??$?0U?$default_delete@$$BY0A@I@std@@$0A@@?$unique_ptr@$$BY0A@IU?$default_delete@$$BY0A@I@std@@@std@@QAE@$$T@Z 100597c0 f   c_hooks.obj
 0001:000587c0       __ehhandler$??1?$vector@HV?$allocator@H@std@@@std@@QAE@XZ 100597c0 f   Aimbot.obj
 0001:000587c0       __ehhandler$??1LagComp@@QAE@XZ 100597c0 f   LagComp.obj
 0001:000587c0       __ehhandler$??1Legitbot@@QAE@XZ 100597c0 f   Legitbot.obj
 0001:000587c0       __ehhandler$??1?$ImVector@Ustbrp_rect@@@@QAE@XZ 100597c0 f   imgui_draw.obj
 0001:000587c0       __ehhandler$??$_Freenode0@V?$allocator@U?$_List_node@U?$pair@$$CBV?$basic_string@DU?$char_traits@D@std@@V?$allocator@D@2@@std@@V?$shared_ptr@UNode@NetvarTree@@@2@@std@@PAX@std@@@std@@@?$_List_node@U?$pair@$$CBV?$basic_string@DU?$char_traits@D@std@@V?$allocator@D@2@@std@@V?$shared_ptr@UNode@NetvarTree@@@2@@std@@PAX@std@@SAXAAV?$allocator@U?$_List_node@U?$pair@$$CBV?$basic_string@DU?$char_traits@D@std@@V?$allocator@D@2@@std@@V?$shared_ptr@UNode@NetvarTree@@@2@@std@@PAX@std@@@1@PAU01@@Z 100597c0 f   c_hooks.obj
 0001:000587c0       __ehhandler$??1ImFont@@QAE@XZ 100597c0 f   imgui_draw.obj
 0001:000587c0       __ehhandler$??1?$ImVector@PAUImGuiWindow@@@@QAE@XZ 100597c0 f   imgui.obj
 0001:000587c0       __ehhandler$??0?$basic_string@_WU?$char_traits@_W@std@@V?$allocator@_W@2@@std@@QAE@XZ 100597c0 f   config_system.obj
 0001:000587c0       __ehhandler$??1?$shared_ptr@UNode@NetvarTree@@@std@@QAE@XZ 100597c0 f   c_hooks.obj
 0001:000587c0       __ehhandler$??1?$vector@V?$_List_unchecked_iterator@V?$_List_val@U?$_List_simple_types@U?$pair@$$CBV?$basic_string@DU?$char_traits@D@std@@V?$allocator@D@2@@std@@V?$shared_ptr@UNode@NetvarTree@@@2@@std@@@std@@@std@@@std@@V?$allocator@V?$_List_unchecked_iterator@V?$_List_val@U?$_List_simple_types@U?$pair@$$CBV?$basic_string@DU?$char_traits@D@std@@V?$allocator@D@2@@std@@V?$shared_ptr@UNode@NetvarTree@@@2@@std@@@std@@@std@@@std@@@2@@std@@QAE@XZ 100597c0 f   c_hooks.obj
 0001:000587c0       __ehhandler$??1ImGuiContext@@QAE@XZ 100597c0 f   imgui.obj
 0001:000587c0       __ehhandler$??1?$ImVector@UImDrawChannel@@@@QAE@XZ 100597c0 f   imgui.obj
 0001:000587c0       __ehhandler$?data@?$basic_string@DU?$char_traits@D@std@@V?$allocator@D@2@@std@@QAEPADXZ 100597c0 f   config_system.obj
 0001:000587c0       __ehhandler$??1?$vector@V?$basic_string@DU?$char_traits@D@std@@V?$allocator@D@2@@std@@V?$allocator@V?$basic_string@DU?$char_traits@D@std@@V?$allocator@D@2@@std@@@2@@std@@QAE@XZ 100597c0 f   config_system.obj
 0001:000587c0       __ehhandler$??1?$ImVector@UImVec2@@@@QAE@XZ 100597c0 f   imgui.obj
 0001:000587c0       __ehhandler$??1?$ImVector@PAX@@QAE@XZ 100597c0 f   imgui.obj
 0001:000587c0       __ehhandler$??0?$vector@V?$basic_string@DU?$char_traits@D@std@@V?$allocator@D@2@@std@@V?$allocator@V?$basic_string@DU?$char_traits@D@std@@V?$allocator@D@2@@std@@@2@@std@@QAE@XZ 100597c0 f   config_system.obj
 0001:000587c0       __ehhandler$??1?$list@U?$pair@$$CBV?$basic_string@DU?$char_traits@D@std@@V?$allocator@D@2@@std@@V?$shared_ptr@UNode@NetvarTree@@@2@@std@@V?$allocator@U?$pair@$$CBV?$basic_string@DU?$char_traits@D@std@@V?$allocator@D@2@@std@@V?$shared_ptr@UNode@NetvarTree@@@2@@std@@@2@@std@@QAE@XZ 100597c0 f   c_hooks.obj
 0001:000587c0       __ehhandler$??1?$_List_alloc@U?$_List_base_types@U?$pair@$$CBV?$basic_string@DU?$char_traits@D@std@@V?$allocator@D@2@@std@@V?$shared_ptr@UNode@NetvarTree@@@2@@std@@V?$allocator@U?$pair@$$CBV?$basic_string@DU?$char_traits@D@std@@V?$allocator@D@2@@std@@V?$shared_ptr@UNode@NetvarTree@@@2@@std@@@2@@std@@@std@@QAE@XZ 100597c0 f   c_hooks.obj
 0001:000587c0       __ehhandler$??1?$basic_string@DU?$char_traits@D@std@@V?$allocator@D@2@@std@@QAE@XZ 100597c0 f   c_hooks.obj
 0001:000587c0       __ehhandler$??0?$basic_string@DU?$char_traits@D@std@@V?$allocator@D@2@@std@@QAE@XZ 100597c0 f   config_system.obj
 0001:000587c0       __ehhandler$??1?$_Uninitialized_backout_al@PAV?$_List_unchecked_iterator@V?$_List_val@U?$_List_simple_types@U?$pair@$$CBV?$basic_string@DU?$char_traits@D@std@@V?$allocator@D@2@@std@@V?$shared_ptr@UNode@NetvarTree@@@2@@std@@@std@@@std@@@std@@V?$allocator@V?$_List_unchecked_iterator@V?$_List_val@U?$_List_simple_types@U?$pair@$$CBV?$basic_string@DU?$char_traits@D@std@@V?$allocator@D@2@@std@@V?$shared_ptr@UNode@NetvarTree@@@2@@std@@@std@@@std@@@std@@@2@@std@@QAE@XZ 100597c0 f   Aimbot.obj
 0001:000587c0       __ehhandler$??1?$ImVector@UImDrawVert@@@@QAE@XZ 100597c0 f   imgui.obj
 0001:000587c0       __ehhandler$??1?$ImVector@UGlyph@ImFont@@@@QAE@XZ 100597c0 f   imgui_draw.obj
 0001:000587c0       __ehhandler$??1?$ImVector@UImFontConfig@@@@QAE@XZ 100597c0 f   imgui_draw.obj
 0001:000587c0       __ehhandler$??1?$ImVector@UImVec4@@@@QAE@XZ 100597c0 f   imgui.obj
 0001:000587c0       __ehhandler$??1ImFontAtlas@@QAE@XZ 100597c0 f   imgui_draw.obj
 0001:000587c0       __ehhandler$??1?$ImVector@UCustomRect@ImFontAtlas@@@@QAE@XZ 100597c0 f   imgui_draw.obj
 0001:000587c0       __ehhandler$??1?$ImVector@M@@QAE@XZ 100597c0 f   imgui.obj
 0001:000587c0       __ehhandler$??1sentry@?$basic_ostream@DU?$char_traits@D@std@@@std@@QAE@XZ 100597c0 f   Interfaces.obj
 0001:000587c0       __ehhandler$??1?$ImVector@G@@QAE@XZ 100597c0 f   imgui.obj
 0001:000587e0       __unwindfunclet$??$make_unique@VNetvarTree@@$$V$0A@@std@@YA?AV?$unique_ptr@VNetvarTree@@U?$default_delete@VNetvarTree@@@std@@@0@XZ$0 100597e0 f   c_hooks.obj
 0001:000587ef       __ehhandler$??$make_unique@VNetvarTree@@$$V$0A@@std@@YA?AV?$unique_ptr@VNetvarTree@@U?$default_delete@VNetvarTree@@@std@@@0@XZ 100597ef f   c_hooks.obj
 0001:00058810       __unwindfunclet$??$make_unique@VVMTHook@@AAPAVIClientMode@@$0A@@std@@YA?AV?$unique_ptr@VVMTHook@@U?$default_delete@VVMTHook@@@std@@@0@AAPAVIClientMode@@@Z$0 10059810 f   c_hooks.obj
 0001:00058810       __unwindfunclet$??$make_unique@VVMTHook@@PAPAK$0A@@std@@YA?AV?$unique_ptr@VVMTHook@@U?$default_delete@VVMTHook@@@std@@@0@$$QAPAPAK@Z$0 10059810 f   c_hooks.obj
 0001:00058810       __unwindfunclet$??$make_unique@VVMTHook@@AAPAVISurface@@$0A@@std@@YA?AV?$unique_ptr@VVMTHook@@U?$default_delete@VVMTHook@@@std@@@0@AAPAVISurface@@@Z$0 10059810 f   c_hooks.obj
 0001:00058810       __unwindfunclet$??$make_unique@VVMTHook@@AAPAVIBaseClientDLL@@$0A@@std@@YA?AV?$unique_ptr@VVMTHook@@U?$default_delete@VVMTHook@@@std@@@0@AAPAVIBaseClientDLL@@@Z$0 10059810 f   c_hooks.obj
 0001:00058810       __unwindfunclet$??$make_unique@VVMTHook@@AAPAVIVRenderView@@$0A@@std@@YA?AV?$unique_ptr@VVMTHook@@U?$default_delete@VVMTHook@@@std@@@0@AAPAVIVRenderView@@@Z$0 10059810 f   c_hooks.obj
 0001:00058810       __unwindfunclet$??$make_unique@VVMTHook@@AAPAVIPanel@@$0A@@std@@YA?AV?$unique_ptr@VVMTHook@@U?$default_delete@VVMTHook@@@std@@@0@AAPAVIPanel@@@Z$0 10059810 f   c_hooks.obj
 0001:00058810       __unwindfunclet$??$make_unique@VVMTHook@@AAPAVCModelRender@@$0A@@std@@YA?AV?$unique_ptr@VVMTHook@@U?$default_delete@VVMTHook@@@std@@@0@AAPAVCModelRender@@@Z$0 10059810 f   c_hooks.obj
 0001:0005881f       __ehhandler$??$make_unique@VVMTHook@@AAPAVIBaseClientDLL@@$0A@@std@@YA?AV?$unique_ptr@VVMTHook@@U?$default_delete@VVMTHook@@@std@@@0@AAPAVIBaseClientDLL@@@Z 1005981f f   c_hooks.obj
 0001:0005881f       __ehhandler$??$make_unique@VVMTHook@@AAPAVCModelRender@@$0A@@std@@YA?AV?$unique_ptr@VVMTHook@@U?$default_delete@VVMTHook@@@std@@@0@AAPAVCModelRender@@@Z 1005981f f   c_hooks.obj
 0001:0005881f       __ehhandler$??$make_unique@VVMTHook@@PAPAK$0A@@std@@YA?AV?$unique_ptr@VVMTHook@@U?$default_delete@VVMTHook@@@std@@@0@$$QAPAPAK@Z 1005981f f   c_hooks.obj
 0001:0005881f       __ehhandler$??$make_unique@VVMTHook@@AAPAVIPanel@@$0A@@std@@YA?AV?$unique_ptr@VVMTHook@@U?$default_delete@VVMTHook@@@std@@@0@AAPAVIPanel@@@Z 1005981f f   c_hooks.obj
 0001:0005881f       __ehhandler$??$make_unique@VVMTHook@@AAPAVIVRenderView@@$0A@@std@@YA?AV?$unique_ptr@VVMTHook@@U?$default_delete@VVMTHook@@@std@@@0@AAPAVIVRenderView@@@Z 1005981f f   c_hooks.obj
 0001:0005881f       __ehhandler$??$make_unique@VVMTHook@@AAPAVIClientMode@@$0A@@std@@YA?AV?$unique_ptr@VVMTHook@@U?$default_delete@VVMTHook@@@std@@@0@AAPAVIClientMode@@@Z 1005981f f   c_hooks.obj
 0001:0005881f       __ehhandler$??$make_unique@VVMTHook@@AAPAVISurface@@$0A@@std@@YA?AV?$unique_ptr@VVMTHook@@U?$default_delete@VVMTHook@@@std@@@0@AAPAVISurface@@@Z 1005981f f   c_hooks.obj
 0001:00058840       __unwindfunclet$??0?$basic_string@DU?$char_traits@D@std@@V?$allocator@D@2@@std@@QAE@QBD@Z$0 10059840 f   c_hooks.obj
 0001:00058848       __ehhandler$??0?$basic_string@DU?$char_traits@D@std@@V?$allocator@D@2@@std@@QAE@QBD@Z 10059848 f   c_hooks.obj
 0001:00058870       __unwindfunclet$??0VMTHook@@QAE@PAX@Z$0 10059870 f   c_hooks.obj
 0001:00058878       __ehhandler$??0VMTHook@@QAE@PAX@Z 10059878 f   c_hooks.obj
 0001:000588a0       __ehhandler$?end@?$basic_string@DU?$char_traits@D@std@@V?$allocator@D@2@@std@@QAE?AV?$_String_iterator@V?$_String_val@U?$_Simple_types@D@std@@@std@@@2@XZ 100598a0 f   c_esp.obj
 0001:000588a0       __ehhandler$?zero@?$duration@_JU?$ratio@$00$0DOI@@std@@@chrono@std@@SA?AV123@XZ 100598a0 f   dll_main.obj
 0001:000588a0       __ehhandler$?_Destroy@?$_Ref_count_obj@UNode@NetvarTree@@@std@@EAEXXZ 100598a0 f   NetvarManager.obj
 0001:000588a0       __ehhandler$??1ShadowVTManager@@QAE@XZ 100598a0 f   c_hooks.obj
 0001:000588a0       __ehhandler$??1_Fac_node@std@@QAE@XZ 100598a0 f   msvcprt:locale0_implib.obj
 0001:000588a0       __ehhandler$?begin@?$basic_string@DU?$char_traits@D@std@@V?$allocator@D@2@@std@@QAE?AV?$_String_iterator@V?$_String_val@U?$_Simple_types@D@std@@@std@@@2@XZ 100598a0 f   c_esp.obj
 0001:000588c0       __unwindfunclet$?Init@c_hooks@@SAXXZ$1 100598c0 f   c_hooks.obj
 0001:000588c8       __ehhandler$?Init@c_hooks@@SAXXZ 100598c8 f   c_hooks.obj
 0001:000588f0       __unwindfunclet$?Restore@c_hooks@@SAXXZ$0 100598f0 f   c_hooks.obj
 0001:000588f8       __unwindfunclet$?Restore@c_hooks@@SAXXZ$1 100598f8 f   c_hooks.obj
 0001:00058900       __ehhandler$?Restore@c_hooks@@SAXXZ 10059900 f   c_hooks.obj
 0001:00058930       __ehhandler$?RestoreTable@ShadowVTManager@@QAEXXZ 10059930 f   c_hooks.obj
 0001:00058950       __ehhandler$?find@?$basic_string@DU?$char_traits@D@std@@V?$allocator@D@2@@std@@QBEIQBDI@Z 10059950 f   c_esp.obj
 0001:00058950       __ehhandler$?_Equal@?$basic_string@DU?$char_traits@D@std@@V?$allocator@D@2@@std@@QBE_NQBD@Z 10059950 f   config_system.obj
 0001:00058950       __ehhandler$??1locale@std@@QAE@XZ 10059950 f   config_system.obj
 0001:00058950       __ehhandler$?clear@?$list@U?$pair@$$CBV?$basic_string@DU?$char_traits@D@std@@V?$allocator@D@2@@std@@V?$shared_ptr@UNode@NetvarTree@@@2@@std@@V?$allocator@U?$pair@$$CBV?$basic_string@DU?$char_traits@D@std@@V?$allocator@D@2@@std@@V?$shared_ptr@UNode@NetvarTree@@@2@@std@@@2@@std@@QAEXXZ 10059950 f   c_hooks.obj
 0001:00058970       __ehhandler$?attach@@YGKPAX@Z 10059970 f   dll_main.obj
 0001:00058990       __ehhandler$?_Assign_rv_contents_with_alloc_always_equal@?$basic_string@DU?$char_traits@D@std@@V?$allocator@D@2@@std@@QAEX$$QAV12@U?$integral_constant@_N$00@2@@Z 10059990 f   Aimbot.obj
 0001:00058990       __ehhandler$?end@?$deque@UPlayerRecords@@V?$allocator@UPlayerRecords@@@std@@@std@@QAE?AV?$_Deque_iterator@V?$_Deque_val@U?$_Deque_simple_types@UPlayerRecords@@@std@@@std@@@2@XZ 10059990 f   LagComp.obj
 0001:00058990       __ehhandler$?end@?$deque@ULegitPlayerRecords@@V?$allocator@ULegitPlayerRecords@@@std@@@std@@QAE?AV?$_Deque_iterator@V?$_Deque_val@U?$_Deque_simple_types@ULegitPlayerRecords@@@std@@@std@@@2@XZ 10059990 f   Legitbot.obj
 0001:00058990       __ehhandler$?now@system_clock@chrono@std@@SA?AV?$time_point@Usystem_clock@chrono@std@@V?$duration@_JU?$ratio@$00$0JIJGIA@@std@@@23@@23@XZ 10059990 f   dll_main.obj
 0001:00058990       __ehhandler$??1_Sentry_base@?$basic_ostream@DU?$char_traits@D@std@@@std@@QAE@XZ 10059990 f   Interfaces.obj
 0001:000589b0       __ehhandler$?begin@?$deque@UPlayerRecords@@V?$allocator@UPlayerRecords@@@std@@@std@@QAE?AV?$_Deque_iterator@V?$_Deque_val@U?$_Deque_simple_types@UPlayerRecords@@@std@@@std@@@2@XZ 100599b0 f   Aimbot.obj
 0001:000589b0       __ehhandler$?_Make_iter@?$list@U?$pair@$$CBV?$basic_string@DU?$char_traits@D@std@@V?$allocator@D@2@@std@@V?$shared_ptr@UNode@NetvarTree@@@2@@std@@V?$allocator@U?$pair@$$CBV?$basic_string@DU?$char_traits@D@std@@V?$allocator@D@2@@std@@V?$shared_ptr@UNode@NetvarTree@@@2@@std@@@2@@std@@QBE?AV?$_List_iterator@V?$_List_val@U?$_List_simple_types@U?$pair@$$CBV?$basic_string@DU?$char_traits@D@std@@V?$allocator@D@2@@std@@V?$shared_ptr@UNode@NetvarTree@@@2@@std@@@std@@@std@@@2@V?$_List_const_iterator@V?$_List_val@U?$_List_simple_types@U?$pair@$$CBV?$basic_string@DU?$char_traits@D@std@@V?$allocator@D@2@@std@@V?$shared_ptr@UNode@NetvarTree@@@2@@std@@@std@@@std@@@2@@Z 100599b0 f   Aimbot.obj
 0001:000589b0       __ehhandler$??$?0V?$basic_string@DU?$char_traits@D@std@@V?$allocator@D@2@@std@@$$V$0A@@?$tuple@$$QAV?$basic_string@DU?$char_traits@D@std@@V?$allocator@D@2@@std@@@std@@QAE@$$QAV?$basic_string@DU?$char_traits@D@std@@V?$allocator@D@2@@1@@Z 100599b0 f   Aimbot.obj
 0001:000589b0       __ehhandler$??0?$basic_string@DU?$char_traits@D@std@@V?$allocator@D@2@@std@@QAE@$$QAV01@@Z 100599b0 f   Aimbot.obj
 0001:000589b0       __ehhandler$??4?$basic_string@DU?$char_traits@D@std@@V?$allocator@D@2@@std@@QAEAAV01@$$QAV01@@Z 100599b0 f   imgui.obj
 0001:000589b0       __ehhandler$?begin@?$list@U?$pair@$$CBV?$basic_string@DU?$char_traits@D@std@@V?$allocator@D@2@@std@@V?$shared_ptr@UNode@NetvarTree@@@2@@std@@V?$allocator@U?$pair@$$CBV?$basic_string@DU?$char_traits@D@std@@V?$allocator@D@2@@std@@V?$shared_ptr@UNode@NetvarTree@@@2@@std@@@2@@std@@QAE?AV?$_List_iterator@V?$_List_val@U?$_List_simple_types@U?$pair@$$CBV?$basic_string@DU?$char_traits@D@std@@V?$allocator@D@2@@std@@V?$shared_ptr@UNode@NetvarTree@@@2@@std@@@std@@@std@@@2@XZ 100599b0 f   Aimbot.obj
 0001:000589b0       __ehhandler$?__scrt_initialize_thread_safe_statics_platform_specific@@YAXXZ 100599b0 f   MSVCRT:thread_safe_statics.obj
 0001:000589b0       __ehhandler$?end@?$list@U?$pair@$$CBV?$basic_string@DU?$char_traits@D@std@@V?$allocator@D@2@@std@@V?$shared_ptr@UNode@NetvarTree@@@2@@std@@V?$allocator@U?$pair@$$CBV?$basic_string@DU?$char_traits@D@std@@V?$allocator@D@2@@std@@V?$shared_ptr@UNode@NetvarTree@@@2@@std@@@2@@std@@QAE?AV?$_List_iterator@V?$_List_val@U?$_List_simple_types@U?$pair@$$CBV?$basic_string@DU?$char_traits@D@std@@V?$allocator@D@2@@std@@V?$shared_ptr@UNode@NetvarTree@@@2@@std@@@std@@@std@@@2@XZ 100599b0 f   Aimbot.obj
 0001:000589b0       __ehhandler$?begin@?$deque@ULegitPlayerRecords@@V?$allocator@ULegitPlayerRecords@@@std@@@std@@QAE?AV?$_Deque_iterator@V?$_Deque_val@U?$_Deque_simple_types@ULegitPlayerRecords@@@std@@@std@@@2@XZ 100599b0 f   Legitbot.obj
 0001:000589d0       __unwindfunclet$??$GetOffset@PBD@NetvarTree@@QAEHPBD0@Z$0 100599d0 f   Aimbot.obj
 0001:000589d0       __unwindfunclet$??$GetOffset@PBDPBD@NetvarTree@@QAEHPBD00@Z$0 100599d0 f   Aimbot.obj
 0001:000589d8       __ehhandler$??$GetOffset@PBD@NetvarTree@@QAEHPBD0@Z 100599d8 f   Aimbot.obj
 0001:000589d8       __ehhandler$??$GetOffset@PBDPBD@NetvarTree@@QAEHPBD00@Z 100599d8 f   Aimbot.obj
 0001:00058a00       __unwindfunclet$?IsKnifeorNade@C_BaseEntity@@QAE_NXZ$0 10059a00 f   CEntity.obj
 0001:00058a00       __unwindfunclet$??$GetOffsetRecursive@PBD@NetvarTree@@AAEHAAV?$unordered_map@V?$basic_string@DU?$char_traits@D@std@@V?$allocator@D@2@@std@@V?$shared_ptr@UNode@NetvarTree@@@2@U?$hash@V?$basic_string@DU?$char_traits@D@std@@V?$allocator@D@2@@std@@@2@U?$equal_to@V?$basic_string@DU?$char_traits@D@std@@V?$allocator@D@2@@std@@@2@V?$allocator@U?$pair@$$CBV?$basic_string@DU?$char_traits@D@std@@V?$allocator@D@2@@std@@V?$shared_ptr@UNode@NetvarTree@@@2@@std@@@2@@std@@HPBD1@Z$0 10059a00 f   Aimbot.obj
 0001:00058a08       __ehhandler$?IsKnifeorNade@C_BaseEntity@@QAE_NXZ 10059a08 f   CEntity.obj
 0001:00058a08       __ehhandler$??$GetOffsetRecursive@PBD@NetvarTree@@AAEHAAV?$unordered_map@V?$basic_string@DU?$char_traits@D@std@@V?$allocator@D@2@@std@@V?$shared_ptr@UNode@NetvarTree@@@2@U?$hash@V?$basic_string@DU?$char_traits@D@std@@V?$allocator@D@2@@std@@@2@U?$equal_to@V?$basic_string@DU?$char_traits@D@std@@V?$allocator@D@2@@std@@@2@V?$allocator@U?$pair@$$CBV?$basic_string@DU?$char_traits@D@std@@V?$allocator@D@2@@std@@V?$shared_ptr@UNode@NetvarTree@@@2@@std@@@2@@std@@HPBD1@Z 10059a08 f   Aimbot.obj
 0001:00058a30       __ehhandler$??$_Buynode@ABUpiecewise_construct_t@std@@V?$tuple@$$QAV?$basic_string@DU?$char_traits@D@std@@V?$allocator@D@2@@std@@@2@V?$tuple@$$V@2@@?$_List_buy@U?$pair@$$CBV?$basic_string@DU?$char_traits@D@std@@V?$allocator@D@2@@std@@V?$shared_ptr@UNode@NetvarTree@@@2@@std@@V?$allocator@U?$pair@$$CBV?$basic_string@DU?$char_traits@D@std@@V?$allocator@D@2@@std@@V?$shared_ptr@UNode@NetvarTree@@@2@@std@@@2@@std@@QAEPAU?$_List_node@U?$pair@$$CBV?$basic_string@DU?$char_traits@D@std@@V?$allocator@D@2@@std@@V?$shared_ptr@UNode@NetvarTree@@@2@@std@@PAX@1@PAU21@0ABUpiecewise_construct_t@1@$$QAV?$tuple@$$QAV?$basic_string@DU?$char_traits@D@std@@V?$allocator@D@2@@std@@@1@$$QAV?$tuple@$$V@1@@Z 10059a30 f   Aimbot.obj
 0001:00058a50       __ehhandler$??$_Emplace_reallocate@H@?$vector@HV?$allocator@H@std@@@std@@QAEPAHQAH$$QAH@Z 10059a50 f   Aimbot.obj
 0001:00058a70       __ehhandler$??$_Insert@AAU?$pair@$$CBV?$basic_string@DU?$char_traits@D@std@@V?$allocator@D@2@@std@@V?$shared_ptr@UNode@NetvarTree@@@2@@std@@V?$_List_unchecked_iterator@V?$_List_val@U?$_List_simple_types@U?$pair@$$CBV?$basic_string@DU?$char_traits@D@std@@V?$allocator@D@2@@std@@V?$shared_ptr@UNode@NetvarTree@@@2@@std@@@std@@@std@@@2@@?$_Hash@V?$_Umap_traits@V?$basic_string@DU?$char_traits@D@std@@V?$allocator@D@2@@std@@V?$shared_ptr@UNode@NetvarTree@@@2@V?$_Uhash_compare@V?$basic_string@DU?$char_traits@D@std@@V?$allocator@D@2@@std@@U?$hash@V?$basic_string@DU?$char_traits@D@std@@V?$allocator@D@2@@std@@@2@U?$equal_to@V?$basic_string@DU?$char_traits@D@std@@V?$allocator@D@2@@std@@@2@@2@V?$allocator@U?$pair@$$CBV?$basic_string@DU?$char_traits@D@std@@V?$allocator@D@2@@std@@V?$shared_ptr@UNode@NetvarTree@@@2@@std@@@2@$0A@@std@@@std@@IAE?AU?$pair@V?$_List_iterator@V?$_List_val@U?$_List_simple_types@U?$pair@$$CBV?$basic_string@DU?$char_traits@D@std@@V?$allocator@D@2@@std@@V?$shared_ptr@UNode@NetvarTree@@@2@@std@@@std@@@std@@@std@@_N@1@AAU?$pair@$$CBV?$basic_string@DU?$char_traits@D@std@@V?$allocator@D@2@@std@@V?$shared_ptr@UNode@NetvarTree@@@2@@1@V?$_List_unchecked_iterator@V?$_List_val@U?$_List_simple_types@U?$pair@$$CBV?$basic_string@DU?$char_traits@D@std@@V?$allocator@D@2@@std@@V?$shared_ptr@UNode@NetvarTree@@@2@@std@@@std@@@std@@@1@@Z 10059a70 f   Aimbot.obj
 0001:00058a90       __unwindfunclet$??$_Uninitialized_move_al_unchecked@PAV?$_List_unchecked_iterator@V?$_List_val@U?$_List_simple_types@U?$pair@$$CBV?$basic_string@DU?$char_traits@D@std@@V?$allocator@D@2@@std@@V?$shared_ptr@UNode@NetvarTree@@@2@@std@@@std@@@std@@@std@@PAV12@V?$allocator@V?$_List_unchecked_iterator@V?$_List_val@U?$_List_simple_types@U?$pair@$$CBV?$basic_string@DU?$char_traits@D@std@@V?$allocator@D@2@@std@@V?$shared_ptr@UNode@NetvarTree@@@2@@std@@@std@@@std@@@std@@@2@@std@@YAPAV?$_List_unchecked_iterator@V?$_List_val@U?$_List_simple_types@U?$pair@$$CBV?$basic_string@DU?$char_traits@D@std@@V?$allocator@D@2@@std@@V?$shared_ptr@UNode@NetvarTree@@@2@@std@@@std@@@std@@@0@PAV10@QAV10@1AAV?$allocator@V?$_List_unchecked_iterator@V?$_List_val@U?$_List_simple_types@U?$pair@$$CBV?$basic_string@DU?$char_traits@D@std@@V?$allocator@D@2@@std@@V?$shared_ptr@UNode@NetvarTree@@@2@@std@@@std@@@std@@@std@@@0@U_General_ptr_iterator_tag@0@U_Unused_parameter@0@@Z$0 10059a90 f   Aimbot.obj
 0001:00058a90       __unwindfunclet$??$_Uninit_alloc_fill_n1@PAV?$_List_unchecked_iterator@V?$_List_val@U?$_List_simple_types@U?$pair@$$CBV?$basic_string@DU?$char_traits@D@std@@V?$allocator@D@2@@std@@V?$shared_ptr@UNode@NetvarTree@@@2@@std@@@std@@@std@@@std@@IV?$allocator@V?$_List_unchecked_iterator@V?$_List_val@U?$_List_simple_types@U?$pair@$$CBV?$basic_string@DU?$char_traits@D@std@@V?$allocator@D@2@@std@@V?$shared_ptr@UNode@NetvarTree@@@2@@std@@@std@@@std@@@std@@@2@@std@@YAPAV?$_List_unchecked_iterator@V?$_List_val@U?$_List_simple_types@U?$pair@$$CBV?$basic_string@DU?$char_traits@D@std@@V?$allocator@D@2@@std@@V?$shared_ptr@UNode@NetvarTree@@@2@@std@@@std@@@std@@@0@QAV10@IABV10@AAV?$allocator@V?$_List_unchecked_iterator@V?$_List_val@U?$_List_simple_types@U?$pair@$$CBV?$basic_string@DU?$char_traits@D@std@@V?$allocator@D@2@@std@@V?$shared_ptr@UNode@NetvarTree@@@2@@std@@@std@@@std@@@std@@@0@U?$integral_constant@_N$0A@@0@@Z$0 10059a90 f   Aimbot.obj
 0001:00058a98       __ehhandler$??$_Uninitialized_move_al_unchecked@PAV?$_List_unchecked_iterator@V?$_List_val@U?$_List_simple_types@U?$pair@$$CBV?$basic_string@DU?$char_traits@D@std@@V?$allocator@D@2@@std@@V?$shared_ptr@UNode@NetvarTree@@@2@@std@@@std@@@std@@@std@@PAV12@V?$allocator@V?$_List_unchecked_iterator@V?$_List_val@U?$_List_simple_types@U?$pair@$$CBV?$basic_string@DU?$char_traits@D@std@@V?$allocator@D@2@@std@@V?$shared_ptr@UNode@NetvarTree@@@2@@std@@@std@@@std@@@std@@@2@@std@@YAPAV?$_List_unchecked_iterator@V?$_List_val@U?$_List_simple_types@U?$pair@$$CBV?$basic_string@DU?$char_traits@D@std@@V?$allocator@D@2@@std@@V?$shared_ptr@UNode@NetvarTree@@@2@@std@@@std@@@std@@@0@PAV10@QAV10@1AAV?$allocator@V?$_List_unchecked_iterator@V?$_List_val@U?$_List_simple_types@U?$pair@$$CBV?$basic_string@DU?$char_traits@D@std@@V?$allocator@D@2@@std@@V?$shared_ptr@UNode@NetvarTree@@@2@@std@@@std@@@std@@@std@@@0@U_General_ptr_iterator_tag@0@U_Unused_parameter@0@@Z 10059a98 f   Aimbot.obj
 0001:00058a98       __ehhandler$??$_Uninit_alloc_fill_n1@PAV?$_List_unchecked_iterator@V?$_List_val@U?$_List_simple_types@U?$pair@$$CBV?$basic_string@DU?$char_traits@D@std@@V?$allocator@D@2@@std@@V?$shared_ptr@UNode@NetvarTree@@@2@@std@@@std@@@std@@@std@@IV?$allocator@V?$_List_unchecked_iterator@V?$_List_val@U?$_List_simple_types@U?$pair@$$CBV?$basic_string@DU?$char_traits@D@std@@V?$allocator@D@2@@std@@V?$shared_ptr@UNode@NetvarTree@@@2@@std@@@std@@@std@@@std@@@2@@std@@YAPAV?$_List_unchecked_iterator@V?$_List_val@U?$_List_simple_types@U?$pair@$$CBV?$basic_string@DU?$char_traits@D@std@@V?$allocator@D@2@@std@@V?$shared_ptr@UNode@NetvarTree@@@2@@std@@@std@@@std@@@0@QAV10@IABV10@AAV?$allocator@V?$_List_unchecked_iterator@V?$_List_val@U?$_List_simple_types@U?$pair@$$CBV?$basic_string@DU?$char_traits@D@std@@V?$allocator@D@2@@std@@V?$shared_ptr@UNode@NetvarTree@@@2@@std@@@std@@@std@@@std@@@0@U?$integral_constant@_N$0A@@0@@Z 10059a98 f   Aimbot.obj
 0001:00058ac0       __unwindfunclet$??0?$_Deque_const_iterator@V?$_Deque_val@U?$_Deque_simple_types@UPlayerRecords@@@std@@@std@@@std@@QAE@IPBU_Container_base12@1@@Z$0 10059ac0 f   Aimbot.obj
 0001:00058ac0       __unwindfunclet$??0?$_Deque_const_iterator@V?$_Deque_val@U?$_Deque_simple_types@ULegitPlayerRecords@@@std@@@std@@@std@@QAE@IPBU_Container_base12@1@@Z$0 10059ac0 f   Legitbot.obj
 0001:00058ac8       __ehhandler$??0?$_Deque_const_iterator@V?$_Deque_val@U?$_Deque_simple_types@ULegitPlayerRecords@@@std@@@std@@@std@@QAE@IPBU_Container_base12@1@@Z 10059ac8 f   Legitbot.obj
 0001:00058ac8       __ehhandler$??0?$_Deque_const_iterator@V?$_Deque_val@U?$_Deque_simple_types@UPlayerRecords@@@std@@@std@@@std@@QAE@IPBU_Container_base12@1@@Z 10059ac8 f   Aimbot.obj
 0001:00058af0       __unwindfunclet$??H?$_Deque_iterator@V?$_Deque_val@U?$_Deque_simple_types@ULegitPlayerRecords@@@std@@@std@@@std@@QBE?AV01@H@Z$0 10059af0 f   Legitbot.obj
 0001:00058af0       __unwindfunclet$??H?$_Deque_iterator@V?$_Deque_val@U?$_Deque_simple_types@UPlayerRecords@@@std@@@std@@@std@@QBE?AV01@H@Z$0 10059af0 f   Aimbot.obj
 0001:00058af8       __ehhandler$??H?$_Deque_iterator@V?$_Deque_val@U?$_Deque_simple_types@ULegitPlayerRecords@@@std@@@std@@@std@@QBE?AV01@H@Z 10059af8 f   Legitbot.obj
 0001:00058af8       __ehhandler$??H?$_Deque_iterator@V?$_Deque_val@U?$_Deque_simple_types@UPlayerRecords@@@std@@@std@@@std@@QBE?AV01@H@Z 10059af8 f   Aimbot.obj
 0001:00058b20       __unwindfunclet$?GetAccuracyPenalty@C_BaseCombatWeapon@@QAEMXZ$0 10059b20 f   Aimbot.obj
 0001:00058b2c       __ehhandler$?GetAccuracyPenalty@C_BaseCombatWeapon@@QAEMXZ 10059b2c f   Aimbot.obj
 0001:00058b50       __unwindfunclet$?GetActiveWeapon@C_BaseEntity@@QAEPAVC_BaseCombatWeapon@@XZ$0 10059b50 f   Aimbot.obj
 0001:00058b5c       __ehhandler$?GetActiveWeapon@C_BaseEntity@@QAEPAVC_BaseCombatWeapon@@XZ 10059b5c f   Aimbot.obj
 0001:00058b80       __unwindfunclet$?GetEyeAngles@C_BaseEntity@@QAE?AVVector@@XZ$0 10059b80 f   Aimbot.obj
 0001:00058b8c       __ehhandler$?GetEyeAngles@C_BaseEntity@@QAE?AVVector@@XZ 10059b8c f   Aimbot.obj
 0001:00058bb0       __unwindfunclet$?GetFlags@C_BaseEntity@@QAE?AW4EntityFlags@@XZ$0 10059bb0 f   Aimbot.obj
 0001:00058bbc       __ehhandler$?GetFlags@C_BaseEntity@@QAE?AW4EntityFlags@@XZ 10059bbc f   Aimbot.obj
 0001:00058be0       __unwindfunclet$?GetHealth@C_BaseEntity@@QAEHXZ$0 10059be0 f   Aimbot.obj
 0001:00058bec       __ehhandler$?GetHealth@C_BaseEntity@@QAEHXZ 10059bec f   Aimbot.obj
 0001:00058c10       __unwindfunclet$?GetLastShotTime@C_BaseCombatWeapon@@QAEMXZ$0 10059c10 f   Aimbot.obj
 0001:00058c1c       __ehhandler$?GetLastShotTime@C_BaseCombatWeapon@@QAEMXZ 10059c1c f   Aimbot.obj
 0001:00058c40       __unwindfunclet$?GetLifeState@C_BaseEntity@@QAE_NXZ$0 10059c40 f   Aimbot.obj
 0001:00058c4c       __ehhandler$?GetLifeState@C_BaseEntity@@QAE_NXZ 10059c4c f   Aimbot.obj
 0001:00058c70       __unwindfunclet$?GetNextPrimaryAttack@C_BaseCombatWeapon@@QAEMXZ$0 10059c70 f   Aimbot.obj
 0001:00058c7c       __ehhandler$?GetNextPrimaryAttack@C_BaseCombatWeapon@@QAEMXZ 10059c7c f   Aimbot.obj
 0001:00058ca0       __unwindfunclet$?GetOffsetRecursive@NetvarTree@@CAHAAV?$unordered_map@V?$basic_string@DU?$char_traits@D@std@@V?$allocator@D@2@@std@@V?$shared_ptr@UNode@NetvarTree@@@2@U?$hash@V?$basic_string@DU?$char_traits@D@std@@V?$allocator@D@2@@std@@@2@U?$equal_to@V?$basic_string@DU?$char_traits@D@std@@V?$allocator@D@2@@std@@@2@V?$allocator@U?$pair@$$CBV?$basic_string@DU?$char_traits@D@std@@V?$allocator@D@2@@std@@V?$shared_ptr@UNode@NetvarTree@@@2@@std@@@2@@std@@HPBD@Z$0 10059ca0 f   Aimbot.obj
 0001:00058ca8       __ehhandler$?GetOffsetRecursive@NetvarTree@@CAHAAV?$unordered_map@V?$basic_string@DU?$char_traits@D@std@@V?$allocator@D@2@@std@@V?$shared_ptr@UNode@NetvarTree@@@2@U?$hash@V?$basic_string@DU?$char_traits@D@std@@V?$allocator@D@2@@std@@@2@U?$equal_to@V?$basic_string@DU?$char_traits@D@std@@V?$allocator@D@2@@std@@@2@V?$allocator@U?$pair@$$CBV?$basic_string@DU?$char_traits@D@std@@V?$allocator@D@2@@std@@V?$shared_ptr@UNode@NetvarTree@@@2@@std@@@2@@std@@HPBD@Z 10059ca8 f   Aimbot.obj
 0001:00058cd0       __unwindfunclet$?GetOrigin@C_BaseEntity@@QAE?AVVector@@XZ$0 10059cd0 f   Aimbot.obj
 0001:00058cdc       __ehhandler$?GetOrigin@C_BaseEntity@@QAE?AVVector@@XZ 10059cdc f   Aimbot.obj
 0001:00058d00       __unwindfunclet$?GetSimulationTime@C_BaseEntity@@QAEMXZ$0 10059d00 f   Aimbot.obj
 0001:00058d0c       __ehhandler$?GetSimulationTime@C_BaseEntity@@QAEMXZ 10059d0c f   Aimbot.obj
 0001:00058d30       __unwindfunclet$?GetTeam@C_BaseEntity@@QAEHXZ$0 10059d30 f   Aimbot.obj
 0001:00058d3c       __ehhandler$?GetTeam@C_BaseEntity@@QAEHXZ 10059d3c f   Aimbot.obj
 0001:00058d60       __unwindfunclet$?GetTickBase@C_BaseEntity@@QAEHXZ$0 10059d60 f   Aimbot.obj
 0001:00058d6c       __ehhandler$?GetTickBase@C_BaseEntity@@QAEHXZ 10059d6c f   Aimbot.obj
 0001:00058d90       __unwindfunclet$?GetVelocity@C_BaseEntity@@QAE?AVVector@@XZ$0 10059d90 f   Aimbot.obj
 0001:00058d9c       __ehhandler$?GetVelocity@C_BaseEntity@@QAE?AVVector@@XZ 10059d9c f   Aimbot.obj
 0001:00058dc0       __unwindfunclet$?Hitscan@Aimbot@@AAE?AVVector@@PAVC_BaseEntity@@@Z$0 10059dc0 f   Aimbot.obj
 0001:00058dcb       __ehhandler$?Hitscan@Aimbot@@AAE?AVVector@@PAVC_BaseEntity@@@Z 10059dcb f   Aimbot.obj
 0001:00058e00       __ehhandler$?_Buynode0@?$_List_alloc@U?$_List_base_types@U?$pair@$$CBV?$basic_string@DU?$char_traits@D@std@@V?$allocator@D@2@@std@@V?$shared_ptr@UNode@NetvarTree@@@2@@std@@V?$allocator@U?$pair@$$CBV?$basic_string@DU?$char_traits@D@std@@V?$allocator@D@2@@std@@V?$shared_ptr@UNode@NetvarTree@@@2@@std@@@2@@std@@@std@@QAEPAU?$_List_node@U?$pair@$$CBV?$basic_string@DU?$char_traits@D@std@@V?$allocator@D@2@@std@@V?$shared_ptr@UNode@NetvarTree@@@2@@std@@PAX@2@PAU32@0@Z 10059e00 f   Aimbot.obj
 0001:00058e20       __ehhandler$?_Equal@?$basic_string@DU?$char_traits@D@std@@V?$allocator@D@2@@std@@QBE_NABV12@@Z 10059e20 f   Aimbot.obj
 0001:00058e40       __ehhandler$?_Reallocate_exactly@?$vector@V?$_List_unchecked_iterator@V?$_List_val@U?$_List_simple_types@U?$pair@$$CBV?$basic_string@DU?$char_traits@D@std@@V?$allocator@D@2@@std@@V?$shared_ptr@UNode@NetvarTree@@@2@@std@@@std@@@std@@@std@@V?$allocator@V?$_List_unchecked_iterator@V?$_List_val@U?$_List_simple_types@U?$pair@$$CBV?$basic_string@DU?$char_traits@D@std@@V?$allocator@D@2@@std@@V?$shared_ptr@UNode@NetvarTree@@@2@@std@@@std@@@std@@@std@@@2@@std@@AAEXI@Z 10059e40 f   Aimbot.obj
 0001:00058e60       __unwindfunclet$?at@?$deque@ULegitPlayerRecords@@V?$allocator@ULegitPlayerRecords@@@std@@@std@@QAEAAULegitPlayerRecords@@I@Z$0 10059e60 f   Legitbot.obj
 0001:00058e60       __unwindfunclet$?at@?$deque@UPlayerRecords@@V?$allocator@UPlayerRecords@@@std@@@std@@QAEAAUPlayerRecords@@I@Z$0 10059e60 f   Aimbot.obj
 0001:00058e68       __unwindfunclet$?at@?$deque@ULegitPlayerRecords@@V?$allocator@ULegitPlayerRecords@@@std@@@std@@QAEAAULegitPlayerRecords@@I@Z$1 10059e68 f   Legitbot.obj
 0001:00058e68       __unwindfunclet$?at@?$deque@UPlayerRecords@@V?$allocator@UPlayerRecords@@@std@@@std@@QAEAAUPlayerRecords@@I@Z$1 10059e68 f   Aimbot.obj
 0001:00058e70       __ehhandler$?at@?$deque@UPlayerRecords@@V?$allocator@UPlayerRecords@@@std@@@std@@QAEAAUPlayerRecords@@I@Z 10059e70 f   Aimbot.obj
 0001:00058e70       __ehhandler$?at@?$deque@ULegitPlayerRecords@@V?$allocator@ULegitPlayerRecords@@@std@@@std@@QAEAAULegitPlayerRecords@@I@Z 10059e70 f   Legitbot.obj
 0001:00058e90       __unwindfunclet$?ArmorValue@C_BaseEntity@@QAEHXZ$0 10059e90 f   Autowall.obj
 0001:00058e9c       __ehhandler$?ArmorValue@C_BaseEntity@@QAEHXZ 10059e9c f   Autowall.obj
 0001:00058ec0       __unwindfunclet$?HasHelmet@C_BaseEntity@@QAE_NXZ$0 10059ec0 f   Autowall.obj
 0001:00058ecc       __ehhandler$?HasHelmet@C_BaseEntity@@QAE_NXZ 10059ecc f   Autowall.obj
 0001:00058ef0       __unwindfunclet$?TraceToExitalt@@YA_NAAVVector@@AAUC_Trace@@V1@2PAU2@@Z$0 10059ef0 f   Autowall.obj
 0001:00058efc       __ehhandler$?TraceToExitalt@@YA_NAAVVector@@AAUC_Trace@@V1@2PAU2@@Z 10059efc f   Autowall.obj
 0001:00058f20       __unwindfunclet$?UTIL_ClipTraceToPlayers@@YAXABVVector@@0IPAVITraceFilter@@PAUC_Trace@@@Z$0 10059f20 f   Autowall.obj
 0001:00058f2c       __ehhandler$?UTIL_ClipTraceToPlayers@@YAXABVVector@@0IPAVITraceFilter@@PAUC_Trace@@@Z 10059f2c f   Autowall.obj
 0001:00058f50       __unwindfunclet$?SetCurrentCommand@C_BaseEntity@@QAEXPAVCUserCmd@@@Z$0 10059f50 f   EnginePrediction.obj
 0001:00058f5c       __ehhandler$?SetCurrentCommand@C_BaseEntity@@QAEXPAVCUserCmd@@@Z 10059f5c f   EnginePrediction.obj
 0001:00058f80       __unwindfunclet$??$move@V?$_Deque_iterator@V?$_Deque_val@U?$_Deque_simple_types@UPlayerRecords@@@std@@@std@@@std@@V12@@std@@YA?AV?$_Deque_iterator@V?$_Deque_val@U?$_Deque_simple_types@UPlayerRecords@@@std@@@std@@@0@V10@00@Z$0 10059f80 f   LagComp.obj
 0001:00058f80       __unwindfunclet$??$move_backward@V?$_Deque_iterator@V?$_Deque_val@U?$_Deque_simple_types@ULegitPlayerRecords@@@std@@@std@@@std@@V12@@std@@YA?AV?$_Deque_iterator@V?$_Deque_val@U?$_Deque_simple_types@ULegitPlayerRecords@@@std@@@std@@@0@V10@00@Z$0 10059f80 f   Legitbot.obj
 0001:00058f80       __unwindfunclet$??$move_backward@V?$_Deque_iterator@V?$_Deque_val@U?$_Deque_simple_types@UPlayerRecords@@@std@@@std@@@std@@V12@@std@@YA?AV?$_Deque_iterator@V?$_Deque_val@U?$_Deque_simple_types@UPlayerRecords@@@std@@@std@@@0@V10@00@Z$0 10059f80 f   LagComp.obj
 0001:00058f80       __unwindfunclet$??$move@V?$_Deque_iterator@V?$_Deque_val@U?$_Deque_simple_types@ULegitPlayerRecords@@@std@@@std@@@std@@V12@@std@@YA?AV?$_Deque_iterator@V?$_Deque_val@U?$_Deque_simple_types@ULegitPlayerRecords@@@std@@@std@@@0@V10@00@Z$0 10059f80 f   Legitbot.obj
 0001:00058f88       __unwindfunclet$??$move_backward@V?$_Deque_iterator@V?$_Deque_val@U?$_Deque_simple_types@UPlayerRecords@@@std@@@std@@@std@@V12@@std@@YA?AV?$_Deque_iterator@V?$_Deque_val@U?$_Deque_simple_types@UPlayerRecords@@@std@@@std@@@0@V10@00@Z$1 10059f88 f   LagComp.obj
 0001:00058f88       __unwindfunclet$??$move_backward@V?$_Deque_iterator@V?$_Deque_val@U?$_Deque_simple_types@ULegitPlayerRecords@@@std@@@std@@@std@@V12@@std@@YA?AV?$_Deque_iterator@V?$_Deque_val@U?$_Deque_simple_types@ULegitPlayerRecords@@@std@@@std@@@0@V10@00@Z$1 10059f88 f   Legitbot.obj
 0001:00058f88       __unwindfunclet$??$move@V?$_Deque_iterator@V?$_Deque_val@U?$_Deque_simple_types@ULegitPlayerRecords@@@std@@@std@@@std@@V12@@std@@YA?AV?$_Deque_iterator@V?$_Deque_val@U?$_Deque_simple_types@ULegitPlayerRecords@@@std@@@std@@@0@V10@00@Z$1 10059f88 f   Legitbot.obj
 0001:00058f88       __unwindfunclet$??$move@V?$_Deque_iterator@V?$_Deque_val@U?$_Deque_simple_types@UPlayerRecords@@@std@@@std@@@std@@V12@@std@@YA?AV?$_Deque_iterator@V?$_Deque_val@U?$_Deque_simple_types@UPlayerRecords@@@std@@@std@@@0@V10@00@Z$1 10059f88 f   LagComp.obj
 0001:00058f90       __unwindfunclet$??$move@V?$_Deque_iterator@V?$_Deque_val@U?$_Deque_simple_types@UPlayerRecords@@@std@@@std@@@std@@V12@@std@@YA?AV?$_Deque_iterator@V?$_Deque_val@U?$_Deque_simple_types@UPlayerRecords@@@std@@@std@@@0@V10@00@Z$2 10059f90 f   LagComp.obj
 0001:00058f90       __unwindfunclet$??$move@V?$_Deque_iterator@V?$_Deque_val@U?$_Deque_simple_types@ULegitPlayerRecords@@@std@@@std@@@std@@V12@@std@@YA?AV?$_Deque_iterator@V?$_Deque_val@U?$_Deque_simple_types@ULegitPlayerRecords@@@std@@@std@@@0@V10@00@Z$2 10059f90 f   Legitbot.obj
 0001:00058f90       __unwindfunclet$??$move_backward@V?$_Deque_iterator@V?$_Deque_val@U?$_Deque_simple_types@UPlayerRecords@@@std@@@std@@@std@@V12@@std@@YA?AV?$_Deque_iterator@V?$_Deque_val@U?$_Deque_simple_types@UPlayerRecords@@@std@@@std@@@0@V10@00@Z$2 10059f90 f   LagComp.obj
 0001:00058f90       __unwindfunclet$??$move_backward@V?$_Deque_iterator@V?$_Deque_val@U?$_Deque_simple_types@ULegitPlayerRecords@@@std@@@std@@@std@@V12@@std@@YA?AV?$_Deque_iterator@V?$_Deque_val@U?$_Deque_simple_types@ULegitPlayerRecords@@@std@@@std@@@0@V10@00@Z$2 10059f90 f   Legitbot.obj
 0001:00058f98       __ehhandler$??$move_backward@V?$_Deque_iterator@V?$_Deque_val@U?$_Deque_simple_types@ULegitPlayerRecords@@@std@@@std@@@std@@V12@@std@@YA?AV?$_Deque_iterator@V?$_Deque_val@U?$_Deque_simple_types@ULegitPlayerRecords@@@std@@@std@@@0@V10@00@Z 10059f98 f   Legitbot.obj
 0001:00058f98       __ehhandler$??$move_backward@V?$_Deque_iterator@V?$_Deque_val@U?$_Deque_simple_types@UPlayerRecords@@@std@@@std@@@std@@V12@@std@@YA?AV?$_Deque_iterator@V?$_Deque_val@U?$_Deque_simple_types@UPlayerRecords@@@std@@@std@@@0@V10@00@Z 10059f98 f   LagComp.obj
 0001:00058f98       __ehhandler$??$move@V?$_Deque_iterator@V?$_Deque_val@U?$_Deque_simple_types@UPlayerRecords@@@std@@@std@@@std@@V12@@std@@YA?AV?$_Deque_iterator@V?$_Deque_val@U?$_Deque_simple_types@UPlayerRecords@@@std@@@std@@@0@V10@00@Z 10059f98 f   LagComp.obj
 0001:00058f98       __ehhandler$??$move@V?$_Deque_iterator@V?$_Deque_val@U?$_Deque_simple_types@ULegitPlayerRecords@@@std@@@std@@@std@@V12@@std@@YA?AV?$_Deque_iterator@V?$_Deque_val@U?$_Deque_simple_types@ULegitPlayerRecords@@@std@@@std@@@0@V10@00@Z 10059f98 f   Legitbot.obj
 0001:00058fc0       __unwindfunclet$??H?$_Deque_const_iterator@V?$_Deque_val@U?$_Deque_simple_types@UPlayerRecords@@@std@@@std@@@std@@QBE?AV01@H@Z$0 10059fc0 f   LagComp.obj
 0001:00058fc0       __unwindfunclet$??H?$_Deque_const_iterator@V?$_Deque_val@U?$_Deque_simple_types@ULegitPlayerRecords@@@std@@@std@@@std@@QBE?AV01@H@Z$0 10059fc0 f   Legitbot.obj
 0001:00058fc8       __ehhandler$??H?$_Deque_const_iterator@V?$_Deque_val@U?$_Deque_simple_types@UPlayerRecords@@@std@@@std@@@std@@QBE?AV01@H@Z 10059fc8 f   LagComp.obj
 0001:00058fc8       __ehhandler$??H?$_Deque_const_iterator@V?$_Deque_val@U?$_Deque_simple_types@ULegitPlayerRecords@@@std@@@std@@@std@@QBE?AV01@H@Z 10059fc8 f   Legitbot.obj
 0001:00058ff0       __unwindfunclet$?ClearRecords@LagComp@@QAEXH@Z$0 10059ff0 f   LagComp.obj
 0001:00058ff8       __unwindfunclet$?ClearRecords@LagComp@@QAEXH@Z$1 10059ff8 f   LagComp.obj
 0001:00059000       __ehhandler$?ClearRecords@LagComp@@QAEXH@Z 1005a000 f   LagComp.obj
 0001:00059020       __unwindfunclet$?StoreRecord@LagComp@@QAEXPAVC_BaseEntity@@@Z$0 1005a020 f   LagComp.obj
 0001:0005902b       __unwindfunclet$?StoreRecord@LagComp@@QAEXPAVC_BaseEntity@@@Z$1 1005a02b f   LagComp.obj
 0001:00059036       __ehhandler$?StoreRecord@LagComp@@QAEXPAVC_BaseEntity@@@Z 1005a036 f   LagComp.obj
 0001:00059060       __unwindfunclet$?_Make_iter@?$deque@ULegitPlayerRecords@@V?$allocator@ULegitPlayerRecords@@@std@@@std@@QBE?AV?$_Deque_iterator@V?$_Deque_val@U?$_Deque_simple_types@ULegitPlayerRecords@@@std@@@std@@@2@V?$_Deque_const_iterator@V?$_Deque_val@U?$_Deque_simple_types@ULegitPlayerRecords@@@std@@@std@@@2@@Z$0 1005a060 f   Legitbot.obj
 0001:00059060       __unwindfunclet$?_Make_iter@?$deque@UPlayerRecords@@V?$allocator@UPlayerRecords@@@std@@@std@@QBE?AV?$_Deque_iterator@V?$_Deque_val@U?$_Deque_simple_types@UPlayerRecords@@@std@@@std@@@2@V?$_Deque_const_iterator@V?$_Deque_val@U?$_Deque_simple_types@UPlayerRecords@@@std@@@std@@@2@@Z$0 1005a060 f   LagComp.obj
 0001:00059068       __ehhandler$?_Make_iter@?$deque@ULegitPlayerRecords@@V?$allocator@ULegitPlayerRecords@@@std@@@std@@QBE?AV?$_Deque_iterator@V?$_Deque_val@U?$_Deque_simple_types@ULegitPlayerRecords@@@std@@@std@@@2@V?$_Deque_const_iterator@V?$_Deque_val@U?$_Deque_simple_types@ULegitPlayerRecords@@@std@@@std@@@2@@Z 1005a068 f   Legitbot.obj
 0001:00059068       __ehhandler$?_Make_iter@?$deque@UPlayerRecords@@V?$allocator@UPlayerRecords@@@std@@@std@@QBE?AV?$_Deque_iterator@V?$_Deque_val@U?$_Deque_simple_types@UPlayerRecords@@@std@@@std@@@2@V?$_Deque_const_iterator@V?$_Deque_val@U?$_Deque_simple_types@UPlayerRecords@@@std@@@std@@@2@@Z 1005a068 f   LagComp.obj
 0001:00059090       __unwindfunclet$?erase@?$deque@ULegitPlayerRecords@@V?$allocator@ULegitPlayerRecords@@@std@@@std@@QAE?AV?$_Deque_iterator@V?$_Deque_val@U?$_Deque_simple_types@ULegitPlayerRecords@@@std@@@std@@@2@V?$_Deque_const_iterator@V?$_Deque_val@U?$_Deque_simple_types@ULegitPlayerRecords@@@std@@@std@@@2@0@Z$0 1005a090 f   Legitbot.obj
 0001:00059090       __unwindfunclet$?erase@?$deque@UPlayerRecords@@V?$allocator@UPlayerRecords@@@std@@@std@@QAE?AV?$_Deque_iterator@V?$_Deque_val@U?$_Deque_simple_types@UPlayerRecords@@@std@@@std@@@2@V?$_Deque_const_iterator@V?$_Deque_val@U?$_Deque_simple_types@UPlayerRecords@@@std@@@std@@@2@0@Z$0 1005a090 f   LagComp.obj
 0001:00059098       __unwindfunclet$?erase@?$deque@ULegitPlayerRecords@@V?$allocator@ULegitPlayerRecords@@@std@@@std@@QAE?AV?$_Deque_iterator@V?$_Deque_val@U?$_Deque_simple_types@ULegitPlayerRecords@@@std@@@std@@@2@V?$_Deque_const_iterator@V?$_Deque_val@U?$_Deque_simple_types@ULegitPlayerRecords@@@std@@@std@@@2@0@Z$1 1005a098 f   Legitbot.obj
 0001:00059098       __unwindfunclet$?erase@?$deque@UPlayerRecords@@V?$allocator@UPlayerRecords@@@std@@@std@@QAE?AV?$_Deque_iterator@V?$_Deque_val@U?$_Deque_simple_types@UPlayerRecords@@@std@@@std@@@2@V?$_Deque_const_iterator@V?$_Deque_val@U?$_Deque_simple_types@UPlayerRecords@@@std@@@std@@@2@0@Z$1 1005a098 f   LagComp.obj
 0001:000590a0       __unwindfunclet$?erase@?$deque@ULegitPlayerRecords@@V?$allocator@ULegitPlayerRecords@@@std@@@std@@QAE?AV?$_Deque_iterator@V?$_Deque_val@U?$_Deque_simple_types@ULegitPlayerRecords@@@std@@@std@@@2@V?$_Deque_const_iterator@V?$_Deque_val@U?$_Deque_simple_types@ULegitPlayerRecords@@@std@@@std@@@2@0@Z$3 1005a0a0 f   Legitbot.obj
 0001:000590a0       __unwindfunclet$?erase@?$deque@UPlayerRecords@@V?$allocator@UPlayerRecords@@@std@@@std@@QAE?AV?$_Deque_iterator@V?$_Deque_val@U?$_Deque_simple_types@UPlayerRecords@@@std@@@std@@@2@V?$_Deque_const_iterator@V?$_Deque_val@U?$_Deque_simple_types@UPlayerRecords@@@std@@@std@@@2@0@Z$3 1005a0a0 f   LagComp.obj
 0001:000590a8       __unwindfunclet$?erase@?$deque@ULegitPlayerRecords@@V?$allocator@ULegitPlayerRecords@@@std@@@std@@QAE?AV?$_Deque_iterator@V?$_Deque_val@U?$_Deque_simple_types@ULegitPlayerRecords@@@std@@@std@@@2@V?$_Deque_const_iterator@V?$_Deque_val@U?$_Deque_simple_types@ULegitPlayerRecords@@@std@@@std@@@2@0@Z$5 1005a0a8 f   Legitbot.obj
 0001:000590a8       __unwindfunclet$?erase@?$deque@UPlayerRecords@@V?$allocator@UPlayerRecords@@@std@@@std@@QAE?AV?$_Deque_iterator@V?$_Deque_val@U?$_Deque_simple_types@UPlayerRecords@@@std@@@std@@@2@V?$_Deque_const_iterator@V?$_Deque_val@U?$_Deque_simple_types@UPlayerRecords@@@std@@@std@@@2@0@Z$5 1005a0a8 f   LagComp.obj
