 hvh

 Timestamp is 5eb695fc (Sat May  9 14:37:32 2020)

 Preferred load address is 10000000

 Start         Length     Name                   Class
 0001:00000000 000008a0H .text$di                CODE
 0001:000008a0 00064dd0H .text$mn                CODE
 0001:00065670 00001fc0H .text$x                 CODE
 0001:00067630 00000099H .text$yd                CODE
 0002:00000000 0000036cH .idata$5                DATA
 0002:0000036c 00000004H .00cfg                  DATA
 0002:00000370 00000004H .CRT$XCA                DATA
 0002:00000374 00000004H .CRT$XCL                DATA
 0002:00000378 000000e0H .CRT$XCU                DATA
 0002:00000458 00000004H .CRT$XCZ                DATA
 0002:0000045c 00000004H .CRT$XIA                DATA
 0002:00000460 00000004H .CRT$XIC                DATA
 0002:00000464 00000004H .CRT$XIZ                DATA
 0002:00000468 00000004H .CRT$XLA                DATA
 0002:0000046c 00000004H .CRT$XLZ                DATA
 0002:00000470 00000004H .CRT$XPA                DATA
 0002:00000474 00000004H .CRT$XPZ                DATA
 0002:00000478 00000004H .CRT$XTA                DATA
 0002:0000047c 00000004H .CRT$XTZ                DATA
 0002:00000480 00000000H .gfids$y                DATA
 0002:00000480 00009b78H .rdata                  DATA
 0002:00009ff8 00000018H .rdata$T                DATA
 0002:0000a010 00000850H .rdata$r                DATA
 0002:0000a860 00000260H .rdata$sxdata           DATA
 0002:0000aac0 00000390H .rdata$zzzdbg           DATA
 0002:0000ae50 00000004H .rtc$IAA                DATA
 0002:0000ae54 00000004H .rtc$IZZ                DATA
 0002:0000ae58 00000004H .rtc$TAA                DATA
 0002:0000ae5c 00000004H .rtc$TZZ                DATA
 0002:0000ae60 00000004H .tls                    DATA
 0002:0000ae64 00000004H .tls$                   DATA
 0002:0000ae68 00000008H .tls$ZZZ                DATA
 0002:0000ae70 00001fc0H .xdata$x                DATA
 0002:0000ce30 00000000H .edata                  DATA
 0002:0000ce30 00000140H .idata$2                DATA
 0002:0000cf70 00000014H .idata$3                DATA
 0002:0000cf84 0000036cH .idata$4                DATA
 0002:0000d2f0 00001934H .idata$6                DATA
 0003:00000000 00000078H .data                   DATA
 0003:00000078 00000488H .data$r                 DATA
 0003:00000500 0007036cH .bss                    DATA
 0004:00000000 00000060H .rsrc$01                DATA
 0004:00000060 00000180H .rsrc$02                DATA

  Address         Publics by Value              Rva+Base       Lib:Object

 0000:00000000       ___guard_fids_table        00000000     <absolute>
 0000:00000000       ___guard_iat_table         00000000     <absolute>
 0000:00000000       ___hybrid_code_map_count   00000000     <absolute>
 0000:00000000       ___guard_longjmp_table     00000000     <absolute>
 0000:00000000       ___guard_fids_count        00000000     <absolute>
 0000:00000000       ___guard_iat_count         00000000     <absolute>
 0000:00000000       ___hybrid_code_map         00000000     <absolute>
 0000:00000000       ___dynamic_value_reloc_table 00000000     <absolute>
 0000:00000000       ___guard_longjmp_count     00000000     <absolute>
 0000:00000000       ___enclave_config          00000000     <absolute>
 0000:00000000       ___hybrid_auxiliary_iat    00000000     <absolute>
 0000:00000000       ___volatile_metadata       00000000     <absolute>
 0000:0000002c       __tls_array                0000002c     <absolute>
 0000:00000098       ___safe_se_handler_count   00000098     <absolute>
 0000:00000100       ___guard_flags             00000100     <absolute>
 0000:00000000       ___ImageBase               10000000     <linker-defined>
 0001:000008a0       ??$?0$$QAV?$basic_string@DU?$char_traits@D@std@@V?$allocator@D@2@@std@@$$Z$$V@?$pair@$$CBV?$basic_string@DU?$char_traits@D@std@@V?$allocator@D@2@@std@@V?$shared_ptr@UNode@NetvarTree@@@2@@std@@QAE@Upiecewise_construct_t@1@V?$tuple@$$QAV?$basic_string@DU?$char_traits@D@std@@V?$allocator@D@2@@std@@@1@V?$tuple@$$V@1@@Z 100018a0 f i animation_system.obj
 0001:000008d0       ??$?0$$V@?$_Compressed_pair@V?$allocator@D@std@@V?$_String_val@U?$_Simple_types@D@std@@@2@$00@std@@QAE@U_Zero_then_variadic_args_t@1@@Z 100018d0 f i animation_system.obj
 0001:000008d0       ??$?0$$V@?$_Compressed_pair@V?$allocator@_W@std@@V?$_String_val@U?$_Simple_types@_W@std@@@2@$00@std@@QAE@U_Zero_then_variadic_args_t@1@@Z 100018d0 f i config_system.obj
 0001:000008f0       ??$?0$$V@?$_Compressed_pair@V?$allocator@H@std@@V?$_Vector_val@U?$_Simple_types@H@std@@@2@$00@std@@QAE@U_Zero_then_variadic_args_t@1@@Z 100018f0 f i animation_system.obj
 0001:000008f0       ??$?0$$V@?$_Compressed_pair@V?$allocator@V?$basic_string@DU?$char_traits@D@std@@V?$allocator@D@2@@std@@@std@@V?$_Vector_val@U?$_Simple_types@V?$basic_string@DU?$char_traits@D@std@@V?$allocator@D@2@@std@@@std@@@2@$00@std@@QAE@U_Zero_then_variadic_args_t@1@@Z 100018f0 f i config_system.obj
 0001:00000910       ??$?0AAV?$_List_iterator@V?$_List_val@U?$_List_simple_types@U?$pair@$$CBV?$basic_string@DU?$char_traits@D@std@@V?$allocator@D@2@@std@@V?$shared_ptr@UNode@NetvarTree@@@2@@std@@@std@@@std@@@std@@_N$0A@@?$pair@V?$_List_iterator@V?$_List_val@U?$_List_simple_types@U?$pair@$$CBV?$basic_string@DU?$char_traits@D@std@@V?$allocator@D@2@@std@@V?$shared_ptr@UNode@NetvarTree@@@2@@std@@@std@@@std@@@std@@_N@std@@QAE@AAV?$_List_iterator@V?$_List_val@U?$_List_simple_types@U?$pair@$$CBV?$basic_string@DU?$char_traits@D@std@@V?$allocator@D@2@@std@@V?$shared_ptr@UNode@NetvarTree@@@2@@std@@@std@@@std@@@1@$$QA_N@Z 10001910 f i animation_system.obj
 0001:00000910       ??$?0V?$_List_iterator@V?$_List_val@U?$_List_simple_types@U?$pair@$$CBV?$basic_string@DU?$char_traits@D@std@@V?$allocator@D@2@@std@@V?$shared_ptr@UNode@NetvarTree@@@2@@std@@@std@@@std@@@std@@_N$0A@@?$pair@V?$_List_iterator@V?$_List_val@U?$_List_simple_types@U?$pair@$$CBV?$basic_string@DU?$char_traits@D@std@@V?$allocator@D@2@@std@@V?$shared_ptr@UNode@NetvarTree@@@2@@std@@@std@@@std@@@std@@_N@std@@QAE@$$QAV?$_List_iterator@V?$_List_val@U?$_List_simple_types@U?$pair@$$CBV?$basic_string@DU?$char_traits@D@std@@V?$allocator@D@2@@std@@V?$shared_ptr@UNode@NetvarTree@@@2@@std@@@std@@@std@@@1@$$QA_N@Z 10001910 f i animation_system.obj
 0001:00000950       ??$?0U?$pair@$$CBV?$basic_string@DU?$char_traits@D@std@@V?$allocator@D@2@@std@@V?$shared_ptr@UNode@NetvarTree@@@2@@std@@@?$allocator@V?$_List_unchecked_iterator@V?$_List_val@U?$_List_simple_types@U?$pair@$$CBV?$basic_string@DU?$char_traits@D@std@@V?$allocator@D@2@@std@@V?$shared_ptr@UNode@NetvarTree@@@2@@std@@@std@@@std@@@std@@@std@@QAE@ABV?$allocator@U?$pair@$$CBV?$basic_string@DU?$char_traits@D@std@@V?$allocator@D@2@@std@@V?$shared_ptr@UNode@NetvarTree@@@2@@std@@@1@@Z 10001950 f i NetvarManager.obj
 0001:00000950       ??$?0UPlayerRecords@@@?$allocator@U_Container_proxy@std@@@std@@QAE@ABV?$allocator@UPlayerRecords@@@1@@Z 10001950 f i LagComp.obj
 0001:00000950       ??0?$tuple@$$V@std@@QAE@ABV01@@Z 10001950 f i animation_system.obj
 0001:00000950       ??$?0U?$integral_constant@_N$00@std@@@_Unused_parameter@std@@QAE@$$QAU?$integral_constant@_N$00@1@@Z 10001950 f i animation_system.obj
 0001:00000950       ??$?0ULegitPlayerRecords@@@?$allocator@PAULegitPlayerRecords@@@std@@QAE@ABV?$allocator@ULegitPlayerRecords@@@1@@Z 10001950 f i Legitbot.obj
 0001:00000950       ??$?0ULegitPlayerRecords@@@?$allocator@U_Container_proxy@std@@@std@@QAE@ABV?$allocator@ULegitPlayerRecords@@@1@@Z 10001950 f i Legitbot.obj
 0001:00000950       ??$?0U_Exact_args_t@std@@$0A@@?$tuple@$$V@std@@QAE@U_Exact_args_t@1@@Z 10001950 f i animation_system.obj
 0001:00000950       ??$?0U?$pair@$$CBV?$basic_string@DU?$char_traits@D@std@@V?$allocator@D@2@@std@@V?$shared_ptr@UNode@NetvarTree@@@2@@std@@@?$allocator@U?$_List_node@U?$pair@$$CBV?$basic_string@DU?$char_traits@D@std@@V?$allocator@D@2@@std@@V?$shared_ptr@UNode@NetvarTree@@@2@@std@@PAX@std@@@std@@QAE@ABV?$allocator@U?$pair@$$CBV?$basic_string@DU?$char_traits@D@std@@V?$allocator@D@2@@std@@V?$shared_ptr@UNode@NetvarTree@@@2@@std@@@1@@Z 10001950 f i NetvarManager.obj
 0001:00000950       ??$?0UPlayerRecords@@@?$allocator@PAUPlayerRecords@@@std@@QAE@ABV?$allocator@UPlayerRecords@@@1@@Z 10001950 f i LagComp.obj
 0001:00000960       ??$?0U_Exact_args_t@std@@V?$basic_string@DU?$char_traits@D@std@@V?$allocator@D@2@@1@$$V$0A@@?$tuple@$$QAV?$basic_string@DU?$char_traits@D@std@@V?$allocator@D@2@@std@@@std@@QAE@U_Exact_args_t@1@$$QAV?$basic_string@DU?$char_traits@D@std@@V?$allocator@D@2@@1@@Z 10001960 f i animation_system.obj
 0001:000009a0       ??$?0ABV?$allocator@D@std@@$$V@?$_Compressed_pair@V?$allocator@D@std@@V?$_String_val@U?$_Simple_types@D@std@@@2@$00@std@@QAE@U_One_then_variadic_args_t@1@ABV?$allocator@D@1@@Z 100019a0 f i c_esp.obj
 0001:000009a0       ??$?0ABV?$allocator@_W@std@@$$V@?$_Compressed_pair@V?$allocator@_W@std@@V?$_String_val@U?$_Simple_types@_W@std@@@2@$00@std@@QAE@U_One_then_variadic_args_t@1@ABV?$allocator@_W@1@@Z 100019a0 f i config_system.obj
 0001:000009a0       ??$?0V?$allocator@_W@std@@$$V@?$_Compressed_pair@V?$allocator@_W@std@@V?$_String_val@U?$_Simple_types@_W@std@@@2@$00@std@@QAE@U_One_then_variadic_args_t@1@$$QAV?$allocator@_W@1@@Z 100019a0 f i config_system.obj
 0001:000009a0       ??$?0V?$allocator@D@std@@$$V@?$_Compressed_pair@V?$allocator@D@std@@V?$_String_val@U?$_Simple_types@D@std@@@2@$00@std@@QAE@U_One_then_variadic_args_t@1@$$QAV?$allocator@D@1@@Z 100019a0 f i animation_system.obj
 0001:000009d0       ??$?0ABV?$allocator@_W@std@@X@?$_String_alloc@U?$_String_base_types@_WV?$allocator@_W@std@@@std@@@std@@QAE@ABV?$allocator@_W@1@@Z 100019d0 f i config_system.obj
 0001:000009d0       ??$?0V?$allocator@_W@std@@X@?$_String_alloc@U?$_String_base_types@_WV?$allocator@_W@std@@@std@@@std@@QAE@$$QAV?$allocator@_W@1@@Z 100019d0 f i config_system.obj
 0001:000009d0       ??$?0V?$allocator@D@std@@X@?$_String_alloc@U?$_String_base_types@DV?$allocator@D@std@@@std@@@std@@QAE@$$QAV?$allocator@D@1@@Z 100019d0 f i animation_system.obj
 0001:000009d0       ??$?0ABV?$allocator@D@std@@X@?$_String_alloc@U?$_String_base_types@DV?$allocator@D@std@@@std@@@std@@QAE@ABV?$allocator@D@1@@Z 100019d0 f i c_esp.obj
 0001:00000a10       ??$?0ABV?$allocator@V?$_List_unchecked_iterator@V?$_List_val@U?$_List_simple_types@U?$pair@$$CBV?$basic_string@DU?$char_traits@D@std@@V?$allocator@D@2@@std@@V?$shared_ptr@UNode@NetvarTree@@@2@@std@@@std@@@std@@@std@@@std@@$$V@?$_Compressed_pair@V?$allocator@V?$_List_unchecked_iterator@V?$_List_val@U?$_List_simple_types@U?$pair@$$CBV?$basic_string@DU?$char_traits@D@std@@V?$allocator@D@2@@std@@V?$shared_ptr@UNode@NetvarTree@@@2@@std@@@std@@@std@@@std@@@std@@V?$_Vector_val@U?$_Simple_types@V?$_List_unchecked_iterator@V?$_List_val@U?$_List_simple_types@U?$pair@$$CBV?$basic_string@DU?$char_traits@D@std@@V?$allocator@D@2@@std@@V?$shared_ptr@UNode@NetvarTree@@@2@@std@@@std@@@std@@@std@@@std@@@2@$00@std@@QAE@U_One_then_variadic_args_t@1@ABV?$allocator@V?$_List_unchecked_iterator@V?$_List_val@U?$_List_simple_types@U?$pair@$$CBV?$basic_string@DU?$char_traits@D@std@@V?$allocator@D@2@@std@@V?$shared_ptr@UNode@NetvarTree@@@2@@std@@@std@@@std@@@std@@@1@@Z 10001a10 f i NetvarManager.obj
 0001:00000a10       ??$?0V?$allocator@H@std@@$$V@?$_Compressed_pair@V?$allocator@H@std@@V?$_Vector_val@U?$_Simple_types@H@std@@@2@$00@std@@QAE@U_One_then_variadic_args_t@1@$$QAV?$allocator@H@1@@Z 10001a10 f i animation_system.obj
 0001:00000a40       ??$?0ABV?$allocator@V?$_List_unchecked_iterator@V?$_List_val@U?$_List_simple_types@U?$pair@$$CBV?$basic_string@DU?$char_traits@D@std@@V?$allocator@D@2@@std@@V?$shared_ptr@UNode@NetvarTree@@@2@@std@@@std@@@std@@@std@@@std@@X@?$_Vector_alloc@U?$_Vec_base_types@V?$_List_unchecked_iterator@V?$_List_val@U?$_List_simple_types@U?$pair@$$CBV?$basic_string@DU?$char_traits@D@std@@V?$allocator@D@2@@std@@V?$shared_ptr@UNode@NetvarTree@@@2@@std@@@std@@@std@@@std@@V?$allocator@V?$_List_unchecked_iterator@V?$_List_val@U?$_List_simple_types@U?$pair@$$CBV?$basic_string@DU?$char_traits@D@std@@V?$allocator@D@2@@std@@V?$shared_ptr@UNode@NetvarTree@@@2@@std@@@std@@@std@@@std@@@2@@std@@@std@@QAE@ABV?$allocator@V?$_List_unchecked_iterator@V?$_List_val@U?$_List_simple_types@U?$pair@$$CBV?$basic_string@DU?$char_traits@D@std@@V?$allocator@D@2@@std@@V?$shared_ptr@UNode@NetvarTree@@@2@@std@@@std@@@std@@@std@@@1@@Z 10001a40 f i NetvarManager.obj
 0001:00000a40       ??$?0V?$allocator@H@std@@X@?$_Vector_alloc@U?$_Vec_base_types@HV?$allocator@H@std@@@std@@@std@@QAE@$$QAV?$allocator@H@1@@Z 10001a40 f i animation_system.obj
 0001:00000a80       ??$?0V?$basic_string@DU?$char_traits@D@std@@V?$allocator@D@2@@std@@$$V$0A@@?$tuple@$$QAV?$basic_string@DU?$char_traits@D@std@@V?$allocator@D@2@@std@@@std@@QAE@$$QAV?$basic_string@DU?$char_traits@D@std@@V?$allocator@D@2@@1@@Z 10001a80 f i animation_system.obj
 0001:00000af0       ??0?$back_insert_iterator@V?$vector@V?$basic_string@DU?$char_traits@D@std@@V?$allocator@D@2@@std@@V?$allocator@V?$basic_string@DU?$char_traits@D@std@@V?$allocator@D@2@@std@@@2@@std@@@std@@QAE@AAV?$vector@V?$basic_string@DU?$char_traits@D@std@@V?$allocator@D@2@@std@@V?$allocator@V?$basic_string@DU?$char_traits@D@std@@V?$allocator@D@2@@std@@@2@@1@@Z 10001af0 f i config_system.obj
 0001:00000af0       ??$?0V?$basic_string@DU?$char_traits@D@std@@V?$allocator@D@2@@std@@@?$_Tuple_val@$$QAV?$basic_string@DU?$char_traits@D@std@@V?$allocator@D@2@@std@@@std@@QAE@$$QAV?$basic_string@DU?$char_traits@D@std@@V?$allocator@D@2@@1@@Z 10001af0 f i animation_system.obj
 0001:00000b20       ??$?0V?$tuple@$$QAV?$basic_string@DU?$char_traits@D@std@@V?$allocator@D@2@@std@@@std@@V?$tuple@$$V@1@$0A@$$Z$S@?$pair@$$CBV?$basic_string@DU?$char_traits@D@std@@V?$allocator@D@2@@std@@V?$shared_ptr@UNode@NetvarTree@@@2@@std@@QAE@AAV?$tuple@$$QAV?$basic_string@DU?$char_traits@D@std@@V?$allocator@D@2@@std@@@1@AAV?$tuple@$$V@1@U?$integer_sequence@I$0A@@1@U?$integer_sequence@I$S@1@@Z 10001b20 f i animation_system.obj
 0001:00000b70       ??$?8DU?$char_traits@D@std@@V?$allocator@D@1@@std@@YA_NABV?$basic_string@DU?$char_traits@D@std@@V?$allocator@D@2@@0@0@Z 10001b70 f i animation_system.obj
 0001:00000b90       ??$?CU_Dir_enum_impl@filesystem@std@@$0A@@?$shared_ptr@U_Dir_enum_impl@filesystem@std@@@std@@QBEPAU_Dir_enum_impl@filesystem@1@XZ 10001b90 f i config_system.obj
 0001:00000b90       ??$?DU_Dir_enum_impl@filesystem@std@@$0A@@?$shared_ptr@U_Dir_enum_impl@filesystem@std@@@std@@QBEAAU_Dir_enum_impl@filesystem@1@XZ 10001b90 f i config_system.obj
 0001:00000b90       ??D?$_String_iterator@V?$_String_val@U?$_Simple_types@D@std@@@std@@@std@@QBEAADXZ 10001b90 f i config_system.obj
 0001:00000b90       ??$?CUNode@NetvarTree@@$0A@@?$shared_ptr@UNode@NetvarTree@@@std@@QBEPAUNode@NetvarTree@@XZ 10001b90 f i animation_system.obj
 0001:00000bb0       ??$CallVFunction@P6EAAVVector@@PAX@Z@C_BaseEntity@@SAP6EAAVVector@@PAX@Z0H@Z 10001bb0 f i animation_system.obj
 0001:00000be0       ??$GetOffset@PBD@NetvarTree@@QAEHPBD0@Z 10001be0 f i animation_system.obj
 0001:00000c90       ??$GetOffset@PBDPBD@NetvarTree@@QAEHPBD00@Z 10001c90 f i animation_system.obj
 0001:00000d40       ??$GetOffsetRecursive@PBD@NetvarTree@@AAEHAAV?$unordered_map@V?$basic_string@DU?$char_traits@D@std@@V?$allocator@D@2@@std@@V?$shared_ptr@UNode@NetvarTree@@@2@U?$hash@V?$basic_string@DU?$char_traits@D@std@@V?$allocator@D@2@@std@@@2@U?$equal_to@V?$basic_string@DU?$char_traits@D@std@@V?$allocator@D@2@@std@@@2@V?$allocator@U?$pair@$$CBV?$basic_string@DU?$char_traits@D@std@@V?$allocator@D@2@@std@@V?$shared_ptr@UNode@NetvarTree@@@2@@std@@@2@@std@@HPBD1@Z 10001d40 f i animation_system.obj
 0001:00000df0       ??$GetVFunc@P6EXPAXKPBDHHHHHHH@Z@Utils@@SAP6EXPAXKPBDHHHHHHH@Z0I@Z 10001df0 f i hooking_init.obj
 0001:00000df0       ??$GetVFunc@P6EXPAXPB_WHH@Z@Utils@@SAP6EXPAXPB_WHH@Z0I@Z 10001df0 f i other_esp.obj
 0001:00000df0       ??$GetVFunc@P6EXPAX@Z@Utils@@SAP6EXPAX@Z0I@Z 10001df0 f i animation_system.obj
 0001:00000df0       ??$DUMBNIGGERSLOL@P6EPAVNetChannel@@PAX@Z@IVEngineClient@@SAP6EPAVNetChannel@@PAX@Z0I@Z 10001df0 f i c_antiaim.obj
 0001:00000df0       ??$GetVFunc@P6EPAVIMaterial@@PAXG@Z@Utils@@SAP6EPAVIMaterial@@PAXG@Z0I@Z 10001df0 f i other_esp.obj
 0001:00000df0       ??$GetVFunc@P6EPBDPAVIPanel@@I@Z@Utils@@SAP6EPBDPAVIPanel@@I@ZPAXI@Z 10001df0 f i painttraverse_hook.obj
 0001:00000df0       ??$GetVFunc@P6EXPAXPAVIMaterial@@W4OverrideType_t@@H@Z@Utils@@SAP6EXPAXPAVIMaterial@@W4OverrideType_t@@H@Z0I@Z 10001df0 f i dme_hook.obj
 0001:00000df0       ??$GetVFunc@P6EXPAXK@Z@Utils@@SAP6EXPAXK@Z0I@Z 10001df0 f i other_esp.obj
 0001:00000df0       ??$GetVFunc@P6EXPAXH@Z@Utils@@SAP6EXPAXH@Z0I@Z 10001df0 f i other_esp.obj
 0001:00000df0       ??$GetVFunc@P6EAAVVector@@PAX@Z@Utils@@SAP6EAAVVector@@PAX@Z0I@Z 10001df0 f i animation_system.obj
 0001:00000df0       ??$GetVFunc@P6EXPAXHHHH@Z@Utils@@SAP6EXPAXHHHH@Z0I@Z 10001df0 f i other_esp.obj
 0001:00000df0       ??$GetVFunc@P6EXPAXAAVVector@@@Z@Utils@@SAP6EXPAXAAVVector@@@Z0I@Z 10001df0 f i c_ragebot.obj
 0001:00000df0       ??$GetVFunc@P6EPAVIMaterial@@PAXPBD1_N1@Z@Utils@@SAP6EPAVIMaterial@@PAXPBD1_N1@Z0I@Z 10001df0 f i dme_hook.obj
 0001:00000df0       ??$GetVFunc@P6EGPAX@Z@Utils@@SAP6EGPAX@Z0I@Z 10001df0 f i other_esp.obj
 0001:00000df0       ??$GetVFunc@P6EGPAXG@Z@Utils@@SAP6EGPAXG@Z0I@Z 10001df0 f i other_esp.obj
 0001:00000df0       ??$GetVFunc@P6EXPAXKPB_WAAH2@Z@Utils@@SAP6EXPAXKPB_WAAH2@Z0I@Z 10001df0 f i other_esp.obj
 0001:00000df0       ??$GetVFunc@P6EMPAX@Z@Utils@@SAP6EMPAX@Z0I@Z 10001df0 f i c_ragebot.obj
 0001:00000df0       ??$GetVFunc@P6EIPAX@Z@Utils@@SAP6EIPAX@Z0I@Z 10001df0 f i hooking_init.obj
 0001:00000df0       ??$GetVFunc@P6EXPAXHH@Z@Utils@@SAP6EXPAXHH@Z0I@Z 10001df0 f i other_esp.obj
 0001:00000e00       ??$GetValue@W4EntityFlags@@@C_BaseEntity@@AAE?AW4EntityFlags@@H@Z 10001e00 f i exploits.obj
 0001:00000e00       ??$GetValue@W4MoveType_t@@@C_BaseEntity@@AAE?AW4MoveType_t@@H@Z 10001e00 f i c_antiaim.obj
 0001:00000e00       ??$GetValue@H@C_BaseCombatWeapon@@AAEHH@Z 10001e00 f i c_esp.obj
 0001:00000e00       ??$GetValue@H@C_BaseEntity@@AAEHH@Z 10001e00 f i animation_system.obj
 0001:00000e20       ??$GetValue@M@C_BaseEntity@@AAEMH@Z 10001e20 f i animation_system.obj
 0001:00000e20       ??$GetValue@M@C_BaseCombatWeapon@@AAEMH@Z 10001e20 f i c_ragebot.obj
 0001:00000e40       ??$GetValue@VVector@@@C_BaseEntity@@AAE?AVVector@@H@Z 10001e40 f i animation_system.obj
 0001:00000e70       ??$GetValue@_N@C_BaseEntity@@AAE_NH@Z 10001e70 f i animation_system.obj
 0001:00000e90       ??$_Allocate@$07U_Default_allocate_traits@std@@$0A@@std@@YAPAXI@Z 10001e90 f i animation_system.obj
 0001:00000ed0       ??$_Allocate_manually_vector_aligned@U_Default_allocate_traits@std@@@std@@YAPAXI@Z 10001ed0 f i animation_system.obj
 0001:00000f40       ??$_Buy_if_not_node@AAU?$pair@$$CBV?$basic_string@DU?$char_traits@D@std@@V?$allocator@D@2@@std@@V?$shared_ptr@UNode@NetvarTree@@@2@@std@@@?$_Hash@V?$_Umap_traits@V?$basic_string@DU?$char_traits@D@std@@V?$allocator@D@2@@std@@V?$shared_ptr@UNode@NetvarTree@@@2@V?$_Uhash_compare@V?$basic_string@DU?$char_traits@D@std@@V?$allocator@D@2@@std@@U?$hash@V?$basic_string@DU?$char_traits@D@std@@V?$allocator@D@2@@std@@@2@U?$equal_to@V?$basic_string@DU?$char_traits@D@std@@V?$allocator@D@2@@std@@@2@@2@V?$allocator@U?$pair@$$CBV?$basic_string@DU?$char_traits@D@std@@V?$allocator@D@2@@std@@V?$shared_ptr@UNode@NetvarTree@@@2@@std@@@2@$0A@@std@@@std@@IAE?AV?$_List_unchecked_iterator@V?$_List_val@U?$_List_simple_types@U?$pair@$$CBV?$basic_string@DU?$char_traits@D@std@@V?$allocator@D@2@@std@@V?$shared_ptr@UNode@NetvarTree@@@2@@std@@@std@@@std@@@1@AAU?$pair@$$CBV?$basic_string@DU?$char_traits@D@std@@V?$allocator@D@2@@std@@V?$shared_ptr@UNode@NetvarTree@@@2@@1@V21@@Z 10001f40 f i animation_system.obj
 0001:00000f60       ??$_Buynode@ABUpiecewise_construct_t@std@@V?$tuple@$$QAV?$basic_string@DU?$char_traits@D@std@@V?$allocator@D@2@@std@@@2@V?$tuple@$$V@2@@?$_List_buy@U?$pair@$$CBV?$basic_string@DU?$char_traits@D@std@@V?$allocator@D@2@@std@@V?$shared_ptr@UNode@NetvarTree@@@2@@std@@V?$allocator@U?$pair@$$CBV?$basic_string@DU?$char_traits@D@std@@V?$allocator@D@2@@std@@V?$shared_ptr@UNode@NetvarTree@@@2@@std@@@2@@std@@QAEPAU?$_List_node@U?$pair@$$CBV?$basic_string@DU?$char_traits@D@std@@V?$allocator@D@2@@std@@V?$shared_ptr@UNode@NetvarTree@@@2@@std@@PAX@1@PAU21@0ABUpiecewise_construct_t@1@$$QAV?$tuple@$$QAV?$basic_string@DU?$char_traits@D@std@@V?$allocator@D@2@@std@@@1@$$QAV?$tuple@$$V@1@@Z 10001f60 f i animation_system.obj
 0001:00001060       ??$forward@AAPAVIBaseClientDLL@@@std@@YAAAPAVIBaseClientDLL@@AAPAV1@@Z 10002060 f i c_hooks.obj
 0001:00001060       ??$move@AAU_Creator@_Dir_enum_impl@filesystem@std@@@std@@YA$$QAU_Creator@_Dir_enum_impl@filesystem@0@AAU1230@@Z 10002060 f i config_system.obj
 0001:00001060       ??$addressof@$$CBV?$_Deque_val@U?$_Deque_simple_types@UPlayerRecords@@@std@@@std@@@std@@YAPBV?$_Deque_val@U?$_Deque_simple_types@UPlayerRecords@@@std@@@0@ABV10@@Z 10002060 f i LagComp.obj
 0001:00001060       ??$move@AAV?$basic_ofstream@DU?$char_traits@D@std@@@std@@@std@@YA$$QAV?$basic_ofstream@DU?$char_traits@D@std@@@0@AAV10@@Z 10002060 f i Interfaces.obj
 0001:00001060       ??$_Get_unwrapped@$$CB_W@std@@YAPB_WQB_W@Z 10002060 f i config_system.obj
 0001:00001060       ??$forward@ABQA_W@std@@YAABQA_WABQA_W@Z 10002060 f i config_system.obj
 0001:00001060       ??$forward@U_One_then_variadic_args_t@std@@@std@@YA$$QAU_One_then_variadic_args_t@0@AAU10@@Z 10002060 f i NetvarManager.obj
 0001:00001060       ??$forward@AAU?$hash@V?$basic_string@DU?$char_traits@D@std@@V?$allocator@D@2@@std@@@std@@@std@@YAAAU?$hash@V?$basic_string@DU?$char_traits@D@std@@V?$allocator@D@2@@std@@@0@AAU10@@Z 10002060 f i NetvarManager.obj
 0001:00001060       ??$_Unfancy@U_Container_proxy@std@@@std@@YAPAU_Container_proxy@0@PAU10@@Z 10002060 f i LagComp.obj
 0001:00001060       ??$addressof@V?$_String_val@U?$_Simple_types@_W@std@@@std@@@std@@YAPAV?$_String_val@U?$_Simple_types@_W@std@@@0@AAV10@@Z 10002060 f i config_system.obj
 0001:00001060       ??$_Get_unwrapped@H@std@@YAPAHQAH@Z 10002060 f i animation_system.obj
 0001:00001060       ??$forward@_N@std@@YA$$QA_NAA_N@Z 10002060 f i animation_system.obj
 0001:00001060       ??$forward@AAPAVNetvarTree@@@std@@YAAAPAVNetvarTree@@AAPAV1@@Z 10002060 f i c_hooks.obj
 0001:00001060       ??$forward@ABUPlayerRecords@@@std@@YAABUPlayerRecords@@ABU1@@Z 10002060 f i LagComp.obj
 0001:00001060       ??$_Get_unwrapped@V?$_List_unchecked_iterator@V?$_List_val@U?$_List_simple_types@U?$pair@$$CBV?$basic_string@DU?$char_traits@D@std@@V?$allocator@D@2@@std@@V?$shared_ptr@UNode@NetvarTree@@@2@@std@@@std@@@std@@@std@@@std@@YAPAV?$_List_unchecked_iterator@V?$_List_val@U?$_List_simple_types@U?$pair@$$CBV?$basic_string@DU?$char_traits@D@std@@V?$allocator@D@2@@std@@V?$shared_ptr@UNode@NetvarTree@@@2@@std@@@std@@@std@@@0@QAV10@@Z 10002060 f i animation_system.obj
 0001:00001060       ??$forward@V?$basic_string@DU?$char_traits@D@std@@V?$allocator@D@2@@std@@@std@@YA$$QAV?$basic_string@DU?$char_traits@D@std@@V?$allocator@D@2@@0@AAV10@@Z 10002060 f i animation_system.obj
 0001:00001060       ??$addressof@$$CBV?$_List_val@U?$_List_simple_types@U?$pair@$$CBV?$basic_string@DU?$char_traits@D@std@@V?$allocator@D@2@@std@@V?$shared_ptr@UNode@NetvarTree@@@2@@std@@@std@@@std@@@std@@YAPBV?$_List_val@U?$_List_simple_types@U?$pair@$$CBV?$basic_string@DU?$char_traits@D@std@@V?$allocator@D@2@@std@@V?$shared_ptr@UNode@NetvarTree@@@2@@std@@@std@@@0@ABV10@@Z 10002060 f i animation_system.obj
 0001:00001060       ??$addressof@PA_W@std@@YAPAPA_WAAPA_W@Z 10002060 f i config_system.obj
 0001:00001060       ??$move@AAUPlayerRecords@@@std@@YA$$QAUPlayerRecords@@AAU1@@Z 10002060 f i LagComp.obj
 0001:00001060       ??$forward@ABV?$allocator@_W@std@@@std@@YAABV?$allocator@_W@0@ABV10@@Z 10002060 f i config_system.obj
 0001:00001060       ??$move@AAW4__std_fs_dir_handle@@@std@@YA$$QAW4__std_fs_dir_handle@@AAW41@@Z 10002060 f i config_system.obj
 0001:00001060       ??$_Get_unwrapped_unverified@$$CBD@std@@YAPBDQBD@Z 10002060 f i config_system.obj
 0001:00001060       ??$forward@ABV?$allocator@U?$pair@$$CBV?$basic_string@DU?$char_traits@D@std@@V?$allocator@D@2@@std@@V?$shared_ptr@UNode@NetvarTree@@@2@@std@@@std@@@std@@YAABV?$allocator@U?$pair@$$CBV?$basic_string@DU?$char_traits@D@std@@V?$allocator@D@2@@std@@V?$shared_ptr@UNode@NetvarTree@@@2@@std@@@0@ABV10@@Z 10002060 f i NetvarManager.obj
 0001:00001060       ??$forward@V?$allocator@H@std@@@std@@YA$$QAV?$allocator@H@0@AAV10@@Z 10002060 f i animation_system.obj
 0001:00001060       ??$_Get_unwrapped_n@V?$basic_string@DU?$char_traits@D@std@@V?$allocator@D@2@@std@@H$0A@@std@@YAPAV?$basic_string@DU?$char_traits@D@std@@V?$allocator@D@2@@0@QAV10@H@Z 10002060 f i config_system.obj
 0001:00001060       ??$_Get_unwrapped_n@PAUPlayerRecords@@H$0A@@std@@YAPAPAUPlayerRecords@@QAPAU1@H@Z 10002060 f i LagComp.obj
 0001:00001060       ?select_on_container_copy_construction@?$_Default_allocator_traits@V?$allocator@_W@std@@@std@@SA?AV?$allocator@_W@2@ABV32@@Z 10002060 f i config_system.obj
 0001:00001060       ??$addressof@PAULegitPlayerRecords@@@std@@YAPAPAULegitPlayerRecords@@AAPAU1@@Z 10002060 f i Legitbot.obj
 0001:00001060       ??$_Refancy@PAD$0A@@std@@YAPADPAD@Z 10002060 f i c_esp.obj
 0001:00001060       ??$forward@AAPAVISurface@@@std@@YAAAPAVISurface@@AAPAV1@@Z 10002060 f i c_hooks.obj
 0001:00001060       ??$forward@H@std@@YA$$QAHAAH@Z 10002060 f i animation_system.obj
 0001:00001060       ??$_Unfancy_maybe_null@H@std@@YAPAHPAH@Z 10002060 f i animation_system.obj
 0001:00001060       ??$move@AAV?$shared_ptr@UNode@NetvarTree@@@std@@@std@@YA$$QAV?$shared_ptr@UNode@NetvarTree@@@0@AAV10@@Z 10002060 f i NetvarManager.obj
 0001:00001060       ??$addressof@PAD@std@@YAPAPADAAPAD@Z 10002060 f i animation_system.obj
 0001:00001060       ??$addressof@V?$unique_ptr@VVMTHook@@U?$default_delete@VVMTHook@@@std@@@std@@@std@@YAPAV?$unique_ptr@VVMTHook@@U?$default_delete@VVMTHook@@@std@@@0@AAV10@@Z 10002060 f i c_hooks.obj
 0001:00001060       ??$_Kfn@$$CBV?$basic_string@DU?$char_traits@D@std@@V?$allocator@D@2@@std@@V?$shared_ptr@UNode@NetvarTree@@@2@@?$_Umap_traits@V?$basic_string@DU?$char_traits@D@std@@V?$allocator@D@2@@std@@V?$shared_ptr@UNode@NetvarTree@@@2@V?$_Uhash_compare@V?$basic_string@DU?$char_traits@D@std@@V?$allocator@D@2@@std@@U?$hash@V?$basic_string@DU?$char_traits@D@std@@V?$allocator@D@2@@std@@@2@U?$equal_to@V?$basic_string@DU?$char_traits@D@std@@V?$allocator@D@2@@std@@@2@@2@V?$allocator@U?$pair@$$CBV?$basic_string@DU?$char_traits@D@std@@V?$allocator@D@2@@std@@V?$shared_ptr@UNode@NetvarTree@@@2@@std@@@2@$0A@@std@@SAABV?$basic_string@DU?$char_traits@D@std@@V?$allocator@D@2@@1@ABU?$pair@$$CBV?$basic_string@DU?$char_traits@D@std@@V?$allocator@D@2@@std@@V?$shared_ptr@UNode@NetvarTree@@@2@@1@@Z 10002060 f i animation_system.obj
 0001:00001060       ??$move@AAV?$_List_unchecked_iterator@V?$_List_val@U?$_List_simple_types@U?$pair@$$CBV?$basic_string@DU?$char_traits@D@std@@V?$allocator@D@2@@std@@V?$shared_ptr@UNode@NetvarTree@@@2@@std@@@std@@@std@@@std@@@std@@YA$$QAV?$_List_unchecked_iterator@V?$_List_val@U?$_List_simple_types@U?$pair@$$CBV?$basic_string@DU?$char_traits@D@std@@V?$allocator@D@2@@std@@V?$shared_ptr@UNode@NetvarTree@@@2@@std@@@std@@@std@@@0@AAV10@@Z 10002060 f i animation_system.obj
 0001:00001060       ??$addressof@V?$basic_string@_WU?$char_traits@_W@std@@V?$allocator@_W@2@@std@@@std@@YAPAV?$basic_string@_WU?$char_traits@_W@std@@V?$allocator@_W@2@@0@AAV10@@Z 10002060 f i config_system.obj
 0001:00001060       ??$forward@ABV?$allocator@D@std@@@std@@YAABV?$allocator@D@0@ABV10@@Z 10002060 f i c_esp.obj
 0001:00001060       ??$move@AAV?$tuple@$$QAV?$basic_string@DU?$char_traits@D@std@@V?$allocator@D@2@@std@@@std@@@std@@YA$$QAV?$tuple@$$QAV?$basic_string@DU?$char_traits@D@std@@V?$allocator@D@2@@std@@@0@AAV10@@Z 10002060 f i animation_system.obj
 0001:00001060       ??$forward@V?$tuple@$$V@std@@@std@@YA$$QAV?$tuple@$$V@0@AAV10@@Z 10002060 f i animation_system.obj
 0001:00001060       ??$move@AAV?$allocator@H@std@@@std@@YA$$QAV?$allocator@H@0@AAV10@@Z 10002060 f i animation_system.obj
 0001:00001060       ??$_Get_unwrapped_n@V?$_List_unchecked_iterator@V?$_List_val@U?$_List_simple_types@U?$pair@$$CBV?$basic_string@DU?$char_traits@D@std@@V?$allocator@D@2@@std@@V?$shared_ptr@UNode@NetvarTree@@@2@@std@@@std@@@std@@@std@@H$0A@@std@@YAPAV?$_List_unchecked_iterator@V?$_List_val@U?$_List_simple_types@U?$pair@$$CBV?$basic_string@DU?$char_traits@D@std@@V?$allocator@D@2@@std@@V?$shared_ptr@UNode@NetvarTree@@@2@@std@@@std@@@std@@@0@QAV10@H@Z 10002060 f i animation_system.obj
 0001:00001060       ??$forward@ABV?$shared_ptr@UNode@NetvarTree@@@std@@@std@@YAABV?$shared_ptr@UNode@NetvarTree@@@0@ABV10@@Z 10002060 f i NetvarManager.obj
 0001:00001060       ??$forward@AAPAVVMTHook@@@std@@YAAAPAVVMTHook@@AAPAV1@@Z 10002060 f i c_hooks.obj
 0001:00001060       ??$forward@AAPAVIPanel@@@std@@YAAAPAVIPanel@@AAPAV1@@Z 10002060 f i c_hooks.obj
 0001:00001060       ??$forward@ABQAD@std@@YAABQADABQAD@Z 10002060 f i animation_system.obj
 0001:00001060       ??$move@AAPAU_Dir_enum_impl@filesystem@std@@@std@@YA$$QAPAU_Dir_enum_impl@filesystem@0@AAPAU120@@Z 10002060 f i config_system.obj
 0001:00001060       ??$forward@U?$default_delete@VShadowVTManager@@@std@@@std@@YA$$QAU?$default_delete@VShadowVTManager@@@0@AAU10@@Z 10002060 f i bone_processing_hook.obj
 0001:00001060       ??$_Get_unwrapped@PAUPlayerRecords@@@std@@YAPAPAUPlayerRecords@@QAPAU1@@Z 10002060 f i LagComp.obj
 0001:00001060       ??$forward@AAPAV_Facet_base@std@@@std@@YAAAPAV_Facet_base@0@AAPAV10@@Z 10002060 f i config_system.obj
 0001:00001060       ??$addressof@$$CBV?$codecvt@DDU_Mbstatet@@@std@@@std@@YAPBV?$codecvt@DDU_Mbstatet@@@0@ABV10@@Z 10002060 f i config_system.obj
 0001:00001060       ??$forward@ABW4directory_options@filesystem@std@@@std@@YAABW4directory_options@filesystem@0@ABW4120@@Z 10002060 f i config_system.obj
 0001:00001060       ??$forward@M@std@@YA$$QAMAAM@Z 10002060 f i NetvarManager.obj
 0001:00001060       ??$forward@ABV?$allocator@V?$_List_unchecked_iterator@V?$_List_val@U?$_List_simple_types@U?$pair@$$CBV?$basic_string@DU?$char_traits@D@std@@V?$allocator@D@2@@std@@V?$shared_ptr@UNode@NetvarTree@@@2@@std@@@std@@@std@@@std@@@std@@@std@@YAABV?$allocator@V?$_List_unchecked_iterator@V?$_List_val@U?$_List_simple_types@U?$pair@$$CBV?$basic_string@DU?$char_traits@D@std@@V?$allocator@D@2@@std@@V?$shared_ptr@UNode@NetvarTree@@@2@@std@@@std@@@std@@@std@@@0@ABV10@@Z 10002060 f i NetvarManager.obj
 0001:00001060       ??$_Unfancy@UPlayerRecords@@@std@@YAPAUPlayerRecords@@PAU1@@Z 10002060 f i LagComp.obj
 0001:00001060       ??$forward@V?$_List_iterator@V?$_List_val@U?$_List_simple_types@U?$pair@$$CBV?$basic_string@DU?$char_traits@D@std@@V?$allocator@D@2@@std@@V?$shared_ptr@UNode@NetvarTree@@@2@@std@@@std@@@std@@@std@@@std@@YA$$QAV?$_List_iterator@V?$_List_val@U?$_List_simple_types@U?$pair@$$CBV?$basic_string@DU?$char_traits@D@std@@V?$allocator@D@2@@std@@V?$shared_ptr@UNode@NetvarTree@@@2@@std@@@std@@@std@@@0@AAV10@@Z 10002060 f i animation_system.obj
 0001:00001060       ??$move@AAU_Find_file_handle@filesystem@std@@@std@@YA$$QAU_Find_file_handle@filesystem@0@AAU120@@Z 10002060 f i config_system.obj
 0001:00001060       ??$addressof@V?$vector@V?$basic_string@DU?$char_traits@D@std@@V?$allocator@D@2@@std@@V?$allocator@V?$basic_string@DU?$char_traits@D@std@@V?$allocator@D@2@@std@@@2@@std@@@std@@YAPAV?$vector@V?$basic_string@DU?$char_traits@D@std@@V?$allocator@D@2@@std@@V?$allocator@V?$basic_string@DU?$char_traits@D@std@@V?$allocator@D@2@@std@@@2@@0@AAV10@@Z 10002060 f i config_system.obj
 0001:00001060       ??$addressof@V?$_String_val@U?$_Simple_types@D@std@@@std@@@std@@YAPAV?$_String_val@U?$_Simple_types@D@std@@@0@AAV10@@Z 10002060 f i animation_system.obj
 0001:00001060       ??$move@AAVpath@filesystem@std@@@std@@YA$$QAVpath@filesystem@0@AAV120@@Z 10002060 f i config_system.obj
 0001:00001060       ??$forward@AAU?$pair@$$CBV?$basic_string@DU?$char_traits@D@std@@V?$allocator@D@2@@std@@V?$shared_ptr@UNode@NetvarTree@@@2@@std@@@std@@YAAAU?$pair@$$CBV?$basic_string@DU?$char_traits@D@std@@V?$allocator@D@2@@std@@V?$shared_ptr@UNode@NetvarTree@@@2@@0@AAU10@@Z 10002060 f i animation_system.obj
 0001:00001060       ??$addressof@PAUPlayerRecords@@@std@@YAPAPAUPlayerRecords@@AAPAU1@@Z 10002060 f i LagComp.obj
 0001:00001060       ??$forward@V?$allocator@_W@std@@@std@@YA$$QAV?$allocator@_W@0@AAV10@@Z 10002060 f i config_system.obj
 0001:00001060       ??$forward@PAPAK@std@@YA$$QAPAPAKAAPAPAK@Z 10002060 f i c_hooks.obj
 0001:00001060       ??$move@AAV?$vector@HV?$allocator@H@std@@@std@@@std@@YA$$QAV?$vector@HV?$allocator@H@std@@@0@AAV10@@Z 10002060 f i animation_system.obj
 0001:00001060       ??$move@AAV?$allocator@D@std@@@std@@YA$$QAV?$allocator@D@0@AAV10@@Z 10002060 f i animation_system.obj
 0001:00001060       ??$_Unfancy@_W@std@@YAPA_WPA_W@Z 10002060 f i config_system.obj
 0001:00001060       ??$forward@AAPAVIClientMode@@@std@@YAAAPAVIClientMode@@AAPAV1@@Z 10002060 f i c_hooks.obj
 0001:00001060       ??$forward@ABV?$_List_unchecked_iterator@V?$_List_val@U?$_List_simple_types@U?$pair@$$CBV?$basic_string@DU?$char_traits@D@std@@V?$allocator@D@2@@std@@V?$shared_ptr@UNode@NetvarTree@@@2@@std@@@std@@@std@@@std@@@std@@YAABV?$_List_unchecked_iterator@V?$_List_val@U?$_List_simple_types@U?$pair@$$CBV?$basic_string@DU?$char_traits@D@std@@V?$allocator@D@2@@std@@V?$shared_ptr@UNode@NetvarTree@@@2@@std@@@std@@@std@@@0@ABV10@@Z 10002060 f i animation_system.obj
 0001:00001060       ??$addressof@V?$_Vector_val@U?$_Simple_types@V?$basic_string@DU?$char_traits@D@std@@V?$allocator@D@2@@std@@@std@@@std@@@std@@YAPAV?$_Vector_val@U?$_Simple_types@V?$basic_string@DU?$char_traits@D@std@@V?$allocator@D@2@@std@@@std@@@0@AAV10@@Z 10002060 f i config_system.obj
 0001:00001060       ??$move@AAV?$shared_ptr@U_Dir_enum_impl@filesystem@std@@@std@@@std@@YA$$QAV?$shared_ptr@U_Dir_enum_impl@filesystem@std@@@0@AAV10@@Z 10002060 f i config_system.obj
 0001:00001060       ??$_Const_cast@$$CBV?$basic_string@DU?$char_traits@D@std@@V?$allocator@D@2@@std@@@std@@YAPAV?$basic_string@DU?$char_traits@D@std@@V?$allocator@D@2@@0@PBV10@@Z 10002060 f i config_system.obj
 0001:00001060       ??$_Get_unwrapped@V?$basic_string@DU?$char_traits@D@std@@V?$allocator@D@2@@std@@@std@@YAPAV?$basic_string@DU?$char_traits@D@std@@V?$allocator@D@2@@0@QAV10@@Z 10002060 f i config_system.obj
 0001:00001060       ??$forward@U_Container_proxy@std@@@std@@YA$$QAU_Container_proxy@0@AAU10@@Z 10002060 f i LagComp.obj
 0001:00001060       ??$_Get_unwrapped@PAULegitPlayerRecords@@@std@@YAPAPAULegitPlayerRecords@@QAPAU1@@Z 10002060 f i Legitbot.obj
 0001:00001060       ??$forward@AAU?$equal_to@V?$basic_string@DU?$char_traits@D@std@@V?$allocator@D@2@@std@@@std@@@std@@YAAAU?$equal_to@V?$basic_string@DU?$char_traits@D@std@@V?$allocator@D@2@@std@@@0@AAU10@@Z 10002060 f i NetvarManager.obj
 0001:00001060       ??$move@AAPAV_Ref_count_base@std@@@std@@YA$$QAPAV_Ref_count_base@0@AAPAV10@@Z 10002060 f i config_system.obj
 0001:00001060       ??$addressof@V?$_Deque_val@U?$_Deque_simple_types@ULegitPlayerRecords@@@std@@@std@@@std@@YAPAV?$_Deque_val@U?$_Deque_simple_types@ULegitPlayerRecords@@@std@@@0@AAV10@@Z 10002060 f i Legitbot.obj
 0001:00001060       ??$addressof@V?$unique_ptr@$$BY0A@IU?$default_delete@$$BY0A@I@std@@@std@@@std@@YAPAV?$unique_ptr@$$BY0A@IU?$default_delete@$$BY0A@I@std@@@0@AAV10@@Z 10002060 f i c_hooks.obj
 0001:00001060       ??$addressof@V?$_List_val@U?$_List_simple_types@U?$pair@$$CBV?$basic_string@DU?$char_traits@D@std@@V?$allocator@D@2@@std@@V?$shared_ptr@UNode@NetvarTree@@@2@@std@@@std@@@std@@@std@@YAPAV?$_List_val@U?$_List_simple_types@U?$pair@$$CBV?$basic_string@DU?$char_traits@D@std@@V?$allocator@D@2@@std@@V?$shared_ptr@UNode@NetvarTree@@@2@@std@@@std@@@0@AAV10@@Z 10002060 f i animation_system.obj
 0001:00001060       ??$addressof@$$CBV?$_Deque_val@U?$_Deque_simple_types@ULegitPlayerRecords@@@std@@@std@@@std@@YAPBV?$_Deque_val@U?$_Deque_simple_types@ULegitPlayerRecords@@@std@@@0@ABV10@@Z 10002060 f i Legitbot.obj
 0001:00001060       ??$forward@W4__std_fs_dir_handle@@@std@@YA$$QAW4__std_fs_dir_handle@@AAW41@@Z 10002060 f i config_system.obj
 0001:00001060       ??$move@AAULegitPlayerRecords@@@std@@YA$$QAULegitPlayerRecords@@AAU1@@Z 10002060 f i Legitbot.obj
 0001:00001060       ??$forward@V?$_List_unchecked_iterator@V?$_List_val@U?$_List_simple_types@U?$pair@$$CBV?$basic_string@DU?$char_traits@D@std@@V?$allocator@D@2@@std@@V?$shared_ptr@UNode@NetvarTree@@@2@@std@@@std@@@std@@@std@@@std@@YA$$QAV?$_List_unchecked_iterator@V?$_List_val@U?$_List_simple_types@U?$pair@$$CBV?$basic_string@DU?$char_traits@D@std@@V?$allocator@D@2@@std@@V?$shared_ptr@UNode@NetvarTree@@@2@@std@@@std@@@std@@@0@AAV10@@Z 10002060 f i animation_system.obj
 0001:00001060       ??$addressof@U?$pair@$$CBV?$basic_string@DU?$char_traits@D@std@@V?$allocator@D@2@@std@@V?$shared_ptr@UNode@NetvarTree@@@2@@std@@@std@@YAPAU?$pair@$$CBV?$basic_string@DU?$char_traits@D@std@@V?$allocator@D@2@@std@@V?$shared_ptr@UNode@NetvarTree@@@2@@0@AAU10@@Z 10002060 f i animation_system.obj
 0001:00001060       ??$forward@U_Creator@_Dir_enum_impl@filesystem@std@@@std@@YA$$QAU_Creator@_Dir_enum_impl@filesystem@0@AAU1230@@Z 10002060 f i config_system.obj
 0001:00001060       ??$addressof@V?$basic_string@DU?$char_traits@D@std@@V?$allocator@D@2@@std@@@std@@YAPAV?$basic_string@DU?$char_traits@D@std@@V?$allocator@D@2@@0@AAV10@@Z 10002060 f i imgui.obj
 0001:00001060       ??$_Unfancy@V?$basic_string@DU?$char_traits@D@std@@V?$allocator@D@2@@std@@@std@@YAPAV?$basic_string@DU?$char_traits@D@std@@V?$allocator@D@2@@0@PAV10@@Z 10002060 f i config_system.obj
 0001:00001060       ??$forward@AAPAI@std@@YAAAPAIAAPAI@Z 10002060 f i c_hooks.obj
 0001:00001060       ??$addressof@PAU?$_List_node@U?$pair@$$CBV?$basic_string@DU?$char_traits@D@std@@V?$allocator@D@2@@std@@V?$shared_ptr@UNode@NetvarTree@@@2@@std@@PAX@std@@@std@@YAPAPAU?$_List_node@U?$pair@$$CBV?$basic_string@DU?$char_traits@D@std@@V?$allocator@D@2@@std@@V?$shared_ptr@UNode@NetvarTree@@@2@@std@@PAX@0@AAPAU10@@Z 10002060 f i animation_system.obj
 0001:00001060       ??$_Unfancy@D@std@@YAPADPAD@Z 10002060 f i animation_system.obj
 0001:00001060       ??$forward@U?$default_delete@VNetvarTree@@@std@@@std@@YA$$QAU?$default_delete@VNetvarTree@@@0@AAU10@@Z 10002060 f i c_hooks.obj
 0001:00001060       ??$move@AAV?$basic_string@DU?$char_traits@D@std@@V?$allocator@D@2@@std@@@std@@YA$$QAV?$basic_string@DU?$char_traits@D@std@@V?$allocator@D@2@@0@AAV10@@Z 10002060 f i animation_system.obj
 0001:00001060       ??$_Unfancy@H@std@@YAPAHPAH@Z 10002060 f i animation_system.obj
 0001:00001060       ??$_Unfancy@V?$_List_unchecked_iterator@V?$_List_val@U?$_List_simple_types@U?$pair@$$CBV?$basic_string@DU?$char_traits@D@std@@V?$allocator@D@2@@std@@V?$shared_ptr@UNode@NetvarTree@@@2@@std@@@std@@@std@@@std@@@std@@YAPAV?$_List_unchecked_iterator@V?$_List_val@U?$_List_simple_types@U?$pair@$$CBV?$basic_string@DU?$char_traits@D@std@@V?$allocator@D@2@@std@@V?$shared_ptr@UNode@NetvarTree@@@2@@std@@@std@@@std@@@0@PAV10@@Z 10002060 f i animation_system.obj
 0001:00001060       ??$move@AAV?$basic_string@_WU?$char_traits@_W@std@@V?$allocator@_W@2@@std@@@std@@YA$$QAV?$basic_string@_WU?$char_traits@_W@std@@V?$allocator@_W@2@@0@AAV10@@Z 10002060 f i config_system.obj
 0001:00001060       ??$forward@V?$tuple@$$QAV?$basic_string@DU?$char_traits@D@std@@V?$allocator@D@2@@std@@@std@@@std@@YA$$QAV?$tuple@$$QAV?$basic_string@DU?$char_traits@D@std@@V?$allocator@D@2@@std@@@0@AAV10@@Z 10002060 f i animation_system.obj
 0001:00001060       ??$forward@ABUpiecewise_construct_t@std@@@std@@YAABUpiecewise_construct_t@0@ABU10@@Z 10002060 f i animation_system.obj
 0001:00001060       ??$forward@AAV?$_List_iterator@V?$_List_val@U?$_List_simple_types@U?$pair@$$CBV?$basic_string@DU?$char_traits@D@std@@V?$allocator@D@2@@std@@V?$shared_ptr@UNode@NetvarTree@@@2@@std@@@std@@@std@@@std@@@std@@YAAAV?$_List_iterator@V?$_List_val@U?$_List_simple_types@U?$pair@$$CBV?$basic_string@DU?$char_traits@D@std@@V?$allocator@D@2@@std@@V?$shared_ptr@UNode@NetvarTree@@@2@@std@@@std@@@std@@@0@AAV10@@Z 10002060 f i animation_system.obj
 0001:00001060       ??$forward@AAPAVIVRenderView@@@std@@YAAAPAVIVRenderView@@AAPAV1@@Z 10002060 f i c_hooks.obj
 0001:00001060       ??$addressof@V?$unique_ptr@VShadowVTManager@@U?$default_delete@VShadowVTManager@@@std@@@std@@@std@@YAPAV?$unique_ptr@VShadowVTManager@@U?$default_delete@VShadowVTManager@@@std@@@0@AAV10@@Z 10002060 f i bone_processing_hook.obj
 0001:00001060       ??$_Get_unwrapped_n@HH$0A@@std@@YAPAHQAHH@Z 10002060 f i animation_system.obj
 0001:00001060       ??$forward@ABULegitPlayerRecords@@@std@@YAABULegitPlayerRecords@@ABU1@@Z 10002060 f i Legitbot.obj
 0001:00001060       ??$_Convert_size@I@std@@YAII@Z 10002060 f i animation_system.obj
 0001:00001060       ??$_Unfancy@ULegitPlayerRecords@@@std@@YAPAULegitPlayerRecords@@PAU1@@Z 10002060 f i Legitbot.obj
 0001:00001060       ??$forward@$$QAV?$basic_string@DU?$char_traits@D@std@@V?$allocator@D@2@@std@@@std@@YA$$QAV?$basic_string@DU?$char_traits@D@std@@V?$allocator@D@2@@0@AAV10@@Z 10002060 f i animation_system.obj
 0001:00001060       ??$_Get_unwrapped_n@PAULegitPlayerRecords@@H$0A@@std@@YAPAPAULegitPlayerRecords@@QAPAU1@H@Z 10002060 f i Legitbot.obj
 0001:00001060       ??$_Get_unwrapped@D@std@@YAPADQAD@Z 10002060 f i c_esp.obj
 0001:00001060       ??$_Get_unwrapped@Vdirectory_iterator@filesystem@std@@$0A@@std@@YAABVdirectory_iterator@filesystem@0@ABV120@@Z 10002060 f i config_system.obj
 0001:00001060       ??$forward@AAPAVShadowVTManager@@@std@@YAAAPAVShadowVTManager@@AAPAV1@@Z 10002060 f i c_hooks.obj
 0001:00001060       ??$_Get_unwrapped_n@V?$back_insert_iterator@V?$vector@V?$basic_string@DU?$char_traits@D@std@@V?$allocator@D@2@@std@@V?$allocator@V?$basic_string@DU?$char_traits@D@std@@V?$allocator@D@2@@std@@@2@@std@@@std@@U_Distance_unknown@2@$0A@@std@@YAABV?$back_insert_iterator@V?$vector@V?$basic_string@DU?$char_traits@D@std@@V?$allocator@D@2@@std@@V?$allocator@V?$basic_string@DU?$char_traits@D@std@@V?$allocator@D@2@@std@@@2@@std@@@0@ABV10@U_Distance_unknown@0@@Z 10002060 f i config_system.obj
 0001:00001060       ??$_Const_cast@$$CBD@std@@YAPADPBD@Z 10002060 f i c_esp.obj
 0001:00001060       ??$move@AAV?$allocator@_W@std@@@std@@YA$$QAV?$allocator@_W@0@AAV10@@Z 10002060 f i config_system.obj
 0001:00001060       ??$move@AAU?$default_delete@$$BY0A@I@std@@@std@@YA$$QAU?$default_delete@$$BY0A@I@0@AAU10@@Z 10002060 f i c_hooks.obj
 0001:00001060       ??$forward@V?$allocator@D@std@@@std@@YA$$QAV?$allocator@D@0@AAV10@@Z 10002060 f i animation_system.obj
 0001:00001060       ??$_Get_unwrapped_unverified@_W@std@@YAPA_WQA_W@Z 10002060 f i config_system.obj
 0001:00001060       ??$addressof@$$CBV?$_Vector_val@U?$_Simple_types@V?$basic_string@DU?$char_traits@D@std@@V?$allocator@D@2@@std@@@std@@@std@@@std@@YAPBV?$_Vector_val@U?$_Simple_types@V?$basic_string@DU?$char_traits@D@std@@V?$allocator@D@2@@std@@@std@@@0@ABV10@@Z 10002060 f i config_system.obj
 0001:00001060       ?select_on_container_copy_construction@?$_Default_allocator_traits@V?$allocator@D@std@@@std@@SA?AV?$allocator@D@2@ABV32@@Z 10002060 f i c_esp.obj
 0001:00001060       ??$addressof@$$CBV?$basic_string@_WU?$char_traits@_W@std@@V?$allocator@_W@2@@std@@@std@@YAPBV?$basic_string@_WU?$char_traits@_W@std@@V?$allocator@_W@2@@0@ABV10@@Z 10002060 f i config_system.obj
 0001:00001060       ??$forward@AAPAVCModelRender@@@std@@YAAAPAVCModelRender@@AAPAV1@@Z 10002060 f i c_hooks.obj
 0001:00001060       ??$addressof@V?$unique_ptr@VNetvarTree@@U?$default_delete@VNetvarTree@@@std@@@std@@@std@@YAPAV?$unique_ptr@VNetvarTree@@U?$default_delete@VNetvarTree@@@std@@@0@AAV10@@Z 10002060 f i c_hooks.obj
 0001:00001060       ??$forward@PBD@std@@YA$$QAPBDAAPBD@Z 10002060 f i NetvarManager.obj
 0001:00001060       ??$forward@AAPAU?$_List_node@U?$pair@$$CBV?$basic_string@DU?$char_traits@D@std@@V?$allocator@D@2@@std@@V?$shared_ptr@UNode@NetvarTree@@@2@@std@@PAX@std@@@std@@YAAAPAU?$_List_node@U?$pair@$$CBV?$basic_string@DU?$char_traits@D@std@@V?$allocator@D@2@@std@@V?$shared_ptr@UNode@NetvarTree@@@2@@std@@PAX@0@AAPAU10@@Z 10002060 f i animation_system.obj
 0001:00001060       ??$move@AAH@std@@YA$$QAHAAH@Z 10002060 f i animation_system.obj
 0001:00001060       ??$_Get_size_of_n@$00@std@@YAII@Z 10002060 f i animation_system.obj
 0001:00001060       ??$forward@AAPBD@std@@YAAAPBDAAPBD@Z 10002060 f i config_system.obj
 0001:00001060       ??$addressof@V?$_Deque_val@U?$_Deque_simple_types@UPlayerRecords@@@std@@@std@@@std@@YAPAV?$_Deque_val@U?$_Deque_simple_types@UPlayerRecords@@@std@@@0@AAV10@@Z 10002060 f i c_ragebot.obj
 0001:00001060       ??$forward@U?$default_delete@VVMTHook@@@std@@@std@@YA$$QAU?$default_delete@VVMTHook@@@0@AAU10@@Z 10002060 f i c_hooks.obj
 0001:00001070       ??$_Copy_memmove@PAPAULegitPlayerRecords@@PAPAU1@@std@@YAPAPAULegitPlayerRecords@@PAPAU1@00@Z 10002070 f i Legitbot.obj
 0001:00001070       ??$_Copy_memmove@PAHPAH@std@@YAPAHPAH00@Z 10002070 f i animation_system.obj
 0001:00001070       ??$_Copy_memmove@PAPAUPlayerRecords@@PAPAU1@@std@@YAPAPAUPlayerRecords@@PAPAU1@00@Z 10002070 f i LagComp.obj
 0001:000010b0       ??$_Deallocate@$07$0A@@std@@YAXPAXI@Z 100020b0 f i animation_system.obj
 0001:000010e0       ??$destroy@PAUPlayerRecords@@@?$_Default_allocator_traits@V?$allocator@PAUPlayerRecords@@@std@@@std@@SAXAAV?$allocator@PAUPlayerRecords@@@1@QAPAUPlayerRecords@@@Z 100020e0 f i LagComp.obj
 0001:000010e0       ??$_Adl_verify_range@V?$_String_iterator@V?$_String_val@U?$_Simple_types@D@std@@@std@@@std@@V12@@std@@YAXABV?$_String_iterator@V?$_String_val@U?$_Simple_types@D@std@@@std@@@0@0@Z 100020e0 f i c_esp.obj
 0001:000010e0       ??$_Adl_verify_range@V?$_String_const_iterator@V?$_String_val@U?$_Simple_types@D@std@@@std@@@std@@V12@@std@@YAXABV?$_String_const_iterator@V?$_String_val@U?$_Simple_types@D@std@@@std@@@0@0@Z 100020e0 f i c_esp.obj
 0001:000010e0       ??$_Adl_verify_range@PADPAD@std@@YAXABQAD0@Z 100020e0 f i c_esp.obj
 0001:000010e0       ??$_Enable_shared_from_this1@UNode@NetvarTree@@U12@@std@@YAXABV?$shared_ptr@UNode@NetvarTree@@@0@PAUNode@NetvarTree@@U?$integral_constant@_N$0A@@0@@Z 100020e0 f i NetvarManager.obj
 0001:000010e0       ??$destroy@PAULegitPlayerRecords@@@?$_Default_allocator_traits@V?$allocator@PAULegitPlayerRecords@@@std@@@std@@SAXAAV?$allocator@PAULegitPlayerRecords@@@1@QAPAULegitPlayerRecords@@@Z 100020e0 f i Legitbot.obj
 0001:000010e0       ??$_Destroy_range1@V?$allocator@PAULegitPlayerRecords@@@std@@@std@@YAXPAPAULegitPlayerRecords@@0AAV?$allocator@PAULegitPlayerRecords@@@0@U?$integral_constant@_N$00@0@@Z 100020e0 f i Legitbot.obj
 0001:000010e0       ??$destroy@PAD@?$_Default_allocator_traits@V?$allocator@D@std@@@std@@SAXAAV?$allocator@D@1@QAPAD@Z 100020e0 f i animation_system.obj
 0001:000010e0       ??$destroy@U_Container_proxy@std@@@?$_Default_allocator_traits@V?$allocator@U_Container_proxy@std@@@std@@@std@@SAXAAV?$allocator@U_Container_proxy@std@@@1@QAU_Container_proxy@1@@Z 100020e0 f i LagComp.obj
 0001:000010e0       ??$_Destroy_range1@V?$allocator@PAUPlayerRecords@@@std@@@std@@YAXPAPAUPlayerRecords@@0AAV?$allocator@PAUPlayerRecords@@@0@U?$integral_constant@_N$00@0@@Z 100020e0 f i LagComp.obj
 0001:000010e0       ??$destroy@UPlayerRecords@@@?$_Default_allocator_traits@V?$allocator@UPlayerRecords@@@std@@@std@@SAXAAV?$allocator@UPlayerRecords@@@1@QAUPlayerRecords@@@Z 100020e0 f i LagComp.obj
 0001:000010e0       ??$_Adl_verify_range@V?$_Vector_const_iterator@V?$_Vector_val@U?$_Simple_types@V?$basic_string@DU?$char_traits@D@std@@V?$allocator@D@2@@std@@@std@@@std@@@std@@V12@@std@@YAXABV?$_Vector_const_iterator@V?$_Vector_val@U?$_Simple_types@V?$basic_string@DU?$char_traits@D@std@@V?$allocator@D@2@@std@@@std@@@std@@@0@0@Z 100020e0 f i config_system.obj
 0001:000010e0       ??$_Destroy_range1@V?$allocator@V?$_List_unchecked_iterator@V?$_List_val@U?$_List_simple_types@U?$pair@$$CBV?$basic_string@DU?$char_traits@D@std@@V?$allocator@D@2@@std@@V?$shared_ptr@UNode@NetvarTree@@@2@@std@@@std@@@std@@@std@@@std@@@std@@YAXPAV?$_List_unchecked_iterator@V?$_List_val@U?$_List_simple_types@U?$pair@$$CBV?$basic_string@DU?$char_traits@D@std@@V?$allocator@D@2@@std@@V?$shared_ptr@UNode@NetvarTree@@@2@@std@@@std@@@std@@@0@0AAV?$allocator@V?$_List_unchecked_iterator@V?$_List_val@U?$_List_simple_types@U?$pair@$$CBV?$basic_string@DU?$char_traits@D@std@@V?$allocator@D@2@@std@@V?$shared_ptr@UNode@NetvarTree@@@2@@std@@@std@@@std@@@std@@@0@U?$integral_constant@_N$00@0@@Z 100020e0 f i animation_system.obj
 0001:000010e0       ??$_Destroy_range1@V?$allocator@H@std@@@std@@YAXPAH0AAV?$allocator@H@0@U?$integral_constant@_N$00@0@@Z 100020e0 f i animation_system.obj
 0001:000010e0       ??$_Adl_verify_range@Vdirectory_iterator@filesystem@std@@V123@@std@@YAXABVdirectory_iterator@filesystem@0@0@Z 100020e0 f i config_system.obj
 0001:000010e0       ??$_Adl_verify_range@V?$_Deque_iterator@V?$_Deque_val@U?$_Deque_simple_types@UPlayerRecords@@@std@@@std@@@std@@V12@@std@@YAXABV?$_Deque_iterator@V?$_Deque_val@U?$_Deque_simple_types@UPlayerRecords@@@std@@@std@@@0@0@Z 100020e0 f i LagComp.obj
 0001:000010e0       ??$destroy@PAU?$_List_node@U?$pair@$$CBV?$basic_string@DU?$char_traits@D@std@@V?$allocator@D@2@@std@@V?$shared_ptr@UNode@NetvarTree@@@2@@std@@PAX@std@@@?$_Default_allocator_traits@V?$allocator@U?$_List_node@U?$pair@$$CBV?$basic_string@DU?$char_traits@D@std@@V?$allocator@D@2@@std@@V?$shared_ptr@UNode@NetvarTree@@@2@@std@@PAX@std@@@std@@@std@@SAXAAV?$allocator@U?$_List_node@U?$pair@$$CBV?$basic_string@DU?$char_traits@D@std@@V?$allocator@D@2@@std@@V?$shared_ptr@UNode@NetvarTree@@@2@@std@@PAX@std@@@1@QAPAU?$_List_node@U?$pair@$$CBV?$basic_string@DU?$char_traits@D@std@@V?$allocator@D@2@@std@@V?$shared_ptr@UNode@NetvarTree@@@2@@std@@PAX@1@@Z 100020e0 f i animation_system.obj
 0001:000010e0       ?Log@Utils@@SAXABV?$basic_string@DU?$char_traits@D@std@@V?$allocator@D@2@@std@@ZZ 100020e0 f i c_hooks.obj
 0001:000010e0       ??$_Adl_verify_range@PB_WPB_W@std@@YAXABQB_W0@Z 100020e0 f i config_system.obj
 0001:000010e0       ??$_Pocca@V?$allocator@_W@std@@@std@@YAXAAV?$allocator@_W@0@ABV10@U?$integral_constant@_N$0A@@0@@Z 100020e0 f i config_system.obj
 0001:000010e0       ??$_Adl_verify_range@V?$_Deque_iterator@V?$_Deque_val@U?$_Deque_simple_types@ULegitPlayerRecords@@@std@@@std@@@std@@V12@@std@@YAXABV?$_Deque_iterator@V?$_Deque_val@U?$_Deque_simple_types@ULegitPlayerRecords@@@std@@@std@@@0@0@Z 100020e0 f i Legitbot.obj
 0001:000010e0       ??$destroy@PA_W@?$_Default_allocator_traits@V?$allocator@_W@std@@@std@@SAXAAV?$allocator@_W@1@QAPA_W@Z 100020e0 f i config_system.obj
 0001:000010e0       ??3@YAXPAXUImPlacementNewDummy@@0@Z 100020e0 f i imgui.obj
 0001:000010e0       ??$destroy@ULegitPlayerRecords@@@?$_Default_allocator_traits@V?$allocator@ULegitPlayerRecords@@@std@@@std@@SAXAAV?$allocator@ULegitPlayerRecords@@@1@QAULegitPlayerRecords@@@Z 100020e0 f i Legitbot.obj
 0001:000010e0       ??$_Enable_shared_from_this1@U_Dir_enum_impl@filesystem@std@@U123@@std@@YAXABV?$shared_ptr@U_Dir_enum_impl@filesystem@std@@@0@PAU_Dir_enum_impl@filesystem@0@U?$integral_constant@_N$0A@@0@@Z 100020e0 f i config_system.obj
 0001:000010f0       ??$_Destroy_range@V?$allocator@PAUPlayerRecords@@@std@@@std@@YAXPAPAUPlayerRecords@@0AAV?$allocator@PAUPlayerRecords@@@0@@Z 100020f0 f i LagComp.obj
 0001:000010f0       ??$_Destroy_range@V?$allocator@V?$_List_unchecked_iterator@V?$_List_val@U?$_List_simple_types@U?$pair@$$CBV?$basic_string@DU?$char_traits@D@std@@V?$allocator@D@2@@std@@V?$shared_ptr@UNode@NetvarTree@@@2@@std@@@std@@@std@@@std@@@std@@@std@@YAXPAV?$_List_unchecked_iterator@V?$_List_val@U?$_List_simple_types@U?$pair@$$CBV?$basic_string@DU?$char_traits@D@std@@V?$allocator@D@2@@std@@V?$shared_ptr@UNode@NetvarTree@@@2@@std@@@std@@@std@@@0@0AAV?$allocator@V?$_List_unchecked_iterator@V?$_List_val@U?$_List_simple_types@U?$pair@$$CBV?$basic_string@DU?$char_traits@D@std@@V?$allocator@D@2@@std@@V?$shared_ptr@UNode@NetvarTree@@@2@@std@@@std@@@std@@@std@@@0@@Z 100020f0 f i animation_system.obj
 0001:000010f0       ??$_Destroy_range@V?$allocator@PAULegitPlayerRecords@@@std@@@std@@YAXPAPAULegitPlayerRecords@@0AAV?$allocator@PAULegitPlayerRecords@@@0@@Z 100020f0 f i Legitbot.obj
 0001:000010f0       ??$_Destroy_range@V?$allocator@H@std@@@std@@YAXPAH0AAV?$allocator@H@0@@Z 100020f0 f i animation_system.obj
 0001:00001120       ??$_Emplace_back@ABV?$_List_unchecked_iterator@V?$_List_val@U?$_List_simple_types@U?$pair@$$CBV?$basic_string@DU?$char_traits@D@std@@V?$allocator@D@2@@std@@V?$shared_ptr@UNode@NetvarTree@@@2@@std@@@std@@@std@@@std@@@?$_Uninitialized_backout_al@PAV?$_List_unchecked_iterator@V?$_List_val@U?$_List_simple_types@U?$pair@$$CBV?$basic_string@DU?$char_traits@D@std@@V?$allocator@D@2@@std@@V?$shared_ptr@UNode@NetvarTree@@@2@@std@@@std@@@std@@@std@@V?$allocator@V?$_List_unchecked_iterator@V?$_List_val@U?$_List_simple_types@U?$pair@$$CBV?$basic_string@DU?$char_traits@D@std@@V?$allocator@D@2@@std@@V?$shared_ptr@UNode@NetvarTree@@@2@@std@@@std@@@std@@@std@@@2@@std@@QAEXABV?$_List_unchecked_iterator@V?$_List_val@U?$_List_simple_types@U?$pair@$$CBV?$basic_string@DU?$char_traits@D@std@@V?$allocator@D@2@@std@@V?$shared_ptr@UNode@NetvarTree@@@2@@std@@@std@@@std@@@1@@Z 10002120 f i animation_system.obj
 0001:00001120       ??$_Emplace_back@V?$_List_unchecked_iterator@V?$_List_val@U?$_List_simple_types@U?$pair@$$CBV?$basic_string@DU?$char_traits@D@std@@V?$allocator@D@2@@std@@V?$shared_ptr@UNode@NetvarTree@@@2@@std@@@std@@@std@@@std@@@?$_Uninitialized_backout_al@PAV?$_List_unchecked_iterator@V?$_List_val@U?$_List_simple_types@U?$pair@$$CBV?$basic_string@DU?$char_traits@D@std@@V?$allocator@D@2@@std@@V?$shared_ptr@UNode@NetvarTree@@@2@@std@@@std@@@std@@@std@@V?$allocator@V?$_List_unchecked_iterator@V?$_List_val@U?$_List_simple_types@U?$pair@$$CBV?$basic_string@DU?$char_traits@D@std@@V?$allocator@D@2@@std@@V?$shared_ptr@UNode@NetvarTree@@@2@@std@@@std@@@std@@@std@@@2@@std@@QAEX$$QAV?$_List_unchecked_iterator@V?$_List_val@U?$_List_simple_types@U?$pair@$$CBV?$basic_string@DU?$char_traits@D@std@@V?$allocator@D@2@@std@@V?$shared_ptr@UNode@NetvarTree@@@2@@std@@@std@@@std@@@1@@Z 10002120 f i animation_system.obj
 0001:00001180       ??$_Emplace_back_with_unused_capacity@H@?$vector@HV?$allocator@H@std@@@std@@AAEAAH$$QAH@Z 10002180 f i animation_system.obj
 0001:00001230       ??$_Emplace_reallocate@H@?$vector@HV?$allocator@H@std@@@std@@QAEPAHQAH$$QAH@Z 10002230 f i animation_system.obj
 0001:00001420       ??$_Ptr_move_cat@V?$basic_string@DU?$char_traits@D@std@@V?$allocator@D@2@@std@@V12@@std@@YA?AU_General_ptr_iterator_tag@0@ABQAV?$basic_string@DU?$char_traits@D@std@@V?$allocator@D@2@@0@0@Z 10002420 f i config_system.obj
 0001:00001420       ??$_Ptr_move_cat@V?$_Deque_unchecked_iterator@V?$_Deque_val@U?$_Deque_simple_types@ULegitPlayerRecords@@@std@@@std@@@std@@V12@@std@@YA?AU_General_ptr_iterator_tag@0@ABV?$_Deque_unchecked_iterator@V?$_Deque_val@U?$_Deque_simple_types@ULegitPlayerRecords@@@std@@@std@@@0@0@Z 10002420 f i Legitbot.obj
 0001:00001420       ??$_Fill_memset_is_safe@PAV?$_List_unchecked_iterator@V?$_List_val@U?$_List_simple_types@U?$pair@$$CBV?$basic_string@DU?$char_traits@D@std@@V?$allocator@D@2@@std@@V?$shared_ptr@UNode@NetvarTree@@@2@@std@@@std@@@std@@@std@@V12@@std@@YA?AU?$integral_constant@_N$0A@@0@ABQAV?$_List_unchecked_iterator@V?$_List_val@U?$_List_simple_types@U?$pair@$$CBV?$basic_string@DU?$char_traits@D@std@@V?$allocator@D@2@@std@@V?$shared_ptr@UNode@NetvarTree@@@2@@std@@@std@@@std@@@0@ABV20@@Z 10002420 f i animation_system.obj
 0001:00001420       ??$_Idl_distance@Vdirectory_iterator@filesystem@std@@V123@@std@@YA?AU_Distance_unknown@0@ABVdirectory_iterator@filesystem@0@0@Z 10002420 f i config_system.obj
 0001:00001420       ??$_Ptr_move_cat@V?$_Deque_unchecked_iterator@V?$_Deque_val@U?$_Deque_simple_types@UPlayerRecords@@@std@@@std@@@std@@V12@@std@@YA?AU_General_ptr_iterator_tag@0@ABV?$_Deque_unchecked_iterator@V?$_Deque_val@U?$_Deque_simple_types@UPlayerRecords@@@std@@@std@@@0@0@Z 10002420 f i LagComp.obj
 0001:00001430       ??$_Fill_unchecked1@PAV?$_List_unchecked_iterator@V?$_List_val@U?$_List_simple_types@U?$pair@$$CBV?$basic_string@DU?$char_traits@D@std@@V?$allocator@D@2@@std@@V?$shared_ptr@UNode@NetvarTree@@@2@@std@@@std@@@std@@@std@@V12@@std@@YAXPAV?$_List_unchecked_iterator@V?$_List_val@U?$_List_simple_types@U?$pair@$$CBV?$basic_string@DU?$char_traits@D@std@@V?$allocator@D@2@@std@@V?$shared_ptr@UNode@NetvarTree@@@2@@std@@@std@@@std@@@0@0ABV10@U?$integral_constant@_N$0A@@0@@Z 10002430 f i animation_system.obj
 0001:00001460       ??$_Fill_unchecked@PAV?$_List_unchecked_iterator@V?$_List_val@U?$_List_simple_types@U?$pair@$$CBV?$basic_string@DU?$char_traits@D@std@@V?$allocator@D@2@@std@@V?$shared_ptr@UNode@NetvarTree@@@2@@std@@@std@@@std@@@std@@V12@@std@@YAXPAV?$_List_unchecked_iterator@V?$_List_val@U?$_List_simple_types@U?$pair@$$CBV?$basic_string@DU?$char_traits@D@std@@V?$allocator@D@2@@std@@V?$shared_ptr@UNode@NetvarTree@@@2@@std@@@std@@@std@@@0@0ABV10@@Z 10002460 f i animation_system.obj
 0001:000014a0       ??$_Freenode0@V?$allocator@U?$_List_node@U?$pair@$$CBV?$basic_string@DU?$char_traits@D@std@@V?$allocator@D@2@@std@@V?$shared_ptr@UNode@NetvarTree@@@2@@std@@PAX@std@@@std@@@?$_List_node@U?$pair@$$CBV?$basic_string@DU?$char_traits@D@std@@V?$allocator@D@2@@std@@V?$shared_ptr@UNode@NetvarTree@@@2@@std@@PAX@std@@SAXAAV?$allocator@U?$_List_node@U?$pair@$$CBV?$basic_string@DU?$char_traits@D@std@@V?$allocator@D@2@@std@@V?$shared_ptr@UNode@NetvarTree@@@2@@std@@PAX@std@@@1@PAU01@@Z 100024a0 f i animation_system.obj
 0001:00001520       ??$_Get_size_of_n@$03@std@@YAII@Z 10002520 f i animation_system.obj
 0001:00001550       ??$_Get_size_of_n@$0CI@@std@@YAII@Z 10002550 f i animation_system.obj
 0001:00001580       ??$_Hash_array_representation@D@std@@YAIQBDI@Z 10002580 f i animation_system.obj
 0001:000015a0       ??$_Idl_distance@PAPAUPlayerRecords@@PAPAU1@@std@@YAHABQAPAUPlayerRecords@@0@Z 100025a0 f i LagComp.obj
 0001:000015a0       ??$_Idl_distance@PAV?$_List_unchecked_iterator@V?$_List_val@U?$_List_simple_types@U?$pair@$$CBV?$basic_string@DU?$char_traits@D@std@@V?$allocator@D@2@@std@@V?$shared_ptr@UNode@NetvarTree@@@2@@std@@@std@@@std@@@std@@PAV12@@std@@YAHABQAV?$_List_unchecked_iterator@V?$_List_val@U?$_List_simple_types@U?$pair@$$CBV?$basic_string@DU?$char_traits@D@std@@V?$allocator@D@2@@std@@V?$shared_ptr@UNode@NetvarTree@@@2@@std@@@std@@@std@@@0@0@Z 100025a0 f i animation_system.obj
 0001:000015a0       ??$_Idl_distance@PAHPAH@std@@YAHABQAH0@Z 100025a0 f i animation_system.obj
 0001:000015a0       ??$_Idl_distance@PAPAULegitPlayerRecords@@PAPAU1@@std@@YAHABQAPAULegitPlayerRecords@@0@Z 100025a0 f i Legitbot.obj
 0001:000015c0       ??$_Insert@AAU?$pair@$$CBV?$basic_string@DU?$char_traits@D@std@@V?$allocator@D@2@@std@@V?$shared_ptr@UNode@NetvarTree@@@2@@std@@V?$_List_unchecked_iterator@V?$_List_val@U?$_List_simple_types@U?$pair@$$CBV?$basic_string@DU?$char_traits@D@std@@V?$allocator@D@2@@std@@V?$shared_ptr@UNode@NetvarTree@@@2@@std@@@std@@@std@@@2@@?$_Hash@V?$_Umap_traits@V?$basic_string@DU?$char_traits@D@std@@V?$allocator@D@2@@std@@V?$shared_ptr@UNode@NetvarTree@@@2@V?$_Uhash_compare@V?$basic_string@DU?$char_traits@D@std@@V?$allocator@D@2@@std@@U?$hash@V?$basic_string@DU?$char_traits@D@std@@V?$allocator@D@2@@std@@@2@U?$equal_to@V?$basic_string@DU?$char_traits@D@std@@V?$allocator@D@2@@std@@@2@@2@V?$allocator@U?$pair@$$CBV?$basic_string@DU?$char_traits@D@std@@V?$allocator@D@2@@std@@V?$shared_ptr@UNode@NetvarTree@@@2@@std@@@2@$0A@@std@@@std@@IAE?AU?$pair@V?$_List_iterator@V?$_List_val@U?$_List_simple_types@U?$pair@$$CBV?$basic_string@DU?$char_traits@D@std@@V?$allocator@D@2@@std@@V?$shared_ptr@UNode@NetvarTree@@@2@@std@@@std@@@std@@@std@@_N@1@AAU?$pair@$$CBV?$basic_string@DU?$char_traits@D@std@@V?$allocator@D@2@@std@@V?$shared_ptr@UNode@NetvarTree@@@2@@1@V?$_List_unchecked_iterator@V?$_List_val@U?$_List_simple_types@U?$pair@$$CBV?$basic_string@DU?$char_traits@D@std@@V?$allocator@D@2@@std@@V?$shared_ptr@UNode@NetvarTree@@@2@@std@@@std@@@std@@@1@@Z 100025c0 f i animation_system.obj
 0001:00001870       ??$_Insert@ABUpiecewise_construct_t@std@@V?$tuple@$$QAV?$basic_string@DU?$char_traits@D@std@@V?$allocator@D@2@@std@@@2@V?$tuple@$$V@2@@?$list@U?$pair@$$CBV?$basic_string@DU?$char_traits@D@std@@V?$allocator@D@2@@std@@V?$shared_ptr@UNode@NetvarTree@@@2@@std@@V?$allocator@U?$pair@$$CBV?$basic_string@DU?$char_traits@D@std@@V?$allocator@D@2@@std@@V?$shared_ptr@UNode@NetvarTree@@@2@@std@@@2@@std@@QAEXV?$_List_unchecked_const_iterator@V?$_List_val@U?$_List_simple_types@U?$pair@$$CBV?$basic_string@DU?$char_traits@D@std@@V?$allocator@D@2@@std@@V?$shared_ptr@UNode@NetvarTree@@@2@@std@@@std@@@std@@U_Iterator_base0@2@@1@ABUpiecewise_construct_t@1@$$QAV?$tuple@$$QAV?$basic_string@DU?$char_traits@D@std@@V?$allocator@D@2@@std@@@1@$$QAV?$tuple@$$V@1@@Z 10002870 f i animation_system.obj
 0001:00001900       ??$_Max_value@I@std@@YAABIABI0@Z 10002900 f i animation_system.obj
 0001:00001930       ??$_Min_value@I@std@@YAABIABI0@Z 10002930 f i animation_system.obj
 0001:00001960       ??$_Ptr_copy_cat@PAULegitPlayerRecords@@PAU1@@std@@YA?AU_Really_trivial_ptr_iterator_tag@0@ABQAPAULegitPlayerRecords@@0@Z 10002960 f i Legitbot.obj
 0001:00001960       ??$_Ptr_move_cat@V?$_List_unchecked_iterator@V?$_List_val@U?$_List_simple_types@U?$pair@$$CBV?$basic_string@DU?$char_traits@D@std@@V?$allocator@D@2@@std@@V?$shared_ptr@UNode@NetvarTree@@@2@@std@@@std@@@std@@@std@@V12@@std@@YA?AU_Trivially_copyable_ptr_iterator_tag@0@ABQAV?$_List_unchecked_iterator@V?$_List_val@U?$_List_simple_types@U?$pair@$$CBV?$basic_string@DU?$char_traits@D@std@@V?$allocator@D@2@@std@@V?$shared_ptr@UNode@NetvarTree@@@2@@std@@@std@@@std@@@0@0@Z 10002960 f i animation_system.obj
 0001:00001960       ??$_Ptr_copy_cat@PAUPlayerRecords@@PAU1@@std@@YA?AU_Really_trivial_ptr_iterator_tag@0@ABQAPAUPlayerRecords@@0@Z 10002960 f i LagComp.obj
 0001:00001960       ??$_Ptr_move_cat@HH@std@@YA?AU_Really_trivial_ptr_iterator_tag@0@ABQAH0@Z 10002960 f i animation_system.obj
 0001:00001970       ??$_Reallocate_for@V<lambda_9366063389c5f42a00a5088cf24e69de>@@PBD@?$basic_string@DU?$char_traits@D@std@@V?$allocator@D@2@@std@@QAEAAV01@IV<lambda_9366063389c5f42a00a5088cf24e69de>@@PBD@Z 10002970 f i animation_system.obj
 0001:00001a50       ??$_Seek_wrapped@PAULegitPlayerRecords@@@std@@YAXAAPAPAULegitPlayerRecords@@QAPAU1@@Z 10002a50 f i Legitbot.obj
 0001:00001a50       ??$_Seek_wrapped@$$CB_W@std@@YAXAAPB_WQB_W@Z 10002a50 f i config_system.obj
 0001:00001a50       ??$_Seek_wrapped@V?$basic_string@DU?$char_traits@D@std@@V?$allocator@D@2@@std@@@std@@YAXAAPAV?$basic_string@DU?$char_traits@D@std@@V?$allocator@D@2@@0@QAV10@@Z 10002a50 f i config_system.obj
 0001:00001a50       ??$_Seek_wrapped@PAUPlayerRecords@@@std@@YAXAAPAPAUPlayerRecords@@QAPAU1@@Z 10002a50 f i LagComp.obj
 0001:00001a50       ??$_Seek_wrapped@V?$_List_unchecked_iterator@V?$_List_val@U?$_List_simple_types@U?$pair@$$CBV?$basic_string@DU?$char_traits@D@std@@V?$allocator@D@2@@std@@V?$shared_ptr@UNode@NetvarTree@@@2@@std@@@std@@@std@@@std@@@std@@YAXAAPAV?$_List_unchecked_iterator@V?$_List_val@U?$_List_simple_types@U?$pair@$$CBV?$basic_string@DU?$char_traits@D@std@@V?$allocator@D@2@@std@@V?$shared_ptr@UNode@NetvarTree@@@2@@std@@@std@@@std@@@0@QAV10@@Z 10002a50 f i animation_system.obj
 0001:00001a50       ??$_Seek_wrapped@H@std@@YAXAAPAHQAH@Z 10002a50 f i animation_system.obj
 0001:00001a60       ??$_Traits_equal@U?$char_traits@D@std@@@std@@YA_NQBDI0I@Z 10002a60 f i animation_system.obj
 0001:00001aa0       ??$_Try_emplace@V?$basic_string@DU?$char_traits@D@std@@V?$allocator@D@2@@std@@$$V@?$unordered_map@V?$basic_string@DU?$char_traits@D@std@@V?$allocator@D@2@@std@@V?$shared_ptr@UNode@NetvarTree@@@2@U?$hash@V?$basic_string@DU?$char_traits@D@std@@V?$allocator@D@2@@std@@@2@U?$equal_to@V?$basic_string@DU?$char_traits@D@std@@V?$allocator@D@2@@std@@@2@V?$allocator@U?$pair@$$CBV?$basic_string@DU?$char_traits@D@std@@V?$allocator@D@2@@std@@V?$shared_ptr@UNode@NetvarTree@@@2@@std@@@2@@std@@QAE?AU?$pair@V?$_List_iterator@V?$_List_val@U?$_List_simple_types@U?$pair@$$CBV?$basic_string@DU?$char_traits@D@std@@V?$allocator@D@2@@std@@V?$shared_ptr@UNode@NetvarTree@@@2@@std@@@std@@@std@@@std@@_N@1@$$QAV?$basic_string@DU?$char_traits@D@std@@V?$allocator@D@2@@1@@Z 10002aa0 f i animation_system.obj
 0001:00001b40       ??$_Uninit_alloc_fill_n1@PAV?$_List_unchecked_iterator@V?$_List_val@U?$_List_simple_types@U?$pair@$$CBV?$basic_string@DU?$char_traits@D@std@@V?$allocator@D@2@@std@@V?$shared_ptr@UNode@NetvarTree@@@2@@std@@@std@@@std@@@std@@IV?$allocator@V?$_List_unchecked_iterator@V?$_List_val@U?$_List_simple_types@U?$pair@$$CBV?$basic_string@DU?$char_traits@D@std@@V?$allocator@D@2@@std@@V?$shared_ptr@UNode@NetvarTree@@@2@@std@@@std@@@std@@@std@@@2@@std@@YAPAV?$_List_unchecked_iterator@V?$_List_val@U?$_List_simple_types@U?$pair@$$CBV?$basic_string@DU?$char_traits@D@std@@V?$allocator@D@2@@std@@V?$shared_ptr@UNode@NetvarTree@@@2@@std@@@std@@@std@@@0@QAV10@IABV10@AAV?$allocator@V?$_List_unchecked_iterator@V?$_List_val@U?$_List_simple_types@U?$pair@$$CBV?$basic_string@DU?$char_traits@D@std@@V?$allocator@D@2@@std@@V?$shared_ptr@UNode@NetvarTree@@@2@@std@@@std@@@std@@@std@@@0@U?$integral_constant@_N$0A@@0@@Z 10002b40 f i animation_system.obj
 0001:00001bd0       ??$_Uninitialized_fill_n@PAV?$_List_unchecked_iterator@V?$_List_val@U?$_List_simple_types@U?$pair@$$CBV?$basic_string@DU?$char_traits@D@std@@V?$allocator@D@2@@std@@V?$shared_ptr@UNode@NetvarTree@@@2@@std@@@std@@@std@@@std@@IV?$allocator@V?$_List_unchecked_iterator@V?$_List_val@U?$_List_simple_types@U?$pair@$$CBV?$basic_string@DU?$char_traits@D@std@@V?$allocator@D@2@@std@@V?$shared_ptr@UNode@NetvarTree@@@2@@std@@@std@@@std@@@std@@@2@@std@@YAPAV?$_List_unchecked_iterator@V?$_List_val@U?$_List_simple_types@U?$pair@$$CBV?$basic_string@DU?$char_traits@D@std@@V?$allocator@D@2@@std@@V?$shared_ptr@UNode@NetvarTree@@@2@@std@@@std@@@std@@@0@QAV10@IABV10@AAV?$allocator@V?$_List_unchecked_iterator@V?$_List_val@U?$_List_simple_types@U?$pair@$$CBV?$basic_string@DU?$char_traits@D@std@@V?$allocator@D@2@@std@@V?$shared_ptr@UNode@NetvarTree@@@2@@std@@@std@@@std@@@std@@@0@@Z 10002bd0 f i animation_system.obj
 0001:00001c00       ??$_Uninitialized_copy@PAPAUPlayerRecords@@PAPAU1@V?$allocator@PAUPlayerRecords@@@std@@@std@@YAPAPAUPlayerRecords@@QAPAU1@0PAPAU1@AAV?$allocator@PAUPlayerRecords@@@0@@Z 10002c00 f i LagComp.obj
 0001:00001c00       ??$_Uninitialized_copy@PAPAULegitPlayerRecords@@PAPAU1@V?$allocator@PAULegitPlayerRecords@@@std@@@std@@YAPAPAULegitPlayerRecords@@QAPAU1@0PAPAU1@AAV?$allocator@PAULegitPlayerRecords@@@0@@Z 10002c00 f i Legitbot.obj
 0001:00001c00       ??$_Uninitialized_move@PAHPAHV?$allocator@H@std@@@std@@YAPAHQAH0PAHAAV?$allocator@H@0@@Z 10002c00 f i animation_system.obj
 0001:00001cd0       ??$_Uninitialized_move@PAV?$_List_unchecked_iterator@V?$_List_val@U?$_List_simple_types@U?$pair@$$CBV?$basic_string@DU?$char_traits@D@std@@V?$allocator@D@2@@std@@V?$shared_ptr@UNode@NetvarTree@@@2@@std@@@std@@@std@@@std@@PAV12@V?$allocator@V?$_List_unchecked_iterator@V?$_List_val@U?$_List_simple_types@U?$pair@$$CBV?$basic_string@DU?$char_traits@D@std@@V?$allocator@D@2@@std@@V?$shared_ptr@UNode@NetvarTree@@@2@@std@@@std@@@std@@@std@@@2@@std@@YAPAV?$_List_unchecked_iterator@V?$_List_val@U?$_List_simple_types@U?$pair@$$CBV?$basic_string@DU?$char_traits@D@std@@V?$allocator@D@2@@std@@V?$shared_ptr@UNode@NetvarTree@@@2@@std@@@std@@@std@@@0@QAV10@0PAV10@AAV?$allocator@V?$_List_unchecked_iterator@V?$_List_val@U?$_List_simple_types@U?$pair@$$CBV?$basic_string@DU?$char_traits@D@std@@V?$allocator@D@2@@std@@V?$shared_ptr@UNode@NetvarTree@@@2@@std@@@std@@@std@@@std@@@0@@Z 10002cd0 f i animation_system.obj
 0001:00001d90       ??$_Uninitialized_copy_al_unchecked@PAULegitPlayerRecords@@PAU1@V?$allocator@PAULegitPlayerRecords@@@std@@@std@@YAPAPAULegitPlayerRecords@@QAPAU1@00AAV?$allocator@PAULegitPlayerRecords@@@0@U_Really_trivial_ptr_iterator_tag@0@U?$integral_constant@_N$00@0@@Z 10002d90 f i Legitbot.obj
 0001:00001d90       ??$_Uninitialized_copy_al_unchecked@PAUPlayerRecords@@PAU1@V?$allocator@PAUPlayerRecords@@@std@@@std@@YAPAPAUPlayerRecords@@QAPAU1@00AAV?$allocator@PAUPlayerRecords@@@0@U_Really_trivial_ptr_iterator_tag@0@U?$integral_constant@_N$00@0@@Z 10002d90 f i LagComp.obj
 0001:00001d90       ??$_Uninitialized_move_al_unchecked@HHV?$allocator@H@std@@@std@@YAPAHQAH00AAV?$allocator@H@0@U_Really_trivial_ptr_iterator_tag@0@U?$integral_constant@_N$00@0@@Z 10002d90 f i animation_system.obj
 0001:00001db0       ??$_Uninitialized_move_al_unchecked@PAV?$_List_unchecked_iterator@V?$_List_val@U?$_List_simple_types@U?$pair@$$CBV?$basic_string@DU?$char_traits@D@std@@V?$allocator@D@2@@std@@V?$shared_ptr@UNode@NetvarTree@@@2@@std@@@std@@@std@@@std@@PAV12@V?$allocator@V?$_List_unchecked_iterator@V?$_List_val@U?$_List_simple_types@U?$pair@$$CBV?$basic_string@DU?$char_traits@D@std@@V?$allocator@D@2@@std@@V?$shared_ptr@UNode@NetvarTree@@@2@@std@@@std@@@std@@@std@@@2@@std@@YAPAV?$_List_unchecked_iterator@V?$_List_val@U?$_List_simple_types@U?$pair@$$CBV?$basic_string@DU?$char_traits@D@std@@V?$allocator@D@2@@std@@V?$shared_ptr@UNode@NetvarTree@@@2@@std@@@std@@@std@@@0@PAV10@QAV10@1AAV?$allocator@V?$_List_unchecked_iterator@V?$_List_val@U?$_List_simple_types@U?$pair@$$CBV?$basic_string@DU?$char_traits@D@std@@V?$allocator@D@2@@std@@V?$shared_ptr@UNode@NetvarTree@@@2@@std@@@std@@@std@@@std@@@0@U_General_ptr_iterator_tag@0@U_Unused_parameter@0@@Z 10002db0 f i animation_system.obj
 0001:00001e50       ??$construct@PA_WABQA_W@?$_Default_allocator_traits@V?$allocator@_W@std@@@std@@SAXAAV?$allocator@_W@1@QAPA_WABQA_W@Z 10002e50 f i config_system.obj
 0001:00001e50       ??$construct@PADABQAD@?$_Default_allocator_traits@V?$allocator@D@std@@@std@@SAXAAV?$allocator@D@1@QAPADABQAD@Z 10002e50 f i animation_system.obj
 0001:00001e50       ??$construct@HH@?$_Default_allocator_traits@V?$allocator@H@std@@@std@@SAXAAV?$allocator@H@1@QAH$$QAH@Z 10002e50 f i animation_system.obj
 0001:00001e50       ??$construct@PAU?$_List_node@U?$pair@$$CBV?$basic_string@DU?$char_traits@D@std@@V?$allocator@D@2@@std@@V?$shared_ptr@UNode@NetvarTree@@@2@@std@@PAX@std@@AAPAU12@@?$_Default_allocator_traits@V?$allocator@U?$_List_node@U?$pair@$$CBV?$basic_string@DU?$char_traits@D@std@@V?$allocator@D@2@@std@@V?$shared_ptr@UNode@NetvarTree@@@2@@std@@PAX@std@@@std@@@std@@SAXAAV?$allocator@U?$_List_node@U?$pair@$$CBV?$basic_string@DU?$char_traits@D@std@@V?$allocator@D@2@@std@@V?$shared_ptr@UNode@NetvarTree@@@2@@std@@PAX@std@@@1@QAPAU?$_List_node@U?$pair@$$CBV?$basic_string@DU?$char_traits@D@std@@V?$allocator@D@2@@std@@V?$shared_ptr@UNode@NetvarTree@@@2@@std@@PAX@1@AAPAU31@@Z 10002e50 f i animation_system.obj
 0001:00001e80       ??$construct@U?$pair@$$CBV?$basic_string@DU?$char_traits@D@std@@V?$allocator@D@2@@std@@V?$shared_ptr@UNode@NetvarTree@@@2@@std@@ABUpiecewise_construct_t@2@V?$tuple@$$QAV?$basic_string@DU?$char_traits@D@std@@V?$allocator@D@2@@std@@@2@V?$tuple@$$V@2@@?$_Default_allocator_traits@V?$allocator@U?$_List_node@U?$pair@$$CBV?$basic_string@DU?$char_traits@D@std@@V?$allocator@D@2@@std@@V?$shared_ptr@UNode@NetvarTree@@@2@@std@@PAX@std@@@std@@@std@@SAXAAV?$allocator@U?$_List_node@U?$pair@$$CBV?$basic_string@DU?$char_traits@D@std@@V?$allocator@D@2@@std@@V?$shared_ptr@UNode@NetvarTree@@@2@@std@@PAX@std@@@1@QAU?$pair@$$CBV?$basic_string@DU?$char_traits@D@std@@V?$allocator@D@2@@std@@V?$shared_ptr@UNode@NetvarTree@@@2@@1@ABUpiecewise_construct_t@1@$$QAV?$tuple@$$QAV?$basic_string@DU?$char_traits@D@std@@V?$allocator@D@2@@std@@@1@$$QAV?$tuple@$$V@1@@Z 10002e80 f i animation_system.obj
 0001:00001f00       ??$construct@V?$_List_unchecked_iterator@V?$_List_val@U?$_List_simple_types@U?$pair@$$CBV?$basic_string@DU?$char_traits@D@std@@V?$allocator@D@2@@std@@V?$shared_ptr@UNode@NetvarTree@@@2@@std@@@std@@@std@@@std@@V12@@?$_Default_allocator_traits@V?$allocator@V?$_List_unchecked_iterator@V?$_List_val@U?$_List_simple_types@U?$pair@$$CBV?$basic_string@DU?$char_traits@D@std@@V?$allocator@D@2@@std@@V?$shared_ptr@UNode@NetvarTree@@@2@@std@@@std@@@std@@@std@@@std@@@std@@SAXAAV?$allocator@V?$_List_unchecked_iterator@V?$_List_val@U?$_List_simple_types@U?$pair@$$CBV?$basic_string@DU?$char_traits@D@std@@V?$allocator@D@2@@std@@V?$shared_ptr@UNode@NetvarTree@@@2@@std@@@std@@@std@@@std@@@1@QAV?$_List_unchecked_iterator@V?$_List_val@U?$_List_simple_types@U?$pair@$$CBV?$basic_string@DU?$char_traits@D@std@@V?$allocator@D@2@@std@@V?$shared_ptr@UNode@NetvarTree@@@2@@std@@@std@@@std@@@1@$$QAV31@@Z 10002f00 f i animation_system.obj
 0001:00001f00       ??$construct@V?$_List_unchecked_iterator@V?$_List_val@U?$_List_simple_types@U?$pair@$$CBV?$basic_string@DU?$char_traits@D@std@@V?$allocator@D@2@@std@@V?$shared_ptr@UNode@NetvarTree@@@2@@std@@@std@@@std@@@std@@ABV12@@?$_Default_allocator_traits@V?$allocator@V?$_List_unchecked_iterator@V?$_List_val@U?$_List_simple_types@U?$pair@$$CBV?$basic_string@DU?$char_traits@D@std@@V?$allocator@D@2@@std@@V?$shared_ptr@UNode@NetvarTree@@@2@@std@@@std@@@std@@@std@@@std@@@std@@SAXAAV?$allocator@V?$_List_unchecked_iterator@V?$_List_val@U?$_List_simple_types@U?$pair@$$CBV?$basic_string@DU?$char_traits@D@std@@V?$allocator@D@2@@std@@V?$shared_ptr@UNode@NetvarTree@@@2@@std@@@std@@@std@@@std@@@1@QAV?$_List_unchecked_iterator@V?$_List_val@U?$_List_simple_types@U?$pair@$$CBV?$basic_string@DU?$char_traits@D@std@@V?$allocator@D@2@@std@@V?$shared_ptr@UNode@NetvarTree@@@2@@std@@@std@@@std@@@1@ABV31@@Z 10002f00 f i animation_system.obj
 0001:00001f30       ??$destroy@U?$pair@$$CBV?$basic_string@DU?$char_traits@D@std@@V?$allocator@D@2@@std@@V?$shared_ptr@UNode@NetvarTree@@@2@@std@@@?$_Default_allocator_traits@V?$allocator@U?$_List_node@U?$pair@$$CBV?$basic_string@DU?$char_traits@D@std@@V?$allocator@D@2@@std@@V?$shared_ptr@UNode@NetvarTree@@@2@@std@@PAX@std@@@std@@@std@@SAXAAV?$allocator@U?$_List_node@U?$pair@$$CBV?$basic_string@DU?$char_traits@D@std@@V?$allocator@D@2@@std@@V?$shared_ptr@UNode@NetvarTree@@@2@@std@@PAX@std@@@1@QAU?$pair@$$CBV?$basic_string@DU?$char_traits@D@std@@V?$allocator@D@2@@std@@V?$shared_ptr@UNode@NetvarTree@@@2@@1@@Z 10002f30 f i animation_system.obj
 0001:00001f40       ??$emplace@ABUpiecewise_construct_t@std@@V?$tuple@$$QAV?$basic_string@DU?$char_traits@D@std@@V?$allocator@D@2@@std@@@2@V?$tuple@$$V@2@@?$_Hash@V?$_Umap_traits@V?$basic_string@DU?$char_traits@D@std@@V?$allocator@D@2@@std@@V?$shared_ptr@UNode@NetvarTree@@@2@V?$_Uhash_compare@V?$basic_string@DU?$char_traits@D@std@@V?$allocator@D@2@@std@@U?$hash@V?$basic_string@DU?$char_traits@D@std@@V?$allocator@D@2@@std@@@2@U?$equal_to@V?$basic_string@DU?$char_traits@D@std@@V?$allocator@D@2@@std@@@2@@2@V?$allocator@U?$pair@$$CBV?$basic_string@DU?$char_traits@D@std@@V?$allocator@D@2@@std@@V?$shared_ptr@UNode@NetvarTree@@@2@@std@@@2@$0A@@std@@@std@@QAE?AU?$pair@V?$_List_iterator@V?$_List_val@U?$_List_simple_types@U?$pair@$$CBV?$basic_string@DU?$char_traits@D@std@@V?$allocator@D@2@@std@@V?$shared_ptr@UNode@NetvarTree@@@2@@std@@@std@@@std@@@std@@_N@1@ABUpiecewise_construct_t@1@$$QAV?$tuple@$$QAV?$basic_string@DU?$char_traits@D@std@@V?$allocator@D@2@@std@@@1@$$QAV?$tuple@$$V@1@@Z 10002f40 f i animation_system.obj
 0001:00001fd0       ??$emplace_back@H@?$vector@HV?$allocator@H@std@@@std@@QAEAAH$$QAH@Z 10002fd0 f i animation_system.obj
 0001:00002040       ??$emplace_front@ABUpiecewise_construct_t@std@@V?$tuple@$$QAV?$basic_string@DU?$char_traits@D@std@@V?$allocator@D@2@@std@@@2@V?$tuple@$$V@2@@?$list@U?$pair@$$CBV?$basic_string@DU?$char_traits@D@std@@V?$allocator@D@2@@std@@V?$shared_ptr@UNode@NetvarTree@@@2@@std@@V?$allocator@U?$pair@$$CBV?$basic_string@DU?$char_traits@D@std@@V?$allocator@D@2@@std@@V?$shared_ptr@UNode@NetvarTree@@@2@@std@@@2@@std@@QAEAAU?$pair@$$CBV?$basic_string@DU?$char_traits@D@std@@V?$allocator@D@2@@std@@V?$shared_ptr@UNode@NetvarTree@@@2@@1@ABUpiecewise_construct_t@1@$$QAV?$tuple@$$QAV?$basic_string@DU?$char_traits@D@std@@V?$allocator@D@2@@std@@@1@$$QAV?$tuple@$$V@1@@Z 10003040 f i animation_system.obj
 0001:000020c0       ??$erase@V?$_List_iterator@V?$_List_val@U?$_List_simple_types@U?$pair@$$CBV?$basic_string@DU?$char_traits@D@std@@V?$allocator@D@2@@std@@V?$shared_ptr@UNode@NetvarTree@@@2@@std@@@std@@@std@@@std@@X@?$_Hash@V?$_Umap_traits@V?$basic_string@DU?$char_traits@D@std@@V?$allocator@D@2@@std@@V?$shared_ptr@UNode@NetvarTree@@@2@V?$_Uhash_compare@V?$basic_string@DU?$char_traits@D@std@@V?$allocator@D@2@@std@@U?$hash@V?$basic_string@DU?$char_traits@D@std@@V?$allocator@D@2@@std@@@2@U?$equal_to@V?$basic_string@DU?$char_traits@D@std@@V?$allocator@D@2@@std@@@2@@2@V?$allocator@U?$pair@$$CBV?$basic_string@DU?$char_traits@D@std@@V?$allocator@D@2@@std@@V?$shared_ptr@UNode@NetvarTree@@@2@@std@@@2@$0A@@std@@@std@@QAE?AV?$_List_iterator@V?$_List_val@U?$_List_simple_types@U?$pair@$$CBV?$basic_string@DU?$char_traits@D@std@@V?$allocator@D@2@@std@@V?$shared_ptr@UNode@NetvarTree@@@2@@std@@@std@@@std@@@1@V21@@Z 100030c0 f i animation_system.obj
 0001:000020f0       ??$forward_as_tuple@$$V@std@@YA?AV?$tuple@$$V@0@XZ 100030f0 f i animation_system.obj
 0001:00002100       ??$forward_as_tuple@V?$basic_string@DU?$char_traits@D@std@@V?$allocator@D@2@@std@@@std@@YA?AV?$tuple@$$QAV?$basic_string@DU?$char_traits@D@std@@V?$allocator@D@2@@std@@@0@$$QAV?$basic_string@DU?$char_traits@D@std@@V?$allocator@D@2@@0@@Z 10003100 f i animation_system.obj
 0001:00002120       ??$get@$0A@$$QAV?$basic_string@DU?$char_traits@D@std@@V?$allocator@D@2@@std@@@std@@YA$$QAV?$basic_string@DU?$char_traits@D@std@@V?$allocator@D@2@@0@$$QAV?$tuple@$$QAV?$basic_string@DU?$char_traits@D@std@@V?$allocator@D@2@@std@@@0@@Z 10003120 f i animation_system.obj
 0001:00002140       ??$try_emplace@$$V@?$unordered_map@V?$basic_string@DU?$char_traits@D@std@@V?$allocator@D@2@@std@@V?$shared_ptr@UNode@NetvarTree@@@2@U?$hash@V?$basic_string@DU?$char_traits@D@std@@V?$allocator@D@2@@std@@@2@U?$equal_to@V?$basic_string@DU?$char_traits@D@std@@V?$allocator@D@2@@std@@@2@V?$allocator@U?$pair@$$CBV?$basic_string@DU?$char_traits@D@std@@V?$allocator@D@2@@std@@V?$shared_ptr@UNode@NetvarTree@@@2@@std@@@2@@std@@QAE?AU?$pair@V?$_List_iterator@V?$_List_val@U?$_List_simple_types@U?$pair@$$CBV?$basic_string@DU?$char_traits@D@std@@V?$allocator@D@2@@std@@V?$shared_ptr@UNode@NetvarTree@@@2@@std@@@std@@@std@@@std@@_N@1@$$QAV?$basic_string@DU?$char_traits@D@std@@V?$allocator@D@2@@1@@Z 10003140 f i animation_system.obj
 0001:00002170       ??0?$_List_unchecked_iterator@V?$_List_val@U?$_List_simple_types@U?$pair@$$CBV?$basic_string@DU?$char_traits@D@std@@V?$allocator@D@2@@std@@V?$shared_ptr@UNode@NetvarTree@@@2@@std@@@std@@@std@@@std@@QAE@PAU?$_List_node@U?$pair@$$CBV?$basic_string@DU?$char_traits@D@std@@V?$allocator@D@2@@std@@V?$shared_ptr@UNode@NetvarTree@@@2@@std@@PAX@1@PBV?$_List_val@U?$_List_simple_types@U?$pair@$$CBV?$basic_string@DU?$char_traits@D@std@@V?$allocator@D@2@@std@@V?$shared_ptr@UNode@NetvarTree@@@2@@std@@@std@@@1@@Z 10003170 f i animation_system.obj
 0001:00002170       ??0?$_String_iterator@V?$_String_val@U?$_Simple_types@D@std@@@std@@@std@@QAE@PADPBU_Container_base0@1@@Z 10003170 f i c_esp.obj
 0001:00002170       ??0?$_Vector_iterator@V?$_Vector_val@U?$_Simple_types@V?$basic_string@DU?$char_traits@D@std@@V?$allocator@D@2@@std@@@std@@@std@@@std@@QAE@PAV?$basic_string@DU?$char_traits@D@std@@V?$allocator@D@2@@1@PBU_Container_base0@1@@Z 10003170 f i config_system.obj
 0001:00002170       ??0?$_List_const_iterator@V?$_List_val@U?$_List_simple_types@U?$pair@$$CBV?$basic_string@DU?$char_traits@D@std@@V?$allocator@D@2@@std@@V?$shared_ptr@UNode@NetvarTree@@@2@@std@@@std@@@std@@@std@@QAE@PAU?$_List_node@U?$pair@$$CBV?$basic_string@DU?$char_traits@D@std@@V?$allocator@D@2@@std@@V?$shared_ptr@UNode@NetvarTree@@@2@@std@@PAX@1@PBV?$_List_val@U?$_List_simple_types@U?$pair@$$CBV?$basic_string@DU?$char_traits@D@std@@V?$allocator@D@2@@std@@V?$shared_ptr@UNode@NetvarTree@@@2@@std@@@std@@@1@@Z 10003170 f i animation_system.obj
 0001:00002190       ??0?$_List_iterator@V?$_List_val@U?$_List_simple_types@U?$pair@$$CBV?$basic_string@DU?$char_traits@D@std@@V?$allocator@D@2@@std@@V?$shared_ptr@UNode@NetvarTree@@@2@@std@@@std@@@std@@@std@@QAE@PAU?$_List_node@U?$pair@$$CBV?$basic_string@DU?$char_traits@D@std@@V?$allocator@D@2@@std@@V?$shared_ptr@UNode@NetvarTree@@@2@@std@@PAX@1@PBV?$_List_val@U?$_List_simple_types@U?$pair@$$CBV?$basic_string@DU?$char_traits@D@std@@V?$allocator@D@2@@std@@V?$shared_ptr@UNode@NetvarTree@@@2@@std@@@std@@@1@@Z 10003190 f i animation_system.obj
 0001:000021b0       ??0?$_List_unchecked_const_iterator@V?$_List_val@U?$_List_simple_types@U?$pair@$$CBV?$basic_string@DU?$char_traits@D@std@@V?$allocator@D@2@@std@@V?$shared_ptr@UNode@NetvarTree@@@2@@std@@@std@@@std@@U_Iterator_base0@2@@std@@QAE@PAU?$_List_node@U?$pair@$$CBV?$basic_string@DU?$char_traits@D@std@@V?$allocator@D@2@@std@@V?$shared_ptr@UNode@NetvarTree@@@2@@std@@PAX@1@PBV?$_List_val@U?$_List_simple_types@U?$pair@$$CBV?$basic_string@DU?$char_traits@D@std@@V?$allocator@D@2@@std@@V?$shared_ptr@UNode@NetvarTree@@@2@@std@@@std@@@1@@Z 100031b0 f i animation_system.obj
 0001:000021b0       ??0?$_String_const_iterator@V?$_String_val@U?$_Simple_types@D@std@@@std@@@std@@QAE@PBDPBU_Container_base0@1@@Z 100031b0 f i c_esp.obj
 0001:000021b0       ??0?$_Vector_const_iterator@V?$_Vector_val@U?$_Simple_types@V?$basic_string@DU?$char_traits@D@std@@V?$allocator@D@2@@std@@@std@@@std@@@std@@QAE@PAV?$basic_string@DU?$char_traits@D@std@@V?$allocator@D@2@@1@PBU_Container_base0@1@@Z 100031b0 f i config_system.obj
 0001:000021e0       ??0_Container_base12@std@@QAE@XZ 100031e0 f i LagComp.obj
 0001:000021e0       ??0?$_List_unchecked_const_iterator@V?$_List_val@U?$_List_simple_types@U?$pair@$$CBV?$basic_string@DU?$char_traits@D@std@@V?$allocator@D@2@@std@@V?$shared_ptr@UNode@NetvarTree@@@2@@std@@@std@@@std@@U_Iterator_base0@2@@std@@QAE@XZ 100031e0 f i animation_system.obj
 0001:00002200       ??0?$_List_unchecked_iterator@V?$_List_val@U?$_List_simple_types@U?$pair@$$CBV?$basic_string@DU?$char_traits@D@std@@V?$allocator@D@2@@std@@V?$shared_ptr@UNode@NetvarTree@@@2@@std@@@std@@@std@@@std@@QAE@XZ 10003200 f i animation_system.obj
 0001:00002220       ??0?$_Ptr_base@U_Dir_enum_impl@filesystem@std@@@std@@IAE@XZ 10003220 f i config_system.obj
 0001:00002220       ??0_Iterator_base12@std@@QAE@XZ 10003220 f i c_ragebot.obj
 0001:00002220       ??0_Container_proxy@std@@QAE@XZ 10003220 f i LagComp.obj
 0001:00002220       ??0?$_Ptr_base@UNode@NetvarTree@@@std@@IAE@XZ 10003220 f i animation_system.obj
 0001:00002220       ??0?$_List_val@U?$_List_simple_types@U?$pair@$$CBV?$basic_string@DU?$char_traits@D@std@@V?$allocator@D@2@@std@@V?$shared_ptr@UNode@NetvarTree@@@2@@std@@@std@@@std@@QAE@XZ 10003220 f i NetvarManager.obj
 0001:00002250       ??0?$_String_alloc@U?$_String_base_types@_WV?$allocator@_W@std@@@std@@@std@@QAE@XZ 10003250 f i config_system.obj
 0001:00002250       ??0?$_String_alloc@U?$_String_base_types@DV?$allocator@D@std@@@std@@@std@@QAE@XZ 10003250 f i animation_system.obj
 0001:00002280       ??0?$_String_val@U?$_Simple_types@D@std@@@std@@QAE@XZ 10003280 f i animation_system.obj
 0001:00002280       ??0?$_String_val@U?$_Simple_types@_W@std@@@std@@QAE@XZ 10003280 f i config_system.obj
 0001:000022b0       ??0?$_Uninitialized_backout_al@PAV?$basic_string@DU?$char_traits@D@std@@V?$allocator@D@2@@std@@V?$allocator@V?$basic_string@DU?$char_traits@D@std@@V?$allocator@D@2@@std@@@2@@std@@QAE@PAV?$basic_string@DU?$char_traits@D@std@@V?$allocator@D@2@@1@AAV?$allocator@V?$basic_string@DU?$char_traits@D@std@@V?$allocator@D@2@@std@@@1@@Z 100032b0 f i config_system.obj
 0001:000022b0       ??0?$_Uninitialized_backout_al@PAV?$_List_unchecked_iterator@V?$_List_val@U?$_List_simple_types@U?$pair@$$CBV?$basic_string@DU?$char_traits@D@std@@V?$allocator@D@2@@std@@V?$shared_ptr@UNode@NetvarTree@@@2@@std@@@std@@@std@@@std@@V?$allocator@V?$_List_unchecked_iterator@V?$_List_val@U?$_List_simple_types@U?$pair@$$CBV?$basic_string@DU?$char_traits@D@std@@V?$allocator@D@2@@std@@V?$shared_ptr@UNode@NetvarTree@@@2@@std@@@std@@@std@@@std@@@2@@std@@QAE@PAV?$_List_unchecked_iterator@V?$_List_val@U?$_List_simple_types@U?$pair@$$CBV?$basic_string@DU?$char_traits@D@std@@V?$allocator@D@2@@std@@V?$shared_ptr@UNode@NetvarTree@@@2@@std@@@std@@@std@@@1@AAV?$allocator@V?$_List_unchecked_iterator@V?$_List_val@U?$_List_simple_types@U?$pair@$$CBV?$basic_string@DU?$char_traits@D@std@@V?$allocator@D@2@@std@@V?$shared_ptr@UNode@NetvarTree@@@2@@std@@@std@@@std@@@std@@@1@@Z 100032b0 f i animation_system.obj
 0001:000022e0       ??0?$_Vector_alloc@U?$_Vec_base_types@V?$basic_string@DU?$char_traits@D@std@@V?$allocator@D@2@@std@@V?$allocator@V?$basic_string@DU?$char_traits@D@std@@V?$allocator@D@2@@std@@@2@@std@@@std@@QAE@XZ 100032e0 f i config_system.obj
 0001:000022e0       ??0?$_Vector_alloc@U?$_Vec_base_types@HV?$allocator@H@std@@@std@@@std@@QAE@XZ 100032e0 f i animation_system.obj
 0001:00002310       ??0?$_Vector_val@U?$_Simple_types@H@std@@@std@@QAE@XZ 10003310 f i animation_system.obj
 0001:00002310       ??0?$_Vector_val@U?$_Simple_types@V?$basic_string@DU?$char_traits@D@std@@V?$allocator@D@2@@std@@@std@@@std@@QAE@XZ 10003310 f i config_system.obj
 0001:00002310       ??0?$_Vector_val@U?$_Simple_types@V?$_List_unchecked_iterator@V?$_List_val@U?$_List_simple_types@U?$pair@$$CBV?$basic_string@DU?$char_traits@D@std@@V?$allocator@D@2@@std@@V?$shared_ptr@UNode@NetvarTree@@@2@@std@@@std@@@std@@@std@@@std@@@std@@QAE@XZ 10003310 f i NetvarManager.obj
 0001:00002340       ??D?$back_insert_iterator@V?$vector@V?$basic_string@DU?$char_traits@D@std@@V?$allocator@D@2@@std@@V?$allocator@V?$basic_string@DU?$char_traits@D@std@@V?$allocator@D@2@@std@@@2@@std@@@std@@QAEAAV01@XZ 10003340 f i config_system.obj
 0001:00002340       ?_Get_second@?$_Compressed_pair@V?$allocator@ULegitPlayerRecords@@@std@@V?$_Deque_val@U?$_Deque_simple_types@ULegitPlayerRecords@@@std@@@2@$00@std@@QBEABV?$_Deque_val@U?$_Deque_simple_types@ULegitPlayerRecords@@@std@@@2@XZ 10003340 f i Legitbot.obj
 0001:00002340       ?_Get_first@?$_Compressed_pair@V?$allocator@V?$_List_unchecked_iterator@V?$_List_val@U?$_List_simple_types@U?$pair@$$CBV?$basic_string@DU?$char_traits@D@std@@V?$allocator@D@2@@std@@V?$shared_ptr@UNode@NetvarTree@@@2@@std@@@std@@@std@@@std@@@std@@V?$_Vector_val@U?$_Simple_types@V?$_List_unchecked_iterator@V?$_List_val@U?$_List_simple_types@U?$pair@$$CBV?$basic_string@DU?$char_traits@D@std@@V?$allocator@D@2@@std@@V?$shared_ptr@UNode@NetvarTree@@@2@@std@@@std@@@std@@@std@@@std@@@2@$00@std@@QAEAAV?$allocator@V?$_List_unchecked_iterator@V?$_List_val@U?$_List_simple_types@U?$pair@$$CBV?$basic_string@DU?$char_traits@D@std@@V?$allocator@D@2@@std@@V?$shared_ptr@UNode@NetvarTree@@@2@@std@@@std@@@std@@@std@@@2@XZ 10003340 f i animation_system.obj
 0001:00002340       ??0?$allocator@U?$pair@$$CBV?$basic_string@DU?$char_traits@D@std@@V?$allocator@D@2@@std@@V?$shared_ptr@UNode@NetvarTree@@@2@@std@@@std@@QAE@XZ 10003340 f i NetvarManager.obj
 0001:00002340       ?data@?$array@M$0BI@@std@@QAEPAMXZ 10003340 f i c_antiaim.obj
 0001:00002340       ?_Get_first@?$_Compressed_pair@V?$allocator@V?$basic_string@DU?$char_traits@D@std@@V?$allocator@D@2@@std@@@std@@V?$_Vector_val@U?$_Simple_types@V?$basic_string@DU?$char_traits@D@std@@V?$allocator@D@2@@std@@@std@@@2@$00@std@@QBEABV?$allocator@V?$basic_string@DU?$char_traits@D@std@@V?$allocator@D@2@@std@@@2@XZ 10003340 f i config_system.obj
 0001:00002340       ?_Get_second@?$_Compressed_pair@V?$allocator@V?$_List_unchecked_iterator@V?$_List_val@U?$_List_simple_types@U?$pair@$$CBV?$basic_string@DU?$char_traits@D@std@@V?$allocator@D@2@@std@@V?$shared_ptr@UNode@NetvarTree@@@2@@std@@@std@@@std@@@std@@@std@@V?$_Vector_val@U?$_Simple_types@V?$_List_unchecked_iterator@V?$_List_val@U?$_List_simple_types@U?$pair@$$CBV?$basic_string@DU?$char_traits@D@std@@V?$allocator@D@2@@std@@V?$shared_ptr@UNode@NetvarTree@@@2@@std@@@std@@@std@@@std@@@std@@@2@$00@std@@QAEAAV?$_Vector_val@U?$_Simple_types@V?$_List_unchecked_iterator@V?$_List_val@U?$_List_simple_types@U?$pair@$$CBV?$basic_string@DU?$char_traits@D@std@@V?$allocator@D@2@@std@@V?$shared_ptr@UNode@NetvarTree@@@2@@std@@@std@@@std@@@std@@@std@@@2@XZ 10003340 f i animation_system.obj
 0001:00002340       ??0?$allocator@_W@std@@QAE@XZ 10003340 f i config_system.obj
 0001:00002340       ?_Get_second@?$_Compressed_pair@V?$allocator@H@std@@V?$_Vector_val@U?$_Simple_types@H@std@@@2@$00@std@@QBEABV?$_Vector_val@U?$_Simple_types@H@std@@@2@XZ 10003340 f i animation_system.obj
 0001:00002340       ?_Get_first@?$_Compressed_pair@U?$default_delete@VShadowVTManager@@@std@@PAVShadowVTManager@@$00@std@@QAEAAU?$default_delete@VShadowVTManager@@@2@XZ 10003340 f i c_hooks.obj
 0001:00002340       ?_Get_second@?$_Compressed_pair@V?$allocator@UPlayerRecords@@@std@@V?$_Deque_val@U?$_Deque_simple_types@UPlayerRecords@@@std@@@2@$00@std@@QBEABV?$_Deque_val@U?$_Deque_simple_types@UPlayerRecords@@@std@@@2@XZ 10003340 f i c_ragebot.obj
 0001:00002340       ??0matrix3x4_t@@QAE@XZ     10003340 f i animation_system.obj
 0001:00002340       ??0?$allocator@ULegitPlayerRecords@@@std@@QAE@XZ 10003340 f i Legitbot.obj
 0001:00002340       ??0Vector2D@@QAE@XZ        10003340 f i Legitbot.obj
 0001:00002340       ?_Get_second@?$_Compressed_pair@U?$equal_to@V?$basic_string@DU?$char_traits@D@std@@V?$allocator@D@2@@std@@@std@@M$00@std@@QAEAAMXZ 10003340 f i NetvarManager.obj
 0001:00002340       ?_Get_first@?$_Compressed_pair@V?$allocator@V?$basic_string@DU?$char_traits@D@std@@V?$allocator@D@2@@std@@@std@@V?$_Vector_val@U?$_Simple_types@V?$basic_string@DU?$char_traits@D@std@@V?$allocator@D@2@@std@@@std@@@2@$00@std@@QAEAAV?$allocator@V?$basic_string@DU?$char_traits@D@std@@V?$allocator@D@2@@std@@@2@XZ 10003340 f i config_system.obj
 0001:00002340       ??0?$tuple@$$V@std@@QAE@XZ 10003340 f i animation_system.obj
 0001:00002340       ?_Get_second@?$_Compressed_pair@V?$allocator@ULegitPlayerRecords@@@std@@V?$_Deque_val@U?$_Deque_simple_types@ULegitPlayerRecords@@@std@@@2@$00@std@@QAEAAV?$_Deque_val@U?$_Deque_simple_types@ULegitPlayerRecords@@@std@@@2@XZ 10003340 f i Legitbot.obj
 0001:00002340       ?_Get_first@?$_Compressed_pair@V?$allocator@D@std@@V?$_String_val@U?$_Simple_types@D@std@@@2@$00@std@@QBEABV?$allocator@D@2@XZ 10003340 f i animation_system.obj
 0001:00002340       ?_Get_first@?$_Compressed_pair@U?$default_delete@VVMTHook@@@std@@PAVVMTHook@@$00@std@@QAEAAU?$default_delete@VVMTHook@@@2@XZ 10003340 f i c_hooks.obj
 0001:00002340       ??0_Bxty@?$_String_val@U?$_Simple_types@D@std@@@std@@QAE@XZ 10003340 f i animation_system.obj
 0001:00002340       ?_Get_second@?$_Compressed_pair@U?$default_delete@$$BY0A@I@std@@PAI$00@std@@QAEAAPAIXZ 10003340 f i c_hooks.obj
 0001:00002340       ?_Get_second@?$_Compressed_pair@U?$default_delete@V_Facet_base@std@@@std@@PAV_Facet_base@2@$00@std@@QAEAAPAV_Facet_base@2@XZ 10003340 f i config_system.obj
 0001:00002340       ?_Get_first@?$_Compressed_pair@U?$default_delete@V_Facet_base@std@@@std@@PAV_Facet_base@2@$00@std@@QAEAAU?$default_delete@V_Facet_base@std@@@2@XZ 10003340 f i config_system.obj
 0001:00002340       ?_Get_second@?$_Compressed_pair@U?$default_delete@VNetvarTree@@@std@@PAVNetvarTree@@$00@std@@QBEABQAVNetvarTree@@XZ 10003340 f i animation_system.obj
 0001:00002340       ??0Vector@@QAE@XZ          10003340 f i animation_system.obj
 0001:00002340       ?_Get_first@?$_Compressed_pair@U?$default_delete@VNetvarTree@@@std@@PAVNetvarTree@@$00@std@@QAEAAU?$default_delete@VNetvarTree@@@2@XZ 10003340 f i c_hooks.obj
 0001:00002340       ?_Get_second@?$_Compressed_pair@V?$allocator@V?$basic_string@DU?$char_traits@D@std@@V?$allocator@D@2@@std@@@std@@V?$_Vector_val@U?$_Simple_types@V?$basic_string@DU?$char_traits@D@std@@V?$allocator@D@2@@std@@@std@@@2@$00@std@@QBEABV?$_Vector_val@U?$_Simple_types@V?$basic_string@DU?$char_traits@D@std@@V?$allocator@D@2@@std@@@std@@@2@XZ 10003340 f i config_system.obj
 0001:00002340       ?_Get_second@?$_Compressed_pair@U?$default_delete@VShadowVTManager@@@std@@PAVShadowVTManager@@$00@std@@QBEABQAVShadowVTManager@@XZ 10003340 f i c_hooks.obj
 0001:00002340       ?_Get_first@?$_Compressed_pair@V?$allocator@H@std@@V?$_Vector_val@U?$_Simple_types@H@std@@@2@$00@std@@QAEAAV?$allocator@H@2@XZ 10003340 f i animation_system.obj
 0001:00002340       ??0?$allocator@V?$basic_string@DU?$char_traits@D@std@@V?$allocator@D@2@@std@@@std@@QAE@XZ 10003340 f i config_system.obj
 0001:00002340       ?_Get_second@?$_Compressed_pair@V?$allocator@_W@std@@V?$_String_val@U?$_Simple_types@_W@std@@@2@$00@std@@QBEABV?$_String_val@U?$_Simple_types@_W@std@@@2@XZ 10003340 f i config_system.obj
 0001:00002340       ?_Get_first@?$_Compressed_pair@V?$allocator@ULegitPlayerRecords@@@std@@V?$_Deque_val@U?$_Deque_simple_types@ULegitPlayerRecords@@@std@@@2@$00@std@@QAEAAV?$allocator@ULegitPlayerRecords@@@2@XZ 10003340 f i Legitbot.obj
 0001:00002340       ?_Get_second@?$_Compressed_pair@V?$allocator@U?$_List_node@U?$pair@$$CBV?$basic_string@DU?$char_traits@D@std@@V?$allocator@D@2@@std@@V?$shared_ptr@UNode@NetvarTree@@@2@@std@@PAX@std@@@std@@V?$_List_val@U?$_List_simple_types@U?$pair@$$CBV?$basic_string@DU?$char_traits@D@std@@V?$allocator@D@2@@std@@V?$shared_ptr@UNode@NetvarTree@@@2@@std@@@std@@@2@$00@std@@QBEABV?$_List_val@U?$_List_simple_types@U?$pair@$$CBV?$basic_string@DU?$char_traits@D@std@@V?$allocator@D@2@@std@@V?$shared_ptr@UNode@NetvarTree@@@2@@std@@@std@@@2@XZ 10003340 f i animation_system.obj
 0001:00002340       ?_Get_second@?$_Compressed_pair@V?$allocator@V?$_List_unchecked_iterator@V?$_List_val@U?$_List_simple_types@U?$pair@$$CBV?$basic_string@DU?$char_traits@D@std@@V?$allocator@D@2@@std@@V?$shared_ptr@UNode@NetvarTree@@@2@@std@@@std@@@std@@@std@@@std@@V?$_Vector_val@U?$_Simple_types@V?$_List_unchecked_iterator@V?$_List_val@U?$_List_simple_types@U?$pair@$$CBV?$basic_string@DU?$char_traits@D@std@@V?$allocator@D@2@@std@@V?$shared_ptr@UNode@NetvarTree@@@2@@std@@@std@@@std@@@std@@@std@@@2@$00@std@@QBEABV?$_Vector_val@U?$_Simple_types@V?$_List_unchecked_iterator@V?$_List_val@U?$_List_simple_types@U?$pair@$$CBV?$basic_string@DU?$char_traits@D@std@@V?$allocator@D@2@@std@@V?$shared_ptr@UNode@NetvarTree@@@2@@std@@@std@@@std@@@std@@@std@@@2@XZ 10003340 f i animation_system.obj
 0001:00002340       ?_Get_second@?$_Compressed_pair@U?$hash@V?$basic_string@DU?$char_traits@D@std@@V?$allocator@D@2@@std@@@std@@V?$_Compressed_pair@U?$equal_to@V?$basic_string@DU?$char_traits@D@std@@V?$allocator@D@2@@std@@@std@@M$00@2@$00@std@@QAEAAV?$_Compressed_pair@U?$equal_to@V?$basic_string@DU?$char_traits@D@std@@V?$allocator@D@2@@std@@@std@@M$00@2@XZ 10003340 f i NetvarManager.obj
 0001:00002340       ?_Get_first@?$_Compressed_pair@V?$allocator@U?$_List_node@U?$pair@$$CBV?$basic_string@DU?$char_traits@D@std@@V?$allocator@D@2@@std@@V?$shared_ptr@UNode@NetvarTree@@@2@@std@@PAX@std@@@std@@V?$_List_val@U?$_List_simple_types@U?$pair@$$CBV?$basic_string@DU?$char_traits@D@std@@V?$allocator@D@2@@std@@V?$shared_ptr@UNode@NetvarTree@@@2@@std@@@std@@@2@$00@std@@QAEAAV?$allocator@U?$_List_node@U?$pair@$$CBV?$basic_string@DU?$char_traits@D@std@@V?$allocator@D@2@@std@@V?$shared_ptr@UNode@NetvarTree@@@2@@std@@PAX@std@@@2@XZ 10003340 f i animation_system.obj
 0001:00002340       ?_Get_second@?$_Compressed_pair@V?$allocator@D@std@@V?$_String_val@U?$_Simple_types@D@std@@@2@$00@std@@QBEABV?$_String_val@U?$_Simple_types@D@std@@@2@XZ 10003340 f i animation_system.obj
 0001:00002340       ?_Get_first@?$_Compressed_pair@U?$equal_to@V?$basic_string@DU?$char_traits@D@std@@V?$allocator@D@2@@std@@@std@@M$00@std@@QBEABU?$equal_to@V?$basic_string@DU?$char_traits@D@std@@V?$allocator@D@2@@std@@@2@XZ 10003340 f i animation_system.obj
 0001:00002340       ?_Get_second@?$_Compressed_pair@V?$allocator@U?$_List_node@U?$pair@$$CBV?$basic_string@DU?$char_traits@D@std@@V?$allocator@D@2@@std@@V?$shared_ptr@UNode@NetvarTree@@@2@@std@@PAX@std@@@std@@V?$_List_val@U?$_List_simple_types@U?$pair@$$CBV?$basic_string@DU?$char_traits@D@std@@V?$allocator@D@2@@std@@V?$shared_ptr@UNode@NetvarTree@@@2@@std@@@std@@@2@$00@std@@QAEAAV?$_List_val@U?$_List_simple_types@U?$pair@$$CBV?$basic_string@DU?$char_traits@D@std@@V?$allocator@D@2@@std@@V?$shared_ptr@UNode@NetvarTree@@@2@@std@@@std@@@2@XZ 10003340 f i animation_system.obj
 0001:00002340       ?_Get_first@?$_Compressed_pair@V?$allocator@_W@std@@V?$_String_val@U?$_Simple_types@_W@std@@@2@$00@std@@QAEAAV?$allocator@_W@2@XZ 10003340 f i config_system.obj
 0001:00002340       ?_Get_first@?$_Compressed_pair@V?$allocator@ULegitPlayerRecords@@@std@@V?$_Deque_val@U?$_Deque_simple_types@ULegitPlayerRecords@@@std@@@2@$00@std@@QBEABV?$allocator@ULegitPlayerRecords@@@2@XZ 10003340 f i Legitbot.obj
 0001:00002340       ?_Get_second@?$_Compressed_pair@V?$allocator@UPlayerRecords@@@std@@V?$_Deque_val@U?$_Deque_simple_types@UPlayerRecords@@@std@@@2@$00@std@@QAEAAV?$_Deque_val@U?$_Deque_simple_types@UPlayerRecords@@@std@@@2@XZ 10003340 f i c_ragebot.obj
 0001:00002340       ?_Get_second@?$_Compressed_pair@V?$allocator@V?$basic_string@DU?$char_traits@D@std@@V?$allocator@D@2@@std@@@std@@V?$_Vector_val@U?$_Simple_types@V?$basic_string@DU?$char_traits@D@std@@V?$allocator@D@2@@std@@@std@@@2@$00@std@@QAEAAV?$_Vector_val@U?$_Simple_types@V?$basic_string@DU?$char_traits@D@std@@V?$allocator@D@2@@std@@@std@@@2@XZ 10003340 f i config_system.obj
 0001:00002340       ?_Get_second@?$_Compressed_pair@V?$allocator@D@std@@V?$_String_val@U?$_Simple_types@D@std@@@2@$00@std@@QAEAAV?$_String_val@U?$_Simple_types@D@std@@@2@XZ 10003340 f i animation_system.obj
 0001:00002340       ?_Get_second@?$_Compressed_pair@U?$hash@V?$basic_string@DU?$char_traits@D@std@@V?$allocator@D@2@@std@@@std@@V?$_Compressed_pair@U?$equal_to@V?$basic_string@DU?$char_traits@D@std@@V?$allocator@D@2@@std@@@std@@M$00@2@$00@std@@QBEABV?$_Compressed_pair@U?$equal_to@V?$basic_string@DU?$char_traits@D@std@@V?$allocator@D@2@@std@@@std@@M$00@2@XZ 10003340 f i animation_system.obj
 0001:00002340       ?_Get_first@?$_Compressed_pair@V?$allocator@H@std@@V?$_Vector_val@U?$_Simple_types@H@std@@@2@$00@std@@QBEABV?$allocator@H@2@XZ 10003340 f i animation_system.obj
 0001:00002340       ?_Get_first@?$_Compressed_pair@V?$allocator@UPlayerRecords@@@std@@V?$_Deque_val@U?$_Deque_simple_types@UPlayerRecords@@@std@@@2@$00@std@@QAEAAV?$allocator@UPlayerRecords@@@2@XZ 10003340 f i LagComp.obj
 0001:00002340       ??0_Bxty@?$_String_val@U?$_Simple_types@_W@std@@@std@@QAE@XZ 10003340 f i config_system.obj
 0001:00002340       ?_Get_second@?$_Compressed_pair@U?$equal_to@V?$basic_string@DU?$char_traits@D@std@@V?$allocator@D@2@@std@@@std@@M$00@std@@QBEABMXZ 10003340 f i animation_system.obj
 0001:00002340       ?_Get_first@?$_Compressed_pair@U?$hash@V?$basic_string@DU?$char_traits@D@std@@V?$allocator@D@2@@std@@@std@@V?$_Compressed_pair@U?$equal_to@V?$basic_string@DU?$char_traits@D@std@@V?$allocator@D@2@@std@@@std@@M$00@2@$00@std@@QBEABU?$hash@V?$basic_string@DU?$char_traits@D@std@@V?$allocator@D@2@@std@@@2@XZ 10003340 f i animation_system.obj
 0001:00002340       ?_Get_second@?$_Compressed_pair@V?$allocator@H@std@@V?$_Vector_val@U?$_Simple_types@H@std@@@2@$00@std@@QAEAAV?$_Vector_val@U?$_Simple_types@H@std@@@2@XZ 10003340 f i animation_system.obj
 0001:00002340       ?_Get_first@?$_Compressed_pair@V?$allocator@D@std@@V?$_String_val@U?$_Simple_types@D@std@@@2@$00@std@@QAEAAV?$allocator@D@2@XZ 10003340 f i animation_system.obj
 0001:00002340       ?_Get_second@?$_Compressed_pair@U?$default_delete@V_Facet_base@std@@@std@@PAV_Facet_base@2@$00@std@@QBEABQAV_Facet_base@2@XZ 10003340 f i config_system.obj
 0001:00002340       ?_Get_first@?$_Compressed_pair@V?$allocator@U?$_List_node@U?$pair@$$CBV?$basic_string@DU?$char_traits@D@std@@V?$allocator@D@2@@std@@V?$shared_ptr@UNode@NetvarTree@@@2@@std@@PAX@std@@@std@@V?$_List_val@U?$_List_simple_types@U?$pair@$$CBV?$basic_string@DU?$char_traits@D@std@@V?$allocator@D@2@@std@@V?$shared_ptr@UNode@NetvarTree@@@2@@std@@@std@@@2@$00@std@@QBEABV?$allocator@U?$_List_node@U?$pair@$$CBV?$basic_string@DU?$char_traits@D@std@@V?$allocator@D@2@@std@@V?$shared_ptr@UNode@NetvarTree@@@2@@std@@PAX@std@@@2@XZ 10003340 f i animation_system.obj
 0001:00002340       ?_Get_first@?$_Compressed_pair@V?$allocator@UPlayerRecords@@@std@@V?$_Deque_val@U?$_Deque_simple_types@UPlayerRecords@@@std@@@2@$00@std@@QBEABV?$allocator@UPlayerRecords@@@2@XZ 10003340 f i LagComp.obj
 0001:00002340       ?_Get_second@?$_Compressed_pair@U?$default_delete@VShadowVTManager@@@std@@PAVShadowVTManager@@$00@std@@QAEAAPAVShadowVTManager@@XZ 10003340 f i bone_processing_hook.obj
 0001:00002340       ?_Get_first@?$_Compressed_pair@V?$allocator@V?$_List_unchecked_iterator@V?$_List_val@U?$_List_simple_types@U?$pair@$$CBV?$basic_string@DU?$char_traits@D@std@@V?$allocator@D@2@@std@@V?$shared_ptr@UNode@NetvarTree@@@2@@std@@@std@@@std@@@std@@@std@@V?$_Vector_val@U?$_Simple_types@V?$_List_unchecked_iterator@V?$_List_val@U?$_List_simple_types@U?$pair@$$CBV?$basic_string@DU?$char_traits@D@std@@V?$allocator@D@2@@std@@V?$shared_ptr@UNode@NetvarTree@@@2@@std@@@std@@@std@@@std@@@std@@@2@$00@std@@QBEABV?$allocator@V?$_List_unchecked_iterator@V?$_List_val@U?$_List_simple_types@U?$pair@$$CBV?$basic_string@DU?$char_traits@D@std@@V?$allocator@D@2@@std@@V?$shared_ptr@UNode@NetvarTree@@@2@@std@@@std@@@std@@@std@@@2@XZ 10003340 f i animation_system.obj
 0001:00002340       ?data@?$array@VAnimationLayer@@$0P@@std@@QAEPAVAnimationLayer@@XZ 10003340 f i c_antiaim.obj
 0001:00002340       ?_Get_first@?$_Compressed_pair@V?$allocator@_W@std@@V?$_String_val@U?$_Simple_types@_W@std@@@2@$00@std@@QBEABV?$allocator@_W@2@XZ 10003340 f i config_system.obj
 0001:00002340       ??0?$allocator@D@std@@QAE@XZ 10003340 f i animation_system.obj
 0001:00002340       ??0?$allocator@UPlayerRecords@@@std@@QAE@XZ 10003340 f i LagComp.obj
 0001:00002340       ??E?$back_insert_iterator@V?$vector@V?$basic_string@DU?$char_traits@D@std@@V?$allocator@D@2@@std@@V?$allocator@V?$basic_string@DU?$char_traits@D@std@@V?$allocator@D@2@@std@@@2@@std@@@std@@QAEAAV01@XZ 10003340 f i config_system.obj
 0001:00002340       ?_Get_second@?$_Compressed_pair@U?$default_delete@$$BY0A@I@std@@PAI$00@std@@QBEABQAIXZ 10003340 f i c_hooks.obj
 0001:00002340       ?_Get_second@?$_Compressed_pair@U?$default_delete@VVMTHook@@@std@@PAVVMTHook@@$00@std@@QAEAAPAVVMTHook@@XZ 10003340 f i c_hooks.obj
 0001:00002340       ?_Get_first@?$_Compressed_pair@U?$default_delete@$$BY0A@I@std@@PAI$00@std@@QAEAAU?$default_delete@$$BY0A@I@2@XZ 10003340 f i c_hooks.obj
 0001:00002340       ??0?$allocator@H@std@@QAE@XZ 10003340 f i animation_system.obj
 0001:00002340       ?_Get_second@?$_Compressed_pair@U?$default_delete@VVMTHook@@@std@@PAVVMTHook@@$00@std@@QBEABQAVVMTHook@@XZ 10003340 f i c_hooks.obj
 0001:00002340       ?_Get_second@?$_Compressed_pair@V?$allocator@_W@std@@V?$_String_val@U?$_Simple_types@_W@std@@@2@$00@std@@QAEAAV?$_String_val@U?$_Simple_types@_W@std@@@2@XZ 10003340 f i config_system.obj
 0001:00002340       ?_Get_second@?$_Compressed_pair@U?$default_delete@VNetvarTree@@@std@@PAVNetvarTree@@$00@std@@QAEAAPAVNetvarTree@@XZ 10003340 f i c_hooks.obj
 0001:00002350       ??0?$basic_string@DU?$char_traits@D@std@@V?$allocator@D@2@@std@@QAE@$$QAV01@@Z 10003350 f i animation_system.obj
 0001:000023e0       ??0?$basic_string@DU?$char_traits@D@std@@V?$allocator@D@2@@std@@QAE@QBD@Z 100033e0 f i animation_system.obj
 0001:00002450       ??0?$shared_ptr@UNode@NetvarTree@@@std@@QAE@XZ 10003450 f i animation_system.obj
 0001:00002450       ??0?$shared_ptr@U_Dir_enum_impl@filesystem@std@@@std@@QAE@XZ 10003450 f i config_system.obj
 0001:00002470       ??0?$tuple@$$QAV?$basic_string@DU?$char_traits@D@std@@V?$allocator@D@2@@std@@@std@@QAE@$$QAV01@@Z 10003470 f i animation_system.obj
 0001:000024a0       ??0?$vector@HV?$allocator@H@std@@@std@@QAE@$$QAV01@@Z 100034a0 f i animation_system.obj
 0001:00002530       ??0?$vector@HV?$allocator@H@std@@@std@@QAE@XZ 10003530 f i animation_system.obj
 0001:00002530       ??0?$vector@V?$basic_string@DU?$char_traits@D@std@@V?$allocator@D@2@@std@@V?$allocator@V?$basic_string@DU?$char_traits@D@std@@V?$allocator@D@2@@std@@@2@@std@@QAE@XZ 10003530 f i config_system.obj
 0001:00002570       ??0Vector2D@@QAE@MM@Z      10003570 f i animation_system.obj
 0001:00002570       ??0ImVec2@@QAE@MM@Z        10003570 f i imgui_impl_dx9.obj
 0001:000025a0       ??0Vector@@QAE@MMM@Z       100035a0 f i animation_system.obj
 0001:000025e0       ??1?$_Deque_iterator@V?$_Deque_val@U?$_Deque_simple_types@UPlayerRecords@@@std@@@std@@@std@@QAE@XZ 100035e0 f i c_ragebot.obj
 0001:000025e0       ??1?$_Compressed_pair@V?$allocator@D@std@@V?$_String_val@U?$_Simple_types@D@std@@@2@$00@std@@QAE@XZ 100035e0 f i animation_system.obj
 0001:000025e0       ??1?$_Compressed_pair@V?$allocator@_W@std@@V?$_String_val@U?$_Simple_types@_W@std@@@2@$00@std@@QAE@XZ 100035e0 f i config_system.obj
 0001:000025e0       ??1?$_Deque_iterator@V?$_Deque_val@U?$_Deque_simple_types@ULegitPlayerRecords@@@std@@@std@@@std@@QAE@XZ 100035e0 f i Legitbot.obj
 0001:00002600       ??1?$_String_alloc@U?$_String_base_types@DV?$allocator@D@std@@@std@@@std@@QAE@XZ 10003600 f i animation_system.obj
 0001:00002600       ??1?$_String_alloc@U?$_String_base_types@_WV?$allocator@_W@std@@@std@@@std@@QAE@XZ 10003600 f i config_system.obj
 0001:00002620       ??1?$_Ref_count_obj@U_Dir_enum_impl@filesystem@std@@@std@@UAE@XZ 10003620 f i config_system.obj
 0001:00002620       ??1?$_String_val@U?$_Simple_types@D@std@@@std@@QAE@XZ 10003620 f i animation_system.obj
 0001:00002620       ??1?$_Deque_const_iterator@V?$_Deque_val@U?$_Deque_simple_types@UPlayerRecords@@@std@@@std@@@std@@QAE@XZ 10003620 f i c_ragebot.obj
 0001:00002620       ??1?$_Ref_count_obj@UNode@NetvarTree@@@std@@UAE@XZ 10003620 f i NetvarManager.obj
 0001:00002620       ??1_Generic_error_category@std@@UAE@XZ 10003620 f i config_system.obj
 0001:00002620       ??1_System_error_category@std@@UAE@XZ 10003620 f i config_system.obj
 0001:00002620       ??1?$_String_val@U?$_Simple_types@_W@std@@@std@@QAE@XZ 10003620 f i config_system.obj
 0001:00002620       ??1?$_Deque_const_iterator@V?$_Deque_val@U?$_Deque_simple_types@ULegitPlayerRecords@@@std@@@std@@@std@@QAE@XZ 10003620 f i Legitbot.obj
 0001:00002640       ??1?$_Uninitialized_backout_al@PAV?$_List_unchecked_iterator@V?$_List_val@U?$_List_simple_types@U?$pair@$$CBV?$basic_string@DU?$char_traits@D@std@@V?$allocator@D@2@@std@@V?$shared_ptr@UNode@NetvarTree@@@2@@std@@@std@@@std@@@std@@V?$allocator@V?$_List_unchecked_iterator@V?$_List_val@U?$_List_simple_types@U?$pair@$$CBV?$basic_string@DU?$char_traits@D@std@@V?$allocator@D@2@@std@@V?$shared_ptr@UNode@NetvarTree@@@2@@std@@@std@@@std@@@std@@@2@@std@@QAE@XZ 10003640 f i animation_system.obj
 0001:000026a0       ??1?$basic_string@DU?$char_traits@D@std@@V?$allocator@D@2@@std@@QAE@XZ 100036a0 f i animation_system.obj
 0001:000026f0       ??1?$pair@$$CBV?$basic_string@DU?$char_traits@D@std@@V?$allocator@D@2@@std@@V?$shared_ptr@UNode@NetvarTree@@@2@@std@@QAE@XZ 100036f0 f i animation_system.obj
 0001:00002710       ??1?$shared_ptr@UNode@NetvarTree@@@std@@QAE@XZ 10003710 f i animation_system.obj
 0001:00002710       ??1?$shared_ptr@U_Dir_enum_impl@filesystem@std@@@std@@QAE@XZ 10003710 f i config_system.obj
 0001:00002750       ??1?$vector@V?$_List_unchecked_iterator@V?$_List_val@U?$_List_simple_types@U?$pair@$$CBV?$basic_string@DU?$char_traits@D@std@@V?$allocator@D@2@@std@@V?$shared_ptr@UNode@NetvarTree@@@2@@std@@@std@@@std@@@std@@V?$allocator@V?$_List_unchecked_iterator@V?$_List_val@U?$_List_simple_types@U?$pair@$$CBV?$basic_string@DU?$char_traits@D@std@@V?$allocator@D@2@@std@@V?$shared_ptr@UNode@NetvarTree@@@2@@std@@@std@@@std@@@std@@@2@@std@@QAE@XZ 10003750 f i c_hooks.obj
 0001:00002750       ??1?$vector@HV?$allocator@H@std@@@std@@QAE@XZ 10003750 f i animation_system.obj
 0001:00002790       ?_Orphan_all@_Container_base12@std@@QAEXXZ 10003790 f i LagComp.obj
 0001:00002790       ?_Orphan_all@_Container_base0@std@@QAEXXZ 10003790 f i animation_system.obj
 0001:00002790       ??1error_category@std@@UAE@XZ 10003790 f i config_system.obj
 0001:00002790       ??1ImGuiListClipper@@QAE@XZ 10003790 f i imgui.obj
 0001:00002790       ??1_Bxty@?$_String_val@U?$_Simple_types@_W@std@@@std@@QAE@XZ 10003790 f i config_system.obj
 0001:00002790       ??1_Ref_count_base@std@@UAE@XZ 10003790 f i config_system.obj
 0001:00002790       ??1_Bxty@?$_String_val@U?$_Simple_types@D@std@@@std@@QAE@XZ 10003790 f i animation_system.obj
 0001:00002790       ??1_Iterator_base12@std@@QAE@XZ 10003790 f i c_ragebot.obj
 0001:000027a0       ??2@YAPAXIPAX@Z            100037a0 f i animation_system.obj
 0001:000027b0       ??4Vector@@QAEAAV0@ABV0@@Z 100037b0 f i animation_system.obj
 0001:000027f0       ??8?$_List_unchecked_const_iterator@V?$_List_val@U?$_List_simple_types@U?$pair@$$CBV?$basic_string@DU?$char_traits@D@std@@V?$allocator@D@2@@std@@V?$shared_ptr@UNode@NetvarTree@@@2@@std@@@std@@@std@@U_Iterator_base0@2@@std@@QBE_NABV01@@Z 100037f0 f i animation_system.obj
 0001:000027f0       ??8?$_List_const_iterator@V?$_List_val@U?$_List_simple_types@U?$pair@$$CBV?$basic_string@DU?$char_traits@D@std@@V?$allocator@D@2@@std@@V?$shared_ptr@UNode@NetvarTree@@@2@@std@@@std@@@std@@@std@@QBE_NABV01@@Z 100037f0 f i animation_system.obj
 0001:00002820       ??9?$_List_unchecked_const_iterator@V?$_List_val@U?$_List_simple_types@U?$pair@$$CBV?$basic_string@DU?$char_traits@D@std@@V?$allocator@D@2@@std@@V?$shared_ptr@UNode@NetvarTree@@@2@@std@@@std@@@std@@U_Iterator_base0@2@@std@@QBE_NABV01@@Z 10003820 f i animation_system.obj
 0001:00002860       ??A?$unordered_map@V?$basic_string@DU?$char_traits@D@std@@V?$allocator@D@2@@std@@V?$shared_ptr@UNode@NetvarTree@@@2@U?$hash@V?$basic_string@DU?$char_traits@D@std@@V?$allocator@D@2@@std@@@2@U?$equal_to@V?$basic_string@DU?$char_traits@D@std@@V?$allocator@D@2@@std@@@2@V?$allocator@U?$pair@$$CBV?$basic_string@DU?$char_traits@D@std@@V?$allocator@D@2@@std@@V?$shared_ptr@UNode@NetvarTree@@@2@@std@@@2@@std@@QAEAAV?$shared_ptr@UNode@NetvarTree@@@1@$$QAV?$basic_string@DU?$char_traits@D@std@@V?$allocator@D@2@@1@@Z 10003860 f i animation_system.obj
 0001:000028a0       ??A?$vector@V?$_List_unchecked_iterator@V?$_List_val@U?$_List_simple_types@U?$pair@$$CBV?$basic_string@DU?$char_traits@D@std@@V?$allocator@D@2@@std@@V?$shared_ptr@UNode@NetvarTree@@@2@@std@@@std@@@std@@@std@@V?$allocator@V?$_List_unchecked_iterator@V?$_List_val@U?$_List_simple_types@U?$pair@$$CBV?$basic_string@DU?$char_traits@D@std@@V?$allocator@D@2@@std@@V?$shared_ptr@UNode@NetvarTree@@@2@@std@@@std@@@std@@@std@@@2@@std@@QAEAAV?$_List_unchecked_iterator@V?$_List_val@U?$_List_simple_types@U?$pair@$$CBV?$basic_string@DU?$char_traits@D@std@@V?$allocator@D@2@@std@@V?$shared_ptr@UNode@NetvarTree@@@2@@std@@@std@@@std@@@1@I@Z 100038a0 f i animation_system.obj
 0001:000028c0       ??C?$_List_iterator@V?$_List_val@U?$_List_simple_types@U?$pair@$$CBV?$basic_string@DU?$char_traits@D@std@@V?$allocator@D@2@@std@@V?$shared_ptr@UNode@NetvarTree@@@2@@std@@@std@@@std@@@std@@QBEPAU?$pair@$$CBV?$basic_string@DU?$char_traits@D@std@@V?$allocator@D@2@@std@@V?$shared_ptr@UNode@NetvarTree@@@2@@1@XZ 100038c0 f i animation_system.obj
 0001:000028e0       ??C?$unique_ptr@VShadowVTManager@@U?$default_delete@VShadowVTManager@@@std@@@std@@QBEPAVShadowVTManager@@XZ 100038e0 f i bone_processing_hook.obj
 0001:000028e0       ??C?$unique_ptr@VNetvarTree@@U?$default_delete@VNetvarTree@@@std@@@std@@QBEPAVNetvarTree@@XZ 100038e0 f i animation_system.obj
 0001:000028e0       ?get@?$unique_ptr@VVMTHook@@U?$default_delete@VVMTHook@@@std@@@std@@QBEPAVVMTHook@@XZ 100038e0 f i c_hooks.obj
 0001:000028e0       ?get@?$unique_ptr@VNetvarTree@@U?$default_delete@VNetvarTree@@@std@@@std@@QBEPAVNetvarTree@@XZ 100038e0 f i c_hooks.obj
 0001:000028e0       ??C?$unique_ptr@VVMTHook@@U?$default_delete@VVMTHook@@@std@@@std@@QBEPAVVMTHook@@XZ 100038e0 f i c_hooks.obj
 0001:000028e0       ?get@?$unique_ptr@$$BY0A@IU?$default_delete@$$BY0A@I@std@@@std@@QBEPAIXZ 100038e0 f i c_hooks.obj
 0001:000028e0       ?get@?$unique_ptr@V_Facet_base@std@@U?$default_delete@V_Facet_base@std@@@2@@std@@QBEPAV_Facet_base@2@XZ 100038e0 f i config_system.obj
 0001:000028e0       ?get@?$unique_ptr@VShadowVTManager@@U?$default_delete@VShadowVTManager@@@std@@@std@@QBEPAVShadowVTManager@@XZ 100038e0 f i c_hooks.obj
 0001:00002900       ??D?$_List_const_iterator@V?$_List_val@U?$_List_simple_types@U?$pair@$$CBV?$basic_string@DU?$char_traits@D@std@@V?$allocator@D@2@@std@@V?$shared_ptr@UNode@NetvarTree@@@2@@std@@@std@@@std@@@std@@QBEABU?$pair@$$CBV?$basic_string@DU?$char_traits@D@std@@V?$allocator@D@2@@std@@V?$shared_ptr@UNode@NetvarTree@@@2@@1@XZ 10003900 f i animation_system.obj
 0001:00002900       ??D?$_List_unchecked_const_iterator@V?$_List_val@U?$_List_simple_types@U?$pair@$$CBV?$basic_string@DU?$char_traits@D@std@@V?$allocator@D@2@@std@@V?$shared_ptr@UNode@NetvarTree@@@2@@std@@@std@@@std@@U_Iterator_base0@2@@std@@QBEABU?$pair@$$CBV?$basic_string@DU?$char_traits@D@std@@V?$allocator@D@2@@std@@V?$shared_ptr@UNode@NetvarTree@@@2@@1@XZ 10003900 f i animation_system.obj
 0001:00002920       ??D?$_List_iterator@V?$_List_val@U?$_List_simple_types@U?$pair@$$CBV?$basic_string@DU?$char_traits@D@std@@V?$allocator@D@2@@std@@V?$shared_ptr@UNode@NetvarTree@@@2@@std@@@std@@@std@@@std@@QBEAAU?$pair@$$CBV?$basic_string@DU?$char_traits@D@std@@V?$allocator@D@2@@std@@V?$shared_ptr@UNode@NetvarTree@@@2@@1@XZ 10003920 f i animation_system.obj
 0001:00002920       ??D?$_List_unchecked_iterator@V?$_List_val@U?$_List_simple_types@U?$pair@$$CBV?$basic_string@DU?$char_traits@D@std@@V?$allocator@D@2@@std@@V?$shared_ptr@UNode@NetvarTree@@@2@@std@@@std@@@std@@@std@@QBEAAU?$pair@$$CBV?$basic_string@DU?$char_traits@D@std@@V?$allocator@D@2@@std@@V?$shared_ptr@UNode@NetvarTree@@@2@@1@XZ 10003920 f i animation_system.obj
 0001:00002940       ??E?$_List_const_iterator@V?$_List_val@U?$_List_simple_types@U?$pair@$$CBV?$basic_string@DU?$char_traits@D@std@@V?$allocator@D@2@@std@@V?$shared_ptr@UNode@NetvarTree@@@2@@std@@@std@@@std@@@std@@QAE?AV01@H@Z 10003940 f i animation_system.obj
 0001:00002970       ??E?$_List_unchecked_const_iterator@V?$_List_val@U?$_List_simple_types@U?$pair@$$CBV?$basic_string@DU?$char_traits@D@std@@V?$allocator@D@2@@std@@V?$shared_ptr@UNode@NetvarTree@@@2@@std@@@std@@@std@@U_Iterator_base0@2@@std@@QAEAAV01@XZ 10003970 f i animation_system.obj
 0001:00002970       ??E?$_List_const_iterator@V?$_List_val@U?$_List_simple_types@U?$pair@$$CBV?$basic_string@DU?$char_traits@D@std@@V?$allocator@D@2@@std@@V?$shared_ptr@UNode@NetvarTree@@@2@@std@@@std@@@std@@@std@@QAEAAV01@XZ 10003970 f i animation_system.obj
 0001:00002990       ??E?$_List_unchecked_iterator@V?$_List_val@U?$_List_simple_types@U?$pair@$$CBV?$basic_string@DU?$char_traits@D@std@@V?$allocator@D@2@@std@@V?$shared_ptr@UNode@NetvarTree@@@2@@std@@@std@@@std@@@std@@QAEAAV01@XZ 10003990 f i animation_system.obj
 0001:000029b0       ??F?$_List_unchecked_const_iterator@V?$_List_val@U?$_List_simple_types@U?$pair@$$CBV?$basic_string@DU?$char_traits@D@std@@V?$allocator@D@2@@std@@V?$shared_ptr@UNode@NetvarTree@@@2@@std@@@std@@@std@@U_Iterator_base0@2@@std@@QAEAAV01@XZ 100039b0 f i animation_system.obj
 0001:000029d0       ??F?$_List_unchecked_iterator@V?$_List_val@U?$_List_simple_types@U?$pair@$$CBV?$basic_string@DU?$char_traits@D@std@@V?$allocator@D@2@@std@@V?$shared_ptr@UNode@NetvarTree@@@2@@std@@@std@@@std@@@std@@QAEAAV01@XZ 100039d0 f i animation_system.obj
 0001:000029f0       ??R<lambda_90060b9e869af971fde551ed84c55648>@@QBE?AV?$vector@HV?$allocator@H@std@@@std@@PBD@Z 100039f0 f i animation_system.obj
 0001:00002b20       ??R<lambda_9366063389c5f42a00a5088cf24e69de>@@QBEXQADIQBD@Z 10003b20 f i animation_system.obj
 0001:00002b60       ??R?$_Uhash_compare@V?$basic_string@DU?$char_traits@D@std@@V?$allocator@D@2@@std@@U?$hash@V?$basic_string@DU?$char_traits@D@std@@V?$allocator@D@2@@std@@@2@U?$equal_to@V?$basic_string@DU?$char_traits@D@std@@V?$allocator@D@2@@std@@@2@@std@@QBEIABV?$basic_string@DU?$char_traits@D@std@@V?$allocator@D@2@@1@@Z 10003b60 f i animation_system.obj
 0001:00002b90       ??R?$_Uhash_compare@V?$basic_string@DU?$char_traits@D@std@@V?$allocator@D@2@@std@@U?$hash@V?$basic_string@DU?$char_traits@D@std@@V?$allocator@D@2@@std@@@2@U?$equal_to@V?$basic_string@DU?$char_traits@D@std@@V?$allocator@D@2@@std@@@2@@std@@QBE_NABV?$basic_string@DU?$char_traits@D@std@@V?$allocator@D@2@@1@0@Z 10003b90 f i animation_system.obj
 0001:00002be0       ??R?$equal_to@V?$basic_string@DU?$char_traits@D@std@@V?$allocator@D@2@@std@@@std@@QBE_NABV?$basic_string@DU?$char_traits@D@std@@V?$allocator@D@2@@1@0@Z 10003be0 f i animation_system.obj
 0001:00002c00       ??R?$hash@V?$basic_string@DU?$char_traits@D@std@@V?$allocator@D@2@@std@@@std@@QBEIABV?$basic_string@DU?$char_traits@D@std@@V?$allocator@D@2@@1@@Z 10003c00 f i animation_system.obj
 0001:00002c40       ??_G?$pair@$$CBV?$basic_string@DU?$char_traits@D@std@@V?$allocator@D@2@@std@@V?$shared_ptr@UNode@NetvarTree@@@2@@std@@QAEPAXI@Z 10003c40 f i animation_system.obj
 0001:00002c70       ??_H@YGXPAXIIP6EPAX0@Z@Z   10003c70 f i animation_system.obj
 0001:00002cb0       ?ClientAnimations@C_BaseEntity@@QAEAA_NXZ 10003cb0 f i animation_system.obj
 0001:00002ce0       ?FindSignature@Utils@@SAIPBD0@Z 10003ce0 f i animation_system.obj
 0001:00002f10       ?GetAbsAngles@C_BaseEntity@@QAEAAVVector@@XZ 10003f10 f i animation_system.obj
 0001:00002f50       ?GetAbsOrigin@C_BaseEntity@@QAE?AVVector@@XZ 10003f50 f i animation_system.obj
 0001:00002f90       ?GetAnimOverlays@C_BaseEntity@@QAEPAVAnimationLayer@@XZ 10003f90 f i animation_system.obj
 0001:00002fb0       ?GetHealth@C_BaseEntity@@QAEHXZ 10003fb0 f i animation_system.obj
 0001:00003070       ?GetLifeState@C_BaseEntity@@QAE_NXZ 10004070 f i animation_system.obj
 0001:00003130       ?GetOffsetRecursive@NetvarTree@@CAHAAV?$unordered_map@V?$basic_string@DU?$char_traits@D@std@@V?$allocator@D@2@@std@@V?$shared_ptr@UNode@NetvarTree@@@2@U?$hash@V?$basic_string@DU?$char_traits@D@std@@V?$allocator@D@2@@std@@@2@U?$equal_to@V?$basic_string@DU?$char_traits@D@std@@V?$allocator@D@2@@std@@@2@V?$allocator@U?$pair@$$CBV?$basic_string@DU?$char_traits@D@std@@V?$allocator@D@2@@std@@V?$shared_ptr@UNode@NetvarTree@@@2@@std@@@2@@std@@HPBD@Z 10004130 f i animation_system.obj
 0001:000031c0       ?GetOrigin@C_BaseEntity@@QAE?AVVector@@XZ 100041c0 f i animation_system.obj
 0001:00003280       ?GetPlayerAnimState@C_BaseEntity@@QAEPAVCBasePlayerAnimState@@XZ 10004280 f i animation_system.obj
 0001:00003280       ?AnimState@C_BaseEntity@@QAEPAVC_AnimState@@XZ 10004280 f i bone_processing_hook.obj
 0001:000032a0       ?GetSimulationTime@C_BaseEntity@@QAEMXZ 100042a0 f i animation_system.obj
 0001:00003360       ?GetVelocity@C_BaseEntity@@QAE?AVVector@@XZ 10004360 f i animation_system.obj
 0001:00003430       ?IsAlive@C_BaseEntity@@QAE_NXZ 10004430 f i animation_system.obj
 0001:00003470       ?LocalAnimFix@animations_system@@QAEXPAVC_BaseEntity@@@Z 10004470 f   animation_system.obj
 0001:00003750       ?NumOverlays@C_BaseEntity@@QAEHXZ 10004750 f i animation_system.obj
 0001:00003760       ?PatternScan@Utils@@SAPAEPAXPBD@Z 10004760 f i animation_system.obj
 0001:000038a0       ?UpdateAnimationState@C_BaseEntity@@QAEXPAVCBasePlayerAnimState@@VVector@@@Z 100048a0 f i animation_system.obj
 0001:00003970       ?UpdateClientAnimation@C_BaseEntity@@QAEXXZ 10004970 f i animation_system.obj
 0001:000039a0       ?_Adjust_manually_vector_aligned@std@@YAXAAPAXAAI@Z 100049a0 f i animation_system.obj
 0001:00003a10       ?_Compat@?$_Deque_const_iterator@V?$_Deque_val@U?$_Deque_simple_types@UPlayerRecords@@@std@@@std@@@std@@QBEXABV12@@Z 10004a10 f i LagComp.obj
 0001:00003a10       ?_Verify_offset@?$_Deque_const_iterator@V?$_Deque_val@U?$_Deque_simple_types@UPlayerRecords@@@std@@@std@@@std@@QBEXH@Z 10004a10 f i LagComp.obj
 0001:00003a10       ?_Compat@?$_Deque_const_iterator@V?$_Deque_val@U?$_Deque_simple_types@ULegitPlayerRecords@@@std@@@std@@@std@@QBEXABV12@@Z 10004a10 f i Legitbot.obj
 0001:00003a10       ?_Swap_all@_Container_base0@std@@QAEXAAU12@@Z 10004a10 f i animation_system.obj
 0001:00003a10       ?_Compat@?$_String_const_iterator@V?$_String_val@U?$_Simple_types@D@std@@@std@@@std@@QBEXABV12@@Z 10004a10 f i c_esp.obj
 0001:00003a10       ?_Compat@?$_Vector_const_iterator@V?$_Vector_val@U?$_Simple_types@V?$basic_string@DU?$char_traits@D@std@@V?$allocator@D@2@@std@@@std@@@std@@@std@@QBEXABV12@@Z 10004a10 f i config_system.obj
 0001:00003a10       ?_Verify_offset@?$_Deque_const_iterator@V?$_Deque_val@U?$_Deque_simple_types@ULegitPlayerRecords@@@std@@@std@@@std@@QBEXH@Z 10004a10 f i Legitbot.obj
 0001:00003a10       ?_Adopt@_Iterator_base0@std@@QAEXPBX@Z 10004a10 f i animation_system.obj
 0001:00003a10       ?_Verify_offset@?$_String_const_iterator@V?$_String_val@U?$_Simple_types@D@std@@@std@@@std@@QBEXH@Z 10004a10 f i c_esp.obj
 0001:00003a10       ?_Verify_offset@?$_Vector_const_iterator@V?$_Vector_val@U?$_Simple_types@V?$basic_string@DU?$char_traits@D@std@@V?$allocator@D@2@@std@@@std@@@std@@@std@@QBEXH@Z 10004a10 f i config_system.obj
 0001:00003a20       ?_Allocate@_Default_allocate_traits@std@@SAPAXI@Z 10004a20 f i animation_system.obj
 0001:00003a40       ?_Assign_rv_contents_with_alloc_always_equal@?$basic_string@DU?$char_traits@D@std@@V?$allocator@D@2@@std@@QAEX$$QAV12@U?$integral_constant@_N$00@2@@Z 10004a40 f i animation_system.obj
 0001:00003ae0       ?_Begin@?$_Hash@V?$_Umap_traits@V?$basic_string@DU?$char_traits@D@std@@V?$allocator@D@2@@std@@V?$shared_ptr@UNode@NetvarTree@@@2@V?$_Uhash_compare@V?$basic_string@DU?$char_traits@D@std@@V?$allocator@D@2@@std@@U?$hash@V?$basic_string@DU?$char_traits@D@std@@V?$allocator@D@2@@std@@@2@U?$equal_to@V?$basic_string@DU?$char_traits@D@std@@V?$allocator@D@2@@std@@@2@@2@V?$allocator@U?$pair@$$CBV?$basic_string@DU?$char_traits@D@std@@V?$allocator@D@2@@std@@V?$shared_ptr@UNode@NetvarTree@@@2@@std@@@2@$0A@@std@@@std@@IAE?AV?$_List_unchecked_iterator@V?$_List_val@U?$_List_simple_types@U?$pair@$$CBV?$basic_string@DU?$char_traits@D@std@@V?$allocator@D@2@@std@@V?$shared_ptr@UNode@NetvarTree@@@2@@std@@@std@@@std@@@2@I@Z 10004ae0 f i animation_system.obj
 0001:00003b10       ?_Buy@?$vector@V?$_List_unchecked_iterator@V?$_List_val@U?$_List_simple_types@U?$pair@$$CBV?$basic_string@DU?$char_traits@D@std@@V?$allocator@D@2@@std@@V?$shared_ptr@UNode@NetvarTree@@@2@@std@@@std@@@std@@@std@@V?$allocator@V?$_List_unchecked_iterator@V?$_List_val@U?$_List_simple_types@U?$pair@$$CBV?$basic_string@DU?$char_traits@D@std@@V?$allocator@D@2@@std@@V?$shared_ptr@UNode@NetvarTree@@@2@@std@@@std@@@std@@@std@@@2@@std@@AAE_NI@Z 10004b10 f i animation_system.obj
 0001:00003bd0       ?_Buynode0@?$_List_alloc@U?$_List_base_types@U?$pair@$$CBV?$basic_string@DU?$char_traits@D@std@@V?$allocator@D@2@@std@@V?$shared_ptr@UNode@NetvarTree@@@2@@std@@V?$allocator@U?$pair@$$CBV?$basic_string@DU?$char_traits@D@std@@V?$allocator@D@2@@std@@V?$shared_ptr@UNode@NetvarTree@@@2@@std@@@2@@std@@@std@@QAEPAU?$_List_node@U?$pair@$$CBV?$basic_string@DU?$char_traits@D@std@@V?$allocator@D@2@@std@@V?$shared_ptr@UNode@NetvarTree@@@2@@std@@PAX@2@PAU32@0@Z 10004bd0 f i animation_system.obj
 0001:00003cc0       ?_Calculate_growth@?$basic_string@DU?$char_traits@D@std@@V?$allocator@D@2@@std@@QBEII@Z 10004cc0 f i animation_system.obj
 0001:00003d40       ?_Calculate_growth@?$vector@HV?$allocator@H@std@@@std@@ABEII@Z 10004d40 f i animation_system.obj
 0001:00003d40       ?_Calculate_growth@?$vector@V?$_List_unchecked_iterator@V?$_List_val@U?$_List_simple_types@U?$pair@$$CBV?$basic_string@DU?$char_traits@D@std@@V?$allocator@D@2@@std@@V?$shared_ptr@UNode@NetvarTree@@@2@@std@@@std@@@std@@@std@@V?$allocator@V?$_List_unchecked_iterator@V?$_List_val@U?$_List_simple_types@U?$pair@$$CBV?$basic_string@DU?$char_traits@D@std@@V?$allocator@D@2@@std@@V?$shared_ptr@UNode@NetvarTree@@@2@@std@@@std@@@std@@@std@@@2@@std@@ABEII@Z 10004d40 f i animation_system.obj
 0001:00003d90       ?_Change_array@?$vector@V?$_List_unchecked_iterator@V?$_List_val@U?$_List_simple_types@U?$pair@$$CBV?$basic_string@DU?$char_traits@D@std@@V?$allocator@D@2@@std@@V?$shared_ptr@UNode@NetvarTree@@@2@@std@@@std@@@std@@@std@@V?$allocator@V?$_List_unchecked_iterator@V?$_List_val@U?$_List_simple_types@U?$pair@$$CBV?$basic_string@DU?$char_traits@D@std@@V?$allocator@D@2@@std@@V?$shared_ptr@UNode@NetvarTree@@@2@@std@@@std@@@std@@@std@@@2@@std@@AAEXQAV?$_List_unchecked_iterator@V?$_List_val@U?$_List_simple_types@U?$pair@$$CBV?$basic_string@DU?$char_traits@D@std@@V?$allocator@D@2@@std@@V?$shared_ptr@UNode@NetvarTree@@@2@@std@@@std@@@std@@@2@II@Z 10004d90 f i animation_system.obj
 0001:00003d90       ?_Change_array@?$vector@HV?$allocator@H@std@@@std@@AAEXQAHII@Z 10004d90 f i animation_system.obj
 0001:00003e50       ?_Check_size@?$_Hash@V?$_Umap_traits@V?$basic_string@DU?$char_traits@D@std@@V?$allocator@D@2@@std@@V?$shared_ptr@UNode@NetvarTree@@@2@V?$_Uhash_compare@V?$basic_string@DU?$char_traits@D@std@@V?$allocator@D@2@@std@@U?$hash@V?$basic_string@DU?$char_traits@D@std@@V?$allocator@D@2@@std@@@2@U?$equal_to@V?$basic_string@DU?$char_traits@D@std@@V?$allocator@D@2@@std@@@2@@2@V?$allocator@U?$pair@$$CBV?$basic_string@DU?$char_traits@D@std@@V?$allocator@D@2@@std@@V?$shared_ptr@UNode@NetvarTree@@@2@@std@@@2@$0A@@std@@@std@@IAEXXZ 10004e50 f i animation_system.obj
 0001:00003ee0       ?_Decref@?$_Ptr_base@U_Dir_enum_impl@filesystem@std@@@std@@IAEXXZ 10004ee0 f i config_system.obj
 0001:00003ee0       ?_Decref@?$_Ptr_base@UNode@NetvarTree@@@std@@IAEXXZ 10004ee0 f i animation_system.obj
 0001:00003f00       ?_Decref@_Ref_count_base@std@@QAEXXZ 10004f00 f i animation_system.obj
 0001:00003f30       ?_Decwref@_Ref_count_base@std@@QAEXXZ 10004f30 f i animation_system.obj
 0001:00003f60       ?_Destroy@?$vector@V?$_List_unchecked_iterator@V?$_List_val@U?$_List_simple_types@U?$pair@$$CBV?$basic_string@DU?$char_traits@D@std@@V?$allocator@D@2@@std@@V?$shared_ptr@UNode@NetvarTree@@@2@@std@@@std@@@std@@@std@@V?$allocator@V?$_List_unchecked_iterator@V?$_List_val@U?$_List_simple_types@U?$pair@$$CBV?$basic_string@DU?$char_traits@D@std@@V?$allocator@D@2@@std@@V?$shared_ptr@UNode@NetvarTree@@@2@@std@@@std@@@std@@@std@@@2@@std@@AAEXPAV?$_List_unchecked_iterator@V?$_List_val@U?$_List_simple_types@U?$pair@$$CBV?$basic_string@DU?$char_traits@D@std@@V?$allocator@D@2@@std@@V?$shared_ptr@UNode@NetvarTree@@@2@@std@@@std@@@std@@@2@0@Z 10004f60 f i animation_system.obj
 0001:00003f60       ?_Destroy@?$vector@HV?$allocator@H@std@@@std@@AAEXPAH0@Z 10004f60 f i animation_system.obj
 0001:00003f90       ?_Destroy_if_node@?$_Hash@V?$_Umap_traits@V?$basic_string@DU?$char_traits@D@std@@V?$allocator@D@2@@std@@V?$shared_ptr@UNode@NetvarTree@@@2@V?$_Uhash_compare@V?$basic_string@DU?$char_traits@D@std@@V?$allocator@D@2@@std@@U?$hash@V?$basic_string@DU?$char_traits@D@std@@V?$allocator@D@2@@std@@@2@U?$equal_to@V?$basic_string@DU?$char_traits@D@std@@V?$allocator@D@2@@std@@@2@@2@V?$allocator@U?$pair@$$CBV?$basic_string@DU?$char_traits@D@std@@V?$allocator@D@2@@std@@V?$shared_ptr@UNode@NetvarTree@@@2@@std@@@2@$0A@@std@@@std@@IAEXV?$_List_unchecked_iterator@V?$_List_val@U?$_List_simple_types@U?$pair@$$CBV?$basic_string@DU?$char_traits@D@std@@V?$allocator@D@2@@std@@V?$shared_ptr@UNode@NetvarTree@@@2@@std@@@std@@@std@@@2@@Z 10004f90 f i animation_system.obj
 0001:00003fe0       ?_End@?$_Hash@V?$_Umap_traits@V?$basic_string@DU?$char_traits@D@std@@V?$allocator@D@2@@std@@V?$shared_ptr@UNode@NetvarTree@@@2@V?$_Uhash_compare@V?$basic_string@DU?$char_traits@D@std@@V?$allocator@D@2@@std@@U?$hash@V?$basic_string@DU?$char_traits@D@std@@V?$allocator@D@2@@std@@@2@U?$equal_to@V?$basic_string@DU?$char_traits@D@std@@V?$allocator@D@2@@std@@@2@@2@V?$allocator@U?$pair@$$CBV?$basic_string@DU?$char_traits@D@std@@V?$allocator@D@2@@std@@V?$shared_ptr@UNode@NetvarTree@@@2@@std@@@2@$0A@@std@@@std@@IAE?AV?$_List_unchecked_iterator@V?$_List_val@U?$_List_simple_types@U?$pair@$$CBV?$basic_string@DU?$char_traits@D@std@@V?$allocator@D@2@@std@@V?$shared_ptr@UNode@NetvarTree@@@2@@std@@@std@@@std@@@2@I@Z 10004fe0 f i animation_system.obj
 0001:00004060       ?_Equal@?$basic_string@DU?$char_traits@D@std@@V?$allocator@D@2@@std@@QBE_NABV12@@Z 10005060 f i animation_system.obj
 0001:000040f0       ?_Erase_bucket@?$_Hash@V?$_Umap_traits@V?$basic_string@DU?$char_traits@D@std@@V?$allocator@D@2@@std@@V?$shared_ptr@UNode@NetvarTree@@@2@V?$_Uhash_compare@V?$basic_string@DU?$char_traits@D@std@@V?$allocator@D@2@@std@@U?$hash@V?$basic_string@DU?$char_traits@D@std@@V?$allocator@D@2@@std@@@2@U?$equal_to@V?$basic_string@DU?$char_traits@D@std@@V?$allocator@D@2@@std@@@2@@2@V?$allocator@U?$pair@$$CBV?$basic_string@DU?$char_traits@D@std@@V?$allocator@D@2@@std@@V?$shared_ptr@UNode@NetvarTree@@@2@@std@@@2@$0A@@std@@@std@@IAEXV?$_List_iterator@V?$_List_val@U?$_List_simple_types@U?$pair@$$CBV?$basic_string@DU?$char_traits@D@std@@V?$allocator@D@2@@std@@V?$shared_ptr@UNode@NetvarTree@@@2@@std@@@std@@@std@@@2@I@Z 100050f0 f i animation_system.obj
 0001:00004200       ?_Fnv1a_append_bytes@std@@YAIIQBEI@Z 10005200 f i animation_system.obj
 0001:00004240       ?_Freenode@?$_List_buy@U?$pair@$$CBV?$basic_string@DU?$char_traits@D@std@@V?$allocator@D@2@@std@@V?$shared_ptr@UNode@NetvarTree@@@2@@std@@V?$allocator@U?$pair@$$CBV?$basic_string@DU?$char_traits@D@std@@V?$allocator@D@2@@std@@V?$shared_ptr@UNode@NetvarTree@@@2@@std@@@2@@std@@QAEXPAU?$_List_node@U?$pair@$$CBV?$basic_string@DU?$char_traits@D@std@@V?$allocator@D@2@@std@@V?$shared_ptr@UNode@NetvarTree@@@2@@std@@PAX@2@@Z 10005240 f i animation_system.obj
 0001:00004290       ?_Get_data@?$_Vector_alloc@U?$_Vec_base_types@HV?$allocator@H@std@@@std@@@std@@QBEABV?$_Vector_val@U?$_Simple_types@H@std@@@2@XZ 10005290 f i animation_system.obj
 0001:00004290       ?_Getal@?$_Vector_alloc@U?$_Vec_base_types@V?$_List_unchecked_iterator@V?$_List_val@U?$_List_simple_types@U?$pair@$$CBV?$basic_string@DU?$char_traits@D@std@@V?$allocator@D@2@@std@@V?$shared_ptr@UNode@NetvarTree@@@2@@std@@@std@@@std@@@std@@V?$allocator@V?$_List_unchecked_iterator@V?$_List_val@U?$_List_simple_types@U?$pair@$$CBV?$basic_string@DU?$char_traits@D@std@@V?$allocator@D@2@@std@@V?$shared_ptr@UNode@NetvarTree@@@2@@std@@@std@@@std@@@std@@@2@@std@@@std@@QBEABV?$allocator@V?$_List_unchecked_iterator@V?$_List_val@U?$_List_simple_types@U?$pair@$$CBV?$basic_string@DU?$char_traits@D@std@@V?$allocator@D@2@@std@@V?$shared_ptr@UNode@NetvarTree@@@2@@std@@@std@@@std@@@std@@@2@XZ 10005290 f i animation_system.obj
 0001:00004290       ?_Get_data@?$_Vector_alloc@U?$_Vec_base_types@V?$basic_string@DU?$char_traits@D@std@@V?$allocator@D@2@@std@@V?$allocator@V?$basic_string@DU?$char_traits@D@std@@V?$allocator@D@2@@std@@@2@@std@@@std@@QBEABV?$_Vector_val@U?$_Simple_types@V?$basic_string@DU?$char_traits@D@std@@V?$allocator@D@2@@std@@@std@@@2@XZ 10005290 f i config_system.obj
 0001:00004290       ?_Myptr@?$_Unique_ptr_base@VShadowVTManager@@U?$default_delete@VShadowVTManager@@@std@@@std@@QBEABQAVShadowVTManager@@XZ 10005290 f i c_hooks.obj
 0001:00004290       ?get_deleter@?$_Unique_ptr_base@VShadowVTManager@@U?$default_delete@VShadowVTManager@@@std@@@std@@QAEAAU?$default_delete@VShadowVTManager@@@2@XZ 10005290 f i c_hooks.obj
 0001:00004290       ?get_deleter@?$_Unique_ptr_base@V_Facet_base@std@@U?$default_delete@V_Facet_base@std@@@2@@std@@QAEAAU?$default_delete@V_Facet_base@std@@@2@XZ 10005290 f i config_system.obj
 0001:00004290       ?_Myptr@?$_Unique_ptr_base@VShadowVTManager@@U?$default_delete@VShadowVTManager@@@std@@@std@@QAEAAPAVShadowVTManager@@XZ 10005290 f i bone_processing_hook.obj
 0001:00004290       ?_Myptr@?$_Unique_ptr_base@VVMTHook@@U?$default_delete@VVMTHook@@@std@@@std@@QBEABQAVVMTHook@@XZ 10005290 f i c_hooks.obj
 0001:00004290       ?_Myptr@?$_Unique_ptr_base@V_Facet_base@std@@U?$default_delete@V_Facet_base@std@@@2@@std@@QBEABQAV_Facet_base@2@XZ 10005290 f i config_system.obj
 0001:00004290       ?_Getal@?$_String_alloc@U?$_String_base_types@_WV?$allocator@_W@std@@@std@@@std@@QBEABV?$allocator@_W@2@XZ 10005290 f i config_system.obj
 0001:00004290       ?_Get_data@?$_String_alloc@U?$_String_base_types@_WV?$allocator@_W@std@@@std@@@std@@QBEABV?$_String_val@U?$_Simple_types@_W@std@@@2@XZ 10005290 f i config_system.obj
 0001:00004290       ?_Getal@?$_String_alloc@U?$_String_base_types@DV?$allocator@D@std@@@std@@@std@@QBEABV?$allocator@D@2@XZ 10005290 f i animation_system.obj
 0001:00004290       ?_Get_data@?$_Deque_alloc@U?$_Deque_base_types@UPlayerRecords@@V?$allocator@UPlayerRecords@@@std@@@std@@@std@@QAEAAV?$_Deque_val@U?$_Deque_simple_types@UPlayerRecords@@@std@@@2@XZ 10005290 f i c_ragebot.obj
 0001:00004290       ?_Getal@?$_Deque_alloc@U?$_Deque_base_types@UPlayerRecords@@V?$allocator@UPlayerRecords@@@std@@@std@@@std@@QAEAAV?$allocator@UPlayerRecords@@@2@XZ 10005290 f i LagComp.obj
 0001:00004290       ?_Getal@?$_Deque_alloc@U?$_Deque_base_types@UPlayerRecords@@V?$allocator@UPlayerRecords@@@std@@@std@@@std@@QBEABV?$allocator@UPlayerRecords@@@2@XZ 10005290 f i LagComp.obj
 0001:00004290       ?_Get_data@?$_String_alloc@U?$_String_base_types@DV?$allocator@D@std@@@std@@@std@@QAEAAV?$_String_val@U?$_Simple_types@D@std@@@2@XZ 10005290 f i animation_system.obj
 0001:00004290       ?_Getal@?$_String_alloc@U?$_String_base_types@DV?$allocator@D@std@@@std@@@std@@QAEAAV?$allocator@D@2@XZ 10005290 f i animation_system.obj
 0001:00004290       ?_Myptr@?$_Unique_ptr_base@IU?$default_delete@$$BY0A@I@std@@@std@@QBEABQAIXZ 10005290 f i c_hooks.obj
 0001:00004290       ?_Get_data@?$_Vector_alloc@U?$_Vec_base_types@V?$_List_unchecked_iterator@V?$_List_val@U?$_List_simple_types@U?$pair@$$CBV?$basic_string@DU?$char_traits@D@std@@V?$allocator@D@2@@std@@V?$shared_ptr@UNode@NetvarTree@@@2@@std@@@std@@@std@@@std@@V?$allocator@V?$_List_unchecked_iterator@V?$_List_val@U?$_List_simple_types@U?$pair@$$CBV?$basic_string@DU?$char_traits@D@std@@V?$allocator@D@2@@std@@V?$shared_ptr@UNode@NetvarTree@@@2@@std@@@std@@@std@@@std@@@2@@std@@@std@@QBEABV?$_Vector_val@U?$_Simple_types@V?$_List_unchecked_iterator@V?$_List_val@U?$_List_simple_types@U?$pair@$$CBV?$basic_string@DU?$char_traits@D@std@@V?$allocator@D@2@@std@@V?$shared_ptr@UNode@NetvarTree@@@2@@std@@@std@@@std@@@std@@@std@@@2@XZ 10005290 f i animation_system.obj
 0001:00004290       ?_Getal@?$_List_alloc@U?$_List_base_types@U?$pair@$$CBV?$basic_string@DU?$char_traits@D@std@@V?$allocator@D@2@@std@@V?$shared_ptr@UNode@NetvarTree@@@2@@std@@V?$allocator@U?$pair@$$CBV?$basic_string@DU?$char_traits@D@std@@V?$allocator@D@2@@std@@V?$shared_ptr@UNode@NetvarTree@@@2@@std@@@2@@std@@@std@@QAEAAV?$allocator@U?$_List_node@U?$pair@$$CBV?$basic_string@DU?$char_traits@D@std@@V?$allocator@D@2@@std@@V?$shared_ptr@UNode@NetvarTree@@@2@@std@@PAX@std@@@2@XZ 10005290 f i animation_system.obj
 0001:00004290       ?_Get_data@?$_List_alloc@U?$_List_base_types@U?$pair@$$CBV?$basic_string@DU?$char_traits@D@std@@V?$allocator@D@2@@std@@V?$shared_ptr@UNode@NetvarTree@@@2@@std@@V?$allocator@U?$pair@$$CBV?$basic_string@DU?$char_traits@D@std@@V?$allocator@D@2@@std@@V?$shared_ptr@UNode@NetvarTree@@@2@@std@@@2@@std@@@std@@QBEABV?$_List_val@U?$_List_simple_types@U?$pair@$$CBV?$basic_string@DU?$char_traits@D@std@@V?$allocator@D@2@@std@@V?$shared_ptr@UNode@NetvarTree@@@2@@std@@@std@@@2@XZ 10005290 f i animation_system.obj
 0001:00004290       ?_Getal@?$_String_alloc@U?$_String_base_types@_WV?$allocator@_W@std@@@std@@@std@@QAEAAV?$allocator@_W@2@XZ 10005290 f i config_system.obj
 0001:00004290       ?_Get_data@?$_Deque_alloc@U?$_Deque_base_types@UPlayerRecords@@V?$allocator@UPlayerRecords@@@std@@@std@@@std@@QBEABV?$_Deque_val@U?$_Deque_simple_types@UPlayerRecords@@@std@@@2@XZ 10005290 f i c_ragebot.obj
 0001:00004290       ?_Getal@?$_Vector_alloc@U?$_Vec_base_types@V?$_List_unchecked_iterator@V?$_List_val@U?$_List_simple_types@U?$pair@$$CBV?$basic_string@DU?$char_traits@D@std@@V?$allocator@D@2@@std@@V?$shared_ptr@UNode@NetvarTree@@@2@@std@@@std@@@std@@@std@@V?$allocator@V?$_List_unchecked_iterator@V?$_List_val@U?$_List_simple_types@U?$pair@$$CBV?$basic_string@DU?$char_traits@D@std@@V?$allocator@D@2@@std@@V?$shared_ptr@UNode@NetvarTree@@@2@@std@@@std@@@std@@@std@@@2@@std@@@std@@QAEAAV?$allocator@V?$_List_unchecked_iterator@V?$_List_val@U?$_List_simple_types@U?$pair@$$CBV?$basic_string@DU?$char_traits@D@std@@V?$allocator@D@2@@std@@V?$shared_ptr@UNode@NetvarTree@@@2@@std@@@std@@@std@@@std@@@2@XZ 10005290 f i animation_system.obj
 0001:00004290       ?_Getal@?$_List_alloc@U?$_List_base_types@U?$pair@$$CBV?$basic_string@DU?$char_traits@D@std@@V?$allocator@D@2@@std@@V?$shared_ptr@UNode@NetvarTree@@@2@@std@@V?$allocator@U?$pair@$$CBV?$basic_string@DU?$char_traits@D@std@@V?$allocator@D@2@@std@@V?$shared_ptr@UNode@NetvarTree@@@2@@std@@@2@@std@@@std@@QBEABV?$allocator@U?$_List_node@U?$pair@$$CBV?$basic_string@DU?$char_traits@D@std@@V?$allocator@D@2@@std@@V?$shared_ptr@UNode@NetvarTree@@@2@@std@@PAX@std@@@2@XZ 10005290 f i animation_system.obj
 0001:00004290       ?_Myptr@?$_Unique_ptr_base@IU?$default_delete@$$BY0A@I@std@@@std@@QAEAAPAIXZ 10005290 f i c_hooks.obj
 0001:00004290       ?_Get_data@?$_Deque_alloc@U?$_Deque_base_types@ULegitPlayerRecords@@V?$allocator@ULegitPlayerRecords@@@std@@@std@@@std@@QAEAAV?$_Deque_val@U?$_Deque_simple_types@ULegitPlayerRecords@@@std@@@2@XZ 10005290 f i Legitbot.obj
 0001:00004290       ?get_deleter@?$_Unique_ptr_base@IU?$default_delete@$$BY0A@I@std@@@std@@QAEAAU?$default_delete@$$BY0A@I@2@XZ 10005290 f i c_hooks.obj
 0001:00004290       ?_Myptr@?$_Unique_ptr_base@VVMTHook@@U?$default_delete@VVMTHook@@@std@@@std@@QAEAAPAVVMTHook@@XZ 10005290 f i c_hooks.obj
 0001:00004290       ?_Gethash@?$_Uhash_compare@V?$basic_string@DU?$char_traits@D@std@@V?$allocator@D@2@@std@@U?$hash@V?$basic_string@DU?$char_traits@D@std@@V?$allocator@D@2@@std@@@2@U?$equal_to@V?$basic_string@DU?$char_traits@D@std@@V?$allocator@D@2@@std@@@2@@std@@QBEABU?$hash@V?$basic_string@DU?$char_traits@D@std@@V?$allocator@D@2@@std@@@2@XZ 10005290 f i animation_system.obj
 0001:00004290       ?_Getal@?$_Deque_alloc@U?$_Deque_base_types@ULegitPlayerRecords@@V?$allocator@ULegitPlayerRecords@@@std@@@std@@@std@@QAEAAV?$allocator@ULegitPlayerRecords@@@2@XZ 10005290 f i Legitbot.obj
 0001:00004290       ?get_deleter@?$_Unique_ptr_base@VNetvarTree@@U?$default_delete@VNetvarTree@@@std@@@std@@QAEAAU?$default_delete@VNetvarTree@@@2@XZ 10005290 f i c_hooks.obj
 0001:00004290       ?_Get_data@?$_String_alloc@U?$_String_base_types@DV?$allocator@D@std@@@std@@@std@@QBEABV?$_String_val@U?$_Simple_types@D@std@@@2@XZ 10005290 f i animation_system.obj
 0001:00004290       ?_Get_data@?$_Vector_alloc@U?$_Vec_base_types@V?$basic_string@DU?$char_traits@D@std@@V?$allocator@D@2@@std@@V?$allocator@V?$basic_string@DU?$char_traits@D@std@@V?$allocator@D@2@@std@@@2@@std@@@std@@QAEAAV?$_Vector_val@U?$_Simple_types@V?$basic_string@DU?$char_traits@D@std@@V?$allocator@D@2@@std@@@std@@@2@XZ 10005290 f i config_system.obj
 0001:00004290       ?_Get_data@?$_String_alloc@U?$_String_base_types@_WV?$allocator@_W@std@@@std@@@std@@QAEAAV?$_String_val@U?$_Simple_types@_W@std@@@2@XZ 10005290 f i config_system.obj
 0001:00004290       ?get_deleter@?$_Unique_ptr_base@VVMTHook@@U?$default_delete@VVMTHook@@@std@@@std@@QAEAAU?$default_delete@VVMTHook@@@2@XZ 10005290 f i c_hooks.obj
 0001:00004290       ?_Getal@?$_Deque_alloc@U?$_Deque_base_types@ULegitPlayerRecords@@V?$allocator@ULegitPlayerRecords@@@std@@@std@@@std@@QBEABV?$allocator@ULegitPlayerRecords@@@2@XZ 10005290 f i Legitbot.obj
 0001:00004290       ?_Get_data@?$_Vector_alloc@U?$_Vec_base_types@HV?$allocator@H@std@@@std@@@std@@QAEAAV?$_Vector_val@U?$_Simple_types@H@std@@@2@XZ 10005290 f i animation_system.obj
 0001:00004290       ?_Myptr@?$_Unique_ptr_base@VNetvarTree@@U?$default_delete@VNetvarTree@@@std@@@std@@QBEABQAVNetvarTree@@XZ 10005290 f i animation_system.obj
 0001:00004290       ?_Getal@?$_Vector_alloc@U?$_Vec_base_types@V?$basic_string@DU?$char_traits@D@std@@V?$allocator@D@2@@std@@V?$allocator@V?$basic_string@DU?$char_traits@D@std@@V?$allocator@D@2@@std@@@2@@std@@@std@@QAEAAV?$allocator@V?$basic_string@DU?$char_traits@D@std@@V?$allocator@D@2@@std@@@2@XZ 10005290 f i config_system.obj
 0001:00004290       ?_Myptr@?$_Unique_ptr_base@VNetvarTree@@U?$default_delete@VNetvarTree@@@std@@@std@@QAEAAPAVNetvarTree@@XZ 10005290 f i c_hooks.obj
 0001:00004290       ?_Get_data@?$_Deque_alloc@U?$_Deque_base_types@ULegitPlayerRecords@@V?$allocator@ULegitPlayerRecords@@@std@@@std@@@std@@QBEABV?$_Deque_val@U?$_Deque_simple_types@ULegitPlayerRecords@@@std@@@2@XZ 10005290 f i Legitbot.obj
 0001:00004290       ?_Get_data@?$_List_alloc@U?$_List_base_types@U?$pair@$$CBV?$basic_string@DU?$char_traits@D@std@@V?$allocator@D@2@@std@@V?$shared_ptr@UNode@NetvarTree@@@2@@std@@V?$allocator@U?$pair@$$CBV?$basic_string@DU?$char_traits@D@std@@V?$allocator@D@2@@std@@V?$shared_ptr@UNode@NetvarTree@@@2@@std@@@2@@std@@@std@@QAEAAV?$_List_val@U?$_List_simple_types@U?$pair@$$CBV?$basic_string@DU?$char_traits@D@std@@V?$allocator@D@2@@std@@V?$shared_ptr@UNode@NetvarTree@@@2@@std@@@std@@@2@XZ 10005290 f i animation_system.obj
 0001:00004290       ?_Getal@?$_Vector_alloc@U?$_Vec_base_types@HV?$allocator@H@std@@@std@@@std@@QBEABV?$allocator@H@2@XZ 10005290 f i animation_system.obj
 0001:00004290       ?_Get_data@?$_Vector_alloc@U?$_Vec_base_types@V?$_List_unchecked_iterator@V?$_List_val@U?$_List_simple_types@U?$pair@$$CBV?$basic_string@DU?$char_traits@D@std@@V?$allocator@D@2@@std@@V?$shared_ptr@UNode@NetvarTree@@@2@@std@@@std@@@std@@@std@@V?$allocator@V?$_List_unchecked_iterator@V?$_List_val@U?$_List_simple_types@U?$pair@$$CBV?$basic_string@DU?$char_traits@D@std@@V?$allocator@D@2@@std@@V?$shared_ptr@UNode@NetvarTree@@@2@@std@@@std@@@std@@@std@@@2@@std@@@std@@QAEAAV?$_Vector_val@U?$_Simple_types@V?$_List_unchecked_iterator@V?$_List_val@U?$_List_simple_types@U?$pair@$$CBV?$basic_string@DU?$char_traits@D@std@@V?$allocator@D@2@@std@@V?$shared_ptr@UNode@NetvarTree@@@2@@std@@@std@@@std@@@std@@@std@@@2@XZ 10005290 f i animation_system.obj
 0001:00004290       ?_Getal@?$_Vector_alloc@U?$_Vec_base_types@HV?$allocator@H@std@@@std@@@std@@QAEAAV?$allocator@H@2@XZ 10005290 f i animation_system.obj
 0001:00004290       ?_Myptr@?$_Unique_ptr_base@V_Facet_base@std@@U?$default_delete@V_Facet_base@std@@@2@@std@@QAEAAPAV_Facet_base@2@XZ 10005290 f i config_system.obj
 0001:00004290       ?_Getal@?$_Vector_alloc@U?$_Vec_base_types@V?$basic_string@DU?$char_traits@D@std@@V?$allocator@D@2@@std@@V?$allocator@V?$basic_string@DU?$char_traits@D@std@@V?$allocator@D@2@@std@@@2@@std@@@std@@QBEABV?$allocator@V?$basic_string@DU?$char_traits@D@std@@V?$allocator@D@2@@std@@@2@XZ 10005290 f i config_system.obj
 0001:000042b0       ?_Getkeyeq@?$_Uhash_compare@V?$basic_string@DU?$char_traits@D@std@@V?$allocator@D@2@@std@@U?$hash@V?$basic_string@DU?$char_traits@D@std@@V?$allocator@D@2@@std@@@2@U?$equal_to@V?$basic_string@DU?$char_traits@D@std@@V?$allocator@D@2@@std@@@2@@std@@QBEABU?$equal_to@V?$basic_string@DU?$char_traits@D@std@@V?$allocator@D@2@@std@@@2@XZ 100052b0 f i animation_system.obj
 0001:000042b0       ?_Get_max_bucket_size@?$_Uhash_compare@V?$basic_string@DU?$char_traits@D@std@@V?$allocator@D@2@@std@@U?$hash@V?$basic_string@DU?$char_traits@D@std@@V?$allocator@D@2@@std@@@2@U?$equal_to@V?$basic_string@DU?$char_traits@D@std@@V?$allocator@D@2@@std@@@2@@std@@QAEAAMXZ 100052b0 f i NetvarManager.obj
 0001:000042b0       ?_Get_max_bucket_size@?$_Uhash_compare@V?$basic_string@DU?$char_traits@D@std@@V?$allocator@D@2@@std@@U?$hash@V?$basic_string@DU?$char_traits@D@std@@V?$allocator@D@2@@std@@@2@U?$equal_to@V?$basic_string@DU?$char_traits@D@std@@V?$allocator@D@2@@std@@@2@@std@@QBEABMXZ 100052b0 f i animation_system.obj
 0001:000042d0       ?_Getcont@_Iterator_base0@std@@QBEPBU_Container_base0@2@XZ 100052d0 f i animation_system.obj
 0001:000042d0       ?GetTraceType@C_TraceFilter@@UBE?AW4TraceType_t@@XZ 100052d0 f i Autowall.obj
 0001:000042e0       ?_Has_unused_capacity@?$vector@HV?$allocator@H@std@@@std@@ABE_NXZ 100052e0 f i animation_system.obj
 0001:000042e0       ?_Has_unused_capacity@?$vector@V?$basic_string@DU?$char_traits@D@std@@V?$allocator@D@2@@std@@V?$allocator@V?$basic_string@DU?$char_traits@D@std@@V?$allocator@D@2@@std@@@2@@std@@ABE_NXZ 100052e0 f i config_system.obj
 0001:00004320       ?_Hashval@?$_Hash@V?$_Umap_traits@V?$basic_string@DU?$char_traits@D@std@@V?$allocator@D@2@@std@@V?$shared_ptr@UNode@NetvarTree@@@2@V?$_Uhash_compare@V?$basic_string@DU?$char_traits@D@std@@V?$allocator@D@2@@std@@U?$hash@V?$basic_string@DU?$char_traits@D@std@@V?$allocator@D@2@@std@@@2@U?$equal_to@V?$basic_string@DU?$char_traits@D@std@@V?$allocator@D@2@@std@@@2@@2@V?$allocator@U?$pair@$$CBV?$basic_string@DU?$char_traits@D@std@@V?$allocator@D@2@@std@@V?$shared_ptr@UNode@NetvarTree@@@2@@std@@@2@$0A@@std@@@std@@IBEIABV?$basic_string@DU?$char_traits@D@std@@V?$allocator@D@2@@2@@Z 10005320 f i animation_system.obj
 0001:00004350       ?_Incsize@?$list@U?$pair@$$CBV?$basic_string@DU?$char_traits@D@std@@V?$allocator@D@2@@std@@V?$shared_ptr@UNode@NetvarTree@@@2@@std@@V?$allocator@U?$pair@$$CBV?$basic_string@DU?$char_traits@D@std@@V?$allocator@D@2@@std@@V?$shared_ptr@UNode@NetvarTree@@@2@@std@@@2@@std@@QAEXI@Z 10005350 f i animation_system.obj
 0001:000043a0       ?_Init@?$_Hash@V?$_Umap_traits@V?$basic_string@DU?$char_traits@D@std@@V?$allocator@D@2@@std@@V?$shared_ptr@UNode@NetvarTree@@@2@V?$_Uhash_compare@V?$basic_string@DU?$char_traits@D@std@@V?$allocator@D@2@@std@@U?$hash@V?$basic_string@DU?$char_traits@D@std@@V?$allocator@D@2@@std@@@2@U?$equal_to@V?$basic_string@DU?$char_traits@D@std@@V?$allocator@D@2@@std@@@2@@2@V?$allocator@U?$pair@$$CBV?$basic_string@DU?$char_traits@D@std@@V?$allocator@D@2@@std@@V?$shared_ptr@UNode@NetvarTree@@@2@@std@@@2@$0A@@std@@@std@@IAEXI@Z 100053a0 f i animation_system.obj
 0001:00004400       ?_Insert_bucket@?$_Hash@V?$_Umap_traits@V?$basic_string@DU?$char_traits@D@std@@V?$allocator@D@2@@std@@V?$shared_ptr@UNode@NetvarTree@@@2@V?$_Uhash_compare@V?$basic_string@DU?$char_traits@D@std@@V?$allocator@D@2@@std@@U?$hash@V?$basic_string@DU?$char_traits@D@std@@V?$allocator@D@2@@std@@@2@U?$equal_to@V?$basic_string@DU?$char_traits@D@std@@V?$allocator@D@2@@std@@@2@@2@V?$allocator@U?$pair@$$CBV?$basic_string@DU?$char_traits@D@std@@V?$allocator@D@2@@std@@V?$shared_ptr@UNode@NetvarTree@@@2@@std@@@2@$0A@@std@@@std@@IAEXV?$_List_unchecked_iterator@V?$_List_val@U?$_List_simple_types@U?$pair@$$CBV?$basic_string@DU?$char_traits@D@std@@V?$allocator@D@2@@std@@V?$shared_ptr@UNode@NetvarTree@@@2@@std@@@std@@@std@@@2@0I@Z 10005400 f i animation_system.obj
 0001:000044f0       ?_Large_string_engaged@?$_String_val@U?$_Simple_types@D@std@@@std@@QBE_NXZ 100054f0 f i animation_system.obj
 0001:00004520       ?_Make_iter@?$_Hash@V?$_Umap_traits@V?$basic_string@DU?$char_traits@D@std@@V?$allocator@D@2@@std@@V?$shared_ptr@UNode@NetvarTree@@@2@V?$_Uhash_compare@V?$basic_string@DU?$char_traits@D@std@@V?$allocator@D@2@@std@@U?$hash@V?$basic_string@DU?$char_traits@D@std@@V?$allocator@D@2@@std@@@2@U?$equal_to@V?$basic_string@DU?$char_traits@D@std@@V?$allocator@D@2@@std@@@2@@2@V?$allocator@U?$pair@$$CBV?$basic_string@DU?$char_traits@D@std@@V?$allocator@D@2@@std@@V?$shared_ptr@UNode@NetvarTree@@@2@@std@@@2@$0A@@std@@@std@@QBE?AV?$_List_iterator@V?$_List_val@U?$_List_simple_types@U?$pair@$$CBV?$basic_string@DU?$char_traits@D@std@@V?$allocator@D@2@@std@@V?$shared_ptr@UNode@NetvarTree@@@2@@std@@@std@@@std@@@2@V?$_List_const_iterator@V?$_List_val@U?$_List_simple_types@U?$pair@$$CBV?$basic_string@DU?$char_traits@D@std@@V?$allocator@D@2@@std@@V?$shared_ptr@UNode@NetvarTree@@@2@@std@@@std@@@std@@@2@@Z 10005520 f i animation_system.obj
 0001:00004550       ?_Make_iter@?$_Hash@V?$_Umap_traits@V?$basic_string@DU?$char_traits@D@std@@V?$allocator@D@2@@std@@V?$shared_ptr@UNode@NetvarTree@@@2@V?$_Uhash_compare@V?$basic_string@DU?$char_traits@D@std@@V?$allocator@D@2@@std@@U?$hash@V?$basic_string@DU?$char_traits@D@std@@V?$allocator@D@2@@std@@@2@U?$equal_to@V?$basic_string@DU?$char_traits@D@std@@V?$allocator@D@2@@std@@@2@@2@V?$allocator@U?$pair@$$CBV?$basic_string@DU?$char_traits@D@std@@V?$allocator@D@2@@std@@V?$shared_ptr@UNode@NetvarTree@@@2@@std@@@2@$0A@@std@@@std@@QBE?AV?$_List_iterator@V?$_List_val@U?$_List_simple_types@U?$pair@$$CBV?$basic_string@DU?$char_traits@D@std@@V?$allocator@D@2@@std@@V?$shared_ptr@UNode@NetvarTree@@@2@@std@@@std@@@std@@@2@V?$_List_unchecked_const_iterator@V?$_List_val@U?$_List_simple_types@U?$pair@$$CBV?$basic_string@DU?$char_traits@D@std@@V?$allocator@D@2@@std@@V?$shared_ptr@UNode@NetvarTree@@@2@@std@@@std@@@std@@U_Iterator_base0@2@@2@@Z 10005550 f i animation_system.obj
 0001:00004580       ?_Make_iter@?$list@U?$pair@$$CBV?$basic_string@DU?$char_traits@D@std@@V?$allocator@D@2@@std@@V?$shared_ptr@UNode@NetvarTree@@@2@@std@@V?$allocator@U?$pair@$$CBV?$basic_string@DU?$char_traits@D@std@@V?$allocator@D@2@@std@@V?$shared_ptr@UNode@NetvarTree@@@2@@std@@@2@@std@@QBE?AV?$_List_iterator@V?$_List_val@U?$_List_simple_types@U?$pair@$$CBV?$basic_string@DU?$char_traits@D@std@@V?$allocator@D@2@@std@@V?$shared_ptr@UNode@NetvarTree@@@2@@std@@@std@@@std@@@2@V?$_List_const_iterator@V?$_List_val@U?$_List_simple_types@U?$pair@$$CBV?$basic_string@DU?$char_traits@D@std@@V?$allocator@D@2@@std@@V?$shared_ptr@UNode@NetvarTree@@@2@@std@@@std@@@std@@@2@@Z 10005580 f i animation_system.obj
 0001:000045f0       ?_Make_iter@?$list@U?$pair@$$CBV?$basic_string@DU?$char_traits@D@std@@V?$allocator@D@2@@std@@V?$shared_ptr@UNode@NetvarTree@@@2@@std@@V?$allocator@U?$pair@$$CBV?$basic_string@DU?$char_traits@D@std@@V?$allocator@D@2@@std@@V?$shared_ptr@UNode@NetvarTree@@@2@@std@@@2@@std@@QBE?AV?$_List_iterator@V?$_List_val@U?$_List_simple_types@U?$pair@$$CBV?$basic_string@DU?$char_traits@D@std@@V?$allocator@D@2@@std@@V?$shared_ptr@UNode@NetvarTree@@@2@@std@@@std@@@std@@@2@V?$_List_unchecked_const_iterator@V?$_List_val@U?$_List_simple_types@U?$pair@$$CBV?$basic_string@DU?$char_traits@D@std@@V?$allocator@D@2@@std@@V?$shared_ptr@UNode@NetvarTree@@@2@@std@@@std@@@std@@U_Iterator_base0@2@@2@@Z 100055f0 f i animation_system.obj
 0001:00004620       ?_Max_bucket_size@?$_Hash@V?$_Umap_traits@V?$basic_string@DU?$char_traits@D@std@@V?$allocator@D@2@@std@@V?$shared_ptr@UNode@NetvarTree@@@2@V?$_Uhash_compare@V?$basic_string@DU?$char_traits@D@std@@V?$allocator@D@2@@std@@U?$hash@V?$basic_string@DU?$char_traits@D@std@@V?$allocator@D@2@@std@@@2@U?$equal_to@V?$basic_string@DU?$char_traits@D@std@@V?$allocator@D@2@@std@@@2@@2@V?$allocator@U?$pair@$$CBV?$basic_string@DU?$char_traits@D@std@@V?$allocator@D@2@@std@@V?$shared_ptr@UNode@NetvarTree@@@2@@std@@@2@$0A@@std@@@std@@IBEABMXZ 10005620 f i animation_system.obj
 0001:00004620       ?_Max_bucket_size@?$_Hash@V?$_Umap_traits@V?$basic_string@DU?$char_traits@D@std@@V?$allocator@D@2@@std@@V?$shared_ptr@UNode@NetvarTree@@@2@V?$_Uhash_compare@V?$basic_string@DU?$char_traits@D@std@@V?$allocator@D@2@@std@@U?$hash@V?$basic_string@DU?$char_traits@D@std@@V?$allocator@D@2@@std@@@2@U?$equal_to@V?$basic_string@DU?$char_traits@D@std@@V?$allocator@D@2@@std@@@2@@2@V?$allocator@U?$pair@$$CBV?$basic_string@DU?$char_traits@D@std@@V?$allocator@D@2@@std@@V?$shared_ptr@UNode@NetvarTree@@@2@@std@@@2@$0A@@std@@@std@@IAEAAMXZ 10005620 f i NetvarManager.obj
 0001:00004640       ?_Move_from@?$vector@HV?$allocator@H@std@@@std@@AAEX$$QAV12@U?$integral_constant@_N$00@2@@Z 10005640 f i animation_system.obj
 0001:00004700       ?_Myend@?$_Vector_alloc@U?$_Vec_base_types@V?$_List_unchecked_iterator@V?$_List_val@U?$_List_simple_types@U?$pair@$$CBV?$basic_string@DU?$char_traits@D@std@@V?$allocator@D@2@@std@@V?$shared_ptr@UNode@NetvarTree@@@2@@std@@@std@@@std@@@std@@V?$allocator@V?$_List_unchecked_iterator@V?$_List_val@U?$_List_simple_types@U?$pair@$$CBV?$basic_string@DU?$char_traits@D@std@@V?$allocator@D@2@@std@@V?$shared_ptr@UNode@NetvarTree@@@2@@std@@@std@@@std@@@std@@@2@@std@@@std@@QAEAAPAV?$_List_unchecked_iterator@V?$_List_val@U?$_List_simple_types@U?$pair@$$CBV?$basic_string@DU?$char_traits@D@std@@V?$allocator@D@2@@std@@V?$shared_ptr@UNode@NetvarTree@@@2@@std@@@std@@@std@@@2@XZ 10005700 f i animation_system.obj
 0001:00004700       ?_Mapsize@?$_Deque_alloc@U?$_Deque_base_types@UPlayerRecords@@V?$allocator@UPlayerRecords@@@std@@@std@@@std@@QAEAAIXZ 10005700 f i LagComp.obj
 0001:00004700       ?_Myend@?$_Vector_alloc@U?$_Vec_base_types@V?$_List_unchecked_iterator@V?$_List_val@U?$_List_simple_types@U?$pair@$$CBV?$basic_string@DU?$char_traits@D@std@@V?$allocator@D@2@@std@@V?$shared_ptr@UNode@NetvarTree@@@2@@std@@@std@@@std@@@std@@V?$allocator@V?$_List_unchecked_iterator@V?$_List_val@U?$_List_simple_types@U?$pair@$$CBV?$basic_string@DU?$char_traits@D@std@@V?$allocator@D@2@@std@@V?$shared_ptr@UNode@NetvarTree@@@2@@std@@@std@@@std@@@std@@@2@@std@@@std@@QBEABQAV?$_List_unchecked_iterator@V?$_List_val@U?$_List_simple_types@U?$pair@$$CBV?$basic_string@DU?$char_traits@D@std@@V?$allocator@D@2@@std@@V?$shared_ptr@UNode@NetvarTree@@@2@@std@@@std@@@std@@@2@XZ 10005700 f i animation_system.obj
 0001:00004700       ?_Myend@?$_Vector_alloc@U?$_Vec_base_types@V?$basic_string@DU?$char_traits@D@std@@V?$allocator@D@2@@std@@V?$allocator@V?$basic_string@DU?$char_traits@D@std@@V?$allocator@D@2@@std@@@2@@std@@@std@@QAEAAPAV?$basic_string@DU?$char_traits@D@std@@V?$allocator@D@2@@2@XZ 10005700 f i config_system.obj
 0001:00004700       ?_Mapsize@?$_Deque_alloc@U?$_Deque_base_types@ULegitPlayerRecords@@V?$allocator@ULegitPlayerRecords@@@std@@@std@@@std@@QAEAAIXZ 10005700 f i Legitbot.obj
 0001:00004700       ?_Myend@?$_Vector_alloc@U?$_Vec_base_types@V?$basic_string@DU?$char_traits@D@std@@V?$allocator@D@2@@std@@V?$allocator@V?$basic_string@DU?$char_traits@D@std@@V?$allocator@D@2@@std@@@2@@std@@@std@@QBEABQAV?$basic_string@DU?$char_traits@D@std@@V?$allocator@D@2@@2@XZ 10005700 f i config_system.obj
 0001:00004700       ?_Myend@?$_Vector_alloc@U?$_Vec_base_types@HV?$allocator@H@std@@@std@@@std@@QAEAAPAHXZ 10005700 f i animation_system.obj
 0001:00004700       ?_Myend@?$_Vector_alloc@U?$_Vec_base_types@HV?$allocator@H@std@@@std@@@std@@QBEABQAHXZ 10005700 f i animation_system.obj
 0001:00004720       ?_Myfirst@?$_Vector_alloc@U?$_Vec_base_types@V?$basic_string@DU?$char_traits@D@std@@V?$allocator@D@2@@std@@V?$allocator@V?$basic_string@DU?$char_traits@D@std@@V?$allocator@D@2@@std@@@2@@std@@@std@@QAEAAPAV?$basic_string@DU?$char_traits@D@std@@V?$allocator@D@2@@2@XZ 10005720 f i config_system.obj
 0001:00004720       ?_Myfirst@?$_Vector_alloc@U?$_Vec_base_types@V?$basic_string@DU?$char_traits@D@std@@V?$allocator@D@2@@std@@V?$allocator@V?$basic_string@DU?$char_traits@D@std@@V?$allocator@D@2@@std@@@2@@std@@@std@@QBEABQAV?$basic_string@DU?$char_traits@D@std@@V?$allocator@D@2@@2@XZ 10005720 f i config_system.obj
 0001:00004720       ?_Myfirst@?$_Vector_alloc@U?$_Vec_base_types@V?$_List_unchecked_iterator@V?$_List_val@U?$_List_simple_types@U?$pair@$$CBV?$basic_string@DU?$char_traits@D@std@@V?$allocator@D@2@@std@@V?$shared_ptr@UNode@NetvarTree@@@2@@std@@@std@@@std@@@std@@V?$allocator@V?$_List_unchecked_iterator@V?$_List_val@U?$_List_simple_types@U?$pair@$$CBV?$basic_string@DU?$char_traits@D@std@@V?$allocator@D@2@@std@@V?$shared_ptr@UNode@NetvarTree@@@2@@std@@@std@@@std@@@std@@@2@@std@@@std@@QBEABQAV?$_List_unchecked_iterator@V?$_List_val@U?$_List_simple_types@U?$pair@$$CBV?$basic_string@DU?$char_traits@D@std@@V?$allocator@D@2@@std@@V?$shared_ptr@UNode@NetvarTree@@@2@@std@@@std@@@std@@@2@XZ 10005720 f i animation_system.obj
 0001:00004720       ?_Myproxy@?$_Deque_alloc@U?$_Deque_base_types@ULegitPlayerRecords@@V?$allocator@ULegitPlayerRecords@@@std@@@std@@@std@@QAEAAPAU_Container_proxy@2@XZ 10005720 f i Legitbot.obj
 0001:00004720       ?_Myfirst@?$_Vector_alloc@U?$_Vec_base_types@HV?$allocator@H@std@@@std@@@std@@QAEAAPAHXZ 10005720 f i animation_system.obj
 0001:00004720       ?_Myfirst@?$_Vector_alloc@U?$_Vec_base_types@V?$_List_unchecked_iterator@V?$_List_val@U?$_List_simple_types@U?$pair@$$CBV?$basic_string@DU?$char_traits@D@std@@V?$allocator@D@2@@std@@V?$shared_ptr@UNode@NetvarTree@@@2@@std@@@std@@@std@@@std@@V?$allocator@V?$_List_unchecked_iterator@V?$_List_val@U?$_List_simple_types@U?$pair@$$CBV?$basic_string@DU?$char_traits@D@std@@V?$allocator@D@2@@std@@V?$shared_ptr@UNode@NetvarTree@@@2@@std@@@std@@@std@@@std@@@2@@std@@@std@@QAEAAPAV?$_List_unchecked_iterator@V?$_List_val@U?$_List_simple_types@U?$pair@$$CBV?$basic_string@DU?$char_traits@D@std@@V?$allocator@D@2@@std@@V?$shared_ptr@UNode@NetvarTree@@@2@@std@@@std@@@std@@@2@XZ 10005720 f i animation_system.obj
 0001:00004720       ?_Myfirst@?$_Vector_alloc@U?$_Vec_base_types@HV?$allocator@H@std@@@std@@@std@@QBEABQAHXZ 10005720 f i animation_system.obj
 0001:00004720       ?_Myhead@?$_List_alloc@U?$_List_base_types@U?$pair@$$CBV?$basic_string@DU?$char_traits@D@std@@V?$allocator@D@2@@std@@V?$shared_ptr@UNode@NetvarTree@@@2@@std@@V?$allocator@U?$pair@$$CBV?$basic_string@DU?$char_traits@D@std@@V?$allocator@D@2@@std@@V?$shared_ptr@UNode@NetvarTree@@@2@@std@@@2@@std@@@std@@QAEAAPAU?$_List_node@U?$pair@$$CBV?$basic_string@DU?$char_traits@D@std@@V?$allocator@D@2@@std@@V?$shared_ptr@UNode@NetvarTree@@@2@@std@@PAX@2@XZ 10005720 f i animation_system.obj
 0001:00004720       ?_Myproxy@?$_Deque_alloc@U?$_Deque_base_types@UPlayerRecords@@V?$allocator@UPlayerRecords@@@std@@@std@@@std@@QAEAAPAU_Container_proxy@2@XZ 10005720 f i LagComp.obj
 0001:00004740       ?_Mylast@?$_Vector_alloc@U?$_Vec_base_types@HV?$allocator@H@std@@@std@@@std@@QBEABQAHXZ 10005740 f i animation_system.obj
 0001:00004740       ?_Mylast@?$_Vector_alloc@U?$_Vec_base_types@V?$basic_string@DU?$char_traits@D@std@@V?$allocator@D@2@@std@@V?$allocator@V?$basic_string@DU?$char_traits@D@std@@V?$allocator@D@2@@std@@@2@@std@@@std@@QBEABQAV?$basic_string@DU?$char_traits@D@std@@V?$allocator@D@2@@2@XZ 10005740 f i config_system.obj
 0001:00004740       ?_Mysize@?$_List_alloc@U?$_List_base_types@U?$pair@$$CBV?$basic_string@DU?$char_traits@D@std@@V?$allocator@D@2@@std@@V?$shared_ptr@UNode@NetvarTree@@@2@@std@@V?$allocator@U?$pair@$$CBV?$basic_string@DU?$char_traits@D@std@@V?$allocator@D@2@@std@@V?$shared_ptr@UNode@NetvarTree@@@2@@std@@@2@@std@@@std@@QBEABIXZ 10005740 f i animation_system.obj
 0001:00004740       ?_Mysize@?$_List_alloc@U?$_List_base_types@U?$pair@$$CBV?$basic_string@DU?$char_traits@D@std@@V?$allocator@D@2@@std@@V?$shared_ptr@UNode@NetvarTree@@@2@@std@@V?$allocator@U?$pair@$$CBV?$basic_string@DU?$char_traits@D@std@@V?$allocator@D@2@@std@@V?$shared_ptr@UNode@NetvarTree@@@2@@std@@@2@@std@@@std@@QAEAAIXZ 10005740 f i animation_system.obj
 0001:00004740       ?_Map@?$_Deque_alloc@U?$_Deque_base_types@UPlayerRecords@@V?$allocator@UPlayerRecords@@@std@@@std@@@std@@QAEAAPAPAUPlayerRecords@@XZ 10005740 f i LagComp.obj
 0001:00004740       ?_Mylast@?$_Vector_alloc@U?$_Vec_base_types@V?$_List_unchecked_iterator@V?$_List_val@U?$_List_simple_types@U?$pair@$$CBV?$basic_string@DU?$char_traits@D@std@@V?$allocator@D@2@@std@@V?$shared_ptr@UNode@NetvarTree@@@2@@std@@@std@@@std@@@std@@V?$allocator@V?$_List_unchecked_iterator@V?$_List_val@U?$_List_simple_types@U?$pair@$$CBV?$basic_string@DU?$char_traits@D@std@@V?$allocator@D@2@@std@@V?$shared_ptr@UNode@NetvarTree@@@2@@std@@@std@@@std@@@std@@@2@@std@@@std@@QAEAAPAV?$_List_unchecked_iterator@V?$_List_val@U?$_List_simple_types@U?$pair@$$CBV?$basic_string@DU?$char_traits@D@std@@V?$allocator@D@2@@std@@V?$shared_ptr@UNode@NetvarTree@@@2@@std@@@std@@@std@@@2@XZ 10005740 f i animation_system.obj
 0001:00004740       ?_Mylast@?$_Vector_alloc@U?$_Vec_base_types@HV?$allocator@H@std@@@std@@@std@@QAEAAPAHXZ 10005740 f i animation_system.obj
 0001:00004740       ?_Mylast@?$_Vector_alloc@U?$_Vec_base_types@V?$_List_unchecked_iterator@V?$_List_val@U?$_List_simple_types@U?$pair@$$CBV?$basic_string@DU?$char_traits@D@std@@V?$allocator@D@2@@std@@V?$shared_ptr@UNode@NetvarTree@@@2@@std@@@std@@@std@@@std@@V?$allocator@V?$_List_unchecked_iterator@V?$_List_val@U?$_List_simple_types@U?$pair@$$CBV?$basic_string@DU?$char_traits@D@std@@V?$allocator@D@2@@std@@V?$shared_ptr@UNode@NetvarTree@@@2@@std@@@std@@@std@@@std@@@2@@std@@@std@@QBEABQAV?$_List_unchecked_iterator@V?$_List_val@U?$_List_simple_types@U?$pair@$$CBV?$basic_string@DU?$char_traits@D@std@@V?$allocator@D@2@@std@@V?$shared_ptr@UNode@NetvarTree@@@2@@std@@@std@@@std@@@2@XZ 10005740 f i animation_system.obj
 0001:00004740       ?_Mylast@?$_Vector_alloc@U?$_Vec_base_types@V?$basic_string@DU?$char_traits@D@std@@V?$allocator@D@2@@std@@V?$allocator@V?$basic_string@DU?$char_traits@D@std@@V?$allocator@D@2@@std@@@2@@std@@@std@@QAEAAPAV?$basic_string@DU?$char_traits@D@std@@V?$allocator@D@2@@2@XZ 10005740 f i config_system.obj
 0001:00004740       ?_Map@?$_Deque_alloc@U?$_Deque_base_types@ULegitPlayerRecords@@V?$allocator@ULegitPlayerRecords@@@std@@@std@@@std@@QAEAAPAPAULegitPlayerRecords@@XZ 10005740 f i Legitbot.obj
 0001:00004760       ?_Myptr@?$_String_val@U?$_Simple_types@D@std@@@std@@QAEPADXZ 10005760 f i animation_system.obj
 0001:00004760       ?_Myptr@?$_String_val@U?$_Simple_types@D@std@@@std@@QBEPBDXZ 10005760 f i animation_system.obj
 0001:000047a0       ?_Orphan_all@?$_Vector_alloc@U?$_Vec_base_types@HV?$allocator@H@std@@@std@@@std@@QAEXXZ 100057a0 f i animation_system.obj
 0001:000047a0       ?_Orphan_all@?$_String_alloc@U?$_String_base_types@DV?$allocator@D@std@@@std@@@std@@QAEXXZ 100057a0 f i animation_system.obj
 0001:000047a0       ?_Orphan_all@?$_Deque_alloc@U?$_Deque_base_types@ULegitPlayerRecords@@V?$allocator@ULegitPlayerRecords@@@std@@@std@@@std@@QAEXXZ 100057a0 f i Legitbot.obj
 0001:000047a0       ?_Orphan_all@?$_String_alloc@U?$_String_base_types@_WV?$allocator@_W@std@@@std@@@std@@QAEXXZ 100057a0 f i config_system.obj
 0001:000047a0       ?_Orphan_all@?$_Deque_alloc@U?$_Deque_base_types@UPlayerRecords@@V?$allocator@UPlayerRecords@@@std@@@std@@@std@@QAEXXZ 100057a0 f i LagComp.obj
 0001:000047a0       ?_Orphan_all@?$_Vector_alloc@U?$_Vec_base_types@V?$_List_unchecked_iterator@V?$_List_val@U?$_List_simple_types@U?$pair@$$CBV?$basic_string@DU?$char_traits@D@std@@V?$allocator@D@2@@std@@V?$shared_ptr@UNode@NetvarTree@@@2@@std@@@std@@@std@@@std@@V?$allocator@V?$_List_unchecked_iterator@V?$_List_val@U?$_List_simple_types@U?$pair@$$CBV?$basic_string@DU?$char_traits@D@std@@V?$allocator@D@2@@std@@V?$shared_ptr@UNode@NetvarTree@@@2@@std@@@std@@@std@@@std@@@2@@std@@@std@@QAEXXZ 100057a0 f i animation_system.obj
 0001:000047a0       ?_Orphan_all@?$_Vector_alloc@U?$_Vec_base_types@V?$basic_string@DU?$char_traits@D@std@@V?$allocator@D@2@@std@@V?$allocator@V?$basic_string@DU?$char_traits@D@std@@V?$allocator@D@2@@std@@@2@@std@@@std@@QAEXXZ 100057a0 f i config_system.obj
 0001:000047c0       ?_Orphan_range@?$vector@HV?$allocator@H@std@@@std@@ABEXPAH0@Z 100057c0 f i animation_system.obj
 0001:000047c0       ?_Orphan_range@?$vector@V?$basic_string@DU?$char_traits@D@std@@V?$allocator@D@2@@std@@V?$allocator@V?$basic_string@DU?$char_traits@D@std@@V?$allocator@D@2@@std@@@2@@std@@ABEXPAV?$basic_string@DU?$char_traits@D@std@@V?$allocator@D@2@@2@0@Z 100057c0 f i config_system.obj
 0001:000047d0       ?_Reallocate_exactly@?$vector@V?$_List_unchecked_iterator@V?$_List_val@U?$_List_simple_types@U?$pair@$$CBV?$basic_string@DU?$char_traits@D@std@@V?$allocator@D@2@@std@@V?$shared_ptr@UNode@NetvarTree@@@2@@std@@@std@@@std@@@std@@V?$allocator@V?$_List_unchecked_iterator@V?$_List_val@U?$_List_simple_types@U?$pair@$$CBV?$basic_string@DU?$char_traits@D@std@@V?$allocator@D@2@@std@@V?$shared_ptr@UNode@NetvarTree@@@2@@std@@@std@@@std@@@std@@@2@@std@@AAEXI@Z 100057d0 f i animation_system.obj
 0001:000048c0       ?_Reinsert@?$_Hash@V?$_Umap_traits@V?$basic_string@DU?$char_traits@D@std@@V?$allocator@D@2@@std@@V?$shared_ptr@UNode@NetvarTree@@@2@V?$_Uhash_compare@V?$basic_string@DU?$char_traits@D@std@@V?$allocator@D@2@@std@@U?$hash@V?$basic_string@DU?$char_traits@D@std@@V?$allocator@D@2@@std@@@2@U?$equal_to@V?$basic_string@DU?$char_traits@D@std@@V?$allocator@D@2@@std@@@2@@2@V?$allocator@U?$pair@$$CBV?$basic_string@DU?$char_traits@D@std@@V?$allocator@D@2@@std@@V?$shared_ptr@UNode@NetvarTree@@@2@@std@@@2@$0A@@std@@@std@@IAEXXZ 100058c0 f i animation_system.obj
 0001:00004950       ?_Release@?$_Uninitialized_backout_al@PAV?$basic_string@DU?$char_traits@D@std@@V?$allocator@D@2@@std@@V?$allocator@V?$basic_string@DU?$char_traits@D@std@@V?$allocator@D@2@@std@@@2@@std@@QAEPAV?$basic_string@DU?$char_traits@D@std@@V?$allocator@D@2@@2@XZ 10005950 f i config_system.obj
 0001:00004950       ?_Release@?$_Uninitialized_backout_al@PAV?$_List_unchecked_iterator@V?$_List_val@U?$_List_simple_types@U?$pair@$$CBV?$basic_string@DU?$char_traits@D@std@@V?$allocator@D@2@@std@@V?$shared_ptr@UNode@NetvarTree@@@2@@std@@@std@@@std@@@std@@V?$allocator@V?$_List_unchecked_iterator@V?$_List_val@U?$_List_simple_types@U?$pair@$$CBV?$basic_string@DU?$char_traits@D@std@@V?$allocator@D@2@@std@@V?$shared_ptr@UNode@NetvarTree@@@2@@std@@@std@@@std@@@std@@@2@@std@@QAEPAV?$_List_unchecked_iterator@V?$_List_val@U?$_List_simple_types@U?$pair@$$CBV?$basic_string@DU?$char_traits@D@std@@V?$allocator@D@2@@std@@V?$shared_ptr@UNode@NetvarTree@@@2@@std@@@std@@@std@@@2@XZ 10005950 f i animation_system.obj
 0001:00004970       ?_Swap_all@?$_Vector_alloc@U?$_Vec_base_types@HV?$allocator@H@std@@@std@@@std@@QAEXAAV12@@Z 10005970 f i animation_system.obj
 0001:000049b0       ?_Tidy@?$vector@HV?$allocator@H@std@@@std@@AAEXXZ 100059b0 f i animation_system.obj
 0001:000049b0       ?_Tidy@?$vector@V?$_List_unchecked_iterator@V?$_List_val@U?$_List_simple_types@U?$pair@$$CBV?$basic_string@DU?$char_traits@D@std@@V?$allocator@D@2@@std@@V?$shared_ptr@UNode@NetvarTree@@@2@@std@@@std@@@std@@@std@@V?$allocator@V?$_List_unchecked_iterator@V?$_List_val@U?$_List_simple_types@U?$pair@$$CBV?$basic_string@DU?$char_traits@D@std@@V?$allocator@D@2@@std@@V?$shared_ptr@UNode@NetvarTree@@@2@@std@@@std@@@std@@@std@@@2@@std@@AAEXXZ 100059b0 f i c_hooks.obj
 0001:00004a60       ?_Tidy_deallocate@?$basic_string@DU?$char_traits@D@std@@V?$allocator@D@2@@std@@QAEXXZ 10005a60 f i animation_system.obj
 0001:00004b10       ?_Tidy_init@?$basic_string@DU?$char_traits@D@std@@V?$allocator@D@2@@std@@QAEXXZ 10005b10 f i animation_system.obj
 0001:00004b60       ?_Ufill@?$vector@V?$_List_unchecked_iterator@V?$_List_val@U?$_List_simple_types@U?$pair@$$CBV?$basic_string@DU?$char_traits@D@std@@V?$allocator@D@2@@std@@V?$shared_ptr@UNode@NetvarTree@@@2@@std@@@std@@@std@@@std@@V?$allocator@V?$_List_unchecked_iterator@V?$_List_val@U?$_List_simple_types@U?$pair@$$CBV?$basic_string@DU?$char_traits@D@std@@V?$allocator@D@2@@std@@V?$shared_ptr@UNode@NetvarTree@@@2@@std@@@std@@@std@@@std@@@2@@std@@AAEPAV?$_List_unchecked_iterator@V?$_List_val@U?$_List_simple_types@U?$pair@$$CBV?$basic_string@DU?$char_traits@D@std@@V?$allocator@D@2@@std@@V?$shared_ptr@UNode@NetvarTree@@@2@@std@@@std@@@std@@@2@PAV32@IABV32@@Z 10005b60 f i animation_system.obj
 0001:00004b90       ?_Umove@?$vector@HV?$allocator@H@std@@@std@@AAEPAHPAH00@Z 10005b90 f i animation_system.obj
 0001:00004bc0       ?_Umove_if_noexcept1@?$vector@HV?$allocator@H@std@@@std@@AAEXPAH00U?$integral_constant@_N$00@2@@Z 10005bc0 f i animation_system.obj
 0001:00004bf0       ?_Umove_if_noexcept1@?$vector@V?$_List_unchecked_iterator@V?$_List_val@U?$_List_simple_types@U?$pair@$$CBV?$basic_string@DU?$char_traits@D@std@@V?$allocator@D@2@@std@@V?$shared_ptr@UNode@NetvarTree@@@2@@std@@@std@@@std@@@std@@V?$allocator@V?$_List_unchecked_iterator@V?$_List_val@U?$_List_simple_types@U?$pair@$$CBV?$basic_string@DU?$char_traits@D@std@@V?$allocator@D@2@@std@@V?$shared_ptr@UNode@NetvarTree@@@2@@std@@@std@@@std@@@std@@@2@@std@@AAEXPAV?$_List_unchecked_iterator@V?$_List_val@U?$_List_simple_types@U?$pair@$$CBV?$basic_string@DU?$char_traits@D@std@@V?$allocator@D@2@@std@@V?$shared_ptr@UNode@NetvarTree@@@2@@std@@@std@@@std@@@2@00U?$integral_constant@_N$00@2@@Z 10005bf0 f i animation_system.obj
 0001:00004c20       ?_Umove_if_noexcept@?$vector@HV?$allocator@H@std@@@std@@AAEXPAH00@Z 10005c20 f i animation_system.obj
 0001:00004c50       ?_Umove_if_noexcept@?$vector@V?$_List_unchecked_iterator@V?$_List_val@U?$_List_simple_types@U?$pair@$$CBV?$basic_string@DU?$char_traits@D@std@@V?$allocator@D@2@@std@@V?$shared_ptr@UNode@NetvarTree@@@2@@std@@@std@@@std@@@std@@V?$allocator@V?$_List_unchecked_iterator@V?$_List_val@U?$_List_simple_types@U?$pair@$$CBV?$basic_string@DU?$char_traits@D@std@@V?$allocator@D@2@@std@@V?$shared_ptr@UNode@NetvarTree@@@2@@std@@@std@@@std@@@std@@@2@@std@@AAEXPAV?$_List_unchecked_iterator@V?$_List_val@U?$_List_simple_types@U?$pair@$$CBV?$basic_string@DU?$char_traits@D@std@@V?$allocator@D@2@@std@@V?$shared_ptr@UNode@NetvarTree@@@2@@std@@@std@@@std@@@2@00@Z 10005c50 f i animation_system.obj
 0001:00004c80       ?_Unchecked_begin@?$_Hash@V?$_Umap_traits@V?$basic_string@DU?$char_traits@D@std@@V?$allocator@D@2@@std@@V?$shared_ptr@UNode@NetvarTree@@@2@V?$_Uhash_compare@V?$basic_string@DU?$char_traits@D@std@@V?$allocator@D@2@@std@@U?$hash@V?$basic_string@DU?$char_traits@D@std@@V?$allocator@D@2@@std@@@2@U?$equal_to@V?$basic_string@DU?$char_traits@D@std@@V?$allocator@D@2@@std@@@2@@2@V?$allocator@U?$pair@$$CBV?$basic_string@DU?$char_traits@D@std@@V?$allocator@D@2@@std@@V?$shared_ptr@UNode@NetvarTree@@@2@@std@@@2@$0A@@std@@@std@@QAE?AV?$_List_unchecked_iterator@V?$_List_val@U?$_List_simple_types@U?$pair@$$CBV?$basic_string@DU?$char_traits@D@std@@V?$allocator@D@2@@std@@V?$shared_ptr@UNode@NetvarTree@@@2@@std@@@std@@@std@@@2@XZ 10005c80 f i animation_system.obj
 0001:00004cb0       ?_Unchecked_begin@?$list@U?$pair@$$CBV?$basic_string@DU?$char_traits@D@std@@V?$allocator@D@2@@std@@V?$shared_ptr@UNode@NetvarTree@@@2@@std@@V?$allocator@U?$pair@$$CBV?$basic_string@DU?$char_traits@D@std@@V?$allocator@D@2@@std@@V?$shared_ptr@UNode@NetvarTree@@@2@@std@@@2@@std@@QAE?AV?$_List_unchecked_iterator@V?$_List_val@U?$_List_simple_types@U?$pair@$$CBV?$basic_string@DU?$char_traits@D@std@@V?$allocator@D@2@@std@@V?$shared_ptr@UNode@NetvarTree@@@2@@std@@@std@@@std@@@2@XZ 10005cb0 f i animation_system.obj
 0001:00004ce0       ?_Unchecked_end@?$_Hash@V?$_Umap_traits@V?$basic_string@DU?$char_traits@D@std@@V?$allocator@D@2@@std@@V?$shared_ptr@UNode@NetvarTree@@@2@V?$_Uhash_compare@V?$basic_string@DU?$char_traits@D@std@@V?$allocator@D@2@@std@@U?$hash@V?$basic_string@DU?$char_traits@D@std@@V?$allocator@D@2@@std@@@2@U?$equal_to@V?$basic_string@DU?$char_traits@D@std@@V?$allocator@D@2@@std@@@2@@2@V?$allocator@U?$pair@$$CBV?$basic_string@DU?$char_traits@D@std@@V?$allocator@D@2@@std@@V?$shared_ptr@UNode@NetvarTree@@@2@@std@@@2@$0A@@std@@@std@@QAE?AV?$_List_unchecked_iterator@V?$_List_val@U?$_List_simple_types@U?$pair@$$CBV?$basic_string@DU?$char_traits@D@std@@V?$allocator@D@2@@std@@V?$shared_ptr@UNode@NetvarTree@@@2@@std@@@std@@@std@@@2@XZ 10005ce0 f i animation_system.obj
 0001:00004d10       ?_Unchecked_end@?$list@U?$pair@$$CBV?$basic_string@DU?$char_traits@D@std@@V?$allocator@D@2@@std@@V?$shared_ptr@UNode@NetvarTree@@@2@@std@@V?$allocator@U?$pair@$$CBV?$basic_string@DU?$char_traits@D@std@@V?$allocator@D@2@@std@@V?$shared_ptr@UNode@NetvarTree@@@2@@std@@@2@@std@@QAE?AV?$_List_unchecked_iterator@V?$_List_val@U?$_List_simple_types@U?$pair@$$CBV?$basic_string@DU?$char_traits@D@std@@V?$allocator@D@2@@std@@V?$shared_ptr@UNode@NetvarTree@@@2@@std@@@std@@@std@@@2@XZ 10005d10 f i animation_system.obj
 0001:00004d40       ?_Unchecked_splice@?$list@U?$pair@$$CBV?$basic_string@DU?$char_traits@D@std@@V?$allocator@D@2@@std@@V?$shared_ptr@UNode@NetvarTree@@@2@@std@@V?$allocator@U?$pair@$$CBV?$basic_string@DU?$char_traits@D@std@@V?$allocator@D@2@@std@@V?$shared_ptr@UNode@NetvarTree@@@2@@std@@@2@@std@@QAEXV?$_List_unchecked_const_iterator@V?$_List_val@U?$_List_simple_types@U?$pair@$$CBV?$basic_string@DU?$char_traits@D@std@@V?$allocator@D@2@@std@@V?$shared_ptr@UNode@NetvarTree@@@2@@std@@@std@@@std@@U_Iterator_base0@2@@2@00@Z 10005d40 f i animation_system.obj
 0001:00004da0       ?_Unlinknode@?$list@U?$pair@$$CBV?$basic_string@DU?$char_traits@D@std@@V?$allocator@D@2@@std@@V?$shared_ptr@UNode@NetvarTree@@@2@@std@@V?$allocator@U?$pair@$$CBV?$basic_string@DU?$char_traits@D@std@@V?$allocator@D@2@@std@@V?$shared_ptr@UNode@NetvarTree@@@2@@std@@@2@@std@@QAEPAU?$_List_node@U?$pair@$$CBV?$basic_string@DU?$char_traits@D@std@@V?$allocator@D@2@@std@@V?$shared_ptr@UNode@NetvarTree@@@2@@std@@PAX@2@V?$_List_const_iterator@V?$_List_val@U?$_List_simple_types@U?$pair@$$CBV?$basic_string@DU?$char_traits@D@std@@V?$allocator@D@2@@std@@V?$shared_ptr@UNode@NetvarTree@@@2@@std@@@std@@@std@@@2@@Z 10005da0 f i animation_system.obj
 0001:00004df0       ?_Unwrapped@?$_List_iterator@V?$_List_val@U?$_List_simple_types@U?$pair@$$CBV?$basic_string@DU?$char_traits@D@std@@V?$allocator@D@2@@std@@V?$shared_ptr@UNode@NetvarTree@@@2@@std@@@std@@@std@@@std@@QBE?AV?$_List_unchecked_iterator@V?$_List_val@U?$_List_simple_types@U?$pair@$$CBV?$basic_string@DU?$char_traits@D@std@@V?$allocator@D@2@@std@@V?$shared_ptr@UNode@NetvarTree@@@2@@std@@@std@@@std@@@2@XZ 10005df0 f i animation_system.obj
 0001:00004e30       ?_Vec_hi@?$_Hash@V?$_Umap_traits@V?$basic_string@DU?$char_traits@D@std@@V?$allocator@D@2@@std@@V?$shared_ptr@UNode@NetvarTree@@@2@V?$_Uhash_compare@V?$basic_string@DU?$char_traits@D@std@@V?$allocator@D@2@@std@@U?$hash@V?$basic_string@DU?$char_traits@D@std@@V?$allocator@D@2@@std@@@2@U?$equal_to@V?$basic_string@DU?$char_traits@D@std@@V?$allocator@D@2@@std@@@2@@2@V?$allocator@U?$pair@$$CBV?$basic_string@DU?$char_traits@D@std@@V?$allocator@D@2@@std@@V?$shared_ptr@UNode@NetvarTree@@@2@@std@@@2@$0A@@std@@@std@@IAEAAV?$_List_unchecked_iterator@V?$_List_val@U?$_List_simple_types@U?$pair@$$CBV?$basic_string@DU?$char_traits@D@std@@V?$allocator@D@2@@std@@V?$shared_ptr@UNode@NetvarTree@@@2@@std@@@std@@@std@@@2@I@Z 10005e30 f i animation_system.obj
 0001:00004e60       ?_Vec_lo@?$_Hash@V?$_Umap_traits@V?$basic_string@DU?$char_traits@D@std@@V?$allocator@D@2@@std@@V?$shared_ptr@UNode@NetvarTree@@@2@V?$_Uhash_compare@V?$basic_string@DU?$char_traits@D@std@@V?$allocator@D@2@@std@@U?$hash@V?$basic_string@DU?$char_traits@D@std@@V?$allocator@D@2@@std@@@2@U?$equal_to@V?$basic_string@DU?$char_traits@D@std@@V?$allocator@D@2@@std@@@2@@2@V?$allocator@U?$pair@$$CBV?$basic_string@DU?$char_traits@D@std@@V?$allocator@D@2@@std@@V?$shared_ptr@UNode@NetvarTree@@@2@@std@@@2@$0A@@std@@@std@@IAEAAV?$_List_unchecked_iterator@V?$_List_val@U?$_List_simple_types@U?$pair@$$CBV?$basic_string@DU?$char_traits@D@std@@V?$allocator@D@2@@std@@V?$shared_ptr@UNode@NetvarTree@@@2@@std@@@std@@@std@@@2@I@Z 10005e60 f i animation_system.obj
 0001:00004e90       ?_Xlen@?$basic_string@DU?$char_traits@D@std@@V?$allocator@D@2@@std@@SAXXZ 10005e90 f i animation_system.obj
 0001:00004e90       ?_Xlen@?$basic_string@_WU?$char_traits@_W@std@@V?$allocator@_W@2@@std@@SAXXZ 10005e90 f i config_system.obj
 0001:00004ea0       ?_Xlength@?$vector@V?$_List_unchecked_iterator@V?$_List_val@U?$_List_simple_types@U?$pair@$$CBV?$basic_string@DU?$char_traits@D@std@@V?$allocator@D@2@@std@@V?$shared_ptr@UNode@NetvarTree@@@2@@std@@@std@@@std@@@std@@V?$allocator@V?$_List_unchecked_iterator@V?$_List_val@U?$_List_simple_types@U?$pair@$$CBV?$basic_string@DU?$char_traits@D@std@@V?$allocator@D@2@@std@@V?$shared_ptr@UNode@NetvarTree@@@2@@std@@@std@@@std@@@std@@@2@@std@@CAXXZ 10005ea0 f i animation_system.obj
 0001:00004ea0       ?_Xlength@?$vector@HV?$allocator@H@std@@@std@@CAXXZ 10005ea0 f i animation_system.obj
 0001:00004ea0       ?_Xlength@?$vector@V?$basic_string@DU?$char_traits@D@std@@V?$allocator@D@2@@std@@V?$allocator@V?$basic_string@DU?$char_traits@D@std@@V?$allocator@D@2@@std@@@2@@std@@CAXXZ 10005ea0 f i config_system.obj
 0001:00004eb0       ?allocate@?$allocator@D@std@@QAEPADI@Z 10005eb0 f i animation_system.obj
 0001:00004ee0       ?allocate@?$allocator@V?$_List_unchecked_iterator@V?$_List_val@U?$_List_simple_types@U?$pair@$$CBV?$basic_string@DU?$char_traits@D@std@@V?$allocator@D@2@@std@@V?$shared_ptr@UNode@NetvarTree@@@2@@std@@@std@@@std@@@std@@@std@@QAEPAV?$_List_unchecked_iterator@V?$_List_val@U?$_List_simple_types@U?$pair@$$CBV?$basic_string@DU?$char_traits@D@std@@V?$allocator@D@2@@std@@V?$shared_ptr@UNode@NetvarTree@@@2@@std@@@std@@@std@@@2@I@Z 10005ee0 f i animation_system.obj
 0001:00004ee0       ?allocate@?$allocator@PAULegitPlayerRecords@@@std@@QAEPAPAULegitPlayerRecords@@I@Z 10005ee0 f i Legitbot.obj
 0001:00004ee0       ?allocate@?$allocator@H@std@@QAEPAHI@Z 10005ee0 f i animation_system.obj
 0001:00004ee0       ?allocate@?$allocator@PAUPlayerRecords@@@std@@QAEPAPAUPlayerRecords@@I@Z 10005ee0 f i LagComp.obj
 0001:00004f10       ?allocate@?$allocator@U?$_List_node@U?$pair@$$CBV?$basic_string@DU?$char_traits@D@std@@V?$allocator@D@2@@std@@V?$shared_ptr@UNode@NetvarTree@@@2@@std@@PAX@std@@@std@@QAEPAU?$_List_node@U?$pair@$$CBV?$basic_string@DU?$char_traits@D@std@@V?$allocator@D@2@@std@@V?$shared_ptr@UNode@NetvarTree@@@2@@std@@PAX@2@I@Z 10005f10 f i animation_system.obj
 0001:00004f40       ?assign@?$basic_string@DU?$char_traits@D@std@@V?$allocator@D@2@@std@@QAEAAV12@QBD@Z 10005f40 f i animation_system.obj
 0001:00004f70       ?assign@?$basic_string@DU?$char_traits@D@std@@V?$allocator@D@2@@std@@QAEAAV12@QBDI@Z 10005f70 f i animation_system.obj
 0001:00005000       ?assign@?$char_traits@D@std@@SAXAADABD@Z 10006000 f i animation_system.obj
 0001:00005010       ?assign@?$vector@V?$_List_unchecked_iterator@V?$_List_val@U?$_List_simple_types@U?$pair@$$CBV?$basic_string@DU?$char_traits@D@std@@V?$allocator@D@2@@std@@V?$shared_ptr@UNode@NetvarTree@@@2@@std@@@std@@@std@@@std@@V?$allocator@V?$_List_unchecked_iterator@V?$_List_val@U?$_List_simple_types@U?$pair@$$CBV?$basic_string@DU?$char_traits@D@std@@V?$allocator@D@2@@std@@V?$shared_ptr@UNode@NetvarTree@@@2@@std@@@std@@@std@@@std@@@2@@std@@QAEXIABV?$_List_unchecked_iterator@V?$_List_val@U?$_List_simple_types@U?$pair@$$CBV?$basic_string@DU?$char_traits@D@std@@V?$allocator@D@2@@std@@V?$shared_ptr@UNode@NetvarTree@@@2@@std@@@std@@@std@@@2@@Z 10006010 f i animation_system.obj
 0001:000051c0       ?begin@?$list@U?$pair@$$CBV?$basic_string@DU?$char_traits@D@std@@V?$allocator@D@2@@std@@V?$shared_ptr@UNode@NetvarTree@@@2@@std@@V?$allocator@U?$pair@$$CBV?$basic_string@DU?$char_traits@D@std@@V?$allocator@D@2@@std@@V?$shared_ptr@UNode@NetvarTree@@@2@@std@@@2@@std@@QAE?AV?$_List_iterator@V?$_List_val@U?$_List_simple_types@U?$pair@$$CBV?$basic_string@DU?$char_traits@D@std@@V?$allocator@D@2@@std@@V?$shared_ptr@UNode@NetvarTree@@@2@@std@@@std@@@std@@@2@XZ 100061c0 f i animation_system.obj
 0001:00005230       ?bucket_count@?$_Hash@V?$_Umap_traits@V?$basic_string@DU?$char_traits@D@std@@V?$allocator@D@2@@std@@V?$shared_ptr@UNode@NetvarTree@@@2@V?$_Uhash_compare@V?$basic_string@DU?$char_traits@D@std@@V?$allocator@D@2@@std@@U?$hash@V?$basic_string@DU?$char_traits@D@std@@V?$allocator@D@2@@std@@@2@U?$equal_to@V?$basic_string@DU?$char_traits@D@std@@V?$allocator@D@2@@std@@@2@@2@V?$allocator@U?$pair@$$CBV?$basic_string@DU?$char_traits@D@std@@V?$allocator@D@2@@std@@V?$shared_ptr@UNode@NetvarTree@@@2@@std@@@2@$0A@@std@@@std@@QBEIXZ 10006230 f i animation_system.obj
 0001:00005250       ?data@?$basic_string@DU?$char_traits@D@std@@V?$allocator@D@2@@std@@QAEPADXZ 10006250 f i config_system.obj
 0001:00005250       ?c_str@?$basic_string@DU?$char_traits@D@std@@V?$allocator@D@2@@std@@QBEPBDXZ 10006250 f i animation_system.obj
 0001:00005250       ?data@?$basic_string@DU?$char_traits@D@std@@V?$allocator@D@2@@std@@QBEPBDXZ 10006250 f i config_system.obj
 0001:000052a0       ?capacity@?$vector@V?$_List_unchecked_iterator@V?$_List_val@U?$_List_simple_types@U?$pair@$$CBV?$basic_string@DU?$char_traits@D@std@@V?$allocator@D@2@@std@@V?$shared_ptr@UNode@NetvarTree@@@2@@std@@@std@@@std@@@std@@V?$allocator@V?$_List_unchecked_iterator@V?$_List_val@U?$_List_simple_types@U?$pair@$$CBV?$basic_string@DU?$char_traits@D@std@@V?$allocator@D@2@@std@@V?$shared_ptr@UNode@NetvarTree@@@2@@std@@@std@@@std@@@std@@@2@@std@@QBEIXZ 100062a0 f i animation_system.obj
 0001:000052a0       ?capacity@?$vector@HV?$allocator@H@std@@@std@@QBEIXZ 100062a0 f i animation_system.obj
 0001:000052d0       ?compare@?$char_traits@D@std@@SAHQBD0I@Z 100062d0 f i animation_system.obj
 0001:00005300       ?copy@?$char_traits@D@std@@SAPADQADQBDI@Z 10006300 f i animation_system.obj
 0001:00005320       ?data@?$vector@HV?$allocator@H@std@@@std@@QAEPAHXZ 10006320 f i animation_system.obj
 0001:00005370       ?deallocate@?$_Default_allocator_traits@V?$allocator@U?$_List_node@U?$pair@$$CBV?$basic_string@DU?$char_traits@D@std@@V?$allocator@D@2@@std@@V?$shared_ptr@UNode@NetvarTree@@@2@@std@@PAX@std@@@std@@@std@@SAXAAV?$allocator@U?$_List_node@U?$pair@$$CBV?$basic_string@DU?$char_traits@D@std@@V?$allocator@D@2@@std@@V?$shared_ptr@UNode@NetvarTree@@@2@@std@@PAX@std@@@2@QAU?$_List_node@U?$pair@$$CBV?$basic_string@DU?$char_traits@D@std@@V?$allocator@D@2@@std@@V?$shared_ptr@UNode@NetvarTree@@@2@@std@@PAX@2@I@Z 10006370 f i animation_system.obj
 0001:00005390       ?deallocate@?$allocator@D@std@@QAEXQADI@Z 10006390 f i animation_system.obj
 0001:000053b0       ?deallocate@?$allocator@V?$_List_unchecked_iterator@V?$_List_val@U?$_List_simple_types@U?$pair@$$CBV?$basic_string@DU?$char_traits@D@std@@V?$allocator@D@2@@std@@V?$shared_ptr@UNode@NetvarTree@@@2@@std@@@std@@@std@@@std@@@std@@QAEXQAV?$_List_unchecked_iterator@V?$_List_val@U?$_List_simple_types@U?$pair@$$CBV?$basic_string@DU?$char_traits@D@std@@V?$allocator@D@2@@std@@V?$shared_ptr@UNode@NetvarTree@@@2@@std@@@std@@@std@@@2@I@Z 100063b0 f i animation_system.obj
 0001:000053b0       ?deallocate@?$allocator@H@std@@QAEXQAHI@Z 100063b0 f i animation_system.obj
 0001:000053b0       ?deallocate@?$allocator@PAUPlayerRecords@@@std@@QAEXQAPAUPlayerRecords@@I@Z 100063b0 f i LagComp.obj
 0001:000053b0       ?deallocate@?$allocator@PAULegitPlayerRecords@@@std@@QAEXQAPAULegitPlayerRecords@@I@Z 100063b0 f i Legitbot.obj
 0001:000053d0       ?deallocate@?$allocator@U?$_List_node@U?$pair@$$CBV?$basic_string@DU?$char_traits@D@std@@V?$allocator@D@2@@std@@V?$shared_ptr@UNode@NetvarTree@@@2@@std@@PAX@std@@@std@@QAEXQAU?$_List_node@U?$pair@$$CBV?$basic_string@DU?$char_traits@D@std@@V?$allocator@D@2@@std@@V?$shared_ptr@UNode@NetvarTree@@@2@@std@@PAX@2@I@Z 100063d0 f i animation_system.obj
 0001:000053f0       ?end@?$_Hash@V?$_Umap_traits@V?$basic_string@DU?$char_traits@D@std@@V?$allocator@D@2@@std@@V?$shared_ptr@UNode@NetvarTree@@@2@V?$_Uhash_compare@V?$basic_string@DU?$char_traits@D@std@@V?$allocator@D@2@@std@@U?$hash@V?$basic_string@DU?$char_traits@D@std@@V?$allocator@D@2@@std@@@2@U?$equal_to@V?$basic_string@DU?$char_traits@D@std@@V?$allocator@D@2@@std@@@2@@2@V?$allocator@U?$pair@$$CBV?$basic_string@DU?$char_traits@D@std@@V?$allocator@D@2@@std@@V?$shared_ptr@UNode@NetvarTree@@@2@@std@@@2@$0A@@std@@@std@@QAE?AV?$_List_iterator@V?$_List_val@U?$_List_simple_types@U?$pair@$$CBV?$basic_string@DU?$char_traits@D@std@@V?$allocator@D@2@@std@@V?$shared_ptr@UNode@NetvarTree@@@2@@std@@@std@@@std@@@2@XZ 100063f0 f i animation_system.obj
 0001:00005420       ?end@?$list@U?$pair@$$CBV?$basic_string@DU?$char_traits@D@std@@V?$allocator@D@2@@std@@V?$shared_ptr@UNode@NetvarTree@@@2@@std@@V?$allocator@U?$pair@$$CBV?$basic_string@DU?$char_traits@D@std@@V?$allocator@D@2@@std@@V?$shared_ptr@UNode@NetvarTree@@@2@@std@@@2@@std@@QAE?AV?$_List_iterator@V?$_List_val@U?$_List_simple_types@U?$pair@$$CBV?$basic_string@DU?$char_traits@D@std@@V?$allocator@D@2@@std@@V?$shared_ptr@UNode@NetvarTree@@@2@@std@@@std@@@std@@@2@XZ 10006420 f i animation_system.obj
 0001:00005490       ?erase@?$_Hash@V?$_Umap_traits@V?$basic_string@DU?$char_traits@D@std@@V?$allocator@D@2@@std@@V?$shared_ptr@UNode@NetvarTree@@@2@V?$_Uhash_compare@V?$basic_string@DU?$char_traits@D@std@@V?$allocator@D@2@@std@@U?$hash@V?$basic_string@DU?$char_traits@D@std@@V?$allocator@D@2@@std@@@2@U?$equal_to@V?$basic_string@DU?$char_traits@D@std@@V?$allocator@D@2@@std@@@2@@2@V?$allocator@U?$pair@$$CBV?$basic_string@DU?$char_traits@D@std@@V?$allocator@D@2@@std@@V?$shared_ptr@UNode@NetvarTree@@@2@@std@@@2@$0A@@std@@@std@@QAE?AV?$_List_iterator@V?$_List_val@U?$_List_simple_types@U?$pair@$$CBV?$basic_string@DU?$char_traits@D@std@@V?$allocator@D@2@@std@@V?$shared_ptr@UNode@NetvarTree@@@2@@std@@@std@@@std@@@2@V?$_List_const_iterator@V?$_List_val@U?$_List_simple_types@U?$pair@$$CBV?$basic_string@DU?$char_traits@D@std@@V?$allocator@D@2@@std@@V?$shared_ptr@UNode@NetvarTree@@@2@@std@@@std@@@std@@@2@@Z 10006490 f i animation_system.obj
 0001:00005500       ?erase@?$list@U?$pair@$$CBV?$basic_string@DU?$char_traits@D@std@@V?$allocator@D@2@@std@@V?$shared_ptr@UNode@NetvarTree@@@2@@std@@V?$allocator@U?$pair@$$CBV?$basic_string@DU?$char_traits@D@std@@V?$allocator@D@2@@std@@V?$shared_ptr@UNode@NetvarTree@@@2@@std@@@2@@std@@QAE?AV?$_List_iterator@V?$_List_val@U?$_List_simple_types@U?$pair@$$CBV?$basic_string@DU?$char_traits@D@std@@V?$allocator@D@2@@std@@V?$shared_ptr@UNode@NetvarTree@@@2@@std@@@std@@@std@@@2@V?$_List_const_iterator@V?$_List_val@U?$_List_simple_types@U?$pair@$$CBV?$basic_string@DU?$char_traits@D@std@@V?$allocator@D@2@@std@@V?$shared_ptr@UNode@NetvarTree@@@2@@std@@@std@@@std@@@2@@Z 10006500 f i animation_system.obj
 0001:00005550       ?find@?$_Hash@V?$_Umap_traits@V?$basic_string@DU?$char_traits@D@std@@V?$allocator@D@2@@std@@V?$shared_ptr@UNode@NetvarTree@@@2@V?$_Uhash_compare@V?$basic_string@DU?$char_traits@D@std@@V?$allocator@D@2@@std@@U?$hash@V?$basic_string@DU?$char_traits@D@std@@V?$allocator@D@2@@std@@@2@U?$equal_to@V?$basic_string@DU?$char_traits@D@std@@V?$allocator@D@2@@std@@@2@@2@V?$allocator@U?$pair@$$CBV?$basic_string@DU?$char_traits@D@std@@V?$allocator@D@2@@std@@V?$shared_ptr@UNode@NetvarTree@@@2@@std@@@2@$0A@@std@@@std@@QAE?AV?$_List_iterator@V?$_List_val@U?$_List_simple_types@U?$pair@$$CBV?$basic_string@DU?$char_traits@D@std@@V?$allocator@D@2@@std@@V?$shared_ptr@UNode@NetvarTree@@@2@@std@@@std@@@std@@@2@ABV?$basic_string@DU?$char_traits@D@std@@V?$allocator@D@2@@2@@Z 10006550 f i animation_system.obj
 0001:00005570       ?fresh_tick@@YA_NXZ        10006570 f   animation_system.obj
 0001:000055a0       ?front@?$list@U?$pair@$$CBV?$basic_string@DU?$char_traits@D@std@@V?$allocator@D@2@@std@@V?$shared_ptr@UNode@NetvarTree@@@2@@std@@V?$allocator@U?$pair@$$CBV?$basic_string@DU?$char_traits@D@std@@V?$allocator@D@2@@std@@V?$shared_ptr@UNode@NetvarTree@@@2@@std@@@2@@std@@QAEAAU?$pair@$$CBV?$basic_string@DU?$char_traits@D@std@@V?$allocator@D@2@@std@@V?$shared_ptr@UNode@NetvarTree@@@2@@2@XZ 100065a0 f i animation_system.obj
 0001:000055c0       ?value@error_code@std@@QBEHXZ 100065c0 f i config_system.obj
 0001:000055c0       ?GetName@RecvProp@@QBEPBDXZ 100065c0 f i NetvarManager.obj
 0001:000055c0       ?value@error_condition@std@@QBEHXZ 100065c0 f i config_system.obj
 0001:000055c0       ??D?$_String_const_iterator@V?$_String_val@U?$_Simple_types@D@std@@@std@@@std@@QBEABDXZ 100065c0 f i config_system.obj
 0001:000055c0       ?get@?$_Ptr_base@UNode@NetvarTree@@@std@@IBEPAUNode@NetvarTree@@XZ 100065c0 f i animation_system.obj
 0001:000055c0       ?data@?$basic_string_view@DU?$char_traits@D@std@@@std@@QBEPBDXZ 100065c0 f i config_system.obj
 0001:000055c0       ?get@?$_Ptr_base@U_Dir_enum_impl@filesystem@std@@@std@@IBEPAU_Dir_enum_impl@filesystem@2@XZ 100065c0 f i config_system.obj
 0001:000055c0       ?data@?$basic_string_view@_WU?$char_traits@_W@std@@@std@@QBEPB_WXZ 100065c0 f i config_system.obj
 0001:000055c0       ?_Unwrapped@?$_Vector_const_iterator@V?$_Vector_val@U?$_Simple_types@V?$basic_string@DU?$char_traits@D@std@@V?$allocator@D@2@@std@@@std@@@std@@@std@@QBEPBV?$basic_string@DU?$char_traits@D@std@@V?$allocator@D@2@@2@XZ 100065c0 f i config_system.obj
 0001:000055c0       ?type@file_status@filesystem@std@@QBE?AW4file_type@23@XZ 100065c0 f i config_system.obj
 0001:000055d0       ?length@?$char_traits@D@std@@SAIQBD@Z 100065d0 f i animation_system.obj
 0001:00005610       ?load_factor@?$_Hash@V?$_Umap_traits@V?$basic_string@DU?$char_traits@D@std@@V?$allocator@D@2@@std@@V?$shared_ptr@UNode@NetvarTree@@@2@V?$_Uhash_compare@V?$basic_string@DU?$char_traits@D@std@@V?$allocator@D@2@@std@@U?$hash@V?$basic_string@DU?$char_traits@D@std@@V?$allocator@D@2@@std@@@2@U?$equal_to@V?$basic_string@DU?$char_traits@D@std@@V?$allocator@D@2@@std@@@2@@2@V?$allocator@U?$pair@$$CBV?$basic_string@DU?$char_traits@D@std@@V?$allocator@D@2@@std@@V?$shared_ptr@UNode@NetvarTree@@@2@@std@@@2@$0A@@std@@@std@@QBEMXZ 10006610 f i animation_system.obj
 0001:00005690       ?lower_bound@?$_Hash@V?$_Umap_traits@V?$basic_string@DU?$char_traits@D@std@@V?$allocator@D@2@@std@@V?$shared_ptr@UNode@NetvarTree@@@2@V?$_Uhash_compare@V?$basic_string@DU?$char_traits@D@std@@V?$allocator@D@2@@std@@U?$hash@V?$basic_string@DU?$char_traits@D@std@@V?$allocator@D@2@@std@@@2@U?$equal_to@V?$basic_string@DU?$char_traits@D@std@@V?$allocator@D@2@@std@@@2@@2@V?$allocator@U?$pair@$$CBV?$basic_string@DU?$char_traits@D@std@@V?$allocator@D@2@@std@@V?$shared_ptr@UNode@NetvarTree@@@2@@std@@@2@$0A@@std@@@std@@QAE?AV?$_List_iterator@V?$_List_val@U?$_List_simple_types@U?$pair@$$CBV?$basic_string@DU?$char_traits@D@std@@V?$allocator@D@2@@std@@V?$shared_ptr@UNode@NetvarTree@@@2@@std@@@std@@@std@@@2@ABV?$basic_string@DU?$char_traits@D@std@@V?$allocator@D@2@@2@@Z 10006690 f i animation_system.obj
 0001:000057a0       ?m_flPoseParameter@C_BaseEntity@@QAEAAV?$array@M$0BI@@std@@XZ 100067a0 f i animation_system.obj
 0001:00005860       ?max_size@?$_Default_allocator_traits@V?$allocator@_W@std@@@std@@SAIABV?$allocator@_W@2@@Z 10006860 f i config_system.obj
 0001:00005860       ?max@?$numeric_limits@H@std@@SAHXZ 10006860 f i animation_system.obj
 0001:00005870       ?max_load_factor@?$_Hash@V?$_Umap_traits@V?$basic_string@DU?$char_traits@D@std@@V?$allocator@D@2@@std@@V?$shared_ptr@UNode@NetvarTree@@@2@V?$_Uhash_compare@V?$basic_string@DU?$char_traits@D@std@@V?$allocator@D@2@@std@@U?$hash@V?$basic_string@DU?$char_traits@D@std@@V?$allocator@D@2@@std@@@2@U?$equal_to@V?$basic_string@DU?$char_traits@D@std@@V?$allocator@D@2@@std@@@2@@2@V?$allocator@U?$pair@$$CBV?$basic_string@DU?$char_traits@D@std@@V?$allocator@D@2@@std@@V?$shared_ptr@UNode@NetvarTree@@@2@@std@@@2@$0A@@std@@@std@@QBEMXZ 10006870 f i animation_system.obj
 0001:000058a0       ?max_size@?$_Default_allocator_traits@V?$allocator@D@std@@@std@@SAIABV?$allocator@D@2@@Z 100068a0 f i animation_system.obj
 0001:000058a0       ?eof@?$char_traits@D@std@@SAHXZ 100068a0 f i config_system.obj
 0001:000058b0       ?max_size@?$_Default_allocator_traits@V?$allocator@V?$_List_unchecked_iterator@V?$_List_val@U?$_List_simple_types@U?$pair@$$CBV?$basic_string@DU?$char_traits@D@std@@V?$allocator@D@2@@std@@V?$shared_ptr@UNode@NetvarTree@@@2@@std@@@std@@@std@@@std@@@std@@@std@@SAIABV?$allocator@V?$_List_unchecked_iterator@V?$_List_val@U?$_List_simple_types@U?$pair@$$CBV?$basic_string@DU?$char_traits@D@std@@V?$allocator@D@2@@std@@V?$shared_ptr@UNode@NetvarTree@@@2@@std@@@std@@@std@@@std@@@2@@Z 100068b0 f i animation_system.obj
 0001:000058b0       ?max_size@?$_Default_allocator_traits@V?$allocator@H@std@@@std@@SAIABV?$allocator@H@2@@Z 100068b0 f i animation_system.obj
 0001:000058c0       ?max_size@?$_Default_allocator_traits@V?$allocator@U?$_List_node@U?$pair@$$CBV?$basic_string@DU?$char_traits@D@std@@V?$allocator@D@2@@std@@V?$shared_ptr@UNode@NetvarTree@@@2@@std@@PAX@std@@@std@@@std@@SAIABV?$allocator@U?$_List_node@U?$pair@$$CBV?$basic_string@DU?$char_traits@D@std@@V?$allocator@D@2@@std@@V?$shared_ptr@UNode@NetvarTree@@@2@@std@@PAX@std@@@2@@Z 100068c0 f i animation_system.obj
 0001:000058d0       ?max_size@?$basic_string@DU?$char_traits@D@std@@V?$allocator@D@2@@std@@QBEIXZ 100068d0 f i animation_system.obj
 0001:00005930       ?max_size@?$list@U?$pair@$$CBV?$basic_string@DU?$char_traits@D@std@@V?$allocator@D@2@@std@@V?$shared_ptr@UNode@NetvarTree@@@2@@std@@V?$allocator@U?$pair@$$CBV?$basic_string@DU?$char_traits@D@std@@V?$allocator@D@2@@std@@V?$shared_ptr@UNode@NetvarTree@@@2@@std@@@2@@std@@QBEIXZ 10006930 f i animation_system.obj
 0001:00005950       ?max_size@?$vector@V?$_List_unchecked_iterator@V?$_List_val@U?$_List_simple_types@U?$pair@$$CBV?$basic_string@DU?$char_traits@D@std@@V?$allocator@D@2@@std@@V?$shared_ptr@UNode@NetvarTree@@@2@@std@@@std@@@std@@@std@@V?$allocator@V?$_List_unchecked_iterator@V?$_List_val@U?$_List_simple_types@U?$pair@$$CBV?$basic_string@DU?$char_traits@D@std@@V?$allocator@D@2@@std@@V?$shared_ptr@UNode@NetvarTree@@@2@@std@@@std@@@std@@@std@@@2@@std@@QBEIXZ 10006950 f i animation_system.obj
 0001:00005950       ?max_size@?$vector@HV?$allocator@H@std@@@std@@QBEIXZ 10006950 f i animation_system.obj
 0001:00005990       ?move@?$char_traits@D@std@@SAPADQADQBDI@Z 10006990 f i animation_system.obj
 0001:000059b0       ?pointer_to@?$pointer_traits@PAU?$pair@$$CBV?$basic_string@DU?$char_traits@D@std@@V?$allocator@D@2@@std@@V?$shared_ptr@UNode@NetvarTree@@@2@@std@@@std@@SAPAU?$pair@$$CBV?$basic_string@DU?$char_traits@D@std@@V?$allocator@D@2@@std@@V?$shared_ptr@UNode@NetvarTree@@@2@@2@AAU32@@Z 100069b0 f i animation_system.obj
 0001:000059d0       ?push_back@?$vector@HV?$allocator@H@std@@@std@@QAEX$$QAH@Z 100069d0 f i animation_system.obj
 0001:00005a00       ?reserve@?$vector@V?$_List_unchecked_iterator@V?$_List_val@U?$_List_simple_types@U?$pair@$$CBV?$basic_string@DU?$char_traits@D@std@@V?$allocator@D@2@@std@@V?$shared_ptr@UNode@NetvarTree@@@2@@std@@@std@@@std@@@std@@V?$allocator@V?$_List_unchecked_iterator@V?$_List_val@U?$_List_simple_types@U?$pair@$$CBV?$basic_string@DU?$char_traits@D@std@@V?$allocator@D@2@@std@@V?$shared_ptr@UNode@NetvarTree@@@2@@std@@@std@@@std@@@std@@@2@@std@@QAEXI@Z 10006a00 f i animation_system.obj
 0001:00005a40       ?size@?$_Hash@V?$_Umap_traits@V?$basic_string@DU?$char_traits@D@std@@V?$allocator@D@2@@std@@V?$shared_ptr@UNode@NetvarTree@@@2@V?$_Uhash_compare@V?$basic_string@DU?$char_traits@D@std@@V?$allocator@D@2@@std@@U?$hash@V?$basic_string@DU?$char_traits@D@std@@V?$allocator@D@2@@std@@@2@U?$equal_to@V?$basic_string@DU?$char_traits@D@std@@V?$allocator@D@2@@std@@@2@@2@V?$allocator@U?$pair@$$CBV?$basic_string@DU?$char_traits@D@std@@V?$allocator@D@2@@std@@V?$shared_ptr@UNode@NetvarTree@@@2@@std@@@2@$0A@@std@@@std@@QBEIXZ 10006a40 f i animation_system.obj
 0001:00005a60       ?size@?$basic_string@_WU?$char_traits@_W@std@@V?$allocator@_W@2@@std@@QBEIXZ 10006a60 f i config_system.obj
 0001:00005a60       ?size@?$basic_string@DU?$char_traits@D@std@@V?$allocator@D@2@@std@@QBEIXZ 10006a60 f i animation_system.obj
 0001:00005a80       ?size@?$list@U?$pair@$$CBV?$basic_string@DU?$char_traits@D@std@@V?$allocator@D@2@@std@@V?$shared_ptr@UNode@NetvarTree@@@2@@std@@V?$allocator@U?$pair@$$CBV?$basic_string@DU?$char_traits@D@std@@V?$allocator@D@2@@std@@V?$shared_ptr@UNode@NetvarTree@@@2@@std@@@2@@std@@QBEIXZ 10006a80 f i animation_system.obj
 0001:00005a80       ?_Unchecked_end@?$vector@HV?$allocator@H@std@@@std@@QAEPAHXZ 10006a80 f i c_ragebot.obj
 0001:00005aa0       ?size@?$vector@V?$_List_unchecked_iterator@V?$_List_val@U?$_List_simple_types@U?$pair@$$CBV?$basic_string@DU?$char_traits@D@std@@V?$allocator@D@2@@std@@V?$shared_ptr@UNode@NetvarTree@@@2@@std@@@std@@@std@@@std@@V?$allocator@V?$_List_unchecked_iterator@V?$_List_val@U?$_List_simple_types@U?$pair@$$CBV?$basic_string@DU?$char_traits@D@std@@V?$allocator@D@2@@std@@V?$shared_ptr@UNode@NetvarTree@@@2@@std@@@std@@@std@@@std@@@2@@std@@QBEIXZ 10006aa0 f i animation_system.obj
 0001:00005aa0       ?size@?$vector@HV?$allocator@H@std@@@std@@QBEIXZ 10006aa0 f i animation_system.obj
 0001:00005ad0       _wmemcpy                   10006ad0 f i animation_system.obj
 0001:00005af0       ?GetFlags@C_BaseEntity@@QAE?AW4EntityFlags@@XZ 10006af0 f i exploits.obj
 0001:00005bb0       ?air_desync@c_exploits@@QAEXXZ 10006bb0 f   exploits.obj
 0001:00005c50       ?air_stuck@c_exploits@@QAEXXZ 10006c50 f   exploits.obj
 0001:00005ca0       ?create_move@c_exploits@@QAEXXZ 10006ca0 f   exploits.obj
 0001:00005cf0       ??HVector@@QBE?AV0@ABV0@@Z 10006cf0 f i premium_stuff.obj
 0001:00005d60       ??$vsprintf_s@$0IAA@@@YAHAAY0IAA@DPBDPAD@Z 10006d60 f i other_esp.obj
 0001:00005d80       ??0Color@@QAE@HHHH@Z       10006d80 f i other_esp.obj
 0001:00005dc0       ?DrawFilledRect@ISurface@@QAEXHHHH@Z 10006dc0 f i other_esp.obj
 0001:00005e00       ?DrawPrintText@ISurface@@QAEXPB_WH@Z 10006e00 f i other_esp.obj
 0001:00005e30       ?DrawSetColor@ISurface@@QAEXHHHH@Z 10006e30 f i other_esp.obj
 0001:00005e70       ?DrawSetTextColor@ISurface@@QAEXHHHH@Z 10006e70 f i other_esp.obj
 0001:00005eb0       ?DrawSetTextFont@ISurface@@QAEXK@Z 10006eb0 f i other_esp.obj
 0001:00005ee0       ?DrawSetTextPos@ISurface@@QAEXHH@Z 10006ee0 f i other_esp.obj
 0001:00005f10       ?DrawT@ISurface@@QAAXHHUColor@@H_NPBDZZ 10006f10 f i other_esp.obj
 0001:00006120       ?FilledRect@ISurface@@QAEXHHHHUColor@@@Z 10007120 f i other_esp.obj
 0001:00006170       ?FirstMaterial@IMaterialSystem@@QAEGXZ 10007170 f i other_esp.obj
 0001:000061a0       ?GetMaterial@IMaterialSystem@@QAEPAVIMaterial@@G@Z 100071a0 f i other_esp.obj
 0001:000061d0       ?GetTextSize@ISurface@@QAEXKPB_WAAH1@Z 100071d0 f i other_esp.obj
 0001:00006210       ?GradientH@@YAXHHHHUColor@@0@Z 10007210 f   other_esp.obj
 0001:00006340       ?InvalidMaterial@IMaterialSystem@@QAEGXZ 10007340 f i other_esp.obj
 0001:00006370       ?NextMaterial@IMaterialSystem@@QAEGG@Z 10007370 f i other_esp.obj
 0001:000063a0       ?SetValue@ConVar@@QAEXH@Z  100073a0 f i other_esp.obj
 0001:000063d0       ?night_mode@other_esp@@QAEXXZ 100073d0 f   other_esp.obj
 0001:00006650       ?watermak@other_esp@@QAEXXZ 10007650 f   other_esp.obj
 0001:00006a50       ___local_stdio_printf_options 10007a50 f i other_esp.obj
 0001:00006a60       __vsprintf_s_l             10007a60 f i other_esp.obj
 0001:00006ab0       _vsprintf_s                10007ab0 f i other_esp.obj
 0001:00006ad0       ??$?0AAPAVShadowVTManager@@@?$_Compressed_pair@U?$default_delete@VShadowVTManager@@@std@@PAVShadowVTManager@@$00@std@@QAE@U_Zero_then_variadic_args_t@1@AAPAVShadowVTManager@@@Z 10007ad0 f i c_hooks.obj
 0001:00006ad0       ??$?0AAPAVNetvarTree@@@?$_Compressed_pair@U?$default_delete@VNetvarTree@@@std@@PAVNetvarTree@@$00@std@@QAE@U_Zero_then_variadic_args_t@1@AAPAVNetvarTree@@@Z 10007ad0 f i c_hooks.obj
 0001:00006ad0       ??$?0AAPAI@?$_Compressed_pair@U?$default_delete@$$BY0A@I@std@@PAI$00@std@@QAE@U_Zero_then_variadic_args_t@1@AAPAI@Z 10007ad0 f i c_hooks.obj
 0001:00006ad0       ??$?0AAPAVVMTHook@@@?$_Compressed_pair@U?$default_delete@VVMTHook@@@std@@PAVVMTHook@@$00@std@@QAE@U_Zero_then_variadic_args_t@1@AAPAVVMTHook@@@Z 10007ad0 f i c_hooks.obj
 0001:00006ad0       ??$?0AAPAV_Facet_base@std@@@?$_Compressed_pair@U?$default_delete@V_Facet_base@std@@@std@@PAV_Facet_base@2@$00@std@@QAE@U_Zero_then_variadic_args_t@1@AAPAV_Facet_base@1@@Z 10007ad0 f i config_system.obj
 0001:00006b00       ??$?0PAVVMTHook@@@?$_Unique_ptr_base@VVMTHook@@U?$default_delete@VVMTHook@@@std@@@std@@QAE@PAVVMTHook@@@Z 10007b00 f i c_hooks.obj
 0001:00006b00       ??$?0PAVShadowVTManager@@@?$_Unique_ptr_base@VShadowVTManager@@U?$default_delete@VShadowVTManager@@@std@@@std@@QAE@PAVShadowVTManager@@@Z 10007b00 f i c_hooks.obj
 0001:00006b00       ??$?0PAVNetvarTree@@@?$_Unique_ptr_base@VNetvarTree@@U?$default_delete@VNetvarTree@@@std@@@std@@QAE@PAVNetvarTree@@@Z 10007b00 f i c_hooks.obj
 0001:00006b00       ??$?0PAI@?$_Unique_ptr_base@IU?$default_delete@$$BY0A@I@std@@@std@@QAE@PAI@Z 10007b00 f i c_hooks.obj
 0001:00006b00       ??$?0PAV_Facet_base@std@@@?$_Unique_ptr_base@V_Facet_base@std@@U?$default_delete@V_Facet_base@std@@@2@@std@@QAE@PAV_Facet_base@1@@Z 10007b00 f i config_system.obj
 0001:00006b30       ??$?0U?$default_delete@VShadowVTManager@@@std@@$0A@@?$unique_ptr@VShadowVTManager@@U?$default_delete@VShadowVTManager@@@std@@@std@@QAE@PAVShadowVTManager@@@Z 10007b30 f i bone_processing_hook.obj
 0001:00006b30       ??$?0U?$default_delete@VNetvarTree@@@std@@$0A@@?$unique_ptr@VNetvarTree@@U?$default_delete@VNetvarTree@@@std@@@std@@QAE@PAVNetvarTree@@@Z 10007b30 f i c_hooks.obj
 0001:00006b30       ??$?0PAIU?$default_delete@$$BY0A@I@std@@$0A@X@?$unique_ptr@$$BY0A@IU?$default_delete@$$BY0A@I@std@@@std@@QAE@PAI@Z 10007b30 f i c_hooks.obj
 0001:00006b30       ??$?0U?$default_delete@VVMTHook@@@std@@$0A@@?$unique_ptr@VVMTHook@@U?$default_delete@VVMTHook@@@std@@@std@@QAE@PAVVMTHook@@@Z 10007b30 f i c_hooks.obj
 0001:00006b30       ??$?0U?$default_delete@V_Facet_base@std@@@std@@$0A@@?$unique_ptr@V_Facet_base@std@@U?$default_delete@V_Facet_base@std@@@2@@std@@QAE@PAV_Facet_base@1@@Z 10007b30 f i config_system.obj
 0001:00006b80       ??$?0U?$default_delete@$$BY0A@I@std@@$0A@@?$unique_ptr@$$BY0A@IU?$default_delete@$$BY0A@I@std@@@std@@QAE@$$T@Z 10007b80 f i c_hooks.obj
 0001:00006bd0       ??$?0U?$default_delete@VNetvarTree@@@std@@$0A@@?$unique_ptr@VNetvarTree@@U?$default_delete@VNetvarTree@@@std@@@std@@QAE@XZ 10007bd0 f i NetvarManager.obj
 0001:00006bd0       ??$?0U?$default_delete@VVMTHook@@@std@@$0A@@?$unique_ptr@VVMTHook@@U?$default_delete@VVMTHook@@@std@@@std@@QAE@XZ 10007bd0 f i c_hooks.obj
 0001:00006bd0       ??$?0U?$default_delete@VShadowVTManager@@@std@@$0A@@?$unique_ptr@VShadowVTManager@@U?$default_delete@VShadowVTManager@@@std@@@std@@QAE@XZ 10007bd0 f i c_hooks.obj
 0001:00006c20       ??$?RI$0A@@?$default_delete@$$BY0A@I@std@@QBEXPAI@Z 10007c20 f i c_hooks.obj
 0001:00006c50       ??$make_unique@$$BY0A@I$0A@@std@@YA?AV?$unique_ptr@$$BY0A@IU?$default_delete@$$BY0A@I@std@@@0@I@Z 10007c50 f i c_hooks.obj
 0001:00006cd0       ??$make_unique@VNetvarTree@@$$V$0A@@std@@YA?AV?$unique_ptr@VNetvarTree@@U?$default_delete@VNetvarTree@@@std@@@0@XZ 10007cd0 f i c_hooks.obj
 0001:00006d60       ??$make_unique@VVMTHook@@AAPAVIBaseClientDLL@@$0A@@std@@YA?AV?$unique_ptr@VVMTHook@@U?$default_delete@VVMTHook@@@std@@@0@AAPAVIBaseClientDLL@@@Z 10007d60 f i c_hooks.obj
 0001:00006d60       ??$make_unique@VVMTHook@@AAPAVISurface@@$0A@@std@@YA?AV?$unique_ptr@VVMTHook@@U?$default_delete@VVMTHook@@@std@@@0@AAPAVISurface@@@Z 10007d60 f i c_hooks.obj
 0001:00006d60       ??$make_unique@VVMTHook@@PAPAK$0A@@std@@YA?AV?$unique_ptr@VVMTHook@@U?$default_delete@VVMTHook@@@std@@@0@$$QAPAPAK@Z 10007d60 f i c_hooks.obj
 0001:00006d60       ??$make_unique@VVMTHook@@AAPAVIPanel@@$0A@@std@@YA?AV?$unique_ptr@VVMTHook@@U?$default_delete@VVMTHook@@@std@@@0@AAPAVIPanel@@@Z 10007d60 f i c_hooks.obj
 0001:00006d60       ??$make_unique@VVMTHook@@AAPAVIClientMode@@$0A@@std@@YA?AV?$unique_ptr@VVMTHook@@U?$default_delete@VVMTHook@@@std@@@0@AAPAVIClientMode@@@Z 10007d60 f i c_hooks.obj
 0001:00006d60       ??$make_unique@VVMTHook@@AAPAVIVRenderView@@$0A@@std@@YA?AV?$unique_ptr@VVMTHook@@U?$default_delete@VVMTHook@@@std@@@0@AAPAVIVRenderView@@@Z 10007d60 f i c_hooks.obj
 0001:00006d60       ??$make_unique@VVMTHook@@AAPAVCModelRender@@$0A@@std@@YA?AV?$unique_ptr@VVMTHook@@U?$default_delete@VVMTHook@@@std@@@0@AAPAVCModelRender@@@Z 10007d60 f i c_hooks.obj
 0001:00006e10       ??$reset@PAIX@?$unique_ptr@$$BY0A@IU?$default_delete@$$BY0A@I@std@@@std@@QAEXPAI@Z 10007e10 f i c_hooks.obj
 0001:00006e60       ??0Event@@QAE@XZ           10007e60 f i c_hooks.obj
 0001:00006e90       ??0IGameEventListener@@QAE@XZ 10007e90 f i c_hooks.obj
 0001:00006eb0       ??0ProtectGuard@@QAE@PAXII@Z 10007eb0 f i c_hooks.obj
 0001:00006f10       ??0VMTHook@@QAE@PAX@Z      10007f10 f i c_hooks.obj
 0001:00007030       ??0c_hooks@@QAE@XZ         10008030 f i c_hooks.obj
 0001:00007100       ??0exception@std@@QAE@ABV01@@Z 10008100 f i c_hooks.obj
 0001:00007140       ??0exception@std@@QAE@QBD@Z 10008140 f i c_hooks.obj
 0001:00007190       ??0runtime_error@std@@QAE@ABV01@@Z 10008190 f i c_hooks.obj
 0001:000071c0       ??0runtime_error@std@@QAE@PBD@Z 100081c0 f i c_hooks.obj
 0001:000071f0       ??1?$_Hash@V?$_Umap_traits@V?$basic_string@DU?$char_traits@D@std@@V?$allocator@D@2@@std@@V?$shared_ptr@UNode@NetvarTree@@@2@V?$_Uhash_compare@V?$basic_string@DU?$char_traits@D@std@@V?$allocator@D@2@@std@@U?$hash@V?$basic_string@DU?$char_traits@D@std@@V?$allocator@D@2@@std@@@2@U?$equal_to@V?$basic_string@DU?$char_traits@D@std@@V?$allocator@D@2@@std@@@2@@2@V?$allocator@U?$pair@$$CBV?$basic_string@DU?$char_traits@D@std@@V?$allocator@D@2@@std@@V?$shared_ptr@UNode@NetvarTree@@@2@@std@@@2@$0A@@std@@@std@@QAE@XZ 100081f0 f i c_hooks.obj
 0001:00007220       ??1?$_List_alloc@U?$_List_base_types@U?$pair@$$CBV?$basic_string@DU?$char_traits@D@std@@V?$allocator@D@2@@std@@V?$shared_ptr@UNode@NetvarTree@@@2@@std@@V?$allocator@U?$pair@$$CBV?$basic_string@DU?$char_traits@D@std@@V?$allocator@D@2@@std@@V?$shared_ptr@UNode@NetvarTree@@@2@@std@@@2@@std@@@std@@QAE@XZ 10008220 f i c_hooks.obj
 0001:00007270       ??1?$_List_buy@U?$pair@$$CBV?$basic_string@DU?$char_traits@D@std@@V?$allocator@D@2@@std@@V?$shared_ptr@UNode@NetvarTree@@@2@@std@@V?$allocator@U?$pair@$$CBV?$basic_string@DU?$char_traits@D@std@@V?$allocator@D@2@@std@@V?$shared_ptr@UNode@NetvarTree@@@2@@std@@@2@@std@@QAE@XZ 10008270 f i c_hooks.obj
 0001:00007290       ??1?$list@U?$pair@$$CBV?$basic_string@DU?$char_traits@D@std@@V?$allocator@D@2@@std@@V?$shared_ptr@UNode@NetvarTree@@@2@@std@@V?$allocator@U?$pair@$$CBV?$basic_string@DU?$char_traits@D@std@@V?$allocator@D@2@@std@@V?$shared_ptr@UNode@NetvarTree@@@2@@std@@@2@@std@@QAE@XZ 10008290 f i c_hooks.obj
 0001:000072e0       ??1?$unique_ptr@$$BY0A@IU?$default_delete@$$BY0A@I@std@@@std@@QAE@XZ 100082e0 f i c_hooks.obj
 0001:00007320       ??1?$unique_ptr@VNetvarTree@@U?$default_delete@VNetvarTree@@@std@@@std@@QAE@XZ 10008320 f i c_hooks.obj
 0001:00007360       ??1?$unique_ptr@VShadowVTManager@@U?$default_delete@VShadowVTManager@@@std@@@std@@QAE@XZ 10008360 f i c_hooks.obj
 0001:000073a0       ??1?$unique_ptr@VVMTHook@@U?$default_delete@VVMTHook@@@std@@@std@@QAE@XZ 100083a0 f i c_hooks.obj
 0001:000073e0       ??1?$unordered_map@V?$basic_string@DU?$char_traits@D@std@@V?$allocator@D@2@@std@@V?$shared_ptr@UNode@NetvarTree@@@2@U?$hash@V?$basic_string@DU?$char_traits@D@std@@V?$allocator@D@2@@std@@@2@U?$equal_to@V?$basic_string@DU?$char_traits@D@std@@V?$allocator@D@2@@std@@@2@V?$allocator@U?$pair@$$CBV?$basic_string@DU?$char_traits@D@std@@V?$allocator@D@2@@std@@V?$shared_ptr@UNode@NetvarTree@@@2@@std@@@2@@std@@QAE@XZ 100083e0 f i c_hooks.obj
 0001:00007400       ??1Event@@UAE@XZ           10008400 f i c_hooks.obj
 0001:00007420       ??1IGameEventListener@@UAE@XZ 10008420 f i c_hooks.obj
 0001:00007440       ??1Node@NetvarTree@@QAE@XZ 10008440 f i NetvarManager.obj
 0001:00007440       ??1NetvarTree@@QAE@XZ      10008440 f i c_hooks.obj
 0001:00007460       ??1ProtectGuard@@QAE@XZ    10008460 f i c_hooks.obj
 0001:00007490       ??1ShadowVTManager@@QAE@XZ 10008490 f i c_hooks.obj
 0001:000074f0       ??1VMTHook@@QAE@XZ         100084f0 f i c_hooks.obj
 0001:00007520       ??1c_hooks@@QAE@XZ         10008520 f i c_hooks.obj
 0001:000075d0       ??1exception@std@@UAE@XZ   100085d0 f i c_hooks.obj
 0001:00007600       ??1runtime_error@std@@UAE@XZ 10008600 f i c_hooks.obj
 0001:00007600       ??1bad_cast@std@@UAE@XZ    10008600 f i config_system.obj
 0001:00007620       ??4?$unique_ptr@$$BY0A@IU?$default_delete@$$BY0A@I@std@@@std@@QAEAAV01@$$QAV01@@Z 10008620 f i c_hooks.obj
 0001:00007670       ??4?$unique_ptr@VNetvarTree@@U?$default_delete@VNetvarTree@@@std@@@std@@QAEAAV01@$$QAV01@@Z 10008670 f i c_hooks.obj
 0001:000076c0       ??4?$unique_ptr@VVMTHook@@U?$default_delete@VVMTHook@@@std@@@std@@QAEAAV01@$$QAV01@@Z 100086c0 f i c_hooks.obj
 0001:00007710       ??A?$unique_ptr@$$BY0A@IU?$default_delete@$$BY0A@I@std@@@std@@QBEAAII@Z 10008710 f i c_hooks.obj
 0001:00007730       ??R?$default_delete@VNetvarTree@@@std@@QBEXPAVNetvarTree@@@Z 10008730 f i c_hooks.obj
 0001:00007770       ??R?$default_delete@VShadowVTManager@@@std@@QBEXPAVShadowVTManager@@@Z 10008770 f i c_hooks.obj
 0001:000077b0       ??R?$default_delete@VVMTHook@@@std@@QBEXPAVVMTHook@@@Z 100087b0 f i c_hooks.obj
 0001:000077f0       ??_GEvent@@UAEPAXI@Z       100087f0 f i c_hooks.obj
 0001:000077f0       ??_EEvent@@UAEPAXI@Z       100087f0 f i c_hooks.obj
 0001:00007820       ??_GIGameEventListener@@UAEPAXI@Z 10008820 f i c_hooks.obj
 0001:00007820       ??_EIGameEventListener@@UAEPAXI@Z 10008820 f i c_hooks.obj
 0001:00007850       ??_GNetvarTree@@QAEPAXI@Z  10008850 f i c_hooks.obj
 0001:00007880       ??_GShadowVTManager@@QAEPAXI@Z 10008880 f i c_hooks.obj
 0001:000078b0       ??_GVMTHook@@QAEPAXI@Z     100088b0 f i c_hooks.obj
 0001:000078e0       ??_Eexception@std@@UAEPAXI@Z 100088e0 f i c_hooks.obj
 0001:000078e0       ??_Gexception@std@@UAEPAXI@Z 100088e0 f i c_hooks.obj
 0001:00007910       ??_Eruntime_error@std@@UAEPAXI@Z 10008910 f i c_hooks.obj
 0001:00007910       ??_Gruntime_error@std@@UAEPAXI@Z 10008910 f i c_hooks.obj
 0001:00007910       ??_Ebad_cast@std@@UAEPAXI@Z 10008910 f i config_system.obj
 0001:00007910       ??_Gbad_cast@std@@UAEPAXI@Z 10008910 f i config_system.obj
 0001:00007940       ?GetEventDebugID@IGameEventListener@@UAEHXZ 10008940 f i c_hooks.obj
 0001:00007950       ?Hook@VMTHook@@QAEJIPAX@Z  10008950 f i c_hooks.obj
 0001:00007990       ?Init@Event@@QAEXXZ        10008990 f i c_hooks.obj
 0001:000079c0       ?Init@c_hooks@@SAXXZ       100089c0 f   c_hooks.obj
 0001:00007a90       ?Restore@c_hooks@@SAXXZ    10008a90 f   c_hooks.obj
 0001:00007be0       ?RestoreTable@ShadowVTManager@@QAEXXZ 10008be0 f i c_hooks.obj
 0001:00007c80       ?Unhook@VMTHook@@QAEJI@Z   10008c80 f i c_hooks.obj
 0001:00007cd0       ?_Delete@?$unique_ptr@$$BY0A@IU?$default_delete@$$BY0A@I@std@@@std@@AAEXXZ 10008cd0 f i c_hooks.obj
 0001:00007d10       ?_Freeheadnode@?$_List_alloc@U?$_List_base_types@U?$pair@$$CBV?$basic_string@DU?$char_traits@D@std@@V?$allocator@D@2@@std@@V?$shared_ptr@UNode@NetvarTree@@@2@@std@@V?$allocator@U?$pair@$$CBV?$basic_string@DU?$char_traits@D@std@@V?$allocator@D@2@@std@@V?$shared_ptr@UNode@NetvarTree@@@2@@std@@@2@@std@@@std@@QAEXPAU?$_List_node@U?$pair@$$CBV?$basic_string@DU?$char_traits@D@std@@V?$allocator@D@2@@std@@V?$shared_ptr@UNode@NetvarTree@@@2@@std@@PAX@2@@Z 10008d10 f i c_hooks.obj
 0001:00007d40       ?_Tidy@?$list@U?$pair@$$CBV?$basic_string@DU?$char_traits@D@std@@V?$allocator@D@2@@std@@V?$shared_ptr@UNode@NetvarTree@@@2@@std@@V?$allocator@U?$pair@$$CBV?$basic_string@DU?$char_traits@D@std@@V?$allocator@D@2@@std@@V?$shared_ptr@UNode@NetvarTree@@@2@@std@@@2@@std@@QAEXXZ 10008d40 f i c_hooks.obj
 0001:00007d60       ?clear@?$list@U?$pair@$$CBV?$basic_string@DU?$char_traits@D@std@@V?$allocator@D@2@@std@@V?$shared_ptr@UNode@NetvarTree@@@2@@std@@V?$allocator@U?$pair@$$CBV?$basic_string@DU?$char_traits@D@std@@V?$allocator@D@2@@std@@V?$shared_ptr@UNode@NetvarTree@@@2@@std@@@2@@std@@QAEXXZ 10008d60 f i c_hooks.obj
 0001:00007e20       ?release@?$unique_ptr@VShadowVTManager@@U?$default_delete@VShadowVTManager@@@std@@@std@@QAEPAVShadowVTManager@@XZ 10008e20 f i bone_processing_hook.obj
 0001:00007e20       ?release@?$unique_ptr@$$BY0A@IU?$default_delete@$$BY0A@I@std@@@std@@QAEPAIXZ 10008e20 f i c_hooks.obj
 0001:00007e20       ?release@?$unique_ptr@VVMTHook@@U?$default_delete@VVMTHook@@@std@@@std@@QAEPAVVMTHook@@XZ 10008e20 f i c_hooks.obj
 0001:00007e20       ?release@?$unique_ptr@VNetvarTree@@U?$default_delete@VNetvarTree@@@std@@@std@@QAEPAVNetvarTree@@XZ 10008e20 f i c_hooks.obj
 0001:00007e20       ?release@?$unique_ptr@V_Facet_base@std@@U?$default_delete@V_Facet_base@std@@@2@@std@@QAEPAV_Facet_base@2@XZ 10008e20 f i config_system.obj
 0001:00007e50       ?reset@?$unique_ptr@VNetvarTree@@U?$default_delete@VNetvarTree@@@std@@@std@@QAEXPAVNetvarTree@@@Z 10008e50 f i c_hooks.obj
 0001:00007ea0       ?reset@?$unique_ptr@VVMTHook@@U?$default_delete@VVMTHook@@@std@@@std@@QAEXPAVVMTHook@@@Z 10008ea0 f i c_hooks.obj
 0001:00007ef0       ?table_functions@c_hooks@@SAXXZ 10008ef0 f   c_hooks.obj
 0001:00008000       ?vmt_hooks@c_hooks@@SAXXZ  10009000 f   c_hooks.obj
 0001:00008150       ?what@exception@std@@UBEPBDXZ 10009150 f i c_hooks.obj
 0001:00008180       ?wnd_hook@c_hooks@@SAXXZ   10009180 f   c_hooks.obj
 0001:000081b0       ??$?0HX@?$duration@_JU?$ratio@$00$0DOI@@std@@@chrono@std@@QAE@ABH@Z 100091b0 f i dll_main.obj
 0001:000081d0       ??$?0_JU?$ratio@$00$00@std@@X@?$duration@_JU?$ratio@$00$0DLJKMKAA@@std@@@chrono@std@@QAE@ABV?$duration@_JU?$ratio@$00$00@std@@@12@@Z 100091d0 f i dll_main.obj
 0001:00008210       ??$?0_JU?$ratio@$00$0JIJGIA@@std@@X@?$duration@_JU?$ratio@$00$0DLJKMKAA@@std@@@chrono@std@@QAE@ABV?$duration@_JU?$ratio@$00$0JIJGIA@@std@@@12@@Z 10009210 f i dll_main.obj
 0001:00008250       ??$?0_JX@?$duration@_JU?$ratio@$00$0JIJGIA@@std@@@chrono@std@@QAE@AB_J@Z 10009250 f i dll_main.obj
 0001:00008250       ??$?0_JX@?$duration@_JU?$ratio@$00$00@std@@@chrono@std@@QAE@AB_J@Z 10009250 f i dll_main.obj
 0001:00008250       ??$?0_JX@?$duration@_JU?$ratio@$00$0DLJKMKAA@@std@@@chrono@std@@QAE@AB_J@Z 10009250 f i dll_main.obj
 0001:00008250       ??$?0_KX@?$duration@_JU?$ratio@$00$0DOI@@std@@@chrono@std@@QAE@AB_K@Z 10009250 f i hooking_init.obj
 0001:00008250       ??$?0_JX@?$duration@_JU?$ratio@$00$0DOI@@std@@@chrono@std@@QAE@AB_J@Z 10009250 f i dll_main.obj
 0001:00008270       ??$?M_JU?$ratio@$00$0DOI@@std@@_JU01@@chrono@std@@YA_NABV?$duration@_JU?$ratio@$00$0DOI@@std@@@01@0@Z 10009270 f i dll_main.obj
 0001:000082e0       ??$?N_JU?$ratio@$00$0DOI@@std@@_JU01@@chrono@std@@YA_NABV?$duration@_JU?$ratio@$00$0DOI@@std@@@01@0@Z 100092e0 f i dll_main.obj
 0001:00008320       ??$_To_xtime@_JU?$ratio@$00$0DOI@@std@@@std@@YA?AUxtime@@ABV?$duration@_JU?$ratio@$00$0DOI@@std@@@chrono@0@@Z 10009320 f i dll_main.obj
 0001:00008420       ??$duration_cast@V?$duration@_JU?$ratio@$00$00@std@@@chrono@std@@_JU?$ratio@$00$0DLJKMKAA@@3@X@chrono@std@@YA?AV?$duration@_JU?$ratio@$00$00@std@@@01@ABV?$duration@_JU?$ratio@$00$0DLJKMKAA@@std@@@01@@Z 10009420 f i dll_main.obj
 0001:00008530       ??$duration_cast@V?$duration@_JU?$ratio@$00$0DLJKMKAA@@std@@@chrono@std@@_JU?$ratio@$00$00@3@X@chrono@std@@YA?AV?$duration@_JU?$ratio@$00$0DLJKMKAA@@std@@@01@ABV?$duration@_JU?$ratio@$00$00@std@@@01@@Z 10009530 f i dll_main.obj
 0001:00008640       ??$duration_cast@V?$duration@_JU?$ratio@$00$0DLJKMKAA@@std@@@chrono@std@@_JU?$ratio@$00$0DOI@@3@X@chrono@std@@YA?AV?$duration@_JU?$ratio@$00$0DLJKMKAA@@std@@@01@ABV?$duration@_JU?$ratio@$00$0DOI@@std@@@01@@Z 10009640 f i dll_main.obj
 0001:00008750       ??$duration_cast@V?$duration@_JU?$ratio@$00$0DLJKMKAA@@std@@@chrono@std@@_JU?$ratio@$00$0JIJGIA@@3@X@chrono@std@@YA?AV?$duration@_JU?$ratio@$00$0DLJKMKAA@@std@@@01@ABV?$duration@_JU?$ratio@$00$0JIJGIA@@std@@@01@@Z 10009750 f i dll_main.obj
 0001:00008850       ??$sleep_for@_JU?$ratio@$00$0DOI@@std@@@this_thread@std@@YAXABV?$duration@_JU?$ratio@$00$0DOI@@std@@@chrono@1@@Z 10009850 f i dll_main.obj
 0001:000088c0       ??0?$time_point@Usystem_clock@chrono@std@@V?$duration@_JU?$ratio@$00$0JIJGIA@@std@@@23@@chrono@std@@QAE@ABV?$duration@_JU?$ratio@$00$0JIJGIA@@std@@@12@@Z 100098c0 f i dll_main.obj
 0001:000088e0       ??Y?$duration@_JU?$ratio@$00$0DLJKMKAA@@std@@@chrono@std@@QAEAAV012@ABV012@@Z 100098e0 f i dll_main.obj
 0001:00008910       ??Z?$duration@_JU?$ratio@$00$0DLJKMKAA@@std@@@chrono@std@@QAEAAV012@ABV012@@Z 10009910 f i dll_main.obj
 0001:00008940       ?attach@@YGKPAX@Z          10009940 f   dll_main.obj
 0001:00008a40       ?count@?$duration@_JU?$ratio@$00$0DOI@@std@@@chrono@std@@QBE_JXZ 10009a40 f i dll_main.obj
 0001:00008a40       ?count@?$duration@_JU?$ratio@$00$0JIJGIA@@std@@@chrono@std@@QBE_JXZ 10009a40 f i dll_main.obj
 0001:00008a40       ?count@?$duration@_JU?$ratio@$00$00@std@@@chrono@std@@QBE_JXZ 10009a40 f i dll_main.obj
 0001:00008a40       ?count@?$duration@_JU?$ratio@$00$0DLJKMKAA@@std@@@chrono@std@@QBE_JXZ 10009a40 f i dll_main.obj
 0001:00008a60       ?detach@@YGHXZ             10009a60 f   dll_main.obj
 0001:00008a70       ?now@system_clock@chrono@std@@SA?AV?$time_point@Usystem_clock@chrono@std@@V?$duration@_JU?$ratio@$00$0JIJGIA@@std@@@23@@23@XZ 10009a70 f i dll_main.obj
 0001:00008ad0       ?sleep_until@this_thread@std@@YAXPBUxtime@@@Z 10009ad0 f i dll_main.obj
 0001:00008af0       ?time_since_epoch@?$time_point@Usystem_clock@chrono@std@@V?$duration@_JU?$ratio@$00$0JIJGIA@@std@@@23@@chrono@std@@QBE?AV?$duration@_JU?$ratio@$00$0JIJGIA@@std@@@23@XZ 10009af0 f i dll_main.obj
 0001:00008af0       ?GetTL@ImRect@@QBE?AUImVec2@@XZ 10009af0 f i imgui.obj
 0001:00008b10       ?zero@?$duration@_JU?$ratio@$00$0DOI@@std@@@chrono@std@@SA?AV123@XZ 10009b10 f i dll_main.obj
 0001:00008b60       ?zero@?$duration_values@_J@chrono@std@@SA_JXZ 10009b60 f i dll_main.obj
 0001:00008b70       _DllMain@12                10009b70 f   dll_main.obj
 0001:00008bc0       ??$CallVFunc@$0BMM@PAVweapon_info_t@@$$V@Utils@@SAPAVweapon_info_t@@PAX@Z 10009bc0 f i c_esp.obj
 0001:00008bc0       ??$CallVFunc@$0BMM@PAVWeaponInfo_t@@$$V@Utils@@SAPAVWeaponInfo_t@@PAX@Z 10009bc0 f i c_ragebot.obj
 0001:00008bf0       ??$GetValue@VCBaseHandle@@@C_BaseEntity@@AAE?AVCBaseHandle@@H@Z 10009bf0 f i c_ragebot.obj
 0001:00008c10       ??0?$_Deque_const_iterator@V?$_Deque_val@U?$_Deque_simple_types@UPlayerRecords@@@std@@@std@@@std@@QAE@$$QAV01@@Z 10009c10 f i LagComp.obj
 0001:00008c10       ??0?$_Deque_const_iterator@V?$_Deque_val@U?$_Deque_simple_types@ULegitPlayerRecords@@@std@@@std@@@std@@QAE@ABV01@@Z 10009c10 f i Legitbot.obj
 0001:00008c10       ??0?$_Deque_const_iterator@V?$_Deque_val@U?$_Deque_simple_types@ULegitPlayerRecords@@@std@@@std@@@std@@QAE@$$QAV01@@Z 10009c10 f i Legitbot.obj
 0001:00008c10       ??0?$_Deque_const_iterator@V?$_Deque_val@U?$_Deque_simple_types@UPlayerRecords@@@std@@@std@@@std@@QAE@ABV01@@Z 10009c10 f i c_ragebot.obj
 0001:00008c40       ??0?$_Deque_const_iterator@V?$_Deque_val@U?$_Deque_simple_types@ULegitPlayerRecords@@@std@@@std@@@std@@QAE@IPBU_Container_base12@1@@Z 10009c40 f i Legitbot.obj
 0001:00008c40       ??0?$_Deque_const_iterator@V?$_Deque_val@U?$_Deque_simple_types@UPlayerRecords@@@std@@@std@@@std@@QAE@IPBU_Container_base12@1@@Z 10009c40 f i c_ragebot.obj
 0001:00008cb0       ??0?$_Deque_iterator@V?$_Deque_val@U?$_Deque_simple_types@ULegitPlayerRecords@@@std@@@std@@@std@@QAE@$$QAV01@@Z 10009cb0 f i Legitbot.obj
 0001:00008cb0       ??0?$_Deque_iterator@V?$_Deque_val@U?$_Deque_simple_types@UPlayerRecords@@@std@@@std@@@std@@QAE@ABV01@@Z 10009cb0 f i c_ragebot.obj
 0001:00008cb0       ??0?$_Deque_iterator@V?$_Deque_val@U?$_Deque_simple_types@UPlayerRecords@@@std@@@std@@@std@@QAE@$$QAV01@@Z 10009cb0 f i LagComp.obj
 0001:00008cb0       ??0?$_Deque_iterator@V?$_Deque_val@U?$_Deque_simple_types@ULegitPlayerRecords@@@std@@@std@@@std@@QAE@ABV01@@Z 10009cb0 f i Legitbot.obj
 0001:00008cd0       ??0?$_Deque_iterator@V?$_Deque_val@U?$_Deque_simple_types@UPlayerRecords@@@std@@@std@@@std@@QAE@IPBU_Container_base12@1@@Z 10009cd0 f i c_ragebot.obj
 0001:00008cd0       ??0?$_Deque_iterator@V?$_Deque_val@U?$_Deque_simple_types@ULegitPlayerRecords@@@std@@@std@@@std@@QAE@IPBU_Container_base12@1@@Z 10009cd0 f i Legitbot.obj
 0001:00008cf0       ??0CBaseHandle@@QAE@ABV0@@Z 10009cf0 f i c_ragebot.obj
 0001:00008d10       ??0C_Ray@@QAE@VVector@@0@Z 10009d10 f i c_ragebot.obj
 0001:00008d60       ??0C_Trace@@QAE@XZ         10009d60 f i c_ragebot.obj
 0001:00008d90       ??0VectorAligned@@QAE@XZ   10009d90 f i c_ragebot.obj
 0001:00008d90       ??0cplane_t@@QAE@XZ        10009d90 f i c_ragebot.obj
 0001:00008db0       ??0_Iterator_base12@std@@QAE@ABU01@@Z 10009db0 f i c_ragebot.obj
 0001:00008de0       ??0c_aimbot@@QAE@XZ        10009de0 f i c_ragebot.obj
 0001:00008e10       ??4VectorAligned@@QAEAAV0@ABVVector@@@Z 10009e10 f i c_ragebot.obj
 0001:00008e60       ??4_Iterator_base12@std@@QAEAAU01@ABU01@@Z 10009e60 f i c_ragebot.obj
 0001:00008ea0       ??9Vector@@QBE_NABV0@@Z    10009ea0 f i c_ragebot.obj
 0001:00008f00       ??D?$_Deque_const_iterator@V?$_Deque_val@U?$_Deque_simple_types@UPlayerRecords@@@std@@@std@@@std@@QBEABUPlayerRecords@@XZ 10009f00 f i c_ragebot.obj
 0001:00008f60       ??D?$_Deque_iterator@V?$_Deque_val@U?$_Deque_simple_types@UPlayerRecords@@@std@@@std@@@std@@QBEAAUPlayerRecords@@XZ 10009f60 f i c_ragebot.obj
 0001:00008f80       ??DVector@@QBE?AV0@M@Z     10009f80 f i c_ragebot.obj
 0001:00008ff0       ??GVector@@QBE?AV0@ABV0@@Z 10009ff0 f i c_ragebot.obj
 0001:00009060       ??H?$_Deque_iterator@V?$_Deque_val@U?$_Deque_simple_types@ULegitPlayerRecords@@@std@@@std@@@std@@QBE?AV01@H@Z 1000a060 f i Legitbot.obj
 0001:00009060       ??H?$_Deque_iterator@V?$_Deque_val@U?$_Deque_simple_types@UPlayerRecords@@@std@@@std@@@std@@QBE?AV01@H@Z 1000a060 f i c_ragebot.obj
 0001:000090f0       ??Y?$_Deque_const_iterator@V?$_Deque_val@U?$_Deque_simple_types@UPlayerRecords@@@std@@@std@@@std@@QAEAAV01@H@Z 1000a0f0 f i LagComp.obj
 0001:000090f0       ??Y?$_Deque_iterator@V?$_Deque_val@U?$_Deque_simple_types@UPlayerRecords@@@std@@@std@@@std@@QAEAAV01@H@Z 1000a0f0 f i c_ragebot.obj
 0001:000090f0       ??Y?$_Deque_iterator@V?$_Deque_val@U?$_Deque_simple_types@ULegitPlayerRecords@@@std@@@std@@@std@@QAEAAV01@H@Z 1000a0f0 f i Legitbot.obj
 0001:000090f0       ??Y?$_Deque_const_iterator@V?$_Deque_val@U?$_Deque_simple_types@ULegitPlayerRecords@@@std@@@std@@@std@@QAEAAV01@H@Z 1000a0f0 f i Legitbot.obj
 0001:00009110       ??YVector@@QAEAAV0@ABV0@@Z 1000a110 f i c_ragebot.obj
 0001:00009170       ??ZVector@@QAEAAV0@ABV0@@Z 1000a170 f i c_ragebot.obj
 0001:000091d0       ?Autostop@c_aimbot@@QAEXXZ 1000a1d0 f   c_ragebot.obj
 0001:000092b0       ?GetActiveWeapon@C_BaseEntity@@QAEPAVC_BaseCombatWeapon@@XZ 1000a2b0 f i c_ragebot.obj
 0001:00009390       ?GetAimPunchAngle@C_BaseEntity@@QAE?AVVector@@XZ 1000a390 f i c_ragebot.obj
 0001:000093c0       ?GetCSWpnData@C_BaseCombatWeapon@@QAEPAVWeaponInfo_t@@XZ 1000a3c0 f i c_ragebot.obj
 0001:000093e0       ?GetEyeAngles@C_BaseEntity@@QAE?AVVector@@XZ 1000a3e0 f i c_ragebot.obj
 0001:000094a0       ?GetEyePosition@C_BaseEntity@@QAE?AVVector@@XZ 1000a4a0 f i c_ragebot.obj
 0001:000094f0       ?GetFloat@ConVar@@QAEMXZ   1000a4f0 f i c_ragebot.obj
 0001:00009520       ?GetInaccuracy@C_BaseCombatWeapon@@QAEMXZ 1000a520 f i c_ragebot.obj
 0001:00009550       ?GetNextPrimaryAttack@C_BaseCombatWeapon@@QAEMXZ 1000a550 f i c_ragebot.obj
 0001:00009610       ?GetSpread@C_BaseCombatWeapon@@QAEMXZ 1000a610 f i c_ragebot.obj
 0001:00009640       ?GetTeam@C_BaseEntity@@QAEHXZ 1000a640 f i c_ragebot.obj
 0001:00009700       ?GetTickBase@C_BaseEntity@@QAEHXZ 1000a700 f i c_ragebot.obj
 0001:000097c0       ?HitChance@c_aimbot@@QAE_NPAVC_BaseEntity@@PAVC_BaseCombatWeapon@@VVector@@2H@Z 1000a7c0 f   c_ragebot.obj
 0001:00009e00       ?Hitscan@c_aimbot@@QAE?AVVector@@PAVC_BaseEntity@@@Z 1000ae00 f   c_ragebot.obj
 0001:0000aa10       ?Init@C_Ray@@QAEXABVVector@@0@Z 1000ba10 f i c_ragebot.obj
 0001:0000aad0       ?Init@Vector@@QAEXMMM@Z    1000bad0 f i c_ragebot.obj
 0001:0000ab10       ?Length2D@Vector@@QBEMXZ   1000bb10 f i c_ragebot.obj
 0001:0000ab70       ?Length@Vector@@QBEMXZ     1000bb70 f i c_ragebot.obj
 0001:0000abe0       ?LengthSqr@Vector@@QBEMXZ  1000bbe0 f i c_ragebot.obj
 0001:0000ac30       ?Normalize@Vector@@QAE?AV1@XZ 1000bc30 f i c_ragebot.obj
 0001:0000ace0       ?NormalizeInPlace@Vector@@QAEMXZ 1000bce0 f i c_ragebot.obj
 0001:0000adb0       ?OnCreateMove@c_aimbot@@QAEXXZ 1000bdb0 f   c_ragebot.obj
 0001:0000b410       ?_Adopt@_Iterator_base12@std@@QAEXPBU_Container_base12@2@@Z 1000c410 f i c_ragebot.obj
 0001:0000b440       ?_Getblock@?$_Deque_val@U?$_Deque_simple_types@UPlayerRecords@@@std@@@std@@QBEII@Z 1000c440 f i c_ragebot.obj
 0001:0000b440       ?_Getblock@?$_Deque_val@U?$_Deque_simple_types@ULegitPlayerRecords@@@std@@@std@@QBEII@Z 1000c440 f i Legitbot.obj
 0001:0000b460       ?_Getcont@_Iterator_base12@std@@QBEPBU_Container_base12@2@XZ 1000c460 f i c_ragebot.obj
 0001:0000b490       ?_Myoff@?$_Deque_alloc@U?$_Deque_base_types@UPlayerRecords@@V?$allocator@UPlayerRecords@@@std@@@std@@@std@@QAEAAIXZ 1000c490 f i c_ragebot.obj
 0001:0000b490       ?_Myoff@?$_Deque_alloc@U?$_Deque_base_types@ULegitPlayerRecords@@V?$allocator@ULegitPlayerRecords@@@std@@@std@@@std@@QAEAAIXZ 1000c490 f i Legitbot.obj
 0001:0000b4b0       ?_Mysize@?$_Deque_alloc@U?$_Deque_base_types@UPlayerRecords@@V?$allocator@UPlayerRecords@@@std@@@std@@@std@@QAEAAIXZ 1000c4b0 f i c_ragebot.obj
 0001:0000b4b0       ?_Mysize@?$_Deque_alloc@U?$_Deque_base_types@ULegitPlayerRecords@@V?$allocator@ULegitPlayerRecords@@@std@@@std@@@std@@QBEABIXZ 1000c4b0 f i Legitbot.obj
 0001:0000b4b0       ?_Mysize@?$_Deque_alloc@U?$_Deque_base_types@ULegitPlayerRecords@@V?$allocator@ULegitPlayerRecords@@@std@@@std@@@std@@QAEAAIXZ 1000c4b0 f i Legitbot.obj
 0001:0000b4b0       ?_Mysize@?$_Deque_alloc@U?$_Deque_base_types@UPlayerRecords@@V?$allocator@UPlayerRecords@@@std@@@std@@@std@@QBEABIXZ 1000c4b0 f i c_ragebot.obj
 0001:0000b4d0       ?_Setcont@?$_Deque_const_iterator@V?$_Deque_val@U?$_Deque_simple_types@UPlayerRecords@@@std@@@std@@@std@@QAEXPBV?$_Deque_val@U?$_Deque_simple_types@UPlayerRecords@@@std@@@2@@Z 1000c4d0 f i c_ragebot.obj
 0001:0000b4d0       ?_Setcont@?$_Deque_const_iterator@V?$_Deque_val@U?$_Deque_simple_types@ULegitPlayerRecords@@@std@@@std@@@std@@QAEXPBV?$_Deque_val@U?$_Deque_simple_types@ULegitPlayerRecords@@@std@@@2@@Z 1000c4d0 f i Legitbot.obj
 0001:0000b4f0       ?_Unchecked_begin@?$vector@HV?$allocator@H@std@@@std@@QAEPAHXZ 1000c4f0 f i c_ragebot.obj
 0001:0000b510       ?_Xran@?$deque@ULegitPlayerRecords@@V?$allocator@ULegitPlayerRecords@@@std@@@std@@IBEXXZ 1000c510 f i Legitbot.obj
 0001:0000b510       ?_Xran@?$deque@UPlayerRecords@@V?$allocator@UPlayerRecords@@@std@@@std@@IBEXXZ 1000c510 f i c_ragebot.obj
 0001:0000b530       ?abs@@YAMM@Z               1000c530 f i c_ragebot.obj
 0001:0000b550       ?at@?$deque@UPlayerRecords@@V?$allocator@UPlayerRecords@@@std@@@std@@QAEAAUPlayerRecords@@I@Z 1000c550 f i c_ragebot.obj
 0001:0000b610       ?begin@?$deque@UPlayerRecords@@V?$allocator@UPlayerRecords@@@std@@@std@@QAE?AV?$_Deque_iterator@V?$_Deque_val@U?$_Deque_simple_types@UPlayerRecords@@@std@@@std@@@2@XZ 1000c610 f i c_ragebot.obj
 0001:0000b610       ?begin@?$deque@ULegitPlayerRecords@@V?$allocator@ULegitPlayerRecords@@@std@@@std@@QAE?AV?$_Deque_iterator@V?$_Deque_val@U?$_Deque_simple_types@ULegitPlayerRecords@@@std@@@std@@@2@XZ 1000c610 f i Legitbot.obj
 0001:0000b680       ?cos@@YAMM@Z               1000c680 f i c_ragebot.obj
 0001:0000b6a0       ?sin@@YAMM@Z               1000c6a0 f i c_ragebot.obj
 0001:0000b6c0       ?size@?$deque@UPlayerRecords@@V?$allocator@UPlayerRecords@@@std@@@std@@QBEIXZ 1000c6c0 f i c_ragebot.obj
 0001:0000b6c0       ?size@?$deque@ULegitPlayerRecords@@V?$allocator@ULegitPlayerRecords@@@std@@@std@@QBEIXZ 1000c6c0 f i Legitbot.obj
 0001:0000b6e0       ?sqrt@@YAMM@Z              1000c6e0 f i c_ragebot.obj
 0001:0000b700       _cosf                      1000c700 f i c_ragebot.obj
 0001:0000b720       _fabsf                     1000c720 f i c_ragebot.obj
 0001:0000b740       _sinf                      1000c740 f i c_ragebot.obj
 0001:0000b760       _sqrtf                     1000c760 f i c_ragebot.obj
 0001:0000b780       ??$pow@MNX@@YANMN@Z        1000c780 f i Autowall.obj
 0001:0000b7b0       ??0C_TraceFilter@@QAE@PAVC_BaseEntity@@W4TraceType_t@@@Z 1000c7b0 f i Autowall.obj
 0001:0000b7e0       ??0FireBulletData@@QAE@ABVVector@@PAVC_BaseEntity@@@Z 1000c7e0 f i Autowall.obj
 0001:0000b840       ??0ITraceFilter@@QAE@XZ    1000c840 f i Autowall.obj
 0001:0000b860       ??R<lambda_8306b9bf967b1dc2e3a7715b585f0ae0>@@QBE_NPBE0PBD@Z 1000c860 f i Autowall.obj
 0001:0000b8e0       ??_0Vector@@QAEAAV0@M@Z    1000c8e0 f i Autowall.obj
 0001:0000b950       ?ArmorValue@C_BaseEntity@@QAEHXZ 1000c950 f i Autowall.obj
 0001:0000ba10       ?CanHitFloatingPoint@Autowall@@QAE_NABVVector@@0@Z 1000ca10 f   Autowall.obj
 0001:0000bbf0       ?Damage@Autowall@@QAEMABVVector@@@Z 1000cbf0 f   Autowall.obj
 0001:0000bd00       ?FindPattern@Utils@@SAKPBDPBE0@Z 1000cd00 f i Autowall.obj
 0001:0000bd80       ?GetHitgroupDamageMult@@YAMH@Z 1000cd80 f   Autowall.obj
 0001:0000bde0       ?HandleBulletPenetration@@YA_NPAVWeaponInfo_t@@AAUFireBulletData@@_NVVector@@@Z 1000cde0 f   Autowall.obj
 0001:0000c230       ?HasHelmet@C_BaseEntity@@QAE_NXZ 1000d230 f i Autowall.obj
 0001:0000c2f0       ?ScaleDamage@@YAXHPAVC_BaseEntity@@MAAM@Z 1000d2f0 f   Autowall.obj
 0001:0000c3e0       ?ShouldHitEntity@C_TraceFilter@@UAE_NPAXH@Z 1000d3e0 f i Autowall.obj
 0001:0000c410       ?SimulateFireBullet@@YA_NPAVC_BaseEntity@@PAVC_BaseCombatWeapon@@AAUFireBulletData@@@Z 1000d410 f   Autowall.obj
 0001:0000c680       ?TraceLine@@YAXAAVVector@@0IPAVC_BaseEntity@@PAUC_Trace@@@Z 1000d680 f   Autowall.obj
 0001:0000c710       ?TraceToExitalt@@YA_NAAVVector@@AAUC_Trace@@V1@2PAU2@@Z 1000d710 f   Autowall.obj
 0001:0000c810       ?UTIL_ClipTraceToPlayers@@YAXABVVector@@0IPAVITraceFilter@@PAUC_Trace@@@Z 1000d810 f   Autowall.obj
 0001:0000c8d0       ?VectorLength@@YAMABVVector@@@Z 1000d8d0 f i Autowall.obj
 0001:0000c920       ?VectorNormalize@@YAMAAVVector@@@Z 1000d920 f i Autowall.obj
 0001:0000c990       ?VectortoVectorVisible@@YA_NVVector@@0@Z 1000d990 f   Autowall.obj
 0001:0000ca30       ??$CallVFunc@$00XPAVC_BaseEntity@@@Utils@@SAXPAXPAVC_BaseEntity@@@Z 1000da30 f i EnginePrediction.obj
 0001:0000ca60       ?AccuracyPenalty@C_BaseCombatWeapon@@QAEXXZ 1000da60 f i EnginePrediction.obj
 0001:0000ca90       ?EndEnginePred@engine_prediction@@YAXXZ 1000da90 f   EnginePrediction.obj
 0001:0000cb60       ?RunEnginePred@engine_prediction@@YAXXZ 1000db60 f   EnginePrediction.obj
 0001:0000cdd0       ?SetCurrentCommand@C_BaseEntity@@QAEXPAVCUserCmd@@@Z 1000ddd0 f i EnginePrediction.obj
 0001:0000ce90       ?SetHost@IMoveHelper@@QAEXPAVC_BaseEntity@@@Z 1000de90 f i EnginePrediction.obj
 0001:0000ceb0       ??$?0$$V@?$_Compressed_pair@V?$allocator@ULegitPlayerRecords@@@std@@V?$_Deque_val@U?$_Deque_simple_types@ULegitPlayerRecords@@@std@@@2@$00@std@@QAE@U_Zero_then_variadic_args_t@1@@Z 1000deb0 f i Legitbot.obj
 0001:0000ceb0       ??$?0$$V@?$_Compressed_pair@V?$allocator@UPlayerRecords@@@std@@V?$_Deque_val@U?$_Deque_simple_types@UPlayerRecords@@@std@@@2@$00@std@@QAE@U_Zero_then_variadic_args_t@1@@Z 1000deb0 f i LagComp.obj
 0001:0000ced0       ??$_Deallocate_plain@V?$allocator@U_Container_proxy@std@@@std@@$0A@@std@@YAXAAV?$allocator@U_Container_proxy@std@@@0@QAU_Container_proxy@0@@Z 1000ded0 f i LagComp.obj
 0001:0000cef0       ??$_Get_size_of_n@$07@std@@YAII@Z 1000def0 f i LagComp.obj
 0001:0000cf20       ??$_Get_size_of_n@$0BIAM@@std@@YAII@Z 1000df20 f i LagComp.obj
 0001:0000cf50       ??$_Get_unwrapped@V?$_Deque_iterator@V?$_Deque_val@U?$_Deque_simple_types@UPlayerRecords@@@std@@@std@@@std@@$0A@@std@@YA?AV?$_Deque_unchecked_iterator@V?$_Deque_val@U?$_Deque_simple_types@UPlayerRecords@@@std@@@std@@@0@ABV?$_Deque_iterator@V?$_Deque_val@U?$_Deque_simple_types@UPlayerRecords@@@std@@@std@@@0@@Z 1000df50 f i LagComp.obj
 0001:0000cf50       ??$_Get_unwrapped@V?$_Deque_iterator@V?$_Deque_val@U?$_Deque_simple_types@ULegitPlayerRecords@@@std@@@std@@@std@@$0A@@std@@YA?AV?$_Deque_unchecked_iterator@V?$_Deque_val@U?$_Deque_simple_types@ULegitPlayerRecords@@@std@@@std@@@0@ABV?$_Deque_iterator@V?$_Deque_val@U?$_Deque_simple_types@ULegitPlayerRecords@@@std@@@std@@@0@@Z 1000df50 f i Legitbot.obj
 0001:0000cf70       ??$_Get_unwrapped_n@V?$_Deque_iterator@V?$_Deque_val@U?$_Deque_simple_types@UPlayerRecords@@@std@@@std@@@std@@H$0A@@std@@YA?AV?$_Deque_unchecked_iterator@V?$_Deque_val@U?$_Deque_simple_types@UPlayerRecords@@@std@@@std@@@0@ABV?$_Deque_iterator@V?$_Deque_val@U?$_Deque_simple_types@UPlayerRecords@@@std@@@std@@@0@H@Z 1000df70 f i LagComp.obj
 0001:0000cf70       ??$_Get_unwrapped_n@V?$_Deque_iterator@V?$_Deque_val@U?$_Deque_simple_types@ULegitPlayerRecords@@@std@@@std@@@std@@H$0A@@std@@YA?AV?$_Deque_unchecked_iterator@V?$_Deque_val@U?$_Deque_simple_types@ULegitPlayerRecords@@@std@@@std@@@0@ABV?$_Deque_iterator@V?$_Deque_val@U?$_Deque_simple_types@ULegitPlayerRecords@@@std@@@std@@@0@H@Z 1000df70 f i Legitbot.obj
 0001:0000cfa0       ??$_Idl_distance@V?$_Deque_iterator@V?$_Deque_val@U?$_Deque_simple_types@UPlayerRecords@@@std@@@std@@@std@@V?$_Deque_unchecked_iterator@V?$_Deque_val@U?$_Deque_simple_types@UPlayerRecords@@@std@@@std@@@2@@std@@YAHABV?$_Deque_unchecked_iterator@V?$_Deque_val@U?$_Deque_simple_types@UPlayerRecords@@@std@@@std@@@0@0@Z 1000dfa0 f i LagComp.obj
 0001:0000cfa0       ??$_Idl_distance@V?$_Deque_iterator@V?$_Deque_val@U?$_Deque_simple_types@ULegitPlayerRecords@@@std@@@std@@@std@@V?$_Deque_unchecked_iterator@V?$_Deque_val@U?$_Deque_simple_types@ULegitPlayerRecords@@@std@@@std@@@2@@std@@YAHABV?$_Deque_unchecked_iterator@V?$_Deque_val@U?$_Deque_simple_types@ULegitPlayerRecords@@@std@@@std@@@0@0@Z 1000dfa0 f i Legitbot.obj
 0001:0000cfc0       ??$_Move_backward_unchecked1@V?$_Deque_unchecked_iterator@V?$_Deque_val@U?$_Deque_simple_types@UPlayerRecords@@@std@@@std@@@std@@V12@@std@@YA?AV?$_Deque_unchecked_iterator@V?$_Deque_val@U?$_Deque_simple_types@UPlayerRecords@@@std@@@std@@@0@V10@00U_General_ptr_iterator_tag@0@@Z 1000dfc0 f i LagComp.obj
 0001:0000d030       ??$_Move_backward_unchecked@V?$_Deque_unchecked_iterator@V?$_Deque_val@U?$_Deque_simple_types@UPlayerRecords@@@std@@@std@@@std@@V12@@std@@YA?AV?$_Deque_unchecked_iterator@V?$_Deque_val@U?$_Deque_simple_types@UPlayerRecords@@@std@@@std@@@0@V10@00@Z 1000e030 f i LagComp.obj
 0001:0000d080       ??$_Move_unchecked1@V?$_Deque_unchecked_iterator@V?$_Deque_val@U?$_Deque_simple_types@UPlayerRecords@@@std@@@std@@@std@@V12@@std@@YA?AV?$_Deque_unchecked_iterator@V?$_Deque_val@U?$_Deque_simple_types@UPlayerRecords@@@std@@@std@@@0@V10@00U_General_ptr_iterator_tag@0@@Z 1000e080 f i LagComp.obj
 0001:0000d0f0       ??$_Move_unchecked@V?$_Deque_unchecked_iterator@V?$_Deque_val@U?$_Deque_simple_types@UPlayerRecords@@@std@@@std@@@std@@V12@@std@@YA?AV?$_Deque_unchecked_iterator@V?$_Deque_val@U?$_Deque_simple_types@UPlayerRecords@@@std@@@std@@@0@V10@00@Z 1000e0f0 f i LagComp.obj
 0001:0000d140       ??$_Seek_wrapped@V?$_Deque_iterator@V?$_Deque_val@U?$_Deque_simple_types@UPlayerRecords@@@std@@@std@@@std@@V?$_Deque_unchecked_iterator@V?$_Deque_val@U?$_Deque_simple_types@UPlayerRecords@@@std@@@std@@@2@@std@@YAXAAV?$_Deque_iterator@V?$_Deque_val@U?$_Deque_simple_types@UPlayerRecords@@@std@@@std@@@0@ABV?$_Deque_unchecked_iterator@V?$_Deque_val@U?$_Deque_simple_types@UPlayerRecords@@@std@@@std@@@0@@Z 1000e140 f i LagComp.obj
 0001:0000d140       ??$_Seek_wrapped@V?$_Deque_iterator@V?$_Deque_val@U?$_Deque_simple_types@ULegitPlayerRecords@@@std@@@std@@@std@@V?$_Deque_unchecked_iterator@V?$_Deque_val@U?$_Deque_simple_types@ULegitPlayerRecords@@@std@@@std@@@2@@std@@YAXAAV?$_Deque_iterator@V?$_Deque_val@U?$_Deque_simple_types@ULegitPlayerRecords@@@std@@@std@@@0@ABV?$_Deque_unchecked_iterator@V?$_Deque_val@U?$_Deque_simple_types@ULegitPlayerRecords@@@std@@@std@@@0@@Z 1000e140 f i Legitbot.obj
 0001:0000d160       ??$_Uninitialized_value_construct_n1@PAPAUPlayerRecords@@IV?$allocator@PAUPlayerRecords@@@std@@@std@@YAPAPAUPlayerRecords@@PAPAU1@IAAV?$allocator@PAUPlayerRecords@@@0@U?$integral_constant@_N$00@0@@Z 1000e160 f i LagComp.obj
 0001:0000d160       ??$_Uninitialized_value_construct_n1@PAPAULegitPlayerRecords@@IV?$allocator@PAULegitPlayerRecords@@@std@@@std@@YAPAPAULegitPlayerRecords@@PAPAU1@IAAV?$allocator@PAULegitPlayerRecords@@@0@U?$integral_constant@_N$00@0@@Z 1000e160 f i Legitbot.obj
 0001:0000d180       ??$_Uninitialized_value_construct_n@PAPAUPlayerRecords@@IV?$allocator@PAUPlayerRecords@@@std@@@std@@YAPAPAUPlayerRecords@@PAPAU1@IAAV?$allocator@PAUPlayerRecords@@@0@@Z 1000e180 f i LagComp.obj
 0001:0000d180       ??$_Uninitialized_value_construct_n@PAPAULegitPlayerRecords@@IV?$allocator@PAULegitPlayerRecords@@@std@@@std@@YAPAPAULegitPlayerRecords@@PAPAU1@IAAV?$allocator@PAULegitPlayerRecords@@@0@@Z 1000e180 f i Legitbot.obj
 0001:0000d1b0       ??$_Zero_range@PAPAULegitPlayerRecords@@@std@@YAPAPAULegitPlayerRecords@@QAPAU1@0@Z 1000e1b0 f i Legitbot.obj
 0001:0000d1b0       ??$_Zero_range@PAPAUPlayerRecords@@@std@@YAPAPAUPlayerRecords@@QAPAU1@0@Z 1000e1b0 f i LagComp.obj
 0001:0000d1e0       ??$clamp@MM@LagComp@@QAEMMMM@Z 1000e1e0 f i LagComp.obj
 0001:0000d210       ??$construct@UPlayerRecords@@ABU1@@?$_Default_allocator_traits@V?$allocator@UPlayerRecords@@@std@@@std@@SAXAAV?$allocator@UPlayerRecords@@@1@QAUPlayerRecords@@ABU3@@Z 1000e210 f i LagComp.obj
 0001:0000d250       ??$construct@U_Container_proxy@std@@U12@@?$_Default_allocator_traits@V?$allocator@U_Container_proxy@std@@@std@@@std@@SAXAAV?$allocator@U_Container_proxy@std@@@1@QAU_Container_proxy@1@$$QAU31@@Z 1000e250 f i LagComp.obj
 0001:0000d290       ??$move@V?$_Deque_iterator@V?$_Deque_val@U?$_Deque_simple_types@UPlayerRecords@@@std@@@std@@@std@@V12@@std@@YA?AV?$_Deque_iterator@V?$_Deque_val@U?$_Deque_simple_types@UPlayerRecords@@@std@@@std@@@0@V10@00@Z 1000e290 f i LagComp.obj
 0001:0000d3a0       ??$move_backward@V?$_Deque_iterator@V?$_Deque_val@U?$_Deque_simple_types@UPlayerRecords@@@std@@@std@@@std@@V12@@std@@YA?AV?$_Deque_iterator@V?$_Deque_val@U?$_Deque_simple_types@UPlayerRecords@@@std@@@std@@@0@V10@00@Z 1000e3a0 f i LagComp.obj
 0001:0000d4b0       ??0?$_Deque_alloc@U?$_Deque_base_types@UPlayerRecords@@V?$allocator@UPlayerRecords@@@std@@@std@@@std@@QAE@XZ 1000e4b0 f i LagComp.obj
 0001:0000d4b0       ??0?$_Deque_alloc@U?$_Deque_base_types@ULegitPlayerRecords@@V?$allocator@ULegitPlayerRecords@@@std@@@std@@@std@@QAE@XZ 1000e4b0 f i Legitbot.obj
 0001:0000d4e0       ??0?$_Deque_unchecked_const_iterator@V?$_Deque_val@U?$_Deque_simple_types@ULegitPlayerRecords@@@std@@@std@@@std@@QAE@IPBU_Container_base12@1@@Z 1000e4e0 f i Legitbot.obj
 0001:0000d4e0       ??0?$_Deque_unchecked_const_iterator@V?$_Deque_val@U?$_Deque_simple_types@UPlayerRecords@@@std@@@std@@@std@@QAE@IPBU_Container_base12@1@@Z 1000e4e0 f i LagComp.obj
 0001:0000d510       ??0?$_Deque_unchecked_iterator@V?$_Deque_val@U?$_Deque_simple_types@ULegitPlayerRecords@@@std@@@std@@@std@@QAE@IPBU_Container_base12@1@@Z 1000e510 f i Legitbot.obj
 0001:0000d510       ??0?$_Deque_unchecked_iterator@V?$_Deque_val@U?$_Deque_simple_types@UPlayerRecords@@@std@@@std@@@std@@QAE@IPBU_Container_base12@1@@Z 1000e510 f i LagComp.obj
 0001:0000d530       ??0?$_Deque_val@U?$_Deque_simple_types@ULegitPlayerRecords@@@std@@@std@@QAE@XZ 1000e530 f i Legitbot.obj
 0001:0000d530       ??0?$_Deque_val@U?$_Deque_simple_types@UPlayerRecords@@@std@@@std@@QAE@XZ 1000e530 f i LagComp.obj
 0001:0000d570       ??0?$deque@ULegitPlayerRecords@@V?$allocator@ULegitPlayerRecords@@@std@@@std@@QAE@XZ 1000e570 f i Legitbot.obj
 0001:0000d570       ??0?$deque@UPlayerRecords@@V?$allocator@UPlayerRecords@@@std@@@std@@QAE@XZ 1000e570 f i LagComp.obj
 0001:0000d590       ??0LagComp@@QAE@XZ         1000e590 f i LagComp.obj
 0001:0000d5c0       ??0PlayerRecords@@QAE@XZ   1000e5c0 f i LagComp.obj
 0001:0000d5f0       ??1?$_Deque_alloc@U?$_Deque_base_types@ULegitPlayerRecords@@V?$allocator@ULegitPlayerRecords@@@std@@@std@@@std@@QAE@XZ 1000e5f0 f i Legitbot.obj
 0001:0000d5f0       ??1?$_Deque_alloc@U?$_Deque_base_types@UPlayerRecords@@V?$allocator@UPlayerRecords@@@std@@@std@@@std@@QAE@XZ 1000e5f0 f i LagComp.obj
 0001:0000d630       ??1?$deque@UPlayerRecords@@V?$allocator@UPlayerRecords@@@std@@@std@@QAE@XZ 1000e630 f i LagComp.obj
 0001:0000d680       ??1LagComp@@QAE@XZ         1000e680 f i LagComp.obj
 0001:0000d6d0       ??8error_category@std@@QBE_NABV01@@Z 1000e6d0 f i config_system.obj
 0001:0000d6d0       ??8?$_Deque_unchecked_const_iterator@V?$_Deque_val@U?$_Deque_simple_types@ULegitPlayerRecords@@@std@@@std@@@std@@QBE_NABV01@@Z 1000e6d0 f i Legitbot.obj
 0001:0000d6d0       ??8?$_Deque_unchecked_const_iterator@V?$_Deque_val@U?$_Deque_simple_types@UPlayerRecords@@@std@@@std@@@std@@QBE_NABV01@@Z 1000e6d0 f i LagComp.obj
 0001:0000d700       ??9?$_Deque_unchecked_const_iterator@V?$_Deque_val@U?$_Deque_simple_types@ULegitPlayerRecords@@@std@@@std@@@std@@QBE_NABV01@@Z 1000e700 f i Legitbot.obj
 0001:0000d700       ??9?$_Deque_unchecked_const_iterator@V?$_Deque_val@U?$_Deque_simple_types@UPlayerRecords@@@std@@@std@@@std@@QBE_NABV01@@Z 1000e700 f i LagComp.obj
 0001:0000d740       ??D?$_Deque_unchecked_const_iterator@V?$_Deque_val@U?$_Deque_simple_types@UPlayerRecords@@@std@@@std@@@std@@QBEABUPlayerRecords@@XZ 1000e740 f i LagComp.obj
 0001:0000d790       ??D?$_Deque_unchecked_iterator@V?$_Deque_val@U?$_Deque_simple_types@UPlayerRecords@@@std@@@std@@@std@@QBEAAUPlayerRecords@@XZ 1000e790 f i LagComp.obj
 0001:0000d7b0       ??E?$_Deque_unchecked_const_iterator@V?$_Deque_val@U?$_Deque_simple_types@ULegitPlayerRecords@@@std@@@std@@@std@@QAEAAV01@XZ 1000e7b0 f i Legitbot.obj
 0001:0000d7b0       ??E?$_Deque_unchecked_const_iterator@V?$_Deque_val@U?$_Deque_simple_types@UPlayerRecords@@@std@@@std@@@std@@QAEAAV01@XZ 1000e7b0 f i LagComp.obj
 0001:0000d7d0       ??E?$_Deque_unchecked_iterator@V?$_Deque_val@U?$_Deque_simple_types@ULegitPlayerRecords@@@std@@@std@@@std@@QAEAAV01@XZ 1000e7d0 f i Legitbot.obj
 0001:0000d7d0       ??E?$_Deque_unchecked_iterator@V?$_Deque_val@U?$_Deque_simple_types@UPlayerRecords@@@std@@@std@@@std@@QAEAAV01@XZ 1000e7d0 f i LagComp.obj
 0001:0000d7f0       ??F?$_Deque_unchecked_const_iterator@V?$_Deque_val@U?$_Deque_simple_types@UPlayerRecords@@@std@@@std@@@std@@QAEAAV01@XZ 1000e7f0 f i LagComp.obj
 0001:0000d7f0       ??F?$_Deque_unchecked_const_iterator@V?$_Deque_val@U?$_Deque_simple_types@ULegitPlayerRecords@@@std@@@std@@@std@@QAEAAV01@XZ 1000e7f0 f i Legitbot.obj
 0001:0000d810       ??F?$_Deque_unchecked_iterator@V?$_Deque_val@U?$_Deque_simple_types@ULegitPlayerRecords@@@std@@@std@@@std@@QAEAAV01@XZ 1000e810 f i Legitbot.obj
 0001:0000d810       ??F?$_Deque_unchecked_iterator@V?$_Deque_val@U?$_Deque_simple_types@UPlayerRecords@@@std@@@std@@@std@@QAEAAV01@XZ 1000e810 f i LagComp.obj
 0001:0000d830       ??G?$_Deque_const_iterator@V?$_Deque_val@U?$_Deque_simple_types@ULegitPlayerRecords@@@std@@@std@@@std@@QBEHABV01@@Z 1000e830 f i Legitbot.obj
 0001:0000d830       ??G?$_Deque_const_iterator@V?$_Deque_val@U?$_Deque_simple_types@UPlayerRecords@@@std@@@std@@@std@@QBEHABV01@@Z 1000e830 f i LagComp.obj
 0001:0000d860       ??G?$_Deque_iterator@V?$_Deque_val@U?$_Deque_simple_types@UPlayerRecords@@@std@@@std@@@std@@QBEHABV?$_Deque_const_iterator@V?$_Deque_val@U?$_Deque_simple_types@UPlayerRecords@@@std@@@std@@@1@@Z 1000e860 f i LagComp.obj
 0001:0000d860       ??G?$_Deque_iterator@V?$_Deque_val@U?$_Deque_simple_types@ULegitPlayerRecords@@@std@@@std@@@std@@QBEHABV?$_Deque_const_iterator@V?$_Deque_val@U?$_Deque_simple_types@ULegitPlayerRecords@@@std@@@std@@@1@@Z 1000e860 f i Legitbot.obj
 0001:0000d880       ??G?$_Deque_unchecked_const_iterator@V?$_Deque_val@U?$_Deque_simple_types@ULegitPlayerRecords@@@std@@@std@@@std@@QBEHABV01@@Z 1000e880 f i Legitbot.obj
 0001:0000d880       ??G?$_Deque_unchecked_const_iterator@V?$_Deque_val@U?$_Deque_simple_types@UPlayerRecords@@@std@@@std@@@std@@QBEHABV01@@Z 1000e880 f i LagComp.obj
 0001:0000d8a0       ??G?$_Deque_unchecked_iterator@V?$_Deque_val@U?$_Deque_simple_types@ULegitPlayerRecords@@@std@@@std@@@std@@QBEHABV?$_Deque_unchecked_const_iterator@V?$_Deque_val@U?$_Deque_simple_types@ULegitPlayerRecords@@@std@@@std@@@1@@Z 1000e8a0 f i Legitbot.obj
 0001:0000d8a0       ??G?$_Deque_unchecked_iterator@V?$_Deque_val@U?$_Deque_simple_types@UPlayerRecords@@@std@@@std@@@std@@QBEHABV?$_Deque_unchecked_const_iterator@V?$_Deque_val@U?$_Deque_simple_types@UPlayerRecords@@@std@@@std@@@1@@Z 1000e8a0 f i LagComp.obj
 0001:0000d8c0       ??H?$_Deque_const_iterator@V?$_Deque_val@U?$_Deque_simple_types@ULegitPlayerRecords@@@std@@@std@@@std@@QBE?AV01@H@Z 1000e8c0 f i Legitbot.obj
 0001:0000d8c0       ??H?$_Deque_const_iterator@V?$_Deque_val@U?$_Deque_simple_types@UPlayerRecords@@@std@@@std@@@std@@QBE?AV01@H@Z 1000e8c0 f i LagComp.obj
 0001:0000d950       ?ClearRecords@LagComp@@QAEXH@Z 1000e950 f   LagComp.obj
 0001:0000da80       ?GetInt@ConVar@@QBEHXZ     1000ea80 f i LagComp.obj
 0001:0000daa0       ?GetLastShotTime@C_BaseCombatWeapon@@QAEMXZ 1000eaa0 f i LagComp.obj
 0001:0000db60       ?LerpTime@LagComp@@QAEMXZ  1000eb60 f   LagComp.obj
 0001:0000dd30       ?StoreRecord@LagComp@@QAEXPAVC_BaseEntity@@@Z 1000ed30 f   LagComp.obj
 0001:0000e310       ?ValidTick@LagComp@@QAE_NH@Z 1000f310 f   LagComp.obj
 0001:0000e4d0       ?_Alloc_proxy@?$_Deque_alloc@U?$_Deque_base_types@UPlayerRecords@@V?$allocator@UPlayerRecords@@@std@@@std@@@std@@QAEXXZ 1000f4d0 f i LagComp.obj
 0001:0000e4d0       ?_Alloc_proxy@?$_Deque_alloc@U?$_Deque_base_types@ULegitPlayerRecords@@V?$allocator@ULegitPlayerRecords@@@std@@@std@@@std@@QAEXXZ 1000f4d0 f i Legitbot.obj
 0001:0000e560       ?_Free_proxy@?$_Deque_alloc@U?$_Deque_base_types@UPlayerRecords@@V?$allocator@UPlayerRecords@@@std@@@std@@@std@@QAEXXZ 1000f560 f i LagComp.obj
 0001:0000e560       ?_Free_proxy@?$_Deque_alloc@U?$_Deque_base_types@ULegitPlayerRecords@@V?$allocator@ULegitPlayerRecords@@@std@@@std@@@std@@QAEXXZ 1000f560 f i Legitbot.obj
 0001:0000e5d0       ?_Getblock@?$_Deque_alloc@U?$_Deque_base_types@ULegitPlayerRecords@@V?$allocator@ULegitPlayerRecords@@@std@@@std@@@std@@QBEII@Z 1000f5d0 f i Legitbot.obj
 0001:0000e5d0       ?_Getblock@?$_Deque_alloc@U?$_Deque_base_types@UPlayerRecords@@V?$allocator@UPlayerRecords@@@std@@@std@@@std@@QBEII@Z 1000f5d0 f i LagComp.obj
 0001:0000e600       ?_Growmap@?$deque@UPlayerRecords@@V?$allocator@UPlayerRecords@@@std@@@std@@IAEXI@Z 1000f600 f i LagComp.obj
 0001:0000e8b0       ?_Make_iter@?$deque@UPlayerRecords@@V?$allocator@UPlayerRecords@@@std@@@std@@QBE?AV?$_Deque_iterator@V?$_Deque_val@U?$_Deque_simple_types@UPlayerRecords@@@std@@@std@@@2@V?$_Deque_const_iterator@V?$_Deque_val@U?$_Deque_simple_types@UPlayerRecords@@@std@@@std@@@2@@Z 1000f8b0 f i LagComp.obj
 0001:0000e8b0       ?_Make_iter@?$deque@ULegitPlayerRecords@@V?$allocator@ULegitPlayerRecords@@@std@@@std@@QBE?AV?$_Deque_iterator@V?$_Deque_val@U?$_Deque_simple_types@ULegitPlayerRecords@@@std@@@std@@@2@V?$_Deque_const_iterator@V?$_Deque_val@U?$_Deque_simple_types@ULegitPlayerRecords@@@std@@@std@@@2@@Z 1000f8b0 f i Legitbot.obj
 0001:0000e930       ?_Seek_to@?$_Deque_const_iterator@V?$_Deque_val@U?$_Deque_simple_types@ULegitPlayerRecords@@@std@@@std@@@std@@QAEXABV?$_Deque_unchecked_const_iterator@V?$_Deque_val@U?$_Deque_simple_types@ULegitPlayerRecords@@@std@@@std@@@2@@Z 1000f930 f i Legitbot.obj
 0001:0000e930       ?_Seek_to@?$_Deque_const_iterator@V?$_Deque_val@U?$_Deque_simple_types@UPlayerRecords@@@std@@@std@@@std@@QAEXABV?$_Deque_unchecked_const_iterator@V?$_Deque_val@U?$_Deque_simple_types@UPlayerRecords@@@std@@@std@@@2@@Z 1000f930 f i LagComp.obj
 0001:0000e950       ?_Tidy@?$deque@UPlayerRecords@@V?$allocator@UPlayerRecords@@@std@@@std@@IAEXXZ 1000f950 f i LagComp.obj
 0001:0000ea60       ?_Unwrapped@?$_Deque_iterator@V?$_Deque_val@U?$_Deque_simple_types@UPlayerRecords@@@std@@@std@@@std@@QBE?AV?$_Deque_unchecked_iterator@V?$_Deque_val@U?$_Deque_simple_types@UPlayerRecords@@@std@@@std@@@2@XZ 1000fa60 f i LagComp.obj
 0001:0000ea60       ?_Unwrapped@?$_Deque_iterator@V?$_Deque_val@U?$_Deque_simple_types@ULegitPlayerRecords@@@std@@@std@@@std@@QBE?AV?$_Deque_unchecked_iterator@V?$_Deque_val@U?$_Deque_simple_types@ULegitPlayerRecords@@@std@@@std@@@2@XZ 1000fa60 f i Legitbot.obj
 0001:0000eaa0       ?_Xlen@?$deque@UPlayerRecords@@V?$allocator@UPlayerRecords@@@std@@@std@@IBEXXZ 1000faa0 f i LagComp.obj
 0001:0000eaa0       ?_Xlen@?$deque@ULegitPlayerRecords@@V?$allocator@ULegitPlayerRecords@@@std@@@std@@IBEXXZ 1000faa0 f i Legitbot.obj
 0001:0000eac0       ?allocate@?$allocator@UPlayerRecords@@@std@@QAEPAUPlayerRecords@@I@Z 1000fac0 f i LagComp.obj
 0001:0000eaf0       ?allocate@?$allocator@U_Container_proxy@std@@@std@@QAEPAU_Container_proxy@2@I@Z 1000faf0 f i LagComp.obj
 0001:0000eb20       ?deallocate@?$_Default_allocator_traits@V?$allocator@U_Container_proxy@std@@@std@@@std@@SAXAAV?$allocator@U_Container_proxy@std@@@2@QAU_Container_proxy@2@I@Z 1000fb20 f i LagComp.obj
 0001:0000eb40       ?deallocate@?$allocator@UPlayerRecords@@@std@@QAEXQAUPlayerRecords@@I@Z 1000fb40 f i LagComp.obj
 0001:0000eb70       ?empty@?$deque@UPlayerRecords@@V?$allocator@UPlayerRecords@@@std@@@std@@QBE_NXZ 1000fb70 f i LagComp.obj
 0001:0000eb70       ?empty@?$deque@ULegitPlayerRecords@@V?$allocator@ULegitPlayerRecords@@@std@@@std@@QBE_NXZ 1000fb70 f i Legitbot.obj
 0001:0000eba0       ?end@?$deque@ULegitPlayerRecords@@V?$allocator@ULegitPlayerRecords@@@std@@@std@@QAE?AV?$_Deque_iterator@V?$_Deque_val@U?$_Deque_simple_types@ULegitPlayerRecords@@@std@@@std@@@2@XZ 1000fba0 f i Legitbot.obj
 0001:0000eba0       ?end@?$deque@UPlayerRecords@@V?$allocator@UPlayerRecords@@@std@@@std@@QAE?AV?$_Deque_iterator@V?$_Deque_val@U?$_Deque_simple_types@UPlayerRecords@@@std@@@std@@@2@XZ 1000fba0 f i LagComp.obj
 0001:0000ec20       ?erase@?$deque@UPlayerRecords@@V?$allocator@UPlayerRecords@@@std@@@std@@QAE?AV?$_Deque_iterator@V?$_Deque_val@U?$_Deque_simple_types@UPlayerRecords@@@std@@@std@@@2@V?$_Deque_const_iterator@V?$_Deque_val@U?$_Deque_simple_types@UPlayerRecords@@@std@@@std@@@2@0@Z 1000fc20 f i LagComp.obj
 0001:0000eec0       ?erase@?$deque@UPlayerRecords@@V?$allocator@UPlayerRecords@@@std@@@std@@QAE?AV?$_Deque_iterator@V?$_Deque_val@U?$_Deque_simple_types@UPlayerRecords@@@std@@@std@@@2@V?$_Deque_const_iterator@V?$_Deque_val@U?$_Deque_simple_types@UPlayerRecords@@@std@@@std@@@2@@Z 1000fec0 f i LagComp.obj
 0001:0000ef60       ?max_size@?$_Default_allocator_traits@V?$allocator@UPlayerRecords@@@std@@@std@@SAIABV?$allocator@UPlayerRecords@@@2@@Z 1000ff60 f i LagComp.obj
 0001:0000ef70       ?max_size@?$deque@UPlayerRecords@@V?$allocator@UPlayerRecords@@@std@@@std@@QBEIXZ 1000ff70 f i LagComp.obj
 0001:0000ef90       ?pop_back@?$deque@UPlayerRecords@@V?$allocator@UPlayerRecords@@@std@@@std@@QAEXXZ 1000ff90 f i LagComp.obj
 0001:0000f050       ?pop_front@?$deque@UPlayerRecords@@V?$allocator@UPlayerRecords@@@std@@@std@@QAEXXZ 10010050 f i LagComp.obj
 0001:0000f110       ?push_back@?$deque@UPlayerRecords@@V?$allocator@UPlayerRecords@@@std@@@std@@QAEXABUPlayerRecords@@@Z 10010110 f i LagComp.obj
 0001:0000f270       ??$fmax@HNX@@YANHN@Z       10010270 f i c_antiaim.obj
 0001:0000f2a0       ??$fmin@HMX@@YANHM@Z       100102a0 f i c_antiaim.obj
 0001:0000f2d0       ??$fmin@MHX@@YANMH@Z       100102d0 f i c_antiaim.obj
 0001:0000f300       ??Amatrix3x4_t@@QBEPBMH@Z  10010300 f i Math.obj
 0001:0000f300       ??Amatrix3x4_t@@QAEPAMH@Z  10010300 f i c_antiaim.obj
 0001:0000f320       ?ClampMovement@@YAXPAVCUserCmd@@M@Z 10010320 f   c_antiaim.obj
 0001:0000f410       ?DoFake@@YAXPAVCUserCmd@@@Z 10010410 f   c_antiaim.obj
 0001:0000f600       ?FastSqrt222@@YAMM@Z       10010600 f i c_antiaim.obj
 0001:0000f630       ?GetLastBoneSetupTime@C_BaseEntity@@QAEAAMXZ 10010630 f i c_antiaim.obj
 0001:0000f650       ?GetMostRecentModelBoneCounter@C_BaseEntity@@QAEAAIXZ 10010650 f i c_antiaim.obj
 0001:0000f670       ?GetMoveType@C_BaseEntity@@QAE?AW4MoveType_t@@XZ 10010670 f i c_antiaim.obj
 0001:0000f730       ?GetNetChannel@IVEngineClient@@QAEPAVNetChannel@@XZ 10010730 f i c_antiaim.obj
 0001:0000f760       ?LbyUpdate@@YA_NXZ         10010760 f   c_antiaim.obj
 0001:0000f800       ?MaxDesyncDelta@C_BaseEntity@@QAEMXZ 10010800 f   c_antiaim.obj
 0001:0000f920       ?create_animation_state@C_BaseEntity@@QAEXPAVCBasePlayerAnimState@@@Z 10010920 f i c_antiaim.obj
 0001:0000f9e0       ?create_move@c_antiaim@@QAEXXZ 100109e0 f   c_antiaim.obj
 0001:0000fb10       ?desyncchams@c_antiaim@@QAEXXZ 10010b10 f   c_antiaim.obj
 0001:0000ffd0       ?m_flSpawnTime@C_BaseEntity@@QAEMXZ 10010fd0 f i c_antiaim.obj
 0001:00010000       ?slowwalk@@YAXXZ           10011000 f   c_antiaim.obj
 0001:00010060       ?smallmovements@c_antiaim@@QAEXXZ 10011060 f   c_antiaim.obj
 0001:000101e0       ?yaw_desync@c_antiaim@@QAEXXZ 100111e0 f   c_antiaim.obj
 0001:00010240       ??$_Get_size_of_n@$0OI@@std@@YAII@Z 10011240 f i Legitbot.obj
 0001:00010270       ??$_Move_backward_unchecked1@V?$_Deque_unchecked_iterator@V?$_Deque_val@U?$_Deque_simple_types@ULegitPlayerRecords@@@std@@@std@@@std@@V12@@std@@YA?AV?$_Deque_unchecked_iterator@V?$_Deque_val@U?$_Deque_simple_types@ULegitPlayerRecords@@@std@@@std@@@0@V10@00U_General_ptr_iterator_tag@0@@Z 10011270 f i Legitbot.obj
 0001:000102e0       ??$_Move_backward_unchecked@V?$_Deque_unchecked_iterator@V?$_Deque_val@U?$_Deque_simple_types@ULegitPlayerRecords@@@std@@@std@@@std@@V12@@std@@YA?AV?$_Deque_unchecked_iterator@V?$_Deque_val@U?$_Deque_simple_types@ULegitPlayerRecords@@@std@@@std@@@0@V10@00@Z 100112e0 f i Legitbot.obj
 0001:00010330       ??$_Move_unchecked1@V?$_Deque_unchecked_iterator@V?$_Deque_val@U?$_Deque_simple_types@ULegitPlayerRecords@@@std@@@std@@@std@@V12@@std@@YA?AV?$_Deque_unchecked_iterator@V?$_Deque_val@U?$_Deque_simple_types@ULegitPlayerRecords@@@std@@@std@@@0@V10@00U_General_ptr_iterator_tag@0@@Z 10011330 f i Legitbot.obj
 0001:000103a0       ??$_Move_unchecked@V?$_Deque_unchecked_iterator@V?$_Deque_val@U?$_Deque_simple_types@ULegitPlayerRecords@@@std@@@std@@@std@@V12@@std@@YA?AV?$_Deque_unchecked_iterator@V?$_Deque_val@U?$_Deque_simple_types@ULegitPlayerRecords@@@std@@@std@@@0@V10@00@Z 100113a0 f i Legitbot.obj
 0001:000103f0       ??$construct@ULegitPlayerRecords@@ABU1@@?$_Default_allocator_traits@V?$allocator@ULegitPlayerRecords@@@std@@@std@@SAXAAV?$allocator@ULegitPlayerRecords@@@1@QAULegitPlayerRecords@@ABU3@@Z 100113f0 f i Legitbot.obj
 0001:00010430       ??$move@V?$_Deque_iterator@V?$_Deque_val@U?$_Deque_simple_types@ULegitPlayerRecords@@@std@@@std@@@std@@V12@@std@@YA?AV?$_Deque_iterator@V?$_Deque_val@U?$_Deque_simple_types@ULegitPlayerRecords@@@std@@@std@@@0@V10@00@Z 10011430 f i Legitbot.obj
 0001:00010540       ??$move_backward@V?$_Deque_iterator@V?$_Deque_val@U?$_Deque_simple_types@ULegitPlayerRecords@@@std@@@std@@@std@@V12@@std@@YA?AV?$_Deque_iterator@V?$_Deque_val@U?$_Deque_simple_types@ULegitPlayerRecords@@@std@@@std@@@0@V10@00@Z 10011540 f i Legitbot.obj
 0001:00010650       ??0error_condition@std@@QAE@HABVerror_category@1@@Z 10011650 f i config_system.obj
 0001:00010650       ??0error_code@std@@QAE@HABVerror_category@1@@Z 10011650 f i config_system.obj
 0001:00010650       ??0<lambda_498009bf6358dc471fbe163595f67980>@@QAE@ABVVector@@AAVVector2D@@@Z 10011650 f i Legitbot.obj
 0001:00010650       ??0?$basic_string_view@_WU?$char_traits@_W@std@@@std@@QAE@QB_WI@Z 10011650 f i config_system.obj
 0001:00010650       ??0?$basic_string_view@DU?$char_traits@D@std@@@std@@QAE@QBDI@Z 10011650 f i config_system.obj
 0001:00010680       ??0LegitPlayerRecords@@QAE@XZ 10011680 f i Legitbot.obj
 0001:000106a0       ??0Legitbot@@QAE@XZ        100116a0 f i Legitbot.obj
 0001:000106d0       ??0Vector2D@@QAE@ABV0@@Z   100116d0 f i Legitbot.obj
 0001:00010700       ??1?$deque@ULegitPlayerRecords@@V?$allocator@ULegitPlayerRecords@@@std@@@std@@QAE@XZ 10011700 f i Legitbot.obj
 0001:00010750       ??1Legitbot@@QAE@XZ        10011750 f i Legitbot.obj
 0001:000107a0       ??4LegitPlayerRecords@@QAEAAU0@$$QAU0@@Z 100117a0 f i Legitbot.obj
 0001:00010800       ??D?$_Deque_const_iterator@V?$_Deque_val@U?$_Deque_simple_types@ULegitPlayerRecords@@@std@@@std@@@std@@QBEABULegitPlayerRecords@@XZ 10011800 f i Legitbot.obj
 0001:00010860       ??D?$_Deque_iterator@V?$_Deque_val@U?$_Deque_simple_types@ULegitPlayerRecords@@@std@@@std@@@std@@QBEAAULegitPlayerRecords@@XZ 10011860 f i Legitbot.obj
 0001:00010880       ??D?$_Deque_unchecked_const_iterator@V?$_Deque_val@U?$_Deque_simple_types@ULegitPlayerRecords@@@std@@@std@@@std@@QBEABULegitPlayerRecords@@XZ 10011880 f i Legitbot.obj
 0001:000108d0       ??D?$_Deque_unchecked_iterator@V?$_Deque_val@U?$_Deque_simple_types@ULegitPlayerRecords@@@std@@@std@@@std@@QBEAAULegitPlayerRecords@@XZ 100118d0 f i Legitbot.obj
 0001:000108f0       ??R<lambda_498009bf6358dc471fbe163595f67980>@@QBE_NXZ 100118f0 f i Legitbot.obj
 0001:00010b90       ?OnCreateMove@Legitbot@@QAEXXZ 10011b90 f   Legitbot.obj
 0001:000113e0       ?WorldToScreen@Utils@@SA_NABVVector@@AAVVector2D@@@Z 100123e0 f i Legitbot.obj
 0001:00011490       ?_Growmap@?$deque@ULegitPlayerRecords@@V?$allocator@ULegitPlayerRecords@@@std@@@std@@IAEXI@Z 10012490 f i Legitbot.obj
 0001:00011740       ?_Tidy@?$deque@ULegitPlayerRecords@@V?$allocator@ULegitPlayerRecords@@@std@@@std@@IAEXXZ 10012740 f i Legitbot.obj
 0001:00011850       ?allocate@?$allocator@ULegitPlayerRecords@@@std@@QAEPAULegitPlayerRecords@@I@Z 10012850 f i Legitbot.obj
 0001:00011880       ?at@?$deque@ULegitPlayerRecords@@V?$allocator@ULegitPlayerRecords@@@std@@@std@@QAEAAULegitPlayerRecords@@I@Z 10012880 f i Legitbot.obj
 0001:00011940       ?deallocate@?$allocator@ULegitPlayerRecords@@@std@@QAEXQAULegitPlayerRecords@@I@Z 10012940 f i Legitbot.obj
 0001:00011970       ?erase@?$deque@ULegitPlayerRecords@@V?$allocator@ULegitPlayerRecords@@@std@@@std@@QAE?AV?$_Deque_iterator@V?$_Deque_val@U?$_Deque_simple_types@ULegitPlayerRecords@@@std@@@std@@@2@V?$_Deque_const_iterator@V?$_Deque_val@U?$_Deque_simple_types@ULegitPlayerRecords@@@std@@@std@@@2@0@Z 10012970 f i Legitbot.obj
 0001:00011c10       ?erase@?$deque@ULegitPlayerRecords@@V?$allocator@ULegitPlayerRecords@@@std@@@std@@QAE?AV?$_Deque_iterator@V?$_Deque_val@U?$_Deque_simple_types@ULegitPlayerRecords@@@std@@@std@@@2@V?$_Deque_const_iterator@V?$_Deque_val@U?$_Deque_simple_types@ULegitPlayerRecords@@@std@@@std@@@2@@Z 10012c10 f i Legitbot.obj
 0001:00011cb0       ?max_size@?$_Default_allocator_traits@V?$allocator@ULegitPlayerRecords@@@std@@@std@@SAIABV?$allocator@ULegitPlayerRecords@@@2@@Z 10012cb0 f i Legitbot.obj
 0001:00011cc0       ?max_size@?$deque@ULegitPlayerRecords@@V?$allocator@ULegitPlayerRecords@@@std@@@std@@QBEIXZ 10012cc0 f i Legitbot.obj
 0001:00011ce0       ?pop_back@?$deque@ULegitPlayerRecords@@V?$allocator@ULegitPlayerRecords@@@std@@@std@@QAEXXZ 10012ce0 f i Legitbot.obj
 0001:00011da0       ?pop_front@?$deque@ULegitPlayerRecords@@V?$allocator@ULegitPlayerRecords@@@std@@@std@@QAEXXZ 10012da0 f i Legitbot.obj
 0001:00011e60       ?push_back@?$deque@ULegitPlayerRecords@@V?$allocator@ULegitPlayerRecords@@@std@@@std@@QAEXABULegitPlayerRecords@@@Z 10012e60 f i Legitbot.obj
 0001:00011fc0       ??0Resolver@@QAE@XZ        10012fc0 f i Resolver.obj
 0001:00011fe0       ?FrameStage@Resolver@@QAEXW4ClientFrameStage_t@@@Z 10012fe0 f   Resolver.obj
 0001:00012120       ?HandleHits@@YAXPAVC_BaseEntity@@@Z 10013120 f   Resolver.obj
 0001:00012400       ?OnCreateMove@Resolver@@QAEXXZ 10013400 f   Resolver.obj
 0001:00012bd0       ??$?0PADX@?$basic_string@DU?$char_traits@D@std@@V?$allocator@D@2@@std@@QAE@PAD0ABV?$allocator@D@1@@Z 10013bd0 f i c_esp.obj
 0001:00012c80       ??$?HDU?$char_traits@D@std@@V?$allocator@D@1@@std@@YA?AV?$basic_string@DU?$char_traits@D@std@@V?$allocator@D@2@@0@$$QAV10@QBD@Z 10013c80 f i c_esp.obj
 0001:00012cc0       ??$?HDU?$char_traits@D@std@@V?$allocator@D@1@@std@@YA?AV?$basic_string@DU?$char_traits@D@std@@V?$allocator@D@2@@0@QBD$$QAV10@@Z 10013cc0 f i c_esp.obj
 0001:00012d00       ??$?RABHABH@?$less@X@std@@QBE_NABH0@Z 10013d00 f i c_esp.obj
 0001:00012d30       ??$_Get_unwrapped@V?$_String_iterator@V?$_String_val@U?$_Simple_types@D@std@@@std@@@std@@$0A@@std@@YAPADABV?$_String_iterator@V?$_String_val@U?$_Simple_types@D@std@@@std@@@0@@Z 10013d30 f i c_esp.obj
 0001:00012d40       ??$_Get_unwrapped_n@V?$_String_iterator@V?$_String_val@U?$_Simple_types@D@std@@@std@@@std@@H$0A@@std@@YAPADABV?$_String_iterator@V?$_String_val@U?$_Simple_types@D@std@@@std@@@0@H@Z 10013d40 f i c_esp.obj
 0001:00012d70       ??$_Idl_distance@V?$_String_iterator@V?$_String_val@U?$_Simple_types@D@std@@@std@@@std@@PAD@std@@YAHABQAD0@Z 10013d70 f i c_esp.obj
 0001:00012d80       ??$_Integral_to_string@DH@std@@YA?AV?$basic_string@DU?$char_traits@D@std@@V?$allocator@D@2@@0@H@Z 10013d80 f i c_esp.obj
 0001:00012e30       ??$_Reallocate_grow_by@V<lambda_4d79bb85f269e6e8002a4599002d832c>@@IPBDI@?$basic_string@DU?$char_traits@D@std@@V?$allocator@D@2@@std@@QAEAAV01@IV<lambda_4d79bb85f269e6e8002a4599002d832c>@@IPBDI@Z 10013e30 f i c_esp.obj
 0001:00012f70       ??$_Reallocate_grow_by@V<lambda_ab246b20b9526e2ef7792587e4298a77>@@PBDI@?$basic_string@DU?$char_traits@D@std@@V?$allocator@D@2@@std@@QAEAAV01@IV<lambda_ab246b20b9526e2ef7792587e4298a77>@@PBDI@Z 10013f70 f i c_esp.obj
 0001:000130a0       ??$_Seek_wrapped@V?$_String_iterator@V?$_String_val@U?$_Simple_types@D@std@@@std@@@std@@PAD@std@@YAXAAV?$_String_iterator@V?$_String_val@U?$_Simple_types@D@std@@@std@@@0@ABQAD@Z 100140a0 f i c_esp.obj
 0001:000130c0       ??$_Traits_find@U?$char_traits@D@std@@@std@@YAIQBDII0I@Z 100140c0 f i c_esp.obj
 0001:00013160       ??$_UIntegral_to_buff@DI@std@@YAPADPADI@Z 10014160 f i c_esp.obj
 0001:00013220       ??$clamp@H@std@@YAABHABH00@Z 10014220 f i c_esp.obj
 0001:00013250       ??$clamp@HU?$less@X@std@@@std@@YAABHABH00U?$less@X@0@@Z 10014250 f i c_esp.obj
 0001:000132c0       ??$end@D$0BF@@std@@YAPADAAY0BF@D@Z 100142c0 f i c_esp.obj
 0001:000132d0       ??$sprintf_s@$0CAH@@@YAHAAY0CAH@DPBDZZ 100142d0 f i c_esp.obj
 0001:00013300       ??$transform@V?$_String_iterator@V?$_String_val@U?$_Simple_types@D@std@@@std@@@std@@V12@P6AHH@Z@std@@YA?AV?$_String_iterator@V?$_String_val@U?$_Simple_types@D@std@@@std@@@0@V10@0V10@P6AHH@Z@Z 10014300 f i c_esp.obj
 0001:000133b0       ??0?$basic_string@DU?$char_traits@D@std@@V?$allocator@D@2@@std@@QAE@ABV01@@Z 100143b0 f i c_esp.obj
 0001:00013430       ??0Color@@QAE@XZ           10014430 f i c_esp.obj
 0001:00013470       ??0c_esp@@QAE@XZ           10014470 f i c_esp.obj
 0001:000134a0       ??A?$basic_string@DU?$char_traits@D@std@@V?$allocator@D@2@@std@@QAEAADI@Z 100144a0 f i c_esp.obj
 0001:000134d0       ??G?$_String_const_iterator@V?$_String_val@U?$_Simple_types@D@std@@@std@@@std@@QBEHABV01@@Z 100144d0 f i c_esp.obj
 0001:00013500       ??H?$_String_iterator@V?$_String_val@U?$_Simple_types@D@std@@@std@@@std@@QBE?AV01@H@Z 10014500 f i c_esp.obj
 0001:00013530       ??R<lambda_4d79bb85f269e6e8002a4599002d832c>@@QBEXQADQBDII1I@Z 10014530 f i c_esp.obj
 0001:00013590       ??R<lambda_ab246b20b9526e2ef7792587e4298a77>@@QBEXQADQBDI1I@Z 10014590 f i c_esp.obj
 0001:000135f0       ??Y?$_String_const_iterator@V?$_String_val@U?$_Simple_types@D@std@@@std@@@std@@QAEAAV01@H@Z 100145f0 f i c_esp.obj
 0001:00013610       ??Y?$_String_iterator@V?$_String_val@U?$_Simple_types@D@std@@@std@@@std@@QAEAAV01@H@Z 10014610 f i c_esp.obj
 0001:00013630       ?BoundBox@c_esp@@AAEXPAVC_BaseEntity@@@Z 10014630 f   c_esp.obj
 0001:000137a0       ?DrawLine@ISurface@@QAEXHHHH@Z 100147a0 f i c_esp.obj
 0001:000137e0       ?DrawOutlinedRect@ISurface@@QAEXHHHH@Z 100147e0 f i c_esp.obj
 0001:00013820       ?GetAmmo@C_BaseCombatWeapon@@QAEHXZ 10014820 f i c_esp.obj
 0001:000138e0       ?GetCSWpnData_2@C_BaseCombatWeapon@@QAEPAVweapon_info_t@@XZ 100148e0 f i c_esp.obj
 0001:00013910       ?GetName@C_BaseCombatWeapon@@QAE?AV?$basic_string@DU?$char_traits@D@std@@V?$allocator@D@2@@std@@XZ 10014910 f i c_esp.obj
 0001:00013950       ?Line@ISurface@@QAEXHHHHUColor@@@Z 10014950 f i c_esp.obj
 0001:00013990       ?OutlinedRect@ISurface@@QAEXHHHHUColor@@@Z 10014990 f i c_esp.obj
 0001:000139e0       ?Render@c_esp@@QAEXXZ      100149e0 f   c_esp.obj
 0001:00013bd0       ?RenderAmmo@c_esp@@AAEXPAVC_BaseEntity@@@Z 10014bd0 f   c_esp.obj
 0001:00013fe0       ?RenderBox@c_esp@@AAEXXZ   10014fe0 f   c_esp.obj
 0001:00014420       ?RenderHealth@c_esp@@AAEXPAVC_BaseEntity@@@Z 10015420 f   c_esp.obj
 0001:000148b0       ?RenderName@c_esp@@AAEXPAVC_BaseEntity@@H@Z 100158b0 f   c_esp.obj
 0001:00014af0       ?RenderSkeleton@c_esp@@AAEXPAVC_BaseEntity@@@Z 10015af0 f   c_esp.obj
 0001:00015580       ?RenderWeaponName@c_esp@@AAEXPAVC_BaseEntity@@@Z 10016580 f   c_esp.obj
 0001:000159c0       ?_Check_offset@?$_String_val@U?$_Simple_types@_W@std@@@std@@QBEXI@Z 100169c0 f i config_system.obj
 0001:000159c0       ?_Check_offset@?$_String_val@U?$_Simple_types@D@std@@@std@@QBEXI@Z 100169c0 f i c_esp.obj
 0001:000159e0       ?_Clamp_suffix_size@?$_String_val@U?$_Simple_types@D@std@@@std@@QBEIII@Z 100169e0 f i c_esp.obj
 0001:00015a10       ?_Construct@?$basic_string@DU?$char_traits@D@std@@V?$allocator@D@2@@std@@QAEXQAD0Urandom_access_iterator_tag@2@@Z 10016a10 f i c_esp.obj
 0001:00015a50       ?_Construct_lv_contents@?$basic_string@DU?$char_traits@D@std@@V?$allocator@D@2@@std@@QAEXABV12@@Z 10016a50 f i c_esp.obj
 0001:00015b50       ?type@file_status@filesystem@std@@QAEXW4file_type@23@@Z 10016b50 f i config_system.obj
 0001:00015b50       ?_Seek_to@?$_String_const_iterator@V?$_String_val@U?$_Simple_types@D@std@@@std@@@std@@QAEXPBD@Z 10016b50 f i c_esp.obj
 0001:00015b70       ?_Unwrapped@?$_String_iterator@V?$_String_val@U?$_Simple_types@D@std@@@std@@@std@@QBEPADXZ 10016b70 f i c_esp.obj
 0001:00015b90       ?_Xran@?$_String_val@U?$_Simple_types@D@std@@@std@@SAXXZ 10016b90 f i c_esp.obj
 0001:00015b90       ?_Xran@?$_String_val@U?$_Simple_types@_W@std@@@std@@SAXXZ 10016b90 f i config_system.obj
 0001:00015ba0       ?append@?$basic_string@DU?$char_traits@D@std@@V?$allocator@D@2@@std@@QAEAAV12@QBD@Z 10016ba0 f i c_esp.obj
 0001:00015bd0       ?append@?$basic_string@DU?$char_traits@D@std@@V?$allocator@D@2@@std@@QAEAAV12@QBDI@Z 10016bd0 f i c_esp.obj
 0001:00015c70       ?begin@?$basic_string@DU?$char_traits@D@std@@V?$allocator@D@2@@std@@QAE?AV?$_String_iterator@V?$_String_val@U?$_Simple_types@D@std@@@std@@@2@XZ 10016c70 f i c_esp.obj
 0001:00015ce0       ?clean_name@@YA?AV?$basic_string@DU?$char_traits@D@std@@V?$allocator@D@2@@std@@V12@@Z 10016ce0 f   c_esp.obj
 0001:00015e40       ?end@?$basic_string@DU?$char_traits@D@std@@V?$allocator@D@2@@std@@QAE?AV?$_String_iterator@V?$_String_val@U?$_Simple_types@D@std@@@std@@@2@XZ 10016e40 f i c_esp.obj
 0001:00015ec0       ?erase@?$basic_string@DU?$char_traits@D@std@@V?$allocator@D@2@@std@@QAE?AV?$_String_iterator@V?$_String_val@U?$_Simple_types@D@std@@@std@@@2@V?$_String_const_iterator@V?$_String_val@U?$_Simple_types@D@std@@@std@@@2@0@Z 10016ec0 f i c_esp.obj
 0001:00015f40       ?erase@?$basic_string@DU?$char_traits@D@std@@V?$allocator@D@2@@std@@QAE?AV?$_String_iterator@V?$_String_val@U?$_Simple_types@D@std@@@std@@@2@V?$_String_const_iterator@V?$_String_val@U?$_Simple_types@D@std@@@std@@@2@@Z 10016f40 f i c_esp.obj
 0001:00015fa0       ?erase@?$basic_string@DU?$char_traits@D@std@@V?$allocator@D@2@@std@@QAEAAV12@II@Z 10016fa0 f i c_esp.obj
 0001:00016030       ?find@?$basic_string@DU?$char_traits@D@std@@V?$allocator@D@2@@std@@QBEIQBDI@Z 10017030 f i c_esp.obj
 0001:000160c0       ?find@?$char_traits@D@std@@SAPBDQBDIABD@Z 100170c0 f i c_esp.obj
 0001:000160f0       ?insert@?$basic_string@DU?$char_traits@D@std@@V?$allocator@D@2@@std@@QAEAAV12@IQBD@Z 100170f0 f i c_esp.obj
 0001:00016130       ?insert@?$basic_string@DU?$char_traits@D@std@@V?$allocator@D@2@@std@@QAEAAV12@IQBDI@Z 10017130 f i c_esp.obj
 0001:00016250       ?m_iPrimaryReserveAmmoCount@C_BaseCombatWeapon@@QAEHXZ 10017250 f i c_esp.obj
 0001:00016310       ?to_string@std@@YA?AV?$basic_string@DU?$char_traits@D@std@@V?$allocator@D@2@@1@H@Z 10017310 f i c_esp.obj
 0001:00016340       ??A?$ImVector@UImDrawCmd@@@@QBEABUImDrawCmd@@H@Z 10017340 f i imgui_impl_dx9.obj
 0001:00016340       ??A?$ImVector@UImDrawCmd@@@@QAEAAUImDrawCmd@@H@Z 10017340 f i imgui_draw.obj
 0001:00016360       ?ImGui_ImplDX9_CreateDeviceObjects@@YA_NXZ 10017360 f   imgui_impl_dx9.obj
 0001:000164b0       ?ImGui_ImplDX9_Init@@YA_NPAXPAUIDirect3DDevice9@@@Z 100174b0 f   imgui_impl_dx9.obj
 0001:00016690       ?ImGui_ImplDX9_InvalidateDeviceObjects@@YAXXZ 10017690 f   imgui_impl_dx9.obj
 0001:00016730       ?ImGui_ImplDX9_NewFrame@@YAXXZ 10017730 f   imgui_impl_dx9.obj
 0001:000168d0       ?ImGui_ImplDX9_RenderDrawLists@@YAXPAUImDrawData@@@Z 100178d0 f   imgui_impl_dx9.obj
 0001:00017500       ?ImGui_ImplDX9_WndProcHandler@@YAJPAUHWND__@@IIJ@Z 10018500 f   imgui_impl_dx9.obj
 0001:00017740       ??$_Pocma@V?$allocator@_W@std@@@std@@YAXAAV?$allocator@_W@0@0@Z 10018740 f i config_system.obj
 0001:00017740       ??$_Pocma@V?$allocator@D@std@@@std@@YAXAAV?$allocator@D@0@0@Z 10018740 f i imgui.obj
 0001:00017760       ??$_Pocma@V?$allocator@D@std@@@std@@YAXAAV?$allocator@D@0@0U?$integral_constant@_N$00@0@@Z 10018760 f i imgui.obj
 0001:00017760       ??$_Pocma@V?$allocator@_W@std@@@std@@YAXAAV?$allocator@_W@0@0U?$integral_constant@_N$00@0@@Z 10018760 f i config_system.obj
 0001:00017780       ??$duration_cast@V?$duration@_JU?$ratio@$00$0DOI@@std@@@chrono@std@@_JU?$ratio@$00$0JIJGIA@@3@X@chrono@std@@YA?AV?$duration@_JU?$ratio@$00$0DOI@@std@@@01@ABV?$duration@_JU?$ratio@$00$0JIJGIA@@std@@@01@@Z 10018780 f i imgui.obj
 0001:00017890       ??$nigga@H@@YAHHHH@Z       10018890 f i imgui.obj
 0001:000178c0       ??0?$ImVector@M@@QAE@XZ    100188c0 f i imgui.obj
 0001:000178c0       ??0?$ImVector@UImGuiIniData@@@@QAE@XZ 100188c0 f i imgui.obj
 0001:000178c0       ??0?$ImVector@UCustomRect@ImFontAtlas@@@@QAE@XZ 100188c0 f i imgui_draw.obj
 0001:000178c0       ??0?$ImVector@UImFontConfig@@@@QAE@XZ 100188c0 f i imgui_draw.obj
 0001:000178c0       ??0?$ImVector@UImVec4@@@@QAE@XZ 100188c0 f i imgui.obj
 0001:000178c0       ??0?$ImVector@Ustbrp_rect@@@@QAE@XZ 100188c0 f i imgui_draw.obj
 0001:000178c0       ??0?$ImVector@I@@QAE@XZ    100188c0 f i imgui.obj
 0001:000178c0       ??0?$ImVector@PAX@@QAE@XZ  100188c0 f i imgui.obj
 0001:000178c0       ??0?$ImVector@UImDrawChannel@@@@QAE@XZ 100188c0 f i imgui.obj
 0001:000178c0       ??0?$ImVector@PAUImFont@@@@QAE@XZ 100188c0 f i imgui.obj
 0001:000178c0       ??0?$ImVector@UImGuiGroupData@@@@QAE@XZ 100188c0 f i imgui.obj
 0001:000178c0       ??0?$ImVector@D@@QAE@XZ    100188c0 f i imgui.obj
 0001:000178c0       ??0?$ImVector@UImGuiPopupRef@@@@QAE@XZ 100188c0 f i imgui.obj
 0001:000178c0       ??0?$ImVector@_N@@QAE@XZ   100188c0 f i imgui.obj
 0001:000178c0       ??0?$ImVector@UPair@ImGuiStorage@@@@QAE@XZ 100188c0 f i imgui.obj
 0001:000178c0       ??0?$ImVector@G@@QAE@XZ    100188c0 f i imgui.obj
 0001:000178c0       ??0?$ImVector@PAUImGuiWindow@@@@QAE@XZ 100188c0 f i imgui.obj
 0001:000178c0       ??0?$ImVector@PAUImDrawList@@@@QAE@XZ 100188c0 f i imgui.obj
 0001:000178c0       ??0?$ImVector@UImGuiColumnData@@@@QAE@XZ 100188c0 f i imgui.obj
 0001:000178c0       ??0?$ImVector@UImVec2@@@@QAE@XZ 100188c0 f i imgui.obj
 0001:000178c0       ??0?$ImVector@UImGuiStyleMod@@@@QAE@XZ 100188c0 f i imgui.obj
 0001:000178c0       ??0?$ImVector@UImDrawCmd@@@@QAE@XZ 100188c0 f i imgui.obj
 0001:000178c0       ??0?$ImVector@UGlyph@ImFont@@@@QAE@XZ 100188c0 f i imgui_draw.obj
 0001:000178c0       ??0?$ImVector@UImDrawVert@@@@QAE@XZ 100188c0 f i imgui.obj
 0001:000178c0       ??0?$ImVector@UImGuiColMod@@@@QAE@XZ 100188c0 f i imgui.obj
 0001:000178f0       ??0ImColor@@QAE@HHHH@Z     100188f0 f i imgui.obj
 0001:00017960       ??0ImColor@@QAE@MMMM@Z     10018960 f i imgui.obj
 0001:000179b0       ??0ImDrawData@@QAE@XZ      100189b0 f i imgui.obj
 0001:000179f0       ??0ImDrawList@@QAE@XZ      100189f0 f i imgui.obj
 0001:00017ab0       ??0ImGuiColMod@@QAE@XZ     10018ab0 f i imgui.obj
 0001:00017ad0       ??0ImGuiContext@@QAE@XZ    10018ad0 f i imgui.obj
 0001:00018190       ??0ImGuiDrawContext@@QAE@XZ 10019190 f i imgui.obj
 0001:000184a0       ??0ImGuiIO@@QAE@XZ         100194a0 f   imgui.obj
 0001:000187f0       ??0ImGuiListClipper@@QAE@HM@Z 100197f0 f i imgui.obj
 0001:00018820       ??0ImGuiMouseCursorData@@QAE@XZ 10019820 f i imgui.obj
 0001:00018870       ??0ImGuiPopupRef@@QAE@IPAUImGuiWindow@@IABUImVec2@@@Z 10019870 f i imgui.obj
 0001:000188c0       ??0ImGuiSimpleColumns@@QAE@XZ 100198c0 f   imgui.obj
 0001:00018940       ??0ImGuiSizeConstraintCallbackData@@QAE@XZ 10019940 f i imgui.obj
 0001:00018970       ??0ImGuiStorage@@QAE@XZ    10019970 f i imgui.obj
 0001:000189b0       ??0ImGuiStyle@@QAE@XZ      100199b0 f   imgui.obj
 0001:00019e80       ??0ImGuiStyleMod@@QAE@HM@Z 1001ae80 f i imgui.obj
 0001:00019eb0       ??0ImGuiStyleMod@@QAE@HUImVec2@@@Z 1001aeb0 f i imgui.obj
 0001:00019f00       ??0ImGuiTextBuffer@@QAE@XZ 1001af00 f i imgui.obj
 0001:00019f70       ??0ImGuiTextEditState@@QAE@XZ 1001af70 f i imgui.obj
 0001:00019ff0       ??0ImGuiWindow@@QAE@PBD@Z  1001aff0 f   imgui.obj
 0001:0001a520       ??0ImRect@@QAE@ABUImVec2@@0@Z 1001b520 f i imgui.obj
 0001:0001a560       ??0ImRect@@QAE@ABUImVec4@@@Z 1001b560 f i imgui.obj
 0001:0001a5d0       ??0ImRect@@QAE@MMMM@Z      1001b5d0 f i imgui.obj
 0001:0001a630       ??0ImRect@@QAE@XZ          1001b630 f i imgui.obj
 0001:0001a6a0       ??0ImVec2@@QAE@XZ          1001b6a0 f i imgui.obj
 0001:0001a6d0       ??0ImVec4@@QAE@MMMM@Z      1001b6d0 f i imgui.obj
 0001:0001a720       ??0ImVec4@@QAE@XZ          1001b720 f i imgui.obj
 0001:0001a760       ??0Pair@ImGuiStorage@@QAE@IM@Z 1001b760 f i imgui.obj
 0001:0001a790       ??1?$ImVector@UImDrawCmd@@@@QAE@XZ 1001b790 f i imgui.obj
 0001:0001a790       ??1?$ImVector@UImGuiColMod@@@@QAE@XZ 1001b790 f i imgui.obj
 0001:0001a790       ??1?$ImVector@UImGuiIniData@@@@QAE@XZ 1001b790 f i imgui.obj
 0001:0001a790       ??1?$ImVector@UImVec2@@@@QAE@XZ 1001b790 f i imgui.obj
 0001:0001a790       ??1?$ImVector@UImFontConfig@@@@QAE@XZ 1001b790 f i imgui_draw.obj
 0001:0001a790       ??1?$ImVector@I@@QAE@XZ    1001b790 f i imgui.obj
 0001:0001a790       ??1?$ImVector@UImGuiGroupData@@@@QAE@XZ 1001b790 f i imgui.obj
 0001:0001a790       ??1?$ImVector@UImGuiColumnData@@@@QAE@XZ 1001b790 f i imgui.obj
 0001:0001a790       ??1?$ImVector@UImGuiPopupRef@@@@QAE@XZ 1001b790 f i imgui.obj
 0001:0001a790       ??1?$ImVector@G@@QAE@XZ    1001b790 f i imgui.obj
 0001:0001a790       ??1?$ImVector@UImVec4@@@@QAE@XZ 1001b790 f i imgui.obj
 0001:0001a790       ??1?$ImVector@UImGuiStyleMod@@@@QAE@XZ 1001b790 f i imgui.obj
 0001:0001a790       ??1?$ImVector@_N@@QAE@XZ   1001b790 f i imgui.obj
 0001:0001a790       ??1?$ImVector@UImDrawVert@@@@QAE@XZ 1001b790 f i imgui.obj
 0001:0001a790       ??1?$ImVector@UPair@ImGuiStorage@@@@QAE@XZ 1001b790 f i imgui.obj
 0001:0001a790       ??1?$ImVector@UCustomRect@ImFontAtlas@@@@QAE@XZ 1001b790 f i imgui_draw.obj
 0001:0001a790       ??1?$ImVector@PAUImFont@@@@QAE@XZ 1001b790 f i imgui.obj
 0001:0001a790       ??1?$ImVector@Ustbrp_rect@@@@QAE@XZ 1001b790 f i imgui_draw.obj
 0001:0001a790       ??1?$ImVector@PAUImDrawList@@@@QAE@XZ 1001b790 f i imgui.obj
 0001:0001a790       ??1?$ImVector@PAUImGuiWindow@@@@QAE@XZ 1001b790 f i imgui.obj
 0001:0001a790       ??1?$ImVector@M@@QAE@XZ    1001b790 f i imgui.obj
 0001:0001a790       ??1?$ImVector@UImDrawChannel@@@@QAE@XZ 1001b790 f i imgui.obj
 0001:0001a790       ??1?$ImVector@UGlyph@ImFont@@@@QAE@XZ 1001b790 f i imgui_draw.obj
 0001:0001a790       ??1?$ImVector@PAX@@QAE@XZ  1001b790 f i imgui.obj
 0001:0001a790       ??1?$ImVector@D@@QAE@XZ    1001b790 f i imgui.obj
 0001:0001a7e0       ??1ImDrawList@@QAE@XZ      1001b7e0 f i imgui.obj
 0001:0001a870       ??1ImGuiContext@@QAE@XZ    1001b870 f i imgui.obj
 0001:0001a980       ??1ImGuiDrawContext@@QAE@XZ 1001b980 f i imgui.obj
 0001:0001a9f0       ??1ImGuiStorage@@QAE@XZ    1001b9f0 f i imgui.obj
 0001:0001aa10       ??1ImGuiTextEditState@@QAE@XZ 1001ba10 f i imgui.obj
 0001:0001aa40       ??2@YAPAXIUImPlacementNewDummy@@PAX@Z 1001ba40 f i imgui.obj
 0001:0001aa50       ??4?$basic_string@DU?$char_traits@D@std@@V?$allocator@D@2@@std@@QAEAAV01@$$QAV01@@Z 1001ba50 f i imgui.obj
 0001:0001aaf0       ??A?$ImVector@D@@QAEAADH@Z 1001baf0 f i imgui.obj
 0001:0001ab10       ??A?$ImVector@G@@QBEABGH@Z 1001bb10 f i imgui.obj
 0001:0001ab10       ??A?$ImVector@G@@QAEAAGH@Z 1001bb10 f i imgui.obj
 0001:0001ab30       ??A?$ImVector@PAUImDrawList@@@@QAEAAPAUImDrawList@@H@Z 1001bb30 f i imgui.obj
 0001:0001ab30       ??A?$ImVector@M@@QBEABMH@Z 1001bb30 f i imgui.obj
 0001:0001ab30       ??A?$ImVector@PAUImFont@@@@QAEAAPAUImFont@@H@Z 1001bb30 f i imgui.obj
 0001:0001ab30       ??A?$ImVector@PAUImGuiWindow@@@@QAEAAPAUImGuiWindow@@H@Z 1001bb30 f i imgui.obj
 0001:0001ab30       ??A?$ImVector@M@@QAEAAMH@Z 1001bb30 f i imgui_draw.obj
 0001:0001ab50       ??A?$ImVector@UImGuiColumnData@@@@QAEAAUImGuiColumnData@@H@Z 1001bb50 f i imgui.obj
 0001:0001ab70       ??A?$ImVector@UImGuiIniData@@@@QAEAAUImGuiIniData@@H@Z 1001bb70 f i imgui.obj
 0001:0001ab90       ??A?$ImVector@UImGuiPopupRef@@@@QAEAAUImGuiPopupRef@@H@Z 1001bb90 f i imgui.obj
 0001:0001ab90       ??A?$ImVector@UImDrawChannel@@@@QAEAAUImDrawChannel@@H@Z 1001bb90 f i imgui_draw.obj
 0001:0001abb0       ??BImColor@@QBEIXZ         1001bbb0 f i imgui.obj
 0001:0001b230       ?Add@ImRect@@QAEXABU1@@Z   1001c230 f i imgui.obj
 0001:0001b350       ?AddInputCharacter@ImGuiIO@@QAEXG@Z 1001c350 f   imgui.obj
 0001:0001b790       ?Begin@ImGui@@YA_NPBDPA_NABUImVec2@@MH@Z 1001c790 f   imgui.obj
 0001:0001ef10       ?Begin@ImGui@@YA_NPBDPA_NH@Z 1001ff10 f   imgui.obj
 0001:0001ef60       ?Begin@ImGuiListClipper@@QAEXHM@Z 1001ff60 f   imgui.obj
 0001:0001f030       ?BeginChild@ImGui@@YA_NIABUImVec2@@_NH@Z 10020030 f   imgui.obj
 0001:0001f050       ?BeginChild@ImGui@@YA_NPBDABUImVec2@@_NH@Z 10020050 f   imgui.obj
 0001:0001f350       ?BeginChildFrame@ImGui@@YA_NIABUImVec2@@H@Z 10020350 f   imgui.obj
 0001:0001f400       ?BeginColumns@ImGui@@YAXPBDHH@Z 10020400 f   imgui.obj
 0001:0001f890       ?BeginGroup@ImGui@@YAXXZ   10020890 f   imgui.obj
 0001:0001f9f0       ?BeginPopup@ImGui@@YA_NPBD@Z 100209f0 f   imgui.obj
 0001:0001fb60       ?Button@ImGui@@YA_NPBDABUImVec2@@@Z 10020b60 f   imgui.obj
 0001:0001fb80       ?ButtonBehavior@ImGui@@YA_NABUImRect@@IPA_N1H@Z 10020b80 f   imgui.obj
 0001:0001fe90       ?ButtonEx@ImGui@@YA_NPBDABUImVec2@@H@Z 10020e90 f   imgui.obj
 0001:00020110       ?ButtonExT@ImGui@@YA_NPBDABUImVec2@@HHH_NUImColor@@@Z 10021110 f   imgui.obj
 0001:000205e0       ?ButtonT@ImGui@@YA_NPBDABUImVec2@@HHUImColor@@_N@Z 100215e0 f   imgui.obj
 0001:00020620       ?CalcFontSize@ImGuiWindow@@QBEMXZ 10021620 f i imgui.obj
 0001:00020650       ?CalcItemSize@ImGui@@YA?AUImVec2@@U2@MM@Z 10021650 f   imgui.obj
 0001:000207c0       ?CalcItemWidth@ImGui@@YAMXZ 100217c0 f   imgui.obj
 0001:00020840       ?CalcListClipping@ImGui@@YAXHMPAH0@Z 10021840 f   imgui.obj
 0001:00020930       ?CalcTextSize@ImGui@@YA?AUImVec2@@PBD0_NM@Z 10021930 f   imgui.obj
 0001:00020a60       ?CalcWrapWidthForPos@ImGui@@YAMABUImVec2@@M@Z 10021a60 f   imgui.obj
 0001:00020c20       ?Checkbox@ImGui@@YA_NPBDPA_N@Z 10021c20 f   imgui.obj
 0001:00021500       ?CheckboxFlags@ImGui@@YA_NPBDPAII@Z 10022500 f   imgui.obj
 0001:00021610       ?ClearActiveID@ImGui@@YAXXZ 10022610 f   imgui.obj
 0001:00021630       ?ClearSelection@ImGuiTextEditState@@QAEXXZ 10022630 f i imgui.obj
 0001:000216c0       ?ClipWith@ImRect@@QAEXABU1@@Z 100226c0 f i imgui.obj
 0001:00021740       ?CloseButton@ImGui@@YA_NIABUImVec2@@M@Z 10022740 f   imgui.obj
 0001:00021a50       ?CloseCurrentPopup@ImGui@@YAXXZ 10022a50 f   imgui.obj
 0001:00021d50       ?ColorButton@ImGui@@YA_NPBDABUImVec4@@HUImVec2@@@Z 10022d50 f   imgui.obj
 0001:00022470       ?ColorConvertFloat4ToU32@ImGui@@YAIABUImVec4@@@Z 10023470 f   imgui.obj
 0001:00022570       ?ColorConvertHSVtoRGB@ImGui@@YAXMMMAAM00@Z 10023570 f   imgui.obj
 0001:00022780       ?ColorConvertRGBtoHSV@ImGui@@YAXMMMAAM00@Z 10023780 f   imgui.obj
 0001:000228a0       ?ColorEdit4@ImGui@@YA_NPBDQAMH@Z 100238a0 f   imgui.obj
 0001:00023940       ?ColorPicker4@ImGui@@YA_NPBDQAMHPBM@Z 10024940 f   imgui.obj
 0001:00024f50       ?Columns@ImGui@@YAXHPBD_N@Z 10025f50 f   imgui.obj
 0001:00024fc0       ?Combo@ImGui@@YA_NPBDPAHP6A_NPAXHPAPBD@Z2HH@Z 10025fc0 f   imgui.obj
 0001:000259b0       ?Combo@ImGui@@YA_NPBDPAHPBQBDHH@Z 100269b0 f   imgui.obj
 0001:000259e0       ?Contains@ImRect@@QBE_NABUImVec2@@@Z 100269e0 f i imgui.obj
 0001:00025a50       ?CreateContext@ImGui@@YAPAUImGuiContext@@P6APAXI@ZP6AXPAX@Z@Z 10026a50 f   imgui.obj
 0001:00025ec0       ?CursorAnimReset@ImGuiTextEditState@@QAEXXZ 10026ec0 f i imgui.obj
 0001:00025ee0       ?CursorClamp@ImGuiTextEditState@@QAEXXZ 10026ee0 f i imgui.obj
 0001:00026310       ?DragBehavior@ImGui@@YA_NABUImRect@@IPAMMMMHM@Z 10027310 f   imgui.obj
 0001:000267b0       ?DragFloat@ImGui@@YA_NPBDPAMMMM0M@Z 100277b0 f   imgui.obj
 0001:00026c20       ?DragInt@ImGui@@YA_NPBDPAHMHH0@Z 10027c20 f   imgui.obj
 0001:00026ca0       ?Dummy@ImGui@@YAXABUImVec2@@@Z 10027ca0 f   imgui.obj
 0001:00026d20       ?End@ImGui@@YAXXZ          10027d20 f   imgui.obj
 0001:00026de0       ?End@ImGuiListClipper@@QAEXXZ 10027de0 f   imgui.obj
 0001:00026e50       ?EndChild@ImGui@@YAX_N@Z   10027e50 f   imgui.obj
 0001:00027b90       ?EndChildFrame@ImGui@@YAXXZ 10028b90 f   imgui.obj
 0001:00027bc0       ?EndColumns@ImGui@@YAXXZ   10028bc0 f   imgui.obj
 0001:00027fc0       ?EndFrame@ImGui@@YAXXZ     10028fc0 f   imgui.obj
 0001:000282b0       ?EndGroup@ImGui@@YAXXZ     100292b0 f   imgui.obj
 0001:000284f0       ?EndPopup@ImGui@@YAXXZ     100294f0 f   imgui.obj
 0001:00028520       ?Expand@ImRect@@QAEXABUImVec2@@@Z 10029520 f i imgui.obj
 0001:00028a70       ?FindRenderedTextEnd@ImGui@@YAPBDPBD0@Z 10029a70 f   imgui.obj
 0001:00028ae0       ?FindWindowByName@ImGui@@YAPAUImGuiWindow@@PBD@Z 10029ae0 f   imgui.obj
 0001:00028bf0       ?FocusWindow@ImGui@@YAXPAUImGuiWindow@@@Z 10029bf0 f   imgui.obj
 0001:00028d20       ?FocusableItemRegister@ImGui@@YA_NPAUImGuiWindow@@_N1@Z 10029d20 f   imgui.obj
 0001:00028e40       ?FocusableItemUnregister@ImGui@@YAXPAUImGuiWindow@@@Z 10029e40 f   imgui.obj
 0001:00028e70       ?GetBL@ImRect@@QBE?AUImVec2@@XZ 10029e70 f i imgui.obj
 0001:00028eb0       ?GetBR@ImRect@@QBE?AUImVec2@@XZ 10029eb0 f i imgui.obj
 0001:00028ee0       ?GetCenter@ImRect@@QBE?AUImVec2@@XZ 10029ee0 f i imgui.obj
 0001:00028f40       ?GetCharAdvance@ImFont@@QBEMG@Z 10029f40 f i imgui.obj
 0001:00028f90       ?GetClipboardText@ImGui@@YAPBDXZ 10029f90 f   imgui.obj
 0001:00029110       ?GetColorU32@ImGui@@YAIABUImVec4@@@Z 1002a110 f   imgui.obj
 0001:00029160       ?GetColorU32@ImGui@@YAIHM@Z 1002a160 f   imgui.obj
 0001:000291c0       ?GetColorU32@ImGui@@YAII@Z 1002a1c0 f   imgui.obj
 0001:00029220       ?GetColumnOffset@ImGui@@YAMH@Z 1002a220 f   imgui.obj
 0001:000292a0       ?GetColumnWidth@ImGui@@YAMH@Z 1002a2a0 f   imgui.obj
 0001:00029320       ?GetContentRegionAvail@ImGui@@YA?AUImVec2@@XZ 1002a320 f   imgui.obj
 0001:00029380       ?GetContentRegionMax@ImGui@@YA?AUImVec2@@XZ 1002a380 f   imgui.obj
 0001:000293f0       ?GetCurrentWindow@ImGui@@YAPAUImGuiWindow@@XZ 1002a3f0 f i imgui.obj
 0001:00029420       ?GetCurrentWindowRead@ImGui@@YAPAUImGuiWindow@@XZ 1002a420 f i imgui.obj
 0001:00029440       ?GetCursorPosX@ImGui@@YAMXZ 1002a440 f   imgui.obj
 0001:00029480       ?GetCursorPosY@ImGui@@YAMXZ 1002a480 f   imgui.obj
 0001:000294c0       ?GetCursorScreenPos@ImGui@@YA?AUImVec2@@XZ 1002a4c0 f   imgui.obj
 0001:00029610       ?GetFloat@ImGuiStorage@@QBEMIM@Z 1002a610 f   imgui.obj
 0001:00029660       ?GetFrameCount@ImGui@@YAHXZ 1002a660 f   imgui.obj
 0001:000296e0       ?GetHeight@ImRect@@QBEMXZ  1002a6e0 f i imgui.obj
 0001:00029710       ?GetID@ImGui@@YAIPBD@Z     1002a710 f   imgui.obj
 0001:00029740       ?GetID@ImGuiWindow@@QAEIPBD0@Z 1002a740 f   imgui.obj
 0001:000297b0       ?GetID@ImGuiWindow@@QAEIPBX@Z 1002a7b0 f   imgui.obj
 0001:00029800       ?GetIDNoKeepAlive@ImGuiWindow@@QAEIPBD0@Z 1002a800 f   imgui.obj
 0001:00029860       ?GetIO@ImGui@@YAAAUImGuiIO@@XZ 1002a860 f   imgui.obj
 0001:000298d0       ?GetMouseDragDelta@ImGui@@YA?AUImVec2@@HM@Z 1002a8d0 f   imgui.obj
 0001:00029970       ?GetParentWindow@ImGui@@YAPAUImGuiWindow@@XZ 1002a970 f   imgui.obj
 0001:000299b0       ?GetScrollMaxX@ImGui@@YAMXZ 1002a9b0 f   imgui.obj
 0001:00029a00       ?GetScrollMaxY@ImGui@@YAMXZ 1002aa00 f   imgui.obj
 0001:00029a50       ?GetSize@ImRect@@QBE?AUImVec2@@XZ 1002aa50 f i imgui.obj
 0001:00029aa0       ?GetStyle@ImGui@@YAAAUImGuiStyle@@XZ 1002aaa0 f   imgui.obj
 0001:00029ac0       ?GetTR@ImRect@@QBE?AUImVec2@@XZ 1002aac0 f i imgui.obj
 0001:00029b00       ?GetTextLineHeight@ImGui@@YAMXZ 1002ab00 f   imgui.obj
 0001:00029b20       ?GetTextLineHeightWithSpacing@ImGui@@YAMXZ 1002ab20 f   imgui.obj
 0001:00029b50       ?GetVarPtr@ImGuiStyleVarInfo@@QBEPAXXZ 1002ab50 f i imgui.obj
 0001:00029c10       ?GetWidth@ImRect@@QBEMXZ   1002ac10 f i imgui.obj
 0001:00029c40       ?GetWindowContentRegionMax@ImGui@@YA?AUImVec2@@XZ 1002ac40 f   imgui.obj
 0001:00029c70       ?GetWindowDrawList@ImGui@@YAPAUImDrawList@@XZ 1002ac70 f   imgui.obj
 0001:00029c90       ?GetWindowHeight@ImGui@@YAMXZ 1002ac90 f   imgui.obj
 0001:00029cb0       ?GetWindowPos@ImGui@@YA?AUImVec2@@XZ 1002acb0 f   imgui.obj
 0001:00029cf0       ?GetWindowSize@ImGui@@YA?AUImVec2@@XZ 1002acf0 f   imgui.obj
 0001:00029d20       ?GetWindowWidth@ImGui@@YAMXZ 1002ad20 f   imgui.obj
 0001:00029d40       ?HasSelection@ImGuiTextEditState@@QBE_NXZ 1002ad40 f i imgui.obj
 0001:00029d70       ?Hotkey@ImGui@@YA_NPBDPAHABUImVec2@@@Z 1002ad70 f   imgui.obj
 0001:0002a940       ?ImFileLoadToMemory@@YAPAXPBD0PAHH@Z 1002b940 f   imgui.obj
 0001:0002aa70       ?ImFileOpen@@YAPAU_iobuf@@PBD0@Z 1002ba70 f   imgui.obj
 0001:0002abd0       ?ImFormatString@@YAHPADHPBDZZ 1002bbd0 f   imgui.obj
 0001:0002ac30       ?ImFormatStringV@@YAHPADHPBD0@Z 1002bc30 f   imgui.obj
 0001:0002ac80       ?ImHash@@YAIPBXHI@Z        1002bc80 f   imgui.obj
 0001:0002b0b0       ?ImStrbolW@@YAPBGPBG0@Z    1002c0b0 f   imgui.obj
 0001:0002b0e0       ?ImStrdup@@YAPADPBD@Z      1002c0e0 f   imgui.obj
 0001:0002b140       ?ImStrlenW@@YAHPBG@Z       1002c140 f   imgui.obj
 0001:0002b180       ?ImStrncpy@@YAXPADPBDH@Z   1002c180 f   imgui.obj
 0001:0002b1b0       ?ImTextCharFromUtf8@@YAHPAIPBD1@Z 1002c1b0 f   imgui.obj
 0001:0002b780       ?ImTextCountCharsFromUtf8@@YAHPBD0@Z 1002c780 f   imgui.obj
 0001:0002b850       ?ImTextCountUtf8BytesFromStr@@YAHPBG0@Z 1002c850 f   imgui.obj
 0001:0002b8c0       ?ImTextStrFromUtf8@@YAHPAGHPBD1PAPBD@Z 1002c8c0 f   imgui.obj
 0001:0002b960       ?ImTextStrToUtf8@@YAHPADHPBG1@Z 1002c960 f   imgui.obj
 0001:0002ba70       ?InputScalarAsWidgetReplacement@ImGui@@YA_NABUImRect@@PBDW4ImGuiDataType@@PAXIH@Z 1002ca70 f   imgui.obj
 0001:0002bb90       ?InputText@ImGui@@YA_NPBDPADIHP6AHPAUImGuiTextEditCallbackData@@@ZPAX@Z 1002cb90 f   imgui.obj
 0001:0002be20       ?InputTextEx@ImGui@@YA_NPBDPADHABUImVec2@@HP6AHPAUImGuiTextEditCallbackData@@@ZPAX@Z 1002ce20 f   imgui.obj
 0001:0002ea10       ?InvisibleButton@ImGui@@YA_NPBDABUImVec2@@@Z 1002fa10 f   imgui.obj
 0001:0002eb90       ?IsClippedEx@ImGui@@YA_NABUImRect@@PBI_N@Z 1002fb90 f   imgui.obj
 0001:0002ec00       ?IsHovered@ImGui@@YA_NABUImRect@@I_N@Z 1002fc00 f   imgui.obj
 0001:0002ece0       ?IsItemActive@ImGui@@YA_NXZ 1002fce0 f   imgui.obj
 0001:0002ed40       ?IsItemHovered@ImGui@@YA_NXZ 1002fd40 f   imgui.obj
 0001:0002ed60       ?IsKeyPressed@ImGui@@YA_NH_N@Z 1002fd60 f   imgui.obj
 0001:0002eed0       ?IsMouseClicked@ImGui@@YA_NH_N@Z 1002fed0 f   imgui.obj
 0001:0002f000       ?IsMouseHoveringRect@ImGui@@YA_NABUImVec2@@0_N@Z 10030000 f   imgui.obj
 0001:0002f0a0       ?IsPopupOpen@ImGui@@YA_NI@Z 100300a0 f   imgui.obj
 0001:0002f170       ?ItemAdd@ImGui@@YA_NABUImRect@@PBI@Z 10030170 f   imgui.obj
 0001:0002f2a0       ?ItemSize@ImGui@@YAXABUImRect@@M@Z 100302a0 f   imgui.obj
 0001:0002f2d0       ?ItemSize@ImGui@@YAXABUImVec2@@M@Z 100302d0 f   imgui.obj
 0001:0002f4e0       ?KeepAliveID@ImGui@@YAXI@Z 100304e0 f   imgui.obj
 0001:0002f510       ?ListBox@ImGui@@YA_NPBDPAHP6A_NPAXHPAPBD@Z2HH@Z 10030510 f   imgui.obj
 0001:0002f6d0       ?ListBoxFooter@ImGui@@YAXXZ 100306d0 f   imgui.obj
 0001:0002f770       ?ListBoxHeader@ImGui@@YA_NPBDABUImVec2@@@Z 10030770 f   imgui.obj
 0001:0002fa20       ?ListBoxHeader@ImGui@@YA_NPBDHH@Z 10030a20 f   imgui.obj
 0001:0002fd10       ?LogFinish@ImGui@@YAXXZ    10030d10 f   imgui.obj
 0001:0002ff80       ?LogText@ImGui@@YAXPBDZZ   10030f80 f   imgui.obj
 0001:000300c0       ?MemAlloc@ImGui@@YAPAXI@Z  100310c0 f   imgui.obj
 0001:00030100       ?MemFree@ImGui@@YAXPAX@Z   10031100 f   imgui.obj
 0001:00030140       ?MenuBarHeight@ImGuiWindow@@QBEMXZ 10031140 f i imgui.obj
 0001:000301a0       ?MenuBarRect@ImGuiWindow@@QBE?AUImRect@@XZ 100311a0 f i imgui.obj
 0001:00030240       ?NewFrame@ImGui@@YAXXZ     10031240 f   imgui.obj
 0001:00031410       ?NextColumn@ImGui@@YAXXZ   10032410 f   imgui.obj
 0001:00031610       ?OnKeyPressed@ImGuiTextEditState@@QAEXH@Z 10032610 f   imgui.obj
 0001:00031650       ?OpenPopup@ImGui@@YAXPBD@Z 10032650 f   imgui.obj
 0001:00031690       ?OpenPopupEx@ImGui@@YAXI_N@Z 10032690 f   imgui.obj
 0001:000317d0       ?Overlaps@ImRect@@QBE_NABU1@@Z 100327d0 f i imgui.obj
 0001:00031840       ?ParseFormatPrecision@ImGui@@YAHPBDH@Z 10032840 f   imgui.obj
 0001:000318f0       ?PathClear@ImDrawList@@QAEXXZ 100328f0 f i imgui.obj
 0001:00031910       ?PathFillConvex@ImDrawList@@QAEXI@Z 10032910 f i imgui.obj
 0001:00031950       ?PathLineTo@ImDrawList@@QAEXABUImVec2@@@Z 10032950 f i imgui.obj
 0001:00031980       ?PathStroke@ImDrawList@@QAEXI_NM@Z 10032980 f i imgui.obj
 0001:00031a10       ?PopClipRect@ImGui@@YAXXZ  10032a10 f   imgui.obj
 0001:00031a70       ?PopFont@ImGui@@YAXXZ      10032a70 f   imgui.obj
 0001:00031af0       ?PopID@ImGui@@YAXXZ        10032af0 f   imgui.obj
 0001:00031b10       ?PopItemWidth@ImGui@@YAXXZ 10032b10 f   imgui.obj
 0001:00031b80       ?PopStyleColor@ImGui@@YAXH@Z 10032b80 f   imgui.obj
 0001:00031bf0       ?PopStyleVar@ImGui@@YAXH@Z 10032bf0 f   imgui.obj
 0001:00031d20       ?PushClipRect@ImGui@@YAXABUImVec2@@0_N@Z 10032d20 f   imgui.obj
 0001:00031da0       ?PushColumnClipRect@ImGui@@YAXH@Z 10032da0 f   imgui.obj
 0001:00031e20       ?PushFont@ImGui@@YAXPAUImFont@@@Z 10032e20 f   imgui.obj
 0001:00031e90       ?PushID@ImGui@@YAXH@Z      10032e90 f   imgui.obj
 0001:00031ed0       ?PushID@ImGui@@YAXPBD@Z    10032ed0 f   imgui.obj
 0001:00031f10       ?PushID@ImGui@@YAXPBX@Z    10032f10 f   imgui.obj
 0001:00031f50       ?PushItemWidth@ImGui@@YAXM@Z 10032f50 f   imgui.obj
 0001:00031fc0       ?PushStyleColor@ImGui@@YAXHABUImVec4@@@Z 10032fc0 f   imgui.obj
 0001:00032050       ?PushStyleVar@ImGui@@YAXHABUImVec2@@@Z 10033050 f   imgui.obj
 0001:000320c0       ?PushStyleVar@ImGui@@YAXHM@Z 100330c0 f   imgui.obj
 0001:00032130       ?RadioButton@ImGui@@YA_NPBD_N@Z 10033130 f   imgui.obj
 0001:00032720       ?Rect@ImGuiWindow@@QBE?AUImRect@@XZ 10033720 f i imgui.obj
 0001:00032780       ?Render@ImGui@@YAXXZ       10033780 f   imgui.obj
 0001:00032e40       ?RenderCollapseTriangle@ImGui@@YAXUImVec2@@_NM@Z 10033e40 f   imgui.obj
 0001:00033190       ?RenderColorRectWithAlphaCheckerboard@ImGui@@YAXUImVec2@@0IM0MH@Z 10034190 f   imgui.obj
 0001:000334b0       ?RenderFrame@ImGui@@YAXUImVec2@@0I_NM@Z 100344b0 f   imgui.obj
 0001:00033630       ?RenderFrameBorder@ImGui@@YAXUImVec2@@0M@Z 10034630 f   imgui.obj
 0001:00033770       ?RenderText@ImGui@@YAXUImVec2@@PBD1_N@Z 10034770 f   imgui.obj
 0001:00033960       ?RenderTextClipped@ImGui@@YAXABUImVec2@@0PBD1PBU2@0PBUImRect@@@Z 10034960 f   imgui.obj
 0001:00033e70       ?RenderTextWrapped@ImGui@@YAXUImVec2@@PBD1M@Z 10034e70 f   imgui.obj
 0001:00033f70       ?RoundScalar@ImGui@@YAMMH@Z 10034f70 f   imgui.obj
 0001:00034430       ?SameLine@ImGui@@YAXMM@Z   10035430 f   imgui.obj
 0001:00035280       ?SelectAll@ImGuiTextEditState@@QAEXXZ 10036280 f i imgui.obj
 0001:000352c0       ?Selectable@ImGui@@YA_NPBD_NHABUImVec2@@@Z 100362c0 f   imgui.obj
 0001:00035890       ?SelectableMeme@ImGui@@YA_NPBD_NHABUImVec2@@@Z 10036890 f   imgui.obj
 0001:00035e20       ?Separator@ImGui@@YAXXZ    10036e20 f   imgui.obj
 0001:00036020       ?SetActiveID@ImGui@@YAXIPAUImGuiWindow@@@Z 10037020 f   imgui.obj
 0001:00036070       ?SetClipboardText@ImGui@@YAXPBD@Z 10037070 f   imgui.obj
 0001:00036140       ?SetColumnOffset@ImGui@@YAXHM@Z 10037140 f   imgui.obj
 0001:000363d0       ?SetCursorPosX@ImGui@@YAXM@Z 100373d0 f   imgui.obj
 0001:00036440       ?SetCursorPosY@ImGui@@YAXM@Z 10037440 f   imgui.obj
 0001:00036530       ?SetCursorScreenPos@ImGui@@YAXABUImVec2@@@Z 10037530 f   imgui.obj
 0001:00036590       ?SetFloat@ImGuiStorage@@QAEXIM@Z 10037590 f   imgui.obj
 0001:00036610       ?SetHoveredID@ImGui@@YAXI@Z 10037610 f   imgui.obj
 0001:00036640       ?SetNextWindowPos@ImGui@@YAXABUImVec2@@H@Z 10037640 f   imgui.obj
 0001:00036690       ?SetNextWindowSize@ImGui@@YAXABUImVec2@@H@Z 10037690 f   imgui.obj
 0001:000366e0       ?SetScrollFromPosY@ImGui@@YAXMM@Z 100376e0 f   imgui.obj
 0001:00036740       ?SetScrollHere@ImGui@@YAXM@Z 10037740 f   imgui.obj
 0001:00036810       ?SetWindowFocus@ImGui@@YAXXZ 10037810 f   imgui.obj
 0001:00036a30       ?SliderBehavior@ImGui@@YA_NABUImRect@@IPBDPAMMMMHH@Z 10037a30 f   imgui.obj
 0001:00037b30       ?SliderFloat@ImGui@@YA_NPBDPAMMM0M@Z 10038b30 f   imgui.obj
 0001:00037fd0       ?SliderInt@ImGui@@YA_NPBDPAHHH0@Z 10038fd0 f   imgui.obj
 0001:00038040       ?Spacing@ImGui@@YAXXZ      10039040 f   imgui.obj
 0001:00038090       ?Step@ImGuiListClipper@@QAE_NXZ 10039090 f   imgui.obj
 0001:000381b0       ?Text@ImGui@@YAXPBDZZ      100391b0 f   imgui.obj
 0001:000381e0       ?TextColored@ImGui@@YAXABUImVec4@@PBDZZ 100391e0 f   imgui.obj
 0001:00038210       ?TextColoredV@ImGui@@YAXABUImVec4@@PBDPAD@Z 10039210 f   imgui.obj
 0001:00038240       ?TextUnformatted@ImGui@@YAXPBD0@Z 10039240 f   imgui.obj
 0001:00038750       ?TextV@ImGui@@YAXPBDPAD@Z  10039750 f   imgui.obj
 0001:000387c0       ?TitleBarHeight@ImGuiWindow@@QBEMXZ 100397c0 f i imgui.obj
 0001:00038820       ?TitleBarRect@ImGuiWindow@@QBE?AUImRect@@XZ 10039820 f i imgui.obj
 0001:000388a0       ?Update@ImGuiSimpleColumns@@QAEXHM_N@Z 100398a0 f   imgui.obj
 0001:000389a0       ?_Assign_rv_contents@?$basic_string@DU?$char_traits@D@std@@V?$allocator@D@2@@std@@QAEX$$QAV12@U?$integral_constant@_N$00@2@@Z 100399a0 f i imgui.obj
 0001:000389e0       ?_Move_alloc@?$_String_alloc@U?$_String_base_types@_WV?$allocator@_W@std@@@std@@@std@@QAEXAAV?$allocator@_W@2@@Z 100399e0 f i config_system.obj
 0001:000389e0       ?_Move_alloc@?$_String_alloc@U?$_String_base_types@DV?$allocator@D@std@@@std@@@std@@QAEXAAV?$allocator@D@2@@Z 100399e0 f i imgui.obj
 0001:00038a10       ?_grow_capacity@?$ImVector@UImGuiColMod@@@@QBEHH@Z 10039a10 f i imgui.obj
 0001:00038a10       ?_grow_capacity@?$ImVector@UImDrawChannel@@@@QBEHH@Z 10039a10 f i imgui_draw.obj
 0001:00038a10       ?_grow_capacity@?$ImVector@UImVec4@@@@QBEHH@Z 10039a10 f i imgui_draw.obj
 0001:00038a10       ?_grow_capacity@?$ImVector@Ustbrp_rect@@@@QBEHH@Z 10039a10 f i imgui_draw.obj
 0001:00038a10       ?_grow_capacity@?$ImVector@PAUImDrawList@@@@QBEHH@Z 10039a10 f i imgui.obj
 0001:00038a10       ?_grow_capacity@?$ImVector@D@@QBEHH@Z 10039a10 f i imgui.obj
 0001:00038a10       ?_grow_capacity@?$ImVector@PAUImGuiWindow@@@@QBEHH@Z 10039a10 f i imgui.obj
 0001:00038a10       ?_grow_capacity@?$ImVector@PAX@@QBEHH@Z 10039a10 f i imgui_draw.obj
 0001:00038a10       ?_grow_capacity@?$ImVector@UImGuiPopupRef@@@@QBEHH@Z 10039a10 f i imgui.obj
 0001:00038a10       ?_grow_capacity@?$ImVector@UImDrawCmd@@@@QBEHH@Z 10039a10 f i imgui_draw.obj
 0001:00038a10       ?_grow_capacity@?$ImVector@UImGuiIniData@@@@QBEHH@Z 10039a10 f i imgui.obj
 0001:00038a10       ?_grow_capacity@?$ImVector@UImGuiColumnData@@@@QBEHH@Z 10039a10 f i imgui.obj
 0001:00038a10       ?_grow_capacity@?$ImVector@UImGuiStyleMod@@@@QBEHH@Z 10039a10 f i imgui.obj
 0001:00038a10       ?_grow_capacity@?$ImVector@M@@QBEHH@Z 10039a10 f i imgui.obj
 0001:00038a10       ?_grow_capacity@?$ImVector@G@@QBEHH@Z 10039a10 f i imgui.obj
 0001:00038a10       ?_grow_capacity@?$ImVector@UGlyph@ImFont@@@@QBEHH@Z 10039a10 f i imgui_draw.obj
 0001:00038a10       ?_grow_capacity@?$ImVector@_N@@QBEHH@Z 10039a10 f i imgui.obj
 0001:00038a10       ?_grow_capacity@?$ImVector@UImGuiGroupData@@@@QBEHH@Z 10039a10 f i imgui.obj
 0001:00038a10       ?_grow_capacity@?$ImVector@PAUImFont@@@@QBEHH@Z 10039a10 f i imgui.obj
 0001:00038a10       ?_grow_capacity@?$ImVector@I@@QBEHH@Z 10039a10 f i imgui.obj
 0001:00038a10       ?_grow_capacity@?$ImVector@UImFontConfig@@@@QBEHH@Z 10039a10 f i imgui_draw.obj
 0001:00038a10       ?_grow_capacity@?$ImVector@UCustomRect@ImFontAtlas@@@@QBEHH@Z 10039a10 f i imgui_draw.obj
 0001:00038a10       ?_grow_capacity@?$ImVector@UImDrawVert@@@@QBEHH@Z 10039a10 f i imgui_draw.obj
 0001:00038a10       ?_grow_capacity@?$ImVector@UImVec2@@@@QBEHH@Z 10039a10 f i imgui.obj
 0001:00038a70       ?appendv@ImGuiTextBuffer@@QAEXPBDPAD@Z 10039a70 f   imgui.obj
 0001:00038b40       ?back@?$ImVector@I@@QAEAAIXZ 10039b40 f i imgui.obj
 0001:00038b40       ?back@?$ImVector@PAX@@QAEAAPAXXZ 10039b40 f i imgui_draw.obj
 0001:00038b40       ?back@?$ImVector@PAUImFont@@@@QAEAAPAUImFont@@XZ 10039b40 f i imgui.obj
 0001:00038b40       ?back@?$ImVector@PAUImGuiWindow@@@@QAEAAPAUImGuiWindow@@XZ 10039b40 f i imgui.obj
 0001:00038b40       ?back@?$ImVector@M@@QAEAAMXZ 10039b40 f i imgui.obj
 0001:00038b60       ?back@?$ImVector@UImDrawCmd@@@@QAEAAUImDrawCmd@@XZ 10039b60 f i imgui.obj
 0001:00038b80       ?back@?$ImVector@UImGuiColMod@@@@QAEAAUImGuiColMod@@XZ 10039b80 f i imgui.obj
 0001:00038ba0       ?back@?$ImVector@UGlyph@ImFont@@@@QAEAAUGlyph@ImFont@@XZ 10039ba0 f i imgui_draw.obj
 0001:00038ba0       ?back@?$ImVector@UImGuiGroupData@@@@QAEAAUImGuiGroupData@@XZ 10039ba0 f i imgui.obj
 0001:00038bc0       ?back@?$ImVector@UImGuiIniData@@@@QAEAAUImGuiIniData@@XZ 10039bc0 f i imgui.obj
 0001:00038be0       ?back@?$ImVector@UImGuiStyleMod@@@@QAEAAUImGuiStyleMod@@XZ 10039be0 f i imgui.obj
 0001:00038c00       ?back@?$ImVector@UImVec4@@@@QAEAAUImVec4@@XZ 10039c00 f i imgui.obj
 0001:00038c20       ?begin@?$ImVector@D@@QAEPADXZ 10039c20 f i imgui.obj
 0001:00038c20       ?begin@?$ImVector@UPair@ImGuiStorage@@@@QAEPAUPair@ImGuiStorage@@XZ 10039c20 f i imgui.obj
 0001:00038c20       ?begin@?$ImVector@PAUImGuiWindow@@@@QAEPAPAUImGuiWindow@@XZ 10039c20 f i imgui.obj
 0001:00038c40       ?begin@ImGuiTextBuffer@@QBEPBDXZ 10039c40 f i imgui.obj
 0001:00038c60       ?clear@?$ImVector@UImVec4@@@@QAEXXZ 10039c60 f i imgui_draw.obj
 0001:00038c60       ?clear@?$ImVector@UImDrawCmd@@@@QAEXXZ 10039c60 f i imgui_draw.obj
 0001:00038c60       ?clear@?$ImVector@G@@QAEXXZ 10039c60 f i imgui.obj
 0001:00038c60       ?clear@?$ImVector@UGlyph@ImFont@@@@QAEXXZ 10039c60 f i imgui_draw.obj
 0001:00038c60       ?clear@?$ImVector@PAUImFont@@@@QAEXXZ 10039c60 f i imgui.obj
 0001:00038c60       ?clear@?$ImVector@UImDrawChannel@@@@QAEXXZ 10039c60 f i imgui_draw.obj
 0001:00038c60       ?clear@?$ImVector@UImDrawVert@@@@QAEXXZ 10039c60 f i imgui_draw.obj
 0001:00038c60       ?clear@?$ImVector@M@@QAEXXZ 10039c60 f i imgui_draw.obj
 0001:00038c60       ?clear@?$ImVector@UCustomRect@ImFontAtlas@@@@QAEXXZ 10039c60 f i imgui_draw.obj
 0001:00038c60       ?clear@?$ImVector@PAX@@QAEXXZ 10039c60 f i imgui_draw.obj
 0001:00038c60       ?clear@?$ImVector@UImVec2@@@@QAEXXZ 10039c60 f i imgui_draw.obj
 0001:00038c60       ?clear@?$ImVector@UImFontConfig@@@@QAEXXZ 10039c60 f i imgui_draw.obj
 0001:00038c60       ?clear@?$ImVector@D@@QAEXXZ 10039c60 f i imgui.obj
 0001:00038ca0       ?clear@ImGuiTextBuffer@@QAEXXZ 10039ca0 f i imgui.obj
 0001:00038cd0       ?empty@?$ImVector@PAUImDrawList@@@@QBE_NXZ 10039cd0 f i imgui.obj
 0001:00038cd0       ?empty@?$ImVector@UImFontConfig@@@@QBE_NXZ 10039cd0 f i imgui_draw.obj
 0001:00038cd0       ?empty@?$ImVector@UImGuiGroupData@@@@QBE_NXZ 10039cd0 f i imgui.obj
 0001:00038cd0       ?empty@?$ImVector@M@@QBE_NXZ 10039cd0 f i imgui.obj
 0001:00038cd0       ?empty@?$ImVector@UImDrawVert@@@@QBE_NXZ 10039cd0 f i imgui.obj
 0001:00038cd0       ?empty@?$ImVector@UCustomRect@ImFontAtlas@@@@QBE_NXZ 10039cd0 f i imgui_draw.obj
 0001:00038cd0       ?empty@?$ImVector@PAUImFont@@@@QBE_NXZ 10039cd0 f i imgui.obj
 0001:00038cd0       ?empty@?$ImVector@UImDrawCmd@@@@QBE_NXZ 10039cd0 f i imgui.obj
 0001:00038cd0       ?empty@?$ImVector@UImGuiPopupRef@@@@QBE_NXZ 10039cd0 f i imgui.obj
 0001:00038cd0       ?empty@?$ImVector@PAX@@QBE_NXZ 10039cd0 f i imgui_draw.obj
 0001:00038cd0       ?empty@?$ImVector@PAUImGuiWindow@@@@QBE_NXZ 10039cd0 f i imgui.obj
 0001:00038d00       ?end@?$ImVector@UPair@ImGuiStorage@@@@QAEPAUPair@ImGuiStorage@@XZ 10039d00 f i imgui.obj
 0001:00038d00       ?end@?$ImVector@UPair@ImGuiStorage@@@@QBEPBUPair@ImGuiStorage@@XZ 10039d00 f i imgui.obj
 0001:00038d20       ?erase@?$ImVector@PAUImGuiWindow@@@@QAEPAPAUImGuiWindow@@PBQAU2@@Z 10039d20 f i imgui.obj
 0001:00038d90       ?front@?$ImVector@D@@QBEABDXZ 10039d90 f i imgui.obj
 0001:00038db0       ?insert@?$ImVector@PAUImGuiWindow@@@@QAEPAPAUImGuiWindow@@PBQAU2@ABQAU2@@Z 10039db0 f i imgui.obj
 0001:00038e70       ?insert@?$ImVector@UPair@ImGuiStorage@@@@QAEPAUPair@ImGuiStorage@@PBU23@ABU23@@Z 10039e70 f i imgui.obj
 0001:00039030       ?pop_back@?$ImVector@PAX@@QAEXXZ 1003a030 f i imgui_draw.obj
 0001:00039030       ?pop_back@?$ImVector@UImDrawCmd@@@@QAEXXZ 1003a030 f i imgui.obj
 0001:00039030       ?pop_back@?$ImVector@UImGuiColMod@@@@QAEXXZ 1003a030 f i imgui.obj
 0001:00039030       ?pop_back@?$ImVector@UImGuiPopupRef@@@@QAEXXZ 1003a030 f i imgui.obj
 0001:00039030       ?pop_back@?$ImVector@UImVec4@@@@QAEXXZ 1003a030 f i imgui_draw.obj
 0001:00039030       ?pop_back@?$ImVector@I@@QAEXXZ 1003a030 f i imgui.obj
 0001:00039030       ?pop_back@?$ImVector@PAUImGuiWindow@@@@QAEXXZ 1003a030 f i imgui.obj
 0001:00039030       ?pop_back@?$ImVector@M@@QAEXXZ 1003a030 f i imgui.obj
 0001:00039030       ?pop_back@?$ImVector@UImGuiGroupData@@@@QAEXXZ 1003a030 f i imgui.obj
 0001:00039030       ?pop_back@?$ImVector@PAUImFont@@@@QAEXXZ 1003a030 f i imgui.obj
 0001:00039030       ?pop_back@?$ImVector@UImGuiStyleMod@@@@QAEXXZ 1003a030 f i imgui.obj
 0001:00039050       ?push_back@?$ImVector@D@@QAEXABD@Z 1003a050 f i imgui.obj
 0001:000390b0       ?push_back@?$ImVector@PAX@@QAEXABQAX@Z 1003a0b0 f i imgui_draw.obj
 0001:000390b0       ?push_back@?$ImVector@I@@QAEXABI@Z 1003a0b0 f i imgui.obj
 0001:000390b0       ?push_back@?$ImVector@PAUImDrawList@@@@QAEXABQAUImDrawList@@@Z 1003a0b0 f i imgui.obj
 0001:000390b0       ?push_back@?$ImVector@PAUImGuiWindow@@@@QAEXABQAUImGuiWindow@@@Z 1003a0b0 f i imgui.obj
 0001:000390b0       ?push_back@?$ImVector@M@@QAEXABM@Z 1003a0b0 f i imgui.obj
 0001:000390b0       ?push_back@?$ImVector@PAUImFont@@@@QAEXABQAUImFont@@@Z 1003a0b0 f i imgui.obj
 0001:00039110       ?push_back@?$ImVector@UImGuiColMod@@@@QAEXABUImGuiColMod@@@Z 1003a110 f i imgui.obj
 0001:00039180       ?push_back@?$ImVector@UImGuiPopupRef@@@@QAEXABUImGuiPopupRef@@@Z 1003a180 f i imgui.obj
 0001:00039200       ?push_back@?$ImVector@UCustomRect@ImFontAtlas@@@@QAEXABUCustomRect@ImFontAtlas@@@Z 1003a200 f i imgui_draw.obj
 0001:00039200       ?push_back@?$ImVector@UImGuiStyleMod@@@@QAEXABUImGuiStyleMod@@@Z 1003a200 f i imgui.obj
 0001:00039270       ?push_back@?$ImVector@UImVec2@@@@QAEXABUImVec2@@@Z 1003a270 f i imgui.obj
 0001:000392d0       ?reserve@?$ImVector@_N@@QAEXH@Z 1003a2d0 f i imgui.obj
 0001:000392d0       ?reserve@?$ImVector@D@@QAEXH@Z 1003a2d0 f i imgui.obj
 0001:00039340       ?reserve@?$ImVector@G@@QAEXH@Z 1003a340 f i imgui.obj
 0001:000393c0       ?reserve@?$ImVector@PAUImFont@@@@QAEXH@Z 1003a3c0 f i imgui.obj
 0001:000393c0       ?reserve@?$ImVector@M@@QAEXH@Z 1003a3c0 f i imgui.obj
 0001:000393c0       ?reserve@?$ImVector@PAUImGuiWindow@@@@QAEXH@Z 1003a3c0 f i imgui.obj
 0001:000393c0       ?reserve@?$ImVector@PAX@@QAEXH@Z 1003a3c0 f i imgui_draw.obj
 0001:000393c0       ?reserve@?$ImVector@PAUImDrawList@@@@QAEXH@Z 1003a3c0 f i imgui.obj
 0001:000393c0       ?reserve@?$ImVector@I@@QAEXH@Z 1003a3c0 f i imgui.obj
 0001:00039440       ?reserve@?$ImVector@UImGuiColumnData@@@@QAEXH@Z 1003a440 f i imgui.obj
 0001:00039440       ?reserve@?$ImVector@UImGuiColMod@@@@QAEXH@Z 1003a440 f i imgui.obj
 0001:00039440       ?reserve@?$ImVector@UImDrawVert@@@@QAEXH@Z 1003a440 f i imgui_draw.obj
 0001:000394b0       ?reserve@?$ImVector@UImGuiGroupData@@@@QAEXH@Z 1003a4b0 f i imgui.obj
 0001:000394b0       ?reserve@?$ImVector@UGlyph@ImFont@@@@QAEXH@Z 1003a4b0 f i imgui_draw.obj
 0001:00039520       ?reserve@?$ImVector@UImGuiIniData@@@@QAEXH@Z 1003a520 f i imgui.obj
 0001:00039590       ?reserve@?$ImVector@UImDrawChannel@@@@QAEXH@Z 1003a590 f i imgui_draw.obj
 0001:00039590       ?reserve@?$ImVector@UImGuiPopupRef@@@@QAEXH@Z 1003a590 f i imgui.obj
 0001:00039600       ?reserve@?$ImVector@UCustomRect@ImFontAtlas@@@@QAEXH@Z 1003a600 f i imgui_draw.obj
 0001:00039600       ?reserve@?$ImVector@UImGuiStyleMod@@@@QAEXH@Z 1003a600 f i imgui.obj
 0001:00039670       ?reserve@?$ImVector@UPair@ImGuiStorage@@@@QAEXH@Z 1003a670 f i imgui.obj
 0001:00039670       ?reserve@?$ImVector@UImVec2@@@@QAEXH@Z 1003a670 f i imgui.obj
 0001:000396f0       ?resize@?$ImVector@D@@QAEXH@Z 1003a6f0 f i imgui.obj
 0001:000396f0       ?resize@?$ImVector@_N@@QAEXH@Z 1003a6f0 f i imgui.obj
 0001:00039730       ?resize@?$ImVector@G@@QAEXH@Z 1003a730 f i imgui.obj
 0001:00039770       ?resize@?$ImVector@M@@QAEXH@Z 1003a770 f i imgui.obj
 0001:00039770       ?resize@?$ImVector@PAX@@QAEXH@Z 1003a770 f i imgui_draw.obj
 0001:00039770       ?resize@?$ImVector@PAUImGuiWindow@@@@QAEXH@Z 1003a770 f i imgui.obj
 0001:00039770       ?resize@?$ImVector@I@@QAEXH@Z 1003a770 f i imgui.obj
 0001:00039770       ?resize@?$ImVector@PAUImDrawList@@@@QAEXH@Z 1003a770 f i imgui.obj
 0001:000397b0       ?resize@?$ImVector@UImGuiColumnData@@@@QAEXH@Z 1003a7b0 f i imgui.obj
 0001:000397b0       ?resize@?$ImVector@UImDrawVert@@@@QAEXH@Z 1003a7b0 f i imgui_draw.obj
 0001:000397f0       ?resize@?$ImVector@UGlyph@ImFont@@@@QAEXH@Z 1003a7f0 f i imgui_draw.obj
 0001:000397f0       ?resize@?$ImVector@UImGuiGroupData@@@@QAEXH@Z 1003a7f0 f i imgui.obj
 0001:00039830       ?resize@?$ImVector@UImGuiIniData@@@@QAEXH@Z 1003a830 f i imgui.obj
 0001:00039870       ?resize@?$ImVector@UImDrawChannel@@@@QAEXH@Z 1003a870 f i imgui_draw.obj
 0001:00039870       ?resize@?$ImVector@UImGuiPopupRef@@@@QAEXH@Z 1003a870 f i imgui.obj
 0001:000398b0       ?resize@?$ImVector@UImVec2@@@@QAEXH@Z 1003a8b0 f i imgui.obj
 0001:000398f0       ?size@ImGuiTextBuffer@@QBEHXZ 1003a8f0 f i imgui.obj
 0001:0003b700       ?swap@?$ImVector@PAUImGuiWindow@@@@QAEXAAV1@@Z 1003c700 f i imgui.obj
 0001:0003b770       ___local_stdio_scanf_options 1003c770 f i imgui.obj
 0001:0003b780       __vfprintf_l               1003c780 f i imgui.obj
 0001:0003b7b0       __vsnprintf_l              1003c7b0 f i imgui.obj
 0001:0003b810       __vsscanf_l                1003c810 f i imgui.obj
 0001:0003b840       _fmodf                     1003c840 f i imgui.obj
 0001:0003b880       _fprintf                   1003c880 f i imgui.obj
 0001:0003b8c0       _powf                      1003c8c0 f i imgui.obj
 0001:0003b8f0       _sscanf                    1003c8f0 f i imgui.obj
 0001:0003b930       _vfprintf                  1003c930 f i imgui.obj
 0001:0003b950       _vsnprintf                 1003c950 f i imgui.obj
 0001:0003b9a0       ??0CustomRect@ImFontAtlas@@QAE@XZ 1003c9a0 f i imgui_draw.obj
 0001:0003b9f0       ??0ImDrawChannel@@QAE@XZ   1003c9f0 f i imgui_draw.obj
 0001:0003ba50       ??0ImDrawCmd@@QAE@XZ       1003ca50 f i imgui_draw.obj
 0001:0003bad0       ??0ImFont@@QAE@XZ          1003cad0 f   imgui_draw.obj
 0001:0003bb70       ??0ImFontAtlas@@QAE@XZ     1003cb70 f   imgui_draw.obj
 0001:0003bc60       ??0ImFontConfig@@QAE@XZ    1003cc60 f   imgui_draw.obj
 0001:0003bd60       ??1ImFont@@QAE@XZ          1003cd60 f   imgui_draw.obj
 0001:0003bdc0       ??1ImFontAtlas@@QAE@XZ     1003cdc0 f   imgui_draw.obj
 0001:0003be20       ??A?$ImVector@UCustomRect@ImFontAtlas@@@@QAEAAUCustomRect@ImFontAtlas@@H@Z 1003ce20 f i imgui_draw.obj
 0001:0003be40       ??A?$ImVector@UGlyph@ImFont@@@@QAEAAUGlyph@ImFont@@H@Z 1003ce40 f i imgui_draw.obj
 0001:0003be60       ??A?$ImVector@UImFontConfig@@@@QAEAAUImFontConfig@@H@Z 1003ce60 f i imgui_draw.obj
 0001:0003be80       ??A?$ImVector@Ustbrp_rect@@@@QAEAAUstbrp_rect@@H@Z 1003ce80 f i imgui_draw.obj
 0001:0003bea0       ??_GImFont@@QAEPAXI@Z      1003cea0 f i imgui_draw.obj
 0001:0003bed0       ?AddCircle@ImDrawList@@QAEXABUImVec2@@MIHM@Z 1003ced0 f   imgui_draw.obj
 0001:0003bf60       ?AddCircleFilled@ImDrawList@@QAEXABUImVec2@@MIH@Z 1003cf60 f   imgui_draw.obj
 0001:0003bff0       ?AddConvexPolyFilled@ImDrawList@@QAEXPBUImVec2@@HI_N@Z 1003cff0 f   imgui_draw.obj
 0001:0003c620       ?AddDrawCmd@ImDrawList@@QAEXXZ 1003d620 f   imgui_draw.obj
 0001:0003c6c0       ?AddFont@ImFontAtlas@@QAEPAUImFont@@PBUImFontConfig@@@Z 1003d6c0 f   imgui_draw.obj
 0001:0003c800       ?AddFontDefault@ImFontAtlas@@QAEPAUImFont@@PBUImFontConfig@@@Z 1003d800 f   imgui_draw.obj
 0001:0003c960       ?AddFontFromFileTTF@ImFontAtlas@@QAEPAUImFont@@PBDMPBUImFontConfig@@PBG@Z 1003d960 f   imgui_draw.obj
 0001:0003cb30       ?AddFontFromMemoryCompressedBase85TTF@ImFontAtlas@@QAEPAUImFont@@PBDMPBUImFontConfig@@PBG@Z 1003db30 f   imgui_draw.obj
 0001:0003cbe0       ?AddFontFromMemoryCompressedTTF@ImFontAtlas@@QAEPAUImFont@@PBXHMPBUImFontConfig@@PBG@Z 1003dbe0 f   imgui_draw.obj
 0001:0003ccd0       ?AddFontFromMemoryTTF@ImFontAtlas@@QAEPAUImFont@@PAXHMPBUImFontConfig@@PBG@Z 1003dcd0 f   imgui_draw.obj
 0001:0003cd90       ?AddImage@ImDrawList@@QAEXPAXABUImVec2@@111I@Z 1003dd90 f   imgui_draw.obj
 0001:0003ce30       ?AddLine@ImDrawList@@QAEXABUImVec2@@0IM@Z 1003de30 f   imgui_draw.obj
 0001:0003cef0       ?AddPolyline@ImDrawList@@QAEXPBUImVec2@@HI_NM1@Z 1003def0 f   imgui_draw.obj
 0001:0003e360       ?AddRect@ImDrawList@@QAEXABUImVec2@@0IMHM@Z 1003f360 f   imgui_draw.obj
 0001:0003e430       ?AddRectFilled@ImDrawList@@QAEXABUImVec2@@0IMH@Z 1003f430 f   imgui_draw.obj
 0001:0003e4b0       ?AddRectFilledMultiColor@ImDrawList@@QAEXABUImVec2@@0IIII@Z 1003f4b0 f   imgui_draw.obj
 0001:0003e600       ?AddText@ImDrawList@@QAEXABUImVec2@@IPBD1@Z 1003f600 f   imgui_draw.obj
 0001:0003e640       ?AddText@ImDrawList@@QAEXPBUImFont@@MABUImVec2@@IPBD2MPBUImVec4@@@Z 1003f640 f   imgui_draw.obj
 0001:0003e7f0       ?AddTriangleFilled@ImDrawList@@QAEXABUImVec2@@00I@Z 1003f7f0 f   imgui_draw.obj
 0001:0003e840       ?Build@ImFontAtlas@@QAE_NXZ 1003f840 f   imgui_draw.obj
 0001:0003e860       ?BuildLookupTable@ImFont@@QAEXXZ 1003f860 f   imgui_draw.obj
 0001:0003eb20       ?CalcTextSizeA@ImFont@@QBE?AUImVec2@@MMMPBD0PAPBD@Z 1003fb20 f   imgui_draw.obj
 0001:0003ee30       ?CalcWordWrapPositionA@ImFont@@QBEPBDMPBD0M@Z 1003fe30 f   imgui_draw.obj
 0001:0003f070       ?ChannelsMerge@ImDrawList@@QAEXXZ 10040070 f   imgui_draw.obj
 0001:0003f260       ?ChannelsSetCurrent@ImDrawList@@QAEXH@Z 10040260 f   imgui_draw.obj
 0001:0003f330       ?ChannelsSplit@ImDrawList@@QAEXH@Z 10040330 f   imgui_draw.obj
 0001:0003f530       ?Clear@ImDrawList@@QAEXXZ  10040530 f   imgui_draw.obj
 0001:0003f5e0       ?Clear@ImFont@@QAEXXZ      100405e0 f   imgui_draw.obj
 0001:0003f6a0       ?Clear@ImFontAtlas@@QAEXXZ 100406a0 f   imgui_draw.obj
 0001:0003f6d0       ?ClearFonts@ImFontAtlas@@QAEXXZ 100406d0 f   imgui_draw.obj
 0001:0003f750       ?ClearFreeMemory@ImDrawList@@QAEXXZ 10040750 f   imgui_draw.obj
 0001:0003f870       ?ClearInputData@ImFontAtlas@@QAEXXZ 10040870 f   imgui_draw.obj
 0001:0003f9e0       ?ClearTexData@ImFontAtlas@@QAEXXZ 100409e0 f   imgui_draw.obj
 0001:0003fa30       ?CustomRectRegister@ImFontAtlas@@QAEHIHH@Z 10040a30 f   imgui_draw.obj
 0001:0003fbf0       ?FindGlyph@ImFont@@QBEPBUGlyph@1@G@Z 10040bf0 f   imgui_draw.obj
 0001:0003fc60       ?GetGlyphRangesDefault@ImFontAtlas@@QAEPBGXZ 10040c60 f   imgui_draw.obj
 0001:0003fc80       ?GetTexDataAsAlpha8@ImFontAtlas@@QAEXPAPAEPAH11@Z 10040c80 f   imgui_draw.obj
 0001:0003fd00       ?GetTexDataAsRGBA32@ImFontAtlas@@QAEXPAPAEPAH11@Z 10040d00 f   imgui_draw.obj
 0001:0003fe00       ?GrowIndex@ImFont@@QAEXH@Z 10040e00 f   imgui_draw.obj
 0001:0003feb0       ?ImFontAtlasBuildPackCustomRects@@YAXPAUImFontAtlas@@PAX@Z 10040eb0 f   imgui_draw.obj
 0001:00040090       ?ImFontAtlasBuildRegisterDefaultCustomRects@@YAXPAUImFontAtlas@@@Z 10041090 f   imgui_draw.obj
 0001:000400c0       ?ImFontAtlasBuildRenderDefaultTexData@@YAXPAUImFontAtlas@@@Z 100410c0 f   imgui_draw.obj
 0001:000407f0       ?ImFontAtlasBuildSetupFont@@YAXPAUImFontAtlas@@PAUImFont@@PAUImFontConfig@@MM@Z 100417f0 f   imgui_draw.obj
 0001:00040880       ?ImFontAtlasBuildWithStbTruetype@@YA_NPAUImFontAtlas@@@Z 10041880 f   imgui_draw.obj
 0001:00041510       ?PathArcTo@ImDrawList@@QAEXABUImVec2@@MMMH@Z 10042510 f   imgui_draw.obj
 0001:00041640       ?PathArcToFast@ImDrawList@@QAEXABUImVec2@@MHH@Z 10042640 f   imgui_draw.obj
 0001:00041850       ?PathRect@ImDrawList@@QAEXABUImVec2@@0MH@Z 10042850 f   imgui_draw.obj
 0001:00041bc0       ?PopClipRect@ImDrawList@@QAEXXZ 10042bc0 f   imgui_draw.obj
 0001:00041be0       ?PopTextureID@ImDrawList@@QAEXXZ 10042be0 f   imgui_draw.obj
 0001:00041c00       ?PrimRect@ImDrawList@@QAEXABUImVec2@@0I@Z 10042c00 f   imgui_draw.obj
 0001:00041e70       ?PrimRectUV@ImDrawList@@QAEXABUImVec2@@000I@Z 10042e70 f   imgui_draw.obj
 0001:00042110       ?PrimReserve@ImDrawList@@QAEXHH@Z 10043110 f   imgui_draw.obj
 0001:000421b0       ?PrimWriteIdx@ImDrawList@@QAEXG@Z 100431b0 f i imgui_draw.obj
 0001:000421e0       ?PrimWriteVtx@ImDrawList@@QAEXABUImVec2@@0I@Z 100431e0 f i imgui_draw.obj
 0001:00042240       ?PushClipRect@ImDrawList@@QAEXUImVec2@@0_N@Z 10043240 f   imgui_draw.obj
 0001:00042380       ?PushClipRectFullScreen@ImDrawList@@QAEXXZ 10043380 f   imgui_draw.obj
 0001:00042420       ?PushTextureID@ImDrawList@@QAEXABQAX@Z 10043420 f   imgui_draw.obj
 0001:00042450       ?RenderText@ImFont@@QBEXPAUImDrawList@@MUImVec2@@IABUImVec4@@PBD3M_N@Z 10043450 f   imgui_draw.obj
 0001:00042cd0       ?UpdateClipRect@ImDrawList@@QAEXXZ 10043cd0 f   imgui_draw.obj
 0001:00042e40       ?UpdateTextureID@ImDrawList@@QAEXXZ 10043e40 f   imgui_draw.obj
 0001:00042f70       ?back@?$ImVector@UImFontConfig@@@@QAEAAUImFontConfig@@XZ 10043f70 f i imgui_draw.obj
 0001:00042f90       ?push_back@?$ImVector@UImDrawCmd@@@@QAEXABUImDrawCmd@@@Z 10043f90 f i imgui_draw.obj
 0001:00042ff0       ?push_back@?$ImVector@UImFontConfig@@@@QAEXABUImFontConfig@@@Z 10043ff0 f i imgui_draw.obj
 0001:00043050       ?push_back@?$ImVector@UImVec4@@@@QAEXABUImVec4@@@Z 10044050 f i imgui_draw.obj
 0001:000431b0       ?reserve@?$ImVector@UImDrawCmd@@@@QAEXH@Z 100441b0 f i imgui_draw.obj
 0001:00043230       ?reserve@?$ImVector@UImFontConfig@@@@QAEXH@Z 10044230 f i imgui_draw.obj
 0001:000432a0       ?reserve@?$ImVector@Ustbrp_rect@@@@QAEXH@Z 100442a0 f i imgui_draw.obj
 0001:000432a0       ?reserve@?$ImVector@UImVec4@@@@QAEXH@Z 100442a0 f i imgui_draw.obj
 0001:00043320       ?resize@?$ImVector@UImDrawCmd@@@@QAEXH@Z 10044320 f i imgui_draw.obj
 0001:00043360       ?resize@?$ImVector@Ustbrp_rect@@@@QAEXH@Z 10044360 f i imgui_draw.obj
 0001:00043360       ?resize@?$ImVector@UImVec4@@@@QAEXH@Z 10044360 f i imgui_draw.obj
 0001:0004af10       __snprintf                 1004bf10 f i imgui_draw.obj
 0001:0004af50       __vsnprintf                1004bf50 f i imgui_draw.obj
 0001:0004c900       ??$GetOriginal@P6EXPAX0000AAVCBoneBitList@@0@Z@ShadowVTManager@@QAEP6EXPAX0000AAVCBoneBitList@@0@ZI@Z 1004d900 f i bone_processing_hook.obj
 0001:0004c920       ??$Hook@P6IXPAX00000AAVCBoneBitList@@0@Z@ShadowVTManager@@QAEXIP6IXPAX00000AAVCBoneBitList@@0@Z@Z 1004d920 f i bone_processing_hook.obj
 0001:0004c940       ??$make_unique@VShadowVTManager@@$$V$0A@@std@@YA?AV?$unique_ptr@VShadowVTManager@@U?$default_delete@VShadowVTManager@@@std@@@0@XZ 1004d940 f i bone_processing_hook.obj
 0001:0004c9d0       ??0ShadowVTManager@@QAE@XZ 1004d9d0 f i bone_processing_hook.obj
 0001:0004ca10       ??4?$unique_ptr@VShadowVTManager@@U?$default_delete@VShadowVTManager@@@std@@@std@@QAEAAV01@$$QAV01@@Z 1004da10 f i bone_processing_hook.obj
 0001:0004ca60       ?DoExtraBonesProcessing@c_hooks@@SIXPAX00000AAVCBoneBitList@@0@Z 1004da60 f   bone_processing_hook.obj
 0001:0004cbe0       ?GetMethodCount@ShadowVTManager@@AAEIPAI@Z 1004dbe0 f i bone_processing_hook.obj
 0001:0004cc10       ?HookPlayers@c_hooks@@SAXXZ 1004dc10 f   bone_processing_hook.obj
 0001:0004cdb0       ?Setup@ShadowVTManager@@QAEXPAX@Z 1004ddb0 f i bone_processing_hook.obj
 0001:0004cf50       ?Unhook@ShadowVTManager@@QAEXI@Z 1004df50 f i bone_processing_hook.obj
 0001:0004cf80       ?reset@?$unique_ptr@VShadowVTManager@@U?$default_delete@VShadowVTManager@@@std@@@std@@QAEXPAVShadowVTManager@@@Z 1004df80 f i bone_processing_hook.obj
 0001:0004cfd0       ??$GetOriginal@P6IXPAX0@Z@VMTHook@@QAEP6IXPAX0@ZI@Z 1004dfd0 f i sceneend_hook.obj
 0001:0004cfd0       ??$GetOriginal@P6IXPAVISurface@@PAX@Z@VMTHook@@QAEP6IXPAVISurface@@PAX@ZI@Z 1004dfd0 f i lock_cursor_hook.obj
 0001:0004cfd0       ??$GetOriginal@P6I_NPAVIClientMode@@PAXMPAVCUserCmd@@@Z@VMTHook@@QAEP6I_NPAVIClientMode@@PAXMPAVCUserCmd@@@ZI@Z 1004dfd0 f i createmove_hook.obj
 0001:0004cfd0       ??$GetOriginal@P6EXPAXPAVIMatRenderContext@@ABUDrawModelState_t@@ABUModelRenderInfo_t@@PAVmatrix3x4_t@@@Z@VMTHook@@QAEP6EXPAXPAVIMatRenderContext@@ABUDrawModelState_t@@ABUModelRenderInfo_t@@PAVmatrix3x4_t@@@ZI@Z 1004dfd0 f i dme_hook.obj
 0001:0004cfd0       ??$GetOriginal@P6GXPAUIDirect3DDevice9@@PAU_D3DPRESENT_PARAMETERS_@@@Z@VMTHook@@QAEP6GXPAUIDirect3DDevice9@@PAU_D3DPRESENT_PARAMETERS_@@@ZI@Z 1004dfd0 f i directx_preset_hook.obj
 0001:0004cfd0       ??$GetOriginal@P6IXPAX0PAVCViewSetup@@@Z@VMTHook@@QAEP6IXPAX0PAVCViewSetup@@@ZI@Z 1004dfd0 f i oview_hook.obj
 0001:0004cfd0       ??$GetOriginal@P6EXPAXI_N1@Z@VMTHook@@QAEP6EXPAXI_N1@ZI@Z 1004dfd0 f i painttraverse_hook.obj
 0001:0004cfd0       ??$GetOriginal@P6GXW4ClientFrameStage_t@@@Z@VMTHook@@QAEP6GXW4ClientFrameStage_t@@@ZI@Z 1004dfd0 f i fsn_hook.obj
 0001:0004cfd0       ??$GetOriginal@P6GXPAUIDirect3DDevice9@@@Z@VMTHook@@QAEP6GXPAUIDirect3DDevice9@@@ZI@Z 1004dfd0 f i directx_preset_hook.obj
 0001:0004cff0       ?CreateMove@c_hooks@@SI_NPAVIClientMode@@PAXMPAVCUserCmd@@@Z 1004dff0 f   createmove_hook.obj
 0001:0004d230       ?DoAutostrafe@Misc@@ABEXPAVCUserCmd@@@Z 1004e230 f i createmove_hook.obj
 0001:0004d540       ?DoBhop@Misc@@ABEXXZ       1004e540 f i createmove_hook.obj
 0001:0004d650       ?DoFakeLag@Misc@@ABEXXZ    1004e650 f i createmove_hook.obj
 0001:0004dbd0       ?MovementFix@Misc@@QAEXPAVCUserCmd@@AAVVector@@@Z 1004ebd0 f i createmove_hook.obj
 0001:0004e1e0       ?OnCreateMove@Misc@@QAEXXZ 1004f1e0 f i createmove_hook.obj
 0001:0004e220       ?angle_vectorsss@Misc@@SAXABVVector@@AAV2@11@Z 1004f220 f i createmove_hook.obj
 0001:0004e430       ?atan2@@YAMMM@Z            1004f430 f i createmove_hook.obj
 0001:0004e460       _atan2f                    1004f460 f i createmove_hook.obj
 0001:0004e4a0       ?Hooked_EndScene@c_hooks@@SGXPAUIDirect3DDevice9@@@Z 1004f4a0 f   directx_preset_hook.obj
 0001:0004e5b0       ?Hooked_EndScene_Reset@c_hooks@@SGXPAUIDirect3DDevice9@@PAU_D3DPRESENT_PARAMETERS_@@@Z 1004f5b0 f   directx_preset_hook.obj
 0001:0004e6a0       ?create_objects@@YGXPAUIDirect3DDevice9@@@Z 1004f6a0 f   directx_preset_hook.obj
 0001:0004e6c0       ?end_present@@YGXPAUIDirect3DDevice9@@@Z 1004f6c0 f   directx_preset_hook.obj
 0001:0004e7b0       ?invalidate_objects@@YGXXZ 1004f7b0 f   directx_preset_hook.obj
 0001:0004e7c0       ?post_render@@YGXXZ        1004f7c0 f   directx_preset_hook.obj
 0001:0004e7d0       ?pre_render@@YGXPAUIDirect3DDevice9@@@Z 1004f7d0 f   directx_preset_hook.obj
 0001:0004ea80       ?setup_resent@@YGXPAUIDirect3DDevice9@@@Z 1004fa80 f   directx_preset_hook.obj
 0001:0004fb20       ?DrawModelExecute@c_hooks@@SIXPAX0PAVIMatRenderContext@@ABUDrawModelState_t@@ABUModelRenderInfo_t@@PAVmatrix3x4_t@@@Z 10050b20 f   dme_hook.obj
 0001:00050670       ?FindMaterial@IMaterialSystem@@QAEPAVIMaterial@@PBD0_N0@Z 10051670 f i dme_hook.obj
 0001:000506b0       ?ForcedMaterialOverride@CModelRender@@QAEXPAVIMaterial@@W4OverrideType_t@@@Z 100516b0 f i dme_hook.obj
 0001:000506e0       ?GetModelName@IVModelInfo@@QAEPBDPBUmodel_t@@@Z 100516e0 f i dme_hook.obj
 0001:00050710       ?isHand@@YA_NV?$basic_string@DU?$char_traits@D@std@@V?$allocator@D@2@@std@@@Z 10051710 f   dme_hook.obj
 0001:00050790       ?modulate@@YAXPBMPAVIMaterial@@@Z 10051790 f   dme_hook.obj
 0001:000508b0       ?set_vector@IMaterialVar@@QAEXVVector@@@Z 100518b0 f i dme_hook.obj
 0001:000508f0       ?set_vector_internal@IMaterialVar@@AAEXMMM@Z 100518f0 f i dme_hook.obj
 0001:00050940       ?FireGameEvent@Event@@UAEXPAVIGameEvent@@@Z 10051940 f   event_hook.obj
 0001:00050aa0       ?FrameStageNotify@c_hooks@@SGXW4ClientFrameStage_t@@@Z 10051aa0 f   fsn_hook.obj
 0001:00050be0       ?ThirdPerson@Misc@@QAEXW4ClientFrameStage_t@@@Z 10051be0 f i fsn_hook.obj
 0001:00050d90       ?server_hitbox@@YAXXZ      10051d90 f   fsn_hook.obj
 0001:00050f00       ??__Kms@chrono_literals@literals@std@@YA?AV?$duration@_JU?$ratio@$00$0DOI@@std@@@chrono@3@_K@Z 10051f00 f i hooking_init.obj
 0001:00050f20       ?FontCreate@ISurface@@QAEKXZ 10051f20 f i hooking_init.obj
 0001:00050f50       ?SetFontGlyphSet@ISurface@@QAEXKPBDHHHHH@Z 10051f50 f i hooking_init.obj
 0001:00050fb0       ?init_fonts@hooking@@QAEXXZ 10051fb0 f   hooking_init.obj
 0001:000510a0       ?window_handle@hooking@@QAEXXZ 100520a0 f   hooking_init.obj
 0001:000510f0       ?LockCursor@c_hooks@@SIXPAVISurface@@PAX@Z 100520f0 f   lock_cursor_hook.obj
 0001:000511c0       ?UnLockCursor@ISurface@@QAEXXZ 100521c0 f i lock_cursor_hook.obj
 0001:000511f0       ??AVector@@QAEAAMH@Z       100521f0 f i oview_hook.obj
 0001:00051210       ?GetViewPunchAngle@C_BaseEntity@@QAE?AVVector@@XZ 10052210 f i oview_hook.obj
 0001:00051240       ?IsScoped@C_BaseEntity@@QAE_NXZ 10052240 f i oview_hook.obj
 0001:00051300       ?OverrideView@c_hooks@@SIXPAX0PAVCViewSetup@@@Z 10052300 f   oview_hook.obj
 0001:00051600       ?Crosshair@Misc@@QAEXXZ    10052600 f i painttraverse_hook.obj
 0001:00051a30       ?GetName@IPanel@@QAEPBDI@Z 10052a30 f i painttraverse_hook.obj
 0001:00051a60       ?PaintTraverse@c_hooks@@SIXPAXHI_N1@Z 10052a60 f   painttraverse_hook.obj
 0001:00051ca0       ?SceneEnd@c_hooks@@SIXPAX0@Z 10052ca0 f   sceneend_hook.obj
 0001:00051d60       ?WndProc@c_hooks@@SGJPAUHWND__@@IIJ@Z 10052d60 f   wndproc_hook.obj
 0001:00051e20       ??$?0$0A@Vpath@filesystem@std@@@?$basic_ifstream@DU?$char_traits@D@std@@@std@@QAE@ABVpath@filesystem@1@HH@Z 10052e20 f i config_system.obj
 0001:00051e80       ??$?0$0A@Vpath@filesystem@std@@@?$basic_ofstream@DU?$char_traits@D@std@@@std@@QAE@ABVpath@filesystem@1@HH@Z 10052e80 f i config_system.obj
 0001:00051ee0       ??$?0PBD$0A@@path@filesystem@std@@QAE@ABQBDW4format@012@@Z 10052ee0 f i config_system.obj
 0001:00051f10       ??$?0U_Creator@_Dir_enum_impl@filesystem@std@@ABW4directory_options@23@@?$_Ref_count_obj@U_Dir_enum_impl@filesystem@std@@@std@@QAE@$$QAU_Creator@_Dir_enum_impl@filesystem@1@ABW4directory_options@41@@Z 10052f10 f i config_system.obj
 0001:00051fb0       ??$?0V?$basic_string@DU?$char_traits@D@std@@V?$allocator@D@2@@std@@$0A@@path@filesystem@std@@QAE@ABV?$basic_string@DU?$char_traits@D@std@@V?$allocator@D@2@@2@W4format@012@@Z 10052fb0 f i config_system.obj
 0001:00051fe0       ??$?0V?$basic_string_view@_WU?$char_traits@_W@std@@@std@@$0A@@path@filesystem@std@@QAE@ABV?$basic_string_view@_WU?$char_traits@_W@std@@@2@W4format@012@@Z 10052fe0 f i config_system.obj
 0001:00052010       ??$?0V?$basic_string_view@_WU?$char_traits@_W@std@@@std@@X@?$basic_string@_WU?$char_traits@_W@std@@V?$allocator@_W@2@@std@@QAE@ABV?$basic_string_view@_WU?$char_traits@_W@std@@@1@ABV?$allocator@_W@1@@Z 10053010 f i config_system.obj
 0001:00052080       ??$?4PA_W$0A@@path@filesystem@std@@QAEAAV012@ABQA_W@Z 10053080 f i config_system.obj
 0001:000520e0       ??$?5U<unnamed-type-cfg>@c_config@@@?$ArchiveX@V?$basic_ifstream@DU?$char_traits@D@std@@@std@@@@QBEABV0@AAU<unnamed-type-cfg>@c_config@@@Z 100530e0 f i config_system.obj
 0001:00052140       ??$?6U<unnamed-type-cfg>@c_config@@@?$ArchiveX@V?$basic_ofstream@DU?$char_traits@D@std@@@std@@@@QBEABV0@ABU<unnamed-type-cfg>@c_config@@@Z 10053140 f i config_system.obj
 0001:000521a0       ??$?8DU?$char_traits@D@std@@V?$allocator@D@1@@std@@YA_NABV?$basic_string@DU?$char_traits@D@std@@V?$allocator@D@2@@0@QBD@Z 100531a0 f i config_system.obj
 0001:000521c0       ??$?9U_Dir_enum_impl@filesystem@std@@U012@@std@@YA_NABV?$shared_ptr@U_Dir_enum_impl@filesystem@std@@@0@0@Z 100531c0 f i config_system.obj
 0001:000522b0       ??$?YV?$basic_string_view@DU?$char_traits@D@std@@@std@@X@?$basic_string@DU?$char_traits@D@std@@V?$allocator@D@2@@std@@QAEAAV01@ABV?$basic_string_view@DU?$char_traits@D@std@@@1@@Z 100532b0 f i config_system.obj
 0001:000522d0       ??$?_0PBD$0A@@path@filesystem@std@@QAEAAV012@ABQBD@Z 100532d0 f i config_system.obj
 0001:00052360       ??$?_0V?$basic_string_view@_WU?$char_traits@_W@std@@@std@@$0A@@path@filesystem@std@@QAEAAV012@ABV?$basic_string_view@_WU?$char_traits@_W@std@@@2@@Z 10053360 f i config_system.obj
 0001:000523f0       ??$_Convert_Source_to_wide@PA_WU_Normal_conversion@filesystem@std@@@filesystem@std@@YA?AV?$basic_string@_WU?$char_traits@_W@std@@V?$allocator@_W@2@@1@ABQA_WU_Normal_conversion@01@@Z 100533f0 f i config_system.obj
 0001:00052440       ??$_Convert_Source_to_wide@PBDU_Normal_conversion@filesystem@std@@@filesystem@std@@YA?AV?$basic_string@_WU?$char_traits@_W@std@@V?$allocator@_W@2@@1@ABQBDU_Normal_conversion@01@@Z 10053440 f i config_system.obj
 0001:00052490       ??$_Convert_Source_to_wide@V?$basic_string@DU?$char_traits@D@std@@V?$allocator@D@2@@std@@U_Normal_conversion@filesystem@2@@filesystem@std@@YA?AV?$basic_string@_WU?$char_traits@_W@std@@V?$allocator@_W@2@@1@ABV?$basic_string@DU?$char_traits@D@std@@V?$allocator@D@2@@1@U_Normal_conversion@01@@Z 10053490 f i config_system.obj
 0001:000524e0       ??$_Convert_Source_to_wide@V?$basic_string_view@_WU?$char_traits@_W@std@@@std@@U_Normal_conversion@filesystem@2@@filesystem@std@@YA?AV?$basic_string@_WU?$char_traits@_W@std@@V?$allocator@_W@2@@1@ABV?$basic_string_view@_WU?$char_traits@_W@std@@@1@U_Normal_conversion@01@@Z 100534e0 f i config_system.obj
 0001:00052530       ??$_Convert_stringoid_to_wide@U_Normal_conversion@filesystem@std@@@filesystem@std@@YA?AV?$basic_string@_WU?$char_traits@_W@std@@V?$allocator@_W@2@@1@V?$basic_string_view@DU?$char_traits@D@std@@@1@U_Normal_conversion@01@@Z 10053530 f i config_system.obj
 0001:00052570       ??$_Convert_stringoid_to_wide@U_Normal_conversion@filesystem@std@@@filesystem@std@@YA?AV?$basic_string@_WU?$char_traits@_W@std@@V?$allocator@_W@2@@1@V?$basic_string_view@_WU?$char_traits@_W@std@@@1@U_Normal_conversion@01@@Z 10053570 f i config_system.obj
 0001:000525b0       ??$_Convert_wide_to@DU?$char_traits@D@std@@V?$allocator@D@2@@filesystem@std@@YA?AV?$basic_string@DU?$char_traits@D@std@@V?$allocator@D@2@@1@V?$basic_string_view@_WU?$char_traits@_W@std@@@1@ABV?$allocator@D@1@@Z 100535b0 f i config_system.obj
 0001:000525f0       ??$_Convert_wide_to_narrow@U?$char_traits@D@std@@V?$allocator@D@2@@filesystem@std@@YA?AV?$basic_string@DU?$char_traits@D@std@@V?$allocator@D@2@@1@W4__std_code_page@@V?$basic_string_view@_WU?$char_traits@_W@std@@@1@ABV?$allocator@D@1@@Z 100535f0 f i config_system.obj
 0001:00052740       ??$_Copy_construct_from@U_Dir_enum_impl@filesystem@std@@@?$_Ptr_base@U_Dir_enum_impl@filesystem@std@@@std@@IAEXABV?$shared_ptr@U_Dir_enum_impl@filesystem@std@@@1@@Z 10053740 f i config_system.obj
 0001:00052740       ??$_Copy_construct_from@UNode@NetvarTree@@@?$_Ptr_base@UNode@NetvarTree@@@std@@IAEXABV?$shared_ptr@UNode@NetvarTree@@@1@@Z 10053740 f i NetvarManager.obj
 0001:00052780       ??$_Destroy_range1@V?$allocator@V?$basic_string@DU?$char_traits@D@std@@V?$allocator@D@2@@std@@@std@@@std@@YAXPAV?$basic_string@DU?$char_traits@D@std@@V?$allocator@D@2@@0@0AAV?$allocator@V?$basic_string@DU?$char_traits@D@std@@V?$allocator@D@2@@std@@@0@U?$integral_constant@_N$0A@@0@@Z 10053780 f i config_system.obj
 0001:000527c0       ??$_Destroy_range@V?$allocator@V?$basic_string@DU?$char_traits@D@std@@V?$allocator@D@2@@std@@@std@@@std@@YAXPAV?$basic_string@DU?$char_traits@D@std@@V?$allocator@D@2@@0@0AAV?$allocator@V?$basic_string@DU?$char_traits@D@std@@V?$allocator@D@2@@std@@@0@@Z 100537c0 f i config_system.obj
 0001:000527f0       ??$_Emplace_back@V?$basic_string@DU?$char_traits@D@std@@V?$allocator@D@2@@std@@@?$_Uninitialized_backout_al@PAV?$basic_string@DU?$char_traits@D@std@@V?$allocator@D@2@@std@@V?$allocator@V?$basic_string@DU?$char_traits@D@std@@V?$allocator@D@2@@std@@@2@@std@@QAEX$$QAV?$basic_string@DU?$char_traits@D@std@@V?$allocator@D@2@@1@@Z 100537f0 f i config_system.obj
 0001:00052850       ??$_Emplace_back_with_unused_capacity@AAPBD@?$vector@V?$basic_string@DU?$char_traits@D@std@@V?$allocator@D@2@@std@@V?$allocator@V?$basic_string@DU?$char_traits@D@std@@V?$allocator@D@2@@std@@@2@@std@@AAEAAV?$basic_string@DU?$char_traits@D@std@@V?$allocator@D@2@@1@AAPBD@Z 10053850 f i config_system.obj
 0001:00052900       ??$_Emplace_back_with_unused_capacity@V?$basic_string@DU?$char_traits@D@std@@V?$allocator@D@2@@std@@@?$vector@V?$basic_string@DU?$char_traits@D@std@@V?$allocator@D@2@@std@@V?$allocator@V?$basic_string@DU?$char_traits@D@std@@V?$allocator@D@2@@std@@@2@@std@@AAEAAV?$basic_string@DU?$char_traits@D@std@@V?$allocator@D@2@@1@$$QAV21@@Z 10053900 f i config_system.obj
 0001:000529b0       ??$_Emplace_reallocate@AAPBD@?$vector@V?$basic_string@DU?$char_traits@D@std@@V?$allocator@D@2@@std@@V?$allocator@V?$basic_string@DU?$char_traits@D@std@@V?$allocator@D@2@@std@@@2@@std@@QAEPAV?$basic_string@DU?$char_traits@D@std@@V?$allocator@D@2@@1@QAV21@AAPBD@Z 100539b0 f i config_system.obj
 0001:00052bb0       ??$_Emplace_reallocate@V?$basic_string@DU?$char_traits@D@std@@V?$allocator@D@2@@std@@@?$vector@V?$basic_string@DU?$char_traits@D@std@@V?$allocator@D@2@@std@@V?$allocator@V?$basic_string@DU?$char_traits@D@std@@V?$allocator@D@2@@std@@@2@@std@@QAEPAV?$basic_string@DU?$char_traits@D@std@@V?$allocator@D@2@@1@QAV21@$$QAV21@@Z 10053bb0 f i config_system.obj
 0001:00052db0       ??$_Enable_shared_from_this@UNode@NetvarTree@@U12@@std@@YAXABV?$shared_ptr@UNode@NetvarTree@@@0@PAUNode@NetvarTree@@@Z 10053db0 f i NetvarManager.obj
 0001:00052db0       ??$_Enable_shared_from_this@U_Dir_enum_impl@filesystem@std@@U123@@std@@YAXABV?$shared_ptr@U_Dir_enum_impl@filesystem@std@@@0@PAU_Dir_enum_impl@filesystem@0@@Z 10053db0 f i config_system.obj
 0001:00052de0       ??$_Fgetc@D@std@@YA_NAADPAU_iobuf@@@Z 10053de0 f i config_system.obj
 0001:00052e10       ??$_Find_unchecked1@PBV?$basic_string@DU?$char_traits@D@std@@V?$allocator@D@2@@std@@PBD@std@@YAPBV?$basic_string@DU?$char_traits@D@std@@V?$allocator@D@2@@0@PBV10@QBV10@ABQBDU?$integral_constant@_N$0A@@0@@Z 10053e10 f i config_system.obj
 0001:00052e50       ??$_Find_unchecked@PBV?$basic_string@DU?$char_traits@D@std@@V?$allocator@D@2@@std@@PBD@std@@YAPBV?$basic_string@DU?$char_traits@D@std@@V?$allocator@D@2@@0@QBV10@0ABQBD@Z 10053e50 f i config_system.obj
 0001:00052e80       ??$_Fputc@D@std@@YA_NDPAU_iobuf@@@Z 10053e80 f i config_system.obj
 0001:00052ec0       ??$_Get_size_of_n@$01@std@@YAII@Z 10053ec0 f i config_system.obj
 0001:00052ef0       ??$_Get_size_of_n@$0BI@@std@@YAII@Z 10053ef0 f i config_system.obj
 0001:00052f20       ??$_Get_unwrapped@V?$_Vector_const_iterator@V?$_Vector_val@U?$_Simple_types@V?$basic_string@DU?$char_traits@D@std@@V?$allocator@D@2@@std@@@std@@@std@@@std@@$0A@@std@@YAPBV?$basic_string@DU?$char_traits@D@std@@V?$allocator@D@2@@0@ABV?$_Vector_const_iterator@V?$_Vector_val@U?$_Simple_types@V?$basic_string@DU?$char_traits@D@std@@V?$allocator@D@2@@std@@@std@@@std@@@0@@Z 10053f20 f i config_system.obj
 0001:00052f30       ??$_Idl_distance@PAV?$basic_string@DU?$char_traits@D@std@@V?$allocator@D@2@@std@@PAV12@@std@@YAHABQAV?$basic_string@DU?$char_traits@D@std@@V?$allocator@D@2@@0@0@Z 10053f30 f i config_system.obj
 0001:00052f50       ??$_Immortalize@V_Generic_error_category@std@@@std@@YAAAV_Generic_error_category@0@XZ 10053f50 f i config_system.obj
 0001:00052f80       ??$_Immortalize@V_System_error_category@std@@@std@@YAAAV_System_error_category@0@XZ 10053f80 f i config_system.obj
 0001:00052fb0       ??$_Immortalize_impl@V_Generic_error_category@std@@@std@@YGHPAX0PAPAX@Z 10053fb0 f i config_system.obj
 0001:00052fe0       ??$_Immortalize_impl@V_System_error_category@std@@@std@@YGHPAX0PAPAX@Z 10053fe0 f i config_system.obj
 0001:00053010       ??$_Initialize_dir_enum@U_Dir_enum_impl@filesystem@std@@@_Dir_enum_impl@filesystem@std@@SA?AW4__std_win_error@@AAV?$shared_ptr@U_Dir_enum_impl@filesystem@std@@@2@ABVpath@12@W4directory_options@12@@Z 10054010 f i config_system.obj
 0001:000530e0       ??$_Move_construct_from@U_Dir_enum_impl@filesystem@std@@@?$_Ptr_base@U_Dir_enum_impl@filesystem@std@@@std@@IAEX$$QAV01@@Z 100540e0 f i config_system.obj
 0001:000530e0       ??$_Move_construct_from@UNode@NetvarTree@@@?$_Ptr_base@UNode@NetvarTree@@@std@@IAEX$$QAV01@@Z 100540e0 f i NetvarManager.obj
 0001:00053120       ??$_Move_unchecked1@PAV?$basic_string@DU?$char_traits@D@std@@V?$allocator@D@2@@std@@PAV12@@std@@YAPAV?$basic_string@DU?$char_traits@D@std@@V?$allocator@D@2@@0@PAV10@00U_General_ptr_iterator_tag@0@@Z 10054120 f i config_system.obj
 0001:00053160       ??$_Move_unchecked@PAV?$basic_string@DU?$char_traits@D@std@@V?$allocator@D@2@@std@@PAV12@@std@@YAPAV?$basic_string@DU?$char_traits@D@std@@V?$allocator@D@2@@0@PAV10@00@Z 10054160 f i config_system.obj
 0001:000531a0       ??$_Pocca@V?$allocator@_W@std@@@std@@YAXAAV?$allocator@_W@0@ABV10@@Z 100541a0 f i config_system.obj
 0001:000531c0       ??$_Reallocate_for@V<lambda_03628ca18370b1f44a99b655e704819b>@@PB_W@?$basic_string@_WU?$char_traits@_W@std@@V?$allocator@_W@2@@std@@QAEAAV01@IV<lambda_03628ca18370b1f44a99b655e704819b>@@PB_W@Z 100541c0 f i config_system.obj
 0001:000532a0       ??$_Reallocate_for@V<lambda_c6753c90be971fc9cc00b4f35f237a75>@@D@?$basic_string@DU?$char_traits@D@std@@V?$allocator@D@2@@std@@QAEAAV01@IV<lambda_c6753c90be971fc9cc00b4f35f237a75>@@D@Z 100542a0 f i config_system.obj
 0001:00053380       ??$_Reallocate_grow_by@V<lambda_15711c68e099a15a58f4d77303cb286d>@@D@?$basic_string@DU?$char_traits@D@std@@V?$allocator@D@2@@std@@QAEAAV01@IV<lambda_15711c68e099a15a58f4d77303cb286d>@@D@Z 10054380 f i config_system.obj
 0001:000534b0       ??$_Reallocate_grow_by@V<lambda_2fb699096920f2dc628cb0826b07831d>@@PB_WI@?$basic_string@_WU?$char_traits@_W@std@@V?$allocator@_W@2@@std@@QAEAAV01@IV<lambda_2fb699096920f2dc628cb0826b07831d>@@PB_WI@Z 100544b0 f i config_system.obj
 0001:000535e0       ??$_Reallocate_grow_by@V<lambda_38fb7828f6004e9a4c6a38bfc6df7f44>@@_W@?$basic_string@_WU?$char_traits@_W@std@@V?$allocator@_W@2@@std@@QAEAAV01@IV<lambda_38fb7828f6004e9a4c6a38bfc6df7f44>@@_W@Z 100545e0 f i config_system.obj
 0001:00053710       ??$_Reallocate_grow_by@V<lambda_67d87d4aa1269033985980465fd1d824>@@$$V@?$basic_string@DU?$char_traits@D@std@@V?$allocator@D@2@@std@@QAEAAV01@IV<lambda_67d87d4aa1269033985980465fd1d824>@@@Z 10054710 f i config_system.obj
 0001:00053830       ??$_Reallocate_grow_by@V<lambda_c1b8c41cb4019640539cfd828748c4d4>@@ID@?$basic_string@DU?$char_traits@D@std@@V?$allocator@D@2@@std@@QAEAAV01@IV<lambda_c1b8c41cb4019640539cfd828748c4d4>@@ID@Z 10054830 f i config_system.obj
 0001:00053960       ??$_Reallocate_grow_by@V<lambda_c3135ae829aeedc0a8af1bd1e887c66a>@@I_W@?$basic_string@_WU?$char_traits@_W@std@@V?$allocator@_W@2@@std@@QAEAAV01@IV<lambda_c3135ae829aeedc0a8af1bd1e887c66a>@@I_W@Z 10054960 f i config_system.obj
 0001:00053a90       ??$_Seek_wrapped@V?$_Vector_const_iterator@V?$_Vector_val@U?$_Simple_types@V?$basic_string@DU?$char_traits@D@std@@V?$allocator@D@2@@std@@@std@@@std@@@std@@PBV?$basic_string@DU?$char_traits@D@std@@V?$allocator@D@2@@2@@std@@YAXAAV?$_Vector_const_iterator@V?$_Vector_val@U?$_Simple_types@V?$basic_string@DU?$char_traits@D@std@@V?$allocator@D@2@@std@@@std@@@std@@@0@ABQBV?$basic_string@DU?$char_traits@D@std@@V?$allocator@D@2@@0@@Z 10054a90 f i config_system.obj
 0001:00053ab0       ??$_Seek_wrapped@V?$back_insert_iterator@V?$vector@V?$basic_string@DU?$char_traits@D@std@@V?$allocator@D@2@@std@@V?$allocator@V?$basic_string@DU?$char_traits@D@std@@V?$allocator@D@2@@std@@@2@@std@@@std@@V12@@std@@YAXAAV?$back_insert_iterator@V?$vector@V?$basic_string@DU?$char_traits@D@std@@V?$allocator@D@2@@std@@V?$allocator@V?$basic_string@DU?$char_traits@D@std@@V?$allocator@D@2@@std@@@2@@std@@@0@ABV10@@Z 10054ab0 f i config_system.obj
 0001:00053ac0       ??$_Set_ptr_rep_and_enable_shared@UNode@NetvarTree@@@?$shared_ptr@UNode@NetvarTree@@@std@@AAEXPAUNode@NetvarTree@@PAV_Ref_count_base@1@@Z 10054ac0 f i NetvarManager.obj
 0001:00053ac0       ??$_Set_ptr_rep_and_enable_shared@U_Dir_enum_impl@filesystem@std@@@?$shared_ptr@U_Dir_enum_impl@filesystem@std@@@std@@AAEXPAU_Dir_enum_impl@filesystem@1@PAV_Ref_count_base@1@@Z 10054ac0 f i config_system.obj
 0001:00053af0       ??$_Stringoid_from_Source@DU?$char_traits@D@std@@V?$allocator@D@2@@filesystem@std@@YA?AV?$basic_string_view@DU?$char_traits@D@std@@@1@ABV?$basic_string@DU?$char_traits@D@std@@V?$allocator@D@2@@1@@Z 10054af0 f i config_system.obj
 0001:00053b30       ??$_Stringoid_from_Source@PA_W@filesystem@std@@YA?AV?$basic_string_view@_WU?$char_traits@_W@std@@@1@ABQA_W@Z 10054b30 f i config_system.obj
 0001:00053b50       ??$_Stringoid_from_Source@PBD@filesystem@std@@YA?AV?$basic_string_view@DU?$char_traits@D@std@@@1@ABQBD@Z 10054b50 f i config_system.obj
 0001:00053b70       ??$_Stringoid_from_Source@_WU?$char_traits@_W@std@@@filesystem@std@@YA?AV?$basic_string_view@_WU?$char_traits@_W@std@@@1@ABV21@@Z 10054b70 f i config_system.obj
 0001:00053bb0       ??$_Traits_compare@U?$char_traits@_W@std@@@std@@YAHQB_WI0I@Z 10054bb0 f i config_system.obj
 0001:00053c10       ??$_Unaligned_load@I@filesystem@std@@YAIPBX@Z 10054c10 f i config_system.obj
 0001:00053c30       ??$_Ungetc@D@std@@YA_NABDPAU_iobuf@@@Z 10054c30 f i config_system.obj
 0001:00053c70       ??$_Uninitialized_move@PAV?$basic_string@DU?$char_traits@D@std@@V?$allocator@D@2@@std@@PAV12@V?$allocator@V?$basic_string@DU?$char_traits@D@std@@V?$allocator@D@2@@std@@@2@@std@@YAPAV?$basic_string@DU?$char_traits@D@std@@V?$allocator@D@2@@0@QAV10@0PAV10@AAV?$allocator@V?$basic_string@DU?$char_traits@D@std@@V?$allocator@D@2@@std@@@0@@Z 10054c70 f i config_system.obj
 0001:00053d30       ??$_Uninitialized_move_al_unchecked@PAV?$basic_string@DU?$char_traits@D@std@@V?$allocator@D@2@@std@@PAV12@V?$allocator@V?$basic_string@DU?$char_traits@D@std@@V?$allocator@D@2@@std@@@2@@std@@YAPAV?$basic_string@DU?$char_traits@D@std@@V?$allocator@D@2@@0@PAV10@QAV10@1AAV?$allocator@V?$basic_string@DU?$char_traits@D@std@@V?$allocator@D@2@@std@@@0@U_General_ptr_iterator_tag@0@U_Unused_parameter@0@@Z 10054d30 f i config_system.obj
 0001:00053dd0       ??$append@V?$basic_string_view@DU?$char_traits@D@std@@@std@@X@?$basic_string@DU?$char_traits@D@std@@V?$allocator@D@2@@std@@QAEAAV01@ABV?$basic_string_view@DU?$char_traits@D@std@@@1@@Z 10054dd0 f i config_system.obj
 0001:00053e20       ??$assign@V?$basic_string_view@_WU?$char_traits@_W@std@@@std@@X@?$basic_string@_WU?$char_traits@_W@std@@V?$allocator@_W@2@@std@@QAEAAV01@ABV?$basic_string_view@_WU?$char_traits@_W@std@@@1@@Z 10054e20 f i config_system.obj
 0001:00053e70       ??$back_inserter@V?$vector@V?$basic_string@DU?$char_traits@D@std@@V?$allocator@D@2@@std@@V?$allocator@V?$basic_string@DU?$char_traits@D@std@@V?$allocator@D@2@@std@@@2@@std@@@std@@YA?AV?$back_insert_iterator@V?$vector@V?$basic_string@DU?$char_traits@D@std@@V?$allocator@D@2@@std@@V?$allocator@V?$basic_string@DU?$char_traits@D@std@@V?$allocator@D@2@@std@@@2@@std@@@0@AAV?$vector@V?$basic_string@DU?$char_traits@D@std@@V?$allocator@D@2@@std@@V?$allocator@V?$basic_string@DU?$char_traits@D@std@@V?$allocator@D@2@@std@@@2@@0@@Z 10054e70 f i config_system.obj
 0001:00053e90       ??$begin@V?$vector@V?$basic_string@DU?$char_traits@D@std@@V?$allocator@D@2@@std@@V?$allocator@V?$basic_string@DU?$char_traits@D@std@@V?$allocator@D@2@@std@@@2@@std@@@std@@YA?AV?$_Vector_const_iterator@V?$_Vector_val@U?$_Simple_types@V?$basic_string@DU?$char_traits@D@std@@V?$allocator@D@2@@std@@@std@@@std@@@0@ABV?$vector@V?$basic_string@DU?$char_traits@D@std@@V?$allocator@D@2@@std@@V?$allocator@V?$basic_string@DU?$char_traits@D@std@@V?$allocator@D@2@@std@@@2@@0@@Z 10054e90 f i config_system.obj
 0001:00053eb0       ??$cbegin@V?$vector@V?$basic_string@DU?$char_traits@D@std@@V?$allocator@D@2@@std@@V?$allocator@V?$basic_string@DU?$char_traits@D@std@@V?$allocator@D@2@@std@@@2@@std@@@std@@YA?AV?$_Vector_const_iterator@V?$_Vector_val@U?$_Simple_types@V?$basic_string@DU?$char_traits@D@std@@V?$allocator@D@2@@std@@@std@@@std@@@0@ABV?$vector@V?$basic_string@DU?$char_traits@D@std@@V?$allocator@D@2@@std@@V?$allocator@V?$basic_string@DU?$char_traits@D@std@@V?$allocator@D@2@@std@@@2@@0@@Z 10054eb0 f i config_system.obj
 0001:00053ed0       ??$cend@V?$vector@V?$basic_string@DU?$char_traits@D@std@@V?$allocator@D@2@@std@@V?$allocator@V?$basic_string@DU?$char_traits@D@std@@V?$allocator@D@2@@std@@@2@@std@@@std@@YA?AV?$_Vector_const_iterator@V?$_Vector_val@U?$_Simple_types@V?$basic_string@DU?$char_traits@D@std@@V?$allocator@D@2@@std@@@std@@@std@@@0@ABV?$vector@V?$basic_string@DU?$char_traits@D@std@@V?$allocator@D@2@@std@@V?$allocator@V?$basic_string@DU?$char_traits@D@std@@V?$allocator@D@2@@std@@@2@@0@@Z 10054ed0 f i config_system.obj
 0001:00053ef0       ??$construct@V?$basic_string@DU?$char_traits@D@std@@V?$allocator@D@2@@std@@AAPBD@?$_Default_allocator_traits@V?$allocator@V?$basic_string@DU?$char_traits@D@std@@V?$allocator@D@2@@std@@@std@@@std@@SAXAAV?$allocator@V?$basic_string@DU?$char_traits@D@std@@V?$allocator@D@2@@std@@@1@QAV?$basic_string@DU?$char_traits@D@std@@V?$allocator@D@2@@1@AAPBD@Z 10054ef0 f i config_system.obj
 0001:00053f30       ??$construct@V?$basic_string@DU?$char_traits@D@std@@V?$allocator@D@2@@std@@V12@@?$_Default_allocator_traits@V?$allocator@V?$basic_string@DU?$char_traits@D@std@@V?$allocator@D@2@@std@@@std@@@std@@SAXAAV?$allocator@V?$basic_string@DU?$char_traits@D@std@@V?$allocator@D@2@@std@@@1@QAV?$basic_string@DU?$char_traits@D@std@@V?$allocator@D@2@@1@$$QAV31@@Z 10054f30 f i config_system.obj
 0001:00053f70       ??$destroy@V?$basic_string@DU?$char_traits@D@std@@V?$allocator@D@2@@std@@@?$_Default_allocator_traits@V?$allocator@V?$basic_string@DU?$char_traits@D@std@@V?$allocator@D@2@@std@@@std@@@std@@SAXAAV?$allocator@V?$basic_string@DU?$char_traits@D@std@@V?$allocator@D@2@@std@@@1@QAV?$basic_string@DU?$char_traits@D@std@@V?$allocator@D@2@@1@@Z 10054f70 f i config_system.obj
 0001:00053f80       ??$emplace_back@AAPBD@?$vector@V?$basic_string@DU?$char_traits@D@std@@V?$allocator@D@2@@std@@V?$allocator@V?$basic_string@DU?$char_traits@D@std@@V?$allocator@D@2@@std@@@2@@std@@QAEAAV?$basic_string@DU?$char_traits@D@std@@V?$allocator@D@2@@1@AAPBD@Z 10054f80 f i config_system.obj
 0001:00053ff0       ??$emplace_back@V?$basic_string@DU?$char_traits@D@std@@V?$allocator@D@2@@std@@@?$vector@V?$basic_string@DU?$char_traits@D@std@@V?$allocator@D@2@@std@@V?$allocator@V?$basic_string@DU?$char_traits@D@std@@V?$allocator@D@2@@std@@@2@@std@@QAEAAV?$basic_string@DU?$char_traits@D@std@@V?$allocator@D@2@@1@$$QAV21@@Z 10054ff0 f i config_system.obj
 0001:00054060       ??$end@V?$vector@V?$basic_string@DU?$char_traits@D@std@@V?$allocator@D@2@@std@@V?$allocator@V?$basic_string@DU?$char_traits@D@std@@V?$allocator@D@2@@std@@@2@@std@@@std@@YA?AV?$_Vector_const_iterator@V?$_Vector_val@U?$_Simple_types@V?$basic_string@DU?$char_traits@D@std@@V?$allocator@D@2@@std@@@std@@@std@@@0@ABV?$vector@V?$basic_string@DU?$char_traits@D@std@@V?$allocator@D@2@@std@@V?$allocator@V?$basic_string@DU?$char_traits@D@std@@V?$allocator@D@2@@std@@@2@@0@@Z 10055060 f i config_system.obj
 0001:00054080       ??$exchange@W4__std_fs_dir_handle@@W41@@std@@YA?AW4__std_fs_dir_handle@@AAW41@$$QAW41@@Z 10055080 f i config_system.obj
 0001:000540b0       ??$find@V?$_Vector_const_iterator@V?$_Vector_val@U?$_Simple_types@V?$basic_string@DU?$char_traits@D@std@@V?$allocator@D@2@@std@@@std@@@std@@@std@@PBD@std@@YA?AV?$_Vector_const_iterator@V?$_Vector_val@U?$_Simple_types@V?$basic_string@DU?$char_traits@D@std@@V?$allocator@D@2@@std@@@std@@@std@@@0@V10@V10@ABQBD@Z 100550b0 f i config_system.obj
 0001:00054120       ??$find_if@PB_WU_Is_slash_oper@std@@@std@@YAPB_WPB_WQB_WU_Is_slash_oper@0@@Z 10055120 f i config_system.obj
 0001:000541a0       ??$find_if_not@PB_WU_Is_slash_oper@std@@@std@@YAPB_WPB_WQB_WU_Is_slash_oper@0@@Z 100551a0 f i config_system.obj
 0001:00054220       ??$make_shared@U_Dir_enum_impl@filesystem@std@@U_Creator@123@ABW4directory_options@23@@std@@YA?AV?$shared_ptr@U_Dir_enum_impl@filesystem@std@@@0@$$QAU_Creator@_Dir_enum_impl@filesystem@0@ABW4directory_options@40@@Z 10055220 f i config_system.obj
 0001:00054310       ??$string@DU?$char_traits@D@std@@V?$allocator@D@2@$0A@@path@filesystem@std@@QBE?AV?$basic_string@DU?$char_traits@D@std@@V?$allocator@D@2@@2@ABV?$allocator@D@2@@Z 10055310 f i config_system.obj
 0001:00054360       ??$swap@PAV_Ref_count_base@std@@X@std@@YAXAAPAV_Ref_count_base@0@0@Z 10055360 f i config_system.obj
 0001:00054360       ??$swap@PAU_Dir_enum_impl@filesystem@std@@X@std@@YAXAAPAU_Dir_enum_impl@filesystem@0@0@Z 10055360 f i config_system.obj
 0001:00054510       ??$use_facet@V?$codecvt@DDU_Mbstatet@@@std@@@std@@YAABV?$codecvt@DDU_Mbstatet@@@0@ABVlocale@0@@Z 10055510 f i config_system.obj
 0001:00054630       ??0<unnamed-type-cfg>@c_config@@QAE@XZ 10055630 f i config_system.obj
 0001:00054a10       ??0?$ArchiveX@V?$basic_ofstream@DU?$char_traits@D@std@@@std@@@@QAE@AAV?$basic_ofstream@DU?$char_traits@D@std@@@std@@@Z 10055a10 f i config_system.obj
 0001:00054a10       ??0?$ArchiveX@V?$basic_ifstream@DU?$char_traits@D@std@@@std@@@@QAE@AAV?$basic_ifstream@DU?$char_traits@D@std@@@std@@@Z 10055a10 f i config_system.obj
 0001:00054a30       ??0?$basic_filebuf@DU?$char_traits@D@std@@@std@@QAE@PAU_iobuf@@@Z 10055a30 f i config_system.obj
 0001:00054aa0       ??0?$basic_ifstream@DU?$char_traits@D@std@@@std@@QAE@PB_WHH@Z 10055aa0 f i config_system.obj
 0001:00054bc0       ??0?$basic_ofstream@DU?$char_traits@D@std@@@std@@QAE@PB_WHH@Z 10055bc0 f i config_system.obj
 0001:00054ce0       ??0?$basic_string@DU?$char_traits@D@std@@V?$allocator@D@2@@std@@QAE@ABV?$allocator@D@1@@Z 10055ce0 f i config_system.obj
 0001:00054d30       ??0?$basic_string@DU?$char_traits@D@std@@V?$allocator@D@2@@std@@QAE@ID@Z 10055d30 f i config_system.obj
 0001:00054da0       ??0?$basic_string@DU?$char_traits@D@std@@V?$allocator@D@2@@std@@QAE@XZ 10055da0 f i config_system.obj
 0001:00054df0       ??0?$basic_string@_WU?$char_traits@_W@std@@V?$allocator@_W@2@@std@@QAE@$$QAV01@@Z 10055df0 f i config_system.obj
 0001:00054e80       ??0?$basic_string@_WU?$char_traits@_W@std@@V?$allocator@_W@2@@std@@QAE@ABV01@@Z 10055e80 f i config_system.obj
 0001:00054f00       ??0?$basic_string@_WU?$char_traits@_W@std@@V?$allocator@_W@2@@std@@QAE@XZ 10055f00 f i config_system.obj
 0001:00054f50       ??0?$basic_string_view@DU?$char_traits@D@std@@@std@@QAE@QBD@Z 10055f50 f i config_system.obj
 0001:00054f80       ??0?$basic_string_view@_WU?$char_traits@_W@std@@@std@@QAE@QB_W@Z 10055f80 f i config_system.obj
 0001:00054fb0       ??0?$fpos@U_Mbstatet@@@std@@QAE@U_Mbstatet@@_J@Z 10055fb0 f i config_system.obj
 0001:00054ff0       ??0?$fpos@U_Mbstatet@@@std@@QAE@_J@Z 10055ff0 f i config_system.obj
 0001:00055030       ??0?$shared_ptr@U_Dir_enum_impl@filesystem@std@@@std@@QAE@$$QAV01@@Z 10056030 f i config_system.obj
 0001:00055030       ??0?$shared_ptr@UNode@NetvarTree@@@std@@QAE@$$QAV01@@Z 10056030 f i NetvarManager.obj
 0001:00055090       ??0?$shared_ptr@UNode@NetvarTree@@@std@@QAE@ABV01@@Z 10056090 f i NetvarManager.obj
 0001:00055090       ??0?$shared_ptr@U_Dir_enum_impl@filesystem@std@@@std@@QAE@ABV01@@Z 10056090 f i config_system.obj
 0001:000550e0       ??0_Creator@_Dir_enum_impl@filesystem@std@@QAE@ABVpath@23@W4directory_options@23@@Z 100560e0 f i config_system.obj
 0001:000551e0       ??0_Dir_enum_impl@filesystem@std@@QAE@$$QAU_Creator@012@W4directory_options@12@@Z 100561e0 f i config_system.obj
 0001:00055280       ??0_File_status_and_error@filesystem@std@@QAE@XZ 10056280 f i config_system.obj
 0001:000552a0       ??0_Find_file_handle@filesystem@std@@QAE@$$QAU012@@Z 100562a0 f i config_system.obj
 0001:00055300       ??0_Find_file_handle@filesystem@std@@QAE@XZ 10056300 f i config_system.obj
 0001:00055320       ??0_Generic_error_category@std@@QAE@XZ 10056320 f i config_system.obj
 0001:00055350       ??0_Ref_count_base@std@@IAE@XZ 10056350 f i config_system.obj
 0001:00055380       ??0_System_error@std@@IAE@Verror_code@1@ABV?$basic_string@DU?$char_traits@D@std@@V?$allocator@D@2@@1@@Z 10056380 f i config_system.obj
 0001:00055440       ??0_System_error@std@@QAE@ABV01@@Z 10056440 f i config_system.obj
 0001:00055480       ??0_System_error_category@std@@QAE@XZ 10056480 f i config_system.obj
 0001:000554b0       ??0bad_cast@std@@QAE@ABV01@@Z 100564b0 f i config_system.obj
 0001:000554e0       ??0bad_cast@std@@QAE@XZ    100564e0 f i config_system.obj
 0001:00055510       ??0c_config@@QAE@XZ        10056510 f i config_system.obj
 0001:00055550       ??0directory_entry@filesystem@std@@QAE@XZ 10056550 f i config_system.obj
 0001:00055590       ??0directory_iterator@filesystem@std@@QAE@ABV012@@Z 10056590 f i config_system.obj
 0001:000555c0       ??0directory_iterator@filesystem@std@@QAE@ABVpath@12@@Z 100565c0 f i config_system.obj
 0001:00055640       ??0directory_iterator@filesystem@std@@QAE@XZ 10056640 f i config_system.obj
 0001:00055660       ??0error_category@std@@QAE@XZ 10056660 f i config_system.obj
 0001:00055680       ??0exception@std@@QAE@QBDH@Z 10056680 f i config_system.obj
 0001:000556b0       ??0file_status@filesystem@std@@QAE@XZ 100566b0 f i config_system.obj
 0001:000556e0       ??0filesystem_error@filesystem@std@@QAE@ABV012@@Z 100566e0 f i config_system.obj
 0001:00055790       ??0filesystem_error@filesystem@std@@QAE@ABV?$basic_string@DU?$char_traits@D@std@@V?$allocator@D@2@@2@ABVpath@12@1Verror_code@2@@Z 10056790 f i config_system.obj
 0001:00055860       ??0filesystem_error@filesystem@std@@QAE@ABV?$basic_string@DU?$char_traits@D@std@@V?$allocator@D@2@@2@ABVpath@12@Verror_code@2@@Z 10056860 f i config_system.obj
 0001:00055980       ??0filesystem_error@filesystem@std@@QAE@ABV?$basic_string@DU?$char_traits@D@std@@V?$allocator@D@2@@2@Verror_code@2@@Z 10056980 f i config_system.obj
 0001:00055a20       ??0path@filesystem@std@@QAE@ABV012@@Z 10056a20 f i config_system.obj
 0001:00055a50       ??0path@filesystem@std@@QAE@XZ 10056a50 f i config_system.obj
 0001:00055a70       ??0runtime_error@std@@QAE@ABV?$basic_string@DU?$char_traits@D@std@@V?$allocator@D@2@@1@@Z 10056a70 f i config_system.obj
 0001:00055aa0       ??0system_error@std@@QAE@ABV01@@Z 10056aa0 f i config_system.obj
 0001:00055ad0       ??0system_error@std@@QAE@Verror_code@1@@Z 10056ad0 f i config_system.obj
 0001:00055b60       ??0system_error@std@@QAE@Verror_code@1@ABV?$basic_string@DU?$char_traits@D@std@@V?$allocator@D@2@@1@@Z 10056b60 f i config_system.obj
 0001:00055b90       ??1?$_Uninitialized_backout_al@PAV?$basic_string@DU?$char_traits@D@std@@V?$allocator@D@2@@std@@V?$allocator@V?$basic_string@DU?$char_traits@D@std@@V?$allocator@D@2@@std@@@2@@std@@QAE@XZ 10056b90 f i config_system.obj
 0001:00055bf0       ??1?$basic_filebuf@DU?$char_traits@D@std@@@std@@UAE@XZ 10056bf0 f i config_system.obj
 0001:00055c60       ??1?$basic_ifstream@DU?$char_traits@D@std@@@std@@UAE@XZ 10056c60 f i config_system.obj
 0001:00055cc0       ??1?$basic_ofstream@DU?$char_traits@D@std@@@std@@UAE@XZ 10056cc0 f i config_system.obj
 0001:00055d20       ??1?$basic_string@_WU?$char_traits@_W@std@@V?$allocator@_W@2@@std@@QAE@XZ 10056d20 f i config_system.obj
 0001:00055d70       ??1?$unique_ptr@V_Facet_base@std@@U?$default_delete@V_Facet_base@std@@@2@@std@@QAE@XZ 10056d70 f i config_system.obj
 0001:00055db0       ??1?$vector@V?$basic_string@DU?$char_traits@D@std@@V?$allocator@D@2@@std@@V?$allocator@V?$basic_string@DU?$char_traits@D@std@@V?$allocator@D@2@@std@@@2@@std@@QAE@XZ 10056db0 f i config_system.obj
 0001:00055df0       ??1_Creator@_Dir_enum_impl@filesystem@std@@QAE@XZ 10056df0 f i config_system.obj
 0001:00055e10       ??1_Dir_enum_impl@filesystem@std@@QAE@XZ 10056e10 f i config_system.obj
 0001:00055e30       ??1_Find_file_handle@filesystem@std@@QAE@XZ 10056e30 f i config_system.obj
 0001:00055e50       ??1_System_error@std@@UAE@XZ 10056e50 f i config_system.obj
 0001:00055e70       ??1c_config@@QAE@XZ        10056e70 f i config_system.obj
 0001:00055ea0       ??1directory_entry@filesystem@std@@QAE@XZ 10056ea0 f i config_system.obj
 0001:00055ec0       ??1directory_iterator@filesystem@std@@QAE@XZ 10056ec0 f i config_system.obj
 0001:00055ee0       ??1filesystem_error@filesystem@std@@UAE@XZ 10056ee0 f i config_system.obj
 0001:00055f20       ??1locale@std@@QAE@XZ      10056f20 f i config_system.obj
 0001:00055fa0       ??1path@filesystem@std@@QAE@XZ 10056fa0 f i config_system.obj
 0001:00055fc0       ??1system_error@std@@UAE@XZ 10056fc0 f i config_system.obj
 0001:00055fe0       ??4?$back_insert_iterator@V?$vector@V?$basic_string@DU?$char_traits@D@std@@V?$allocator@D@2@@std@@V?$allocator@V?$basic_string@DU?$char_traits@D@std@@V?$allocator@D@2@@std@@@2@@std@@@std@@QAEAAV01@$$QAV?$basic_string@DU?$char_traits@D@std@@V?$allocator@D@2@@1@@Z 10056fe0 f i config_system.obj
 0001:00056020       ??4?$basic_string@DU?$char_traits@D@std@@V?$allocator@D@2@@std@@QAEAAV01@QBD@Z 10057020 f i config_system.obj
 0001:00056040       ??4?$basic_string@_WU?$char_traits@_W@std@@V?$allocator@_W@2@@std@@QAEAAV01@$$QAV01@@Z 10057040 f i config_system.obj
 0001:000560e0       ??4?$basic_string@_WU?$char_traits@_W@std@@V?$allocator@_W@2@@std@@QAEAAV01@ABV01@@Z 100570e0 f i config_system.obj
 0001:00056150       ??4?$shared_ptr@U_Dir_enum_impl@filesystem@std@@@std@@QAEAAV01@$$QAV01@@Z 10057150 f i config_system.obj
 0001:00056190       ??4path@filesystem@std@@QAEAAV012@$$QAV012@@Z 10057190 f i config_system.obj
 0001:000561b0       ??4path@filesystem@std@@QAEAAV012@ABV012@@Z 100571b0 f i config_system.obj
 0001:000561d0       ??8?$_Vector_const_iterator@V?$_Vector_val@U?$_Simple_types@V?$basic_string@DU?$char_traits@D@std@@V?$allocator@D@2@@std@@@std@@@std@@@std@@QBE_NABV01@@Z 100571d0 f i config_system.obj
 0001:00056210       ??8std@@YA_NABVerror_condition@0@0@Z 10057210 f i config_system.obj
 0001:00056270       ??9directory_iterator@filesystem@std@@QBE_NABV012@@Z 10057270 f i config_system.obj
 0001:00056290       ??A?$vector@V?$basic_string@DU?$char_traits@D@std@@V?$allocator@D@2@@std@@V?$allocator@V?$basic_string@DU?$char_traits@D@std@@V?$allocator@D@2@@std@@@2@@std@@QBEABV?$basic_string@DU?$char_traits@D@std@@V?$allocator@D@2@@1@I@Z 10057290 f i config_system.obj
 0001:00056290       ??A?$vector@V?$basic_string@DU?$char_traits@D@std@@V?$allocator@D@2@@std@@V?$allocator@V?$basic_string@DU?$char_traits@D@std@@V?$allocator@D@2@@std@@@2@@std@@QAEAAV?$basic_string@DU?$char_traits@D@std@@V?$allocator@D@2@@1@I@Z 10057290 f i config_system.obj
 0001:000562b0       ??B?$basic_string@_WU?$char_traits@_W@std@@V?$allocator@_W@2@@std@@QBE?AV?$basic_string_view@_WU?$char_traits@_W@std@@@1@XZ 100572b0 f i config_system.obj
 0001:00056320       ??B?$fpos@U_Mbstatet@@@std@@QBE_JXZ 10057320 f i config_system.obj
 0001:00056350       ??Ddirectory_iterator@filesystem@std@@QBEABVdirectory_entry@12@XZ 10057350 f i config_system.obj
 0001:00056370       ??Edirectory_iterator@filesystem@std@@QAEAAV012@XZ 10057370 f i config_system.obj
 0001:000563b0       ??H?$_Vector_const_iterator@V?$_Vector_val@U?$_Simple_types@V?$basic_string@DU?$char_traits@D@std@@V?$allocator@D@2@@std@@@std@@@std@@@std@@QBE?AV01@H@Z 100573b0 f i config_system.obj
 0001:000563e0       ??Ifilesystem@std@@YA?AW4directory_options@01@W4201@0@Z 100573e0 f i config_system.obj
 0001:000563e0       ??I@YA?AW4__std_fs_file_attr@@W40@0@Z 100573e0 f i config_system.obj
 0001:000563f0       ??Kfilesystem@std@@YA?AVpath@01@ABV201@0@Z 100573f0 f i config_system.obj
 0001:00056490       ??R<lambda_03628ca18370b1f44a99b655e704819b>@@QBEXQA_WIQB_W@Z 10057490 f i config_system.obj
 0001:000564d0       ??R<lambda_15711c68e099a15a58f4d77303cb286d>@@QBEXQADQBDID@Z 100574d0 f i config_system.obj
 0001:00056530       ??R<lambda_2fb699096920f2dc628cb0826b07831d>@@QBEXQA_WQB_WI1I@Z 10057530 f i config_system.obj
 0001:00056590       ??R<lambda_38fb7828f6004e9a4c6a38bfc6df7f44>@@QBEXQA_WQB_WI_W@Z 10057590 f i config_system.obj
 0001:000565f0       ??R<lambda_67d87d4aa1269033985980465fd1d824>@@QBEXQADQBDI@Z 100575f0 f i config_system.obj
 0001:00056620       ??R<lambda_c1b8c41cb4019640539cfd828748c4d4>@@QBEXQADQBDIID@Z 10057620 f i config_system.obj
 0001:00056680       ??R<lambda_c3135ae829aeedc0a8af1bd1e887c66a>@@QBEXQA_WQB_WII_W@Z 10057680 f i config_system.obj
 0001:000566e0       ??R<lambda_c6753c90be971fc9cc00b4f35f237a75>@@QBEXQADID@Z 100576e0 f i config_system.obj
 0001:00056720       ??R?$default_delete@V_Facet_base@std@@@std@@QBEXPAV_Facet_base@1@@Z 10057720 f i config_system.obj
 0001:00056760       ??R_Is_slash_oper@std@@QBE_N_W@Z 10057760 f i config_system.obj
 0001:000567a0       ??U@YA?AW4__std_fs_stats_flags@@W40@0@Z 100577a0 f i config_system.obj
 0001:000567b0       ??Y?$_Vector_const_iterator@V?$_Vector_val@U?$_Simple_types@V?$basic_string@DU?$char_traits@D@std@@V?$allocator@D@2@@std@@@std@@@std@@@std@@QAEAAV01@H@Z 100577b0 f i config_system.obj
 0001:000567e0       ??Y?$basic_string@DU?$char_traits@D@std@@V?$allocator@D@2@@std@@QAEAAV01@ABV01@@Z 100577e0 f i config_system.obj
 0001:00056800       ??Y?$basic_string@DU?$char_traits@D@std@@V?$allocator@D@2@@std@@QAEAAV01@D@Z 10057800 f i config_system.obj
 0001:00056820       ??_0path@filesystem@std@@QAEAAV012@ABV012@@Z 10057820 f i config_system.obj
 0001:000569a0       ??_5@YAAAW4__std_fs_stats_flags@@AAW40@W40@@Z 100579a0 f i config_system.obj
 0001:000569c0       ??_D?$basic_ifstream@DU?$char_traits@D@std@@@std@@QAEXXZ 100579c0 f i config_system.obj
 0001:000569f0       ??_D?$basic_ofstream@DU?$char_traits@D@std@@@std@@QAEXXZ 100579f0 f i config_system.obj
 0001:00056a12       ??_E?$basic_ifstream@DU?$char_traits@D@std@@@std@@$4PPPPPPPM@A@AEPAXI@Z 10057a12 f i config_system.obj
 0001:00056a1a       ??_E?$basic_ofstream@DU?$char_traits@D@std@@@std@@$4PPPPPPPM@A@AEPAXI@Z 10057a1a f i config_system.obj
 0001:00056a30       ??_G?$_Ref_count_obj@U_Dir_enum_impl@filesystem@std@@@std@@UAEPAXI@Z 10057a30 f i config_system.obj
 0001:00056a30       ??_E?$_Ref_count_obj@U_Dir_enum_impl@filesystem@std@@@std@@UAEPAXI@Z 10057a30 f i config_system.obj
 0001:00056a60       ??_E?$basic_filebuf@DU?$char_traits@D@std@@@std@@UAEPAXI@Z 10057a60 f i config_system.obj
 0001:00056a60       ??_G?$basic_filebuf@DU?$char_traits@D@std@@@std@@UAEPAXI@Z 10057a60 f i config_system.obj
 0001:00056a90       ??_E?$basic_ifstream@DU?$char_traits@D@std@@@std@@UAEPAXI@Z 10057a90 f i config_system.obj
 0001:00056a90       ??_G?$basic_ifstream@DU?$char_traits@D@std@@@std@@UAEPAXI@Z 10057a90 f i config_system.obj
 0001:00056ad0       ??_E?$basic_ofstream@DU?$char_traits@D@std@@@std@@UAEPAXI@Z 10057ad0 f i config_system.obj
 0001:00056ad0       ??_G?$basic_ofstream@DU?$char_traits@D@std@@@std@@UAEPAXI@Z 10057ad0 f i config_system.obj
 0001:00056b10       ??_G?$basic_string@DU?$char_traits@D@std@@V?$allocator@D@2@@std@@QAEPAXI@Z 10057b10 f i config_system.obj
 0001:00056b40       ??_G_Dir_enum_impl@filesystem@std@@QAEPAXI@Z 10057b40 f i config_system.obj
 0001:00056b70       ??_G_System_error_category@std@@UAEPAXI@Z 10057b70 f i config_system.obj
 0001:00056b70       ??_G_Generic_error_category@std@@UAEPAXI@Z 10057b70 f i config_system.obj
 0001:00056b70       ??_E_System_error_category@std@@UAEPAXI@Z 10057b70 f i config_system.obj
 0001:00056b70       ??_E_Generic_error_category@std@@UAEPAXI@Z 10057b70 f i config_system.obj
 0001:00056ba0       ??_E_System_error@std@@UAEPAXI@Z 10057ba0 f i config_system.obj
 0001:00056ba0       ??_G_System_error@std@@UAEPAXI@Z 10057ba0 f i config_system.obj
 0001:00056bd0       ??_Efilesystem_error@filesystem@std@@UAEPAXI@Z 10057bd0 f i config_system.obj
 0001:00056bd0       ??_Gfilesystem_error@filesystem@std@@UAEPAXI@Z 10057bd0 f i config_system.obj
 0001:00056c00       ??_Esystem_error@std@@UAEPAXI@Z 10057c00 f i config_system.obj
 0001:00056c00       ??_Gsystem_error@std@@UAEPAXI@Z 10057c00 f i config_system.obj
 0001:00056c30       ??__Ksv@string_view_literals@literals@std@@YA?AV?$basic_string_view@_WU?$char_traits@_W@std@@@3@PB_WI@Z 10057c30 f i config_system.obj
 0001:00056c30       ??__Ksv@string_view_literals@literals@std@@YA?AV?$basic_string_view@DU?$char_traits@D@std@@@3@PBDI@Z 10057c30 f i config_system.obj
 0001:00056c50       ?_Advance_and_reset_if_no_more_files@_Dir_enum_impl@filesystem@std@@SA?AW4__std_win_error@@AAV?$shared_ptr@U_Dir_enum_impl@filesystem@std@@@3@@Z 10057c50 f i config_system.obj
 0001:00056ce0       ?_Assign_rv_contents@?$basic_string@_WU?$char_traits@_W@std@@V?$allocator@_W@2@@std@@QAEX$$QAV12@U?$integral_constant@_N$00@2@@Z 10057ce0 f i config_system.obj
 0001:00056d20       ?_Assign_rv_contents_with_alloc_always_equal@?$basic_string@_WU?$char_traits@_W@std@@V?$allocator@_W@2@@std@@QAEX$$QAV12@U?$integral_constant@_N$00@2@@Z 10057d20 f i config_system.obj
 0001:00056dc0       ?_Become_small@?$basic_string@DU?$char_traits@D@std@@V?$allocator@D@2@@std@@QAEXXZ 10057dc0 f i config_system.obj
 0001:00056e60       ?_Bitmask_includes@@YA_NW4__std_fs_file_attr@@0@Z 10057e60 f i config_system.obj
 0001:00056e60       ?_Bitmask_includes@filesystem@std@@YA_NW4directory_options@12@0@Z 10057e60 f i config_system.obj
 0001:00056e90       ?_Calculate_growth@?$basic_string@_WU?$char_traits@_W@std@@V?$allocator@_W@2@@std@@QBEII@Z 10057e90 f i config_system.obj
 0001:00056f10       ?_Calculate_growth@?$vector@V?$basic_string@DU?$char_traits@D@std@@V?$allocator@D@2@@std@@V?$allocator@V?$basic_string@DU?$char_traits@D@std@@V?$allocator@D@2@@std@@@2@@std@@ABEII@Z 10057f10 f i config_system.obj
 0001:00056f60       ?_Change_array@?$vector@V?$basic_string@DU?$char_traits@D@std@@V?$allocator@D@2@@std@@V?$allocator@V?$basic_string@DU?$char_traits@D@std@@V?$allocator@D@2@@std@@@2@@std@@AAEXQAV?$basic_string@DU?$char_traits@D@std@@V?$allocator@D@2@@2@II@Z 10057f60 f i config_system.obj
 0001:00057020       ?_Check_convert_result@filesystem@std@@YAHU__std_fs_convert_result@@@Z 10058020 f i config_system.obj
 0001:00057060       ?_Construct_lv_contents@?$basic_string@_WU?$char_traits@_W@std@@V?$allocator@_W@2@@std@@QAEXABV12@@Z 10058060 f i config_system.obj
 0001:00057160       ?_Convert_narrow_to_wide@filesystem@std@@YA?AV?$basic_string@_WU?$char_traits@_W@std@@V?$allocator@_W@2@@2@W4__std_code_page@@V?$basic_string_view@DU?$char_traits@D@std@@@2@@Z 10058160 f i config_system.obj
 0001:000572b0       ?_Copy_alloc@?$_String_alloc@U?$_String_base_types@_WV?$allocator@_W@std@@@std@@@std@@QAEXABV?$allocator@_W@2@@Z 100582b0 f i config_system.obj
 0001:000572e0       ?_Delete_this@?$_Ref_count_obj@U_Dir_enum_impl@filesystem@std@@@std@@EAEXXZ 100582e0 f i config_system.obj
 0001:000572e0       ?_Delete_this@?$_Ref_count_obj@UNode@NetvarTree@@@std@@EAEXXZ 100582e0 f i NetvarManager.obj
 0001:00057320       ?_Destroy@?$_Ref_count_obj@U_Dir_enum_impl@filesystem@std@@@std@@EAEXXZ 10058320 f i config_system.obj
 0001:00057370       ?_Destroy@?$vector@V?$basic_string@DU?$char_traits@D@std@@V?$allocator@D@2@@std@@V?$allocator@V?$basic_string@DU?$char_traits@D@std@@V?$allocator@D@2@@std@@@2@@std@@AAEXPAV?$basic_string@DU?$char_traits@D@std@@V?$allocator@D@2@@2@0@Z 10058370 f i config_system.obj
 0001:000573a0       ?_Endwrite@?$basic_filebuf@DU?$char_traits@D@std@@@std@@IAE_NXZ 100583a0 f i config_system.obj
 0001:000574d0       ?_Eos@?$basic_string@DU?$char_traits@D@std@@V?$allocator@D@2@@std@@QAEXI@Z 100584d0 f i config_system.obj
 0001:00057520       ?_Eos@?$basic_string@_WU?$char_traits@_W@std@@V?$allocator@_W@2@@std@@QAEXI@Z 10058520 f i config_system.obj
 0001:00057570       ?_Equal@?$basic_string@DU?$char_traits@D@std@@V?$allocator@D@2@@std@@QBE_NQBD@Z 10058570 f i config_system.obj
 0001:000575f0       ?_Find_filename@filesystem@std@@YAPB_WQB_WPB_W@Z 100585f0 f i config_system.obj
 0001:00057650       ?_Find_relative_path@filesystem@std@@YAPB_WQB_W0@Z 10058650 f i config_system.obj
 0001:00057690       ?_Find_root_name_end@filesystem@std@@YAPB_WQB_W0@Z 10058690 f i config_system.obj
 0001:00057840       ?_Get_any_status@filesystem@std@@YA?AU_File_status_and_error@12@ABVpath@12@W4__std_fs_stats_flags@@@Z 10058840 f i config_system.obj
 0001:000578b0       ?_Get_deleter@_Ref_count_base@std@@UBEPAXABVtype_info@@@Z 100588b0 f i config_system.obj
 0001:000578c0       ?_Getfacet@locale@std@@QBEPBVfacet@12@I@Z 100588c0 f i config_system.obj
 0001:00057950       ?_Getptr@?$_Ref_count_obj@U_Dir_enum_impl@filesystem@std@@@std@@QAEPAU_Dir_enum_impl@filesystem@2@XZ 10058950 f i config_system.obj
 0001:00057970       ?_Has_drive_letter_prefix@filesystem@std@@YA_NQB_W0@Z 10058970 f i config_system.obj
 0001:000579b0       ?_Incref@_Ref_count_base@std@@QAEXXZ 100589b0 f i config_system.obj
 0001:000579d0       ?_Init@?$basic_filebuf@DU?$char_traits@D@std@@@std@@IAEXPAU_iobuf@@W4_Initfl@12@@Z 100589d0 f i config_system.obj
 0001:00057aa0       ?_Initcvt@?$basic_filebuf@DU?$char_traits@D@std@@@std@@IAEXABV?$codecvt@DDU_Mbstatet@@@2@@Z 10058aa0 f i config_system.obj
 0001:00057af0       ?_Is_dot_or_dotdot@filesystem@std@@YA_NABU__std_fs_find_data@@@Z 10058af0 f i config_system.obj
 0001:00057b70       ?_Is_drive_prefix@filesystem@std@@YA_NQB_W@Z 10058b70 f i config_system.obj
 0001:00057bc0       ?_Is_file_not_found@filesystem@std@@YA_NW4__std_win_error@@@Z 10058bc0 f i config_system.obj
 0001:00057bf0       ?_Large_string_engaged@?$_String_val@U?$_Simple_types@_W@std@@@std@@QBE_NXZ 10058bf0 f i config_system.obj
 0001:00057c20       ?_Lock@?$basic_filebuf@DU?$char_traits@D@std@@@std@@UAEXXZ 10058c20 f i config_system.obj
 0001:00057c50       ?_Make_ec@filesystem@std@@YA?AVerror_code@2@W4__std_win_error@@@Z 10058c50 f i config_system.obj
 0001:00057c70       ?_Makestr@_System_error@std@@CA?AV?$basic_string@DU?$char_traits@D@std@@V?$allocator@D@2@@2@Verror_code@2@V32@@Z 10058c70 f i config_system.obj
 0001:00057d40       ?_Myptr@?$_String_val@U?$_Simple_types@_W@std@@@std@@QAEPA_WXZ 10058d40 f i config_system.obj
 0001:00057d40       ?_Myptr@?$_String_val@U?$_Simple_types@_W@std@@@std@@QBEPB_WXZ 10058d40 f i config_system.obj
 0001:00057d80       ?_Not_good@_File_status_and_error@filesystem@std@@QBE_NXZ 10058d80 f i config_system.obj
 0001:00057dd0       ?_Open@_Find_file_handle@filesystem@std@@QAE?AW4__std_win_error@@PB_WPAU__std_fs_find_data@@@Z 10058dd0 f i config_system.obj
 0001:00057df0       ?_Open_dir@_Dir_enum_impl@filesystem@std@@SA?AW4__std_win_error@@AAVpath@23@W4directory_options@23@AAU_Find_file_handle@23@AAU__std_fs_find_data@@@Z 10058df0 f i config_system.obj
 0001:00057e70       ?_Parse_filename@filesystem@std@@YA?AV?$basic_string_view@_WU?$char_traits@_W@std@@@2@V32@@Z 10058e70 f i config_system.obj
 0001:00057ed0       ?_Pretty_message@filesystem_error@filesystem@std@@CA?AV?$basic_string@DU?$char_traits@D@std@@V?$allocator@D@2@@3@V?$basic_string_view@DU?$char_traits@D@std@@@3@ABVpath@23@1@Z 10058ed0 f i config_system.obj
 0001:00058050       ?_Range_compare@filesystem@std@@YAHQB_W000@Z 10059050 f i config_system.obj
 0001:00058080       ?_Refresh@_Dir_enum_impl@filesystem@std@@QAEXABU__std_fs_find_data@@@Z 10059080 f i config_system.obj
 0001:00058120       ?_Refresh@directory_entry@filesystem@std@@AAEXABU__std_fs_find_data@@@Z 10059120 f i config_system.obj
 0001:000581d0       ?_Refresh@file_status@filesystem@std@@QAEXW4__std_win_error@@ABU__std_fs_stats@@@Z 100591d0 f i config_system.obj
 0001:000582e0       ?_Reset_back@?$basic_filebuf@DU?$char_traits@D@std@@@std@@AAEXXZ 100592e0 f i config_system.obj
 0001:00058320       ?_Seek_to@?$_Vector_const_iterator@V?$_Vector_val@U?$_Simple_types@V?$basic_string@DU?$char_traits@D@std@@V?$allocator@D@2@@std@@@std@@@std@@@std@@QAEXPBV?$basic_string@DU?$char_traits@D@std@@V?$allocator@D@2@@2@@Z 10059320 f i config_system.obj
 0001:00058340       ?_Set_back@?$basic_filebuf@DU?$char_traits@D@std@@@std@@AAEXXZ 10059340 f i config_system.obj
 0001:000583a0       ?_Set_ptr_rep@?$_Ptr_base@U_Dir_enum_impl@filesystem@std@@@std@@IAEXPAU_Dir_enum_impl@filesystem@2@PAV_Ref_count_base@2@@Z 100593a0 f i config_system.obj
 0001:000583a0       ?_Set_ptr_rep@?$_Ptr_base@UNode@NetvarTree@@@std@@IAEXPAUNode@NetvarTree@@PAV_Ref_count_base@2@@Z 100593a0 f i NetvarManager.obj
 0001:000583c0       ?_Skip_dots@_Dir_enum_impl@filesystem@std@@SA?AW4__std_win_error@@W4__std_fs_dir_handle@@AAU__std_fs_find_data@@@Z 100593c0 f i config_system.obj
 0001:00058430       ?_Swap@?$_Ptr_base@U_Dir_enum_impl@filesystem@std@@@std@@IAEXAAV12@@Z 10059430 f i config_system.obj
 0001:00058470       ?_Throw_fs_error@filesystem@std@@YAXPBDW4__std_win_error@@@Z 10059470 f i config_system.obj
 0001:00058530       ?_Throw_fs_error@filesystem@std@@YAXPBDW4__std_win_error@@ABVpath@12@2@Z 10059530 f i config_system.obj
 0001:000585f0       ?_Throw_fs_error@filesystem@std@@YAXPBDW4__std_win_error@@ABVpath@12@@Z 100595f0 f i config_system.obj
 0001:000586b0       ?_Tidy@?$vector@V?$basic_string@DU?$char_traits@D@std@@V?$allocator@D@2@@std@@V?$allocator@V?$basic_string@DU?$char_traits@D@std@@V?$allocator@D@2@@std@@@2@@std@@AAEXXZ 100596b0 f i config_system.obj
 0001:00058760       ?_Tidy_deallocate@?$basic_string@_WU?$char_traits@_W@std@@V?$allocator@_W@2@@std@@QAEXXZ 10059760 f i config_system.obj
 0001:00058810       ?_Tidy_init@?$basic_string@_WU?$char_traits@_W@std@@V?$allocator@_W@2@@std@@QAEXXZ 10059810 f i config_system.obj
 0001:00058860       ?_Umove@?$vector@V?$basic_string@DU?$char_traits@D@std@@V?$allocator@D@2@@std@@V?$allocator@V?$basic_string@DU?$char_traits@D@std@@V?$allocator@D@2@@std@@@2@@std@@AAEPAV?$basic_string@DU?$char_traits@D@std@@V?$allocator@D@2@@2@PAV32@00@Z 10059860 f i config_system.obj
 0001:00058890       ?_Umove_if_noexcept1@?$vector@V?$basic_string@DU?$char_traits@D@std@@V?$allocator@D@2@@std@@V?$allocator@V?$basic_string@DU?$char_traits@D@std@@V?$allocator@D@2@@std@@@2@@std@@AAEXPAV?$basic_string@DU?$char_traits@D@std@@V?$allocator@D@2@@2@00U?$integral_constant@_N$00@2@@Z 10059890 f i config_system.obj
 0001:000588c0       ?_Umove_if_noexcept@?$vector@V?$basic_string@DU?$char_traits@D@std@@V?$allocator@D@2@@std@@V?$allocator@V?$basic_string@DU?$char_traits@D@std@@V?$allocator@D@2@@std@@@2@@std@@AAEXPAV?$basic_string@DU?$char_traits@D@std@@V?$allocator@D@2@@2@00@Z 100598c0 f i config_system.obj
 0001:000588f0       ?_Unlock@?$basic_filebuf@DU?$char_traits@D@std@@@std@@UAEXXZ 100598f0 f i config_system.obj
 0001:00058920       ?_Xsystem_error_invalid_argument@filesystem@std@@YAXXZ 10059920 f i config_system.obj
 0001:00058960       ?add@c_config@@QAEXPBD@Z   10059960 f   config_system.obj
 0001:00058a40       ?allocate@?$allocator@V?$basic_string@DU?$char_traits@D@std@@V?$allocator@D@2@@std@@@std@@QAEPAV?$basic_string@DU?$char_traits@D@std@@V?$allocator@D@2@@2@I@Z 10059a40 f i config_system.obj
 0001:00058a70       ?allocate@?$allocator@_W@std@@QAEPA_WI@Z 10059a70 f i config_system.obj
 0001:00058aa0       ?append@?$basic_string@DU?$char_traits@D@std@@V?$allocator@D@2@@std@@QAEAAV12@ABV12@@Z 10059aa0 f i config_system.obj
 0001:00058ae0       ?append@?$basic_string@DU?$char_traits@D@std@@V?$allocator@D@2@@std@@QAEAAV12@ID@Z 10059ae0 f i config_system.obj
 0001:00058b80       ?append@?$basic_string@_WU?$char_traits@_W@std@@V?$allocator@_W@2@@std@@QAEAAV12@I_W@Z 10059b80 f i config_system.obj
 0001:00058c30       ?append@?$basic_string@_WU?$char_traits@_W@std@@V?$allocator@_W@2@@std@@QAEAAV12@QB_WI@Z 10059c30 f i config_system.obj
 0001:00058ce0       ?assign@?$_WChar_traits@_W@std@@SAPA_WQA_WI_W@Z 10059ce0 f i config_system.obj
 0001:00058d00       ?assign@?$_WChar_traits@_W@std@@SAXAA_WAB_W@Z 10059d00 f i config_system.obj
 0001:00058d20       ?assign@?$basic_string@DU?$char_traits@D@std@@V?$allocator@D@2@@std@@QAEAAV12@ID@Z 10059d20 f i config_system.obj
 0001:00058db0       ?assign@?$basic_string@_WU?$char_traits@_W@std@@V?$allocator@_W@2@@std@@QAEAAV12@QB_WI@Z 10059db0 f i config_system.obj
 0001:00058e40       ?assign@?$char_traits@D@std@@SAPADQADID@Z 10059e40 f i config_system.obj
 0001:00058e60       ?begin@?$vector@V?$basic_string@DU?$char_traits@D@std@@V?$allocator@D@2@@std@@V?$allocator@V?$basic_string@DU?$char_traits@D@std@@V?$allocator@D@2@@std@@@2@@std@@QBE?AV?$_Vector_const_iterator@V?$_Vector_val@U?$_Simple_types@V?$basic_string@DU?$char_traits@D@std@@V?$allocator@D@2@@std@@@std@@@std@@@2@XZ 10059e60 f i config_system.obj
 0001:00058ed0       ?data@?$basic_string@_WU?$char_traits@_W@std@@V?$allocator@_W@2@@std@@QAEPA_WXZ 10059ed0 f i config_system.obj
 0001:00058ed0       ?c_str@?$basic_string@_WU?$char_traits@_W@std@@V?$allocator@_W@2@@std@@QBEPB_WXZ 10059ed0 f i config_system.obj
 0001:00058ed0       ?data@?$basic_string@_WU?$char_traits@_W@std@@V?$allocator@_W@2@@std@@QBEPB_WXZ 10059ed0 f i config_system.obj
 0001:00058f20       ?c_str@path@filesystem@std@@QBEPB_WXZ 10059f20 f i config_system.obj
 0001:00058f40       ?capacity@?$vector@V?$basic_string@DU?$char_traits@D@std@@V?$allocator@D@2@@std@@V?$allocator@V?$basic_string@DU?$char_traits@D@std@@V?$allocator@D@2@@std@@@2@@std@@QBEIXZ 10059f40 f i config_system.obj
 0001:00058f70       ?size@?$basic_string_view@DU?$char_traits@D@std@@@std@@QBEIXZ 10059f70 f i config_system.obj
 0001:00058f70       ?category@error_condition@std@@QBEABVerror_category@2@XZ 10059f70 f i config_system.obj
 0001:00058f70       ?size@?$basic_string_view@_WU?$char_traits@_W@std@@@std@@QBEIXZ 10059f70 f i config_system.obj
 0001:00058f70       ?GetType@RecvProp@@QBE?AW4SendPropType@@XZ 10059f70 f i NetvarManager.obj
 0001:00058f70       ?GetNumProps@RecvTable@@QAEHXZ 10059f70 f i NetvarManager.obj
 0001:00058f70       ?category@error_code@std@@QBEABVerror_category@2@XZ 10059f70 f i config_system.obj
 0001:00058f90       ?cbegin@?$vector@V?$basic_string@DU?$char_traits@D@std@@V?$allocator@D@2@@std@@V?$allocator@V?$basic_string@DU?$char_traits@D@std@@V?$allocator@D@2@@std@@@2@@std@@QBE?AV?$_Vector_const_iterator@V?$_Vector_val@U?$_Simple_types@V?$basic_string@DU?$char_traits@D@std@@V?$allocator@D@2@@std@@@std@@@std@@@2@XZ 10059f90 f i config_system.obj
 0001:00058fb0       ?close@?$basic_filebuf@DU?$char_traits@D@std@@@std@@QAEPAV12@XZ 10059fb0 f i config_system.obj
 0001:00059020       ?close@?$basic_ifstream@DU?$char_traits@D@std@@@std@@QAEXXZ 1005a020 f i config_system.obj
 0001:00059060       ?close@?$basic_ofstream@DU?$char_traits@D@std@@@std@@QAEXXZ 1005a060 f i config_system.obj
 0001:000590a0       ?compare@?$_WChar_traits@_W@std@@SAHQB_W0I@Z 1005a0a0 f i config_system.obj
 0001:00059120       ?copy@?$_WChar_traits@_W@std@@SAPA_WQA_WQB_WI@Z 1005a120 f i config_system.obj
 0001:00059140       ?create_directory@filesystem@std@@YA_NABVpath@12@@Z 1005a140 f i config_system.obj
 0001:00059190       ?deallocate@?$allocator@V?$basic_string@DU?$char_traits@D@std@@V?$allocator@D@2@@std@@@std@@QAEXQAV?$basic_string@DU?$char_traits@D@std@@V?$allocator@D@2@@2@I@Z 1005a190 f i config_system.obj
 0001:000591b0       ?deallocate@?$allocator@_W@std@@QAEXQA_WI@Z 1005a1b0 f i config_system.obj
 0001:000591d0       ?default_error_condition@_System_error_category@std@@UBE?AVerror_condition@2@H@Z 1005a1d0 f i config_system.obj
 0001:00059250       ?default_error_condition@error_category@std@@UBE?AVerror_condition@2@H@Z 1005a250 f i config_system.obj
 0001:00059270       ?empty@?$basic_string@DU?$char_traits@D@std@@V?$allocator@D@2@@std@@QBE_NXZ 1005a270 f i config_system.obj
 0001:000592a0       ?empty@?$basic_string_view@DU?$char_traits@D@std@@@std@@QBE_NXZ 1005a2a0 f i config_system.obj
 0001:000592a0       ?empty@?$basic_string_view@_WU?$char_traits@_W@std@@@std@@QBE_NXZ 1005a2a0 f i config_system.obj
 0001:000592d0       ?end@?$vector@V?$basic_string@DU?$char_traits@D@std@@V?$allocator@D@2@@std@@V?$allocator@V?$basic_string@DU?$char_traits@D@std@@V?$allocator@D@2@@std@@@2@@std@@QBE?AV?$_Vector_const_iterator@V?$_Vector_val@U?$_Simple_types@V?$basic_string@DU?$char_traits@D@std@@V?$allocator@D@2@@std@@@std@@@std@@@2@XZ 1005a2d0 f i config_system.obj
 0001:00059340       ?eq_int_type@?$char_traits@D@std@@SA_NABH0@Z 1005a340 f i config_system.obj
 0001:00059370       ?equivalent@error_category@std@@UBE_NABVerror_code@2@H@Z 1005a370 f i config_system.obj
 0001:000593c0       ?equivalent@error_category@std@@UBE_NHABVerror_condition@2@@Z 1005a3c0 f i config_system.obj
 0001:00059400       ?erase@?$basic_string@_WU?$char_traits@_W@std@@V?$allocator@_W@2@@std@@QAEAAV12@I@Z 1005a400 f i config_system.obj
 0001:00059440       ?erase@?$vector@V?$basic_string@DU?$char_traits@D@std@@V?$allocator@D@2@@std@@V?$allocator@V?$basic_string@DU?$char_traits@D@std@@V?$allocator@D@2@@std@@@2@@std@@QAE?AV?$_Vector_iterator@V?$_Vector_val@U?$_Simple_types@V?$basic_string@DU?$char_traits@D@std@@V?$allocator@D@2@@std@@@std@@@std@@@2@V?$_Vector_const_iterator@V?$_Vector_val@U?$_Simple_types@V?$basic_string@DU?$char_traits@D@std@@V?$allocator@D@2@@std@@@std@@@std@@@2@@Z 1005a440 f i config_system.obj
 0001:000594e0       ?filename@path@filesystem@std@@QBE?AV123@XZ 1005a4e0 f i config_system.obj
 0001:00059540       ?front@?$basic_string@DU?$char_traits@D@std@@V?$allocator@D@2@@std@@QAEAADXZ 1005a540 f i config_system.obj
 0001:00059560       ?generic_category@std@@YAABVerror_category@1@XZ 1005a560 f i config_system.obj
 0001:000595a0       ?imbue@?$basic_filebuf@DU?$char_traits@D@std@@@std@@MAEXABVlocale@2@@Z 1005a5a0 f i config_system.obj
 0001:000595d0       ?is_absolute@path@filesystem@std@@QBE_NXZ 1005a5d0 f i config_system.obj
 0001:000596b0       ?is_directory@filesystem@std@@YA_NABVpath@12@@Z 1005a6b0 f i config_system.obj
 0001:000596e0       ?is_directory@filesystem@std@@YA_NVfile_status@12@@Z 1005a6e0 f i config_system.obj
 0001:00059710       ?length@?$_WChar_traits@_W@std@@SAIPB_W@Z 1005a710 f i config_system.obj
 0001:00059750       ?load@c_config@@QAEXI@Z    1005a750 f   config_system.obj
 0001:000598a0       ?make_error_code@std@@YA?AVerror_code@1@W4errc@1@@Z 1005a8a0 f i config_system.obj
 0001:000598c0       ?max_size@?$_Default_allocator_traits@V?$allocator@V?$basic_string@DU?$char_traits@D@std@@V?$allocator@D@2@@std@@@std@@@std@@SAIABV?$allocator@V?$basic_string@DU?$char_traits@D@std@@V?$allocator@D@2@@std@@@2@@Z 1005a8c0 f i config_system.obj
 0001:000598d0       ?max_size@?$basic_string@_WU?$char_traits@_W@std@@V?$allocator@_W@2@@std@@QBEIXZ 1005a8d0 f i config_system.obj
 0001:00059930       ?max_size@?$vector@V?$basic_string@DU?$char_traits@D@std@@V?$allocator@D@2@@std@@V?$allocator@V?$basic_string@DU?$char_traits@D@std@@V?$allocator@D@2@@std@@@2@@std@@QBEIXZ 1005a930 f i config_system.obj
 0001:00059970       ?message@_Generic_error_category@std@@UBE?AV?$basic_string@DU?$char_traits@D@std@@V?$allocator@D@2@@2@H@Z 1005a970 f i config_system.obj
 0001:000599b0       ?message@_System_error_category@std@@UBE?AV?$basic_string@DU?$char_traits@D@std@@V?$allocator@D@2@@2@H@Z 1005a9b0 f i config_system.obj
 0001:00059a90       ?message@error_code@std@@QBE?AV?$basic_string@DU?$char_traits@D@std@@V?$allocator@D@2@@2@XZ 1005aa90 f i config_system.obj
 0001:00059af0       ?move@?$_WChar_traits@_W@std@@SAPA_WQA_WQB_WI@Z 1005aaf0 f i config_system.obj
 0001:00059b10       ?name@_Generic_error_category@std@@UBEPBDXZ 1005ab10 f i config_system.obj
 0001:00059b20       ?name@_System_error_category@std@@UBEPBDXZ 1005ab20 f i config_system.obj
 0001:00059b30       ?not_eof@?$char_traits@D@std@@SAHABH@Z 1005ab30 f i config_system.obj
 0001:00059b80       ?open@?$basic_filebuf@DU?$char_traits@D@std@@@std@@QAEPAV12@PB_WHH@Z 1005ab80 f i config_system.obj
 0001:00059c40       ?overflow@?$basic_filebuf@DU?$char_traits@D@std@@@std@@MAEHH@Z 1005ac40 f i config_system.obj
 0001:00059e30       ?path@directory_entry@filesystem@std@@QBEABV023@XZ 1005ae30 f i config_system.obj
 0001:00059e50       ?pbackfail@?$basic_filebuf@DU?$char_traits@D@std@@@std@@MAEHH@Z 1005ae50 f i config_system.obj
 0001:00059fb0       ?permissions@file_status@filesystem@std@@QAEXW4perms@23@@Z 1005afb0 f i config_system.obj
 0001:00059fd0       ?push_back@?$basic_string@DU?$char_traits@D@std@@V?$allocator@D@2@@std@@QAEXD@Z 1005afd0 f i config_system.obj
 0001:0005a060       ?push_back@?$basic_string@_WU?$char_traits@_W@std@@V?$allocator@_W@2@@std@@QAEX_W@Z 1005b060 f i config_system.obj
 0001:0005a100       ?push_back@?$vector@V?$basic_string@DU?$char_traits@D@std@@V?$allocator@D@2@@std@@V?$allocator@V?$basic_string@DU?$char_traits@D@std@@V?$allocator@D@2@@std@@@2@@std@@QAEX$$QAV?$basic_string@DU?$char_traits@D@std@@V?$allocator@D@2@@2@@Z 1005b100 f i config_system.obj
 0001:0005a130       ?remove@c_config@@QAEXI@Z  1005b130 f   config_system.obj
 0001:0005a210       ?remove@filesystem@std@@YA_NABVpath@12@@Z 1005b210 f i config_system.obj
 0001:0005a260       ?remove_filename@path@filesystem@std@@QAEAAV123@XZ 1005b260 f i config_system.obj
 0001:0005a2f0       ?rename@c_config@@QAEXIPBD@Z 1005b2f0 f   config_system.obj
 0001:0005a410       ?rename@filesystem@std@@YAXABVpath@12@0@Z 1005b410 f i config_system.obj
 0001:0005a460       ?replace_filename@path@filesystem@std@@QAEAAV123@ABV123@@Z 1005b460 f i config_system.obj
 0001:0005a490       ?reserve@?$basic_string@DU?$char_traits@D@std@@V?$allocator@D@2@@std@@QAEXI@Z 1005b490 f i config_system.obj
 0001:0005a520       ?reset@?$shared_ptr@U_Dir_enum_impl@filesystem@std@@@std@@QAEXXZ 1005b520 f i config_system.obj
 0001:0005a550       ?reset@c_config@@QAEXXZ    1005b550 f   config_system.obj
 0001:0005a900       ?resize@?$basic_string@DU?$char_traits@D@std@@V?$allocator@D@2@@std@@QAEXID@Z 1005b900 f i config_system.obj
 0001:0005a950       ?resize@?$basic_string@_WU?$char_traits@_W@std@@V?$allocator@_W@2@@std@@QAEXI_W@Z 1005b950 f i config_system.obj
 0001:0005a9a0       ?run@c_config@@QAEXPBD@Z   1005b9a0 f   config_system.obj
 0001:0005aae0       ?save@c_config@@QBEXI@Z    1005bae0 f   config_system.obj
 0001:0005ac30       ?seekoff@?$basic_filebuf@DU?$char_traits@D@std@@@std@@MAE?AV?$fpos@U_Mbstatet@@@2@_JHH@Z 1005bc30 f i config_system.obj
 0001:0005ad10       ?seekpos@?$basic_filebuf@DU?$char_traits@D@std@@@std@@MAE?AV?$fpos@U_Mbstatet@@@2@V32@H@Z 1005bd10 f i config_system.obj
 0001:0005adb0       ?setbuf@?$basic_filebuf@DU?$char_traits@D@std@@@std@@MAEPAV?$basic_streambuf@DU?$char_traits@D@std@@@2@PAD_J@Z 1005bdb0 f i config_system.obj
 0001:0005ae30       ?shrink_to_fit@?$basic_string@DU?$char_traits@D@std@@V?$allocator@D@2@@std@@QAEXXZ 1005be30 f i config_system.obj
 0001:0005af40       ?size@?$vector@V?$basic_string@DU?$char_traits@D@std@@V?$allocator@D@2@@std@@V?$allocator@V?$basic_string@DU?$char_traits@D@std@@V?$allocator@D@2@@std@@@2@@std@@QBEIXZ 1005bf40 f i config_system.obj
 0001:0005af70       ?state@?$fpos@U_Mbstatet@@@std@@QBE?AU_Mbstatet@@XZ 1005bf70 f i config_system.obj
 0001:0005afa0       ?status@filesystem@std@@YA?AVfile_status@12@ABVpath@12@@Z 1005bfa0 f i config_system.obj
 0001:0005b020       ?string@path@filesystem@std@@QBE?AV?$basic_string@DU?$char_traits@D@std@@V?$allocator@D@2@@3@XZ 1005c020 f i config_system.obj
 0001:0005b060       ?swap@?$shared_ptr@U_Dir_enum_impl@filesystem@std@@@std@@QAEXAAV12@@Z 1005c060 f i config_system.obj
 0001:0005b080       ?sync@?$basic_filebuf@DU?$char_traits@D@std@@@std@@MAEHXZ 1005c080 f i config_system.obj
 0001:0005b100       ?system_category@std@@YAABVerror_category@1@XZ 1005c100 f i config_system.obj
 0001:0005b140       ?to_char_type@?$char_traits@D@std@@SADABH@Z 1005c140 f i config_system.obj
 0001:0005b150       ?to_int_type@?$char_traits@D@std@@SAHABD@Z 1005c150 f i config_system.obj
 0001:0005b160       ?uflow@?$basic_filebuf@DU?$char_traits@D@std@@@std@@MAEHXZ 1005c160 f i config_system.obj
 0001:0005b3f0       ?underflow@?$basic_filebuf@DU?$char_traits@D@std@@@std@@MAEHXZ 1005c3f0 f i config_system.obj
 0001:0005b490       ?what@filesystem_error@filesystem@std@@UBEPBDXZ 1005c490 f i config_system.obj
 0001:0005b4b0       ?xsgetn@?$basic_filebuf@DU?$char_traits@D@std@@@std@@MAE_JPAD_J@Z 1005c4b0 f i config_system.obj
 0001:0005b5d0       ?xsputn@?$basic_filebuf@DU?$char_traits@D@std@@@std@@MAE_JPBD_J@Z 1005c5d0 f i config_system.obj
 0001:0005b6f0       _wmemmove                  1005c6f0 f i config_system.obj
 0001:0005b710       _wmemset                   1005c710 f i config_system.obj
 0001:0005b770       ??0c_menu@@QAE@XZ          1005c770 f i menu_system.obj
 0001:0005b7d0       ?Render@c_menu@@QAEXXZ     1005c7d0 f   menu_system.obj
 0001:0005c5d0       ?apply_fonts@c_menu@@QAEXXZ 1005d5d0 f   menu_system.obj
 0001:0005c650       ?begin_popup@ImGui@@YAXPBDHPA_N@Z 1005d650 f   menu_system.obj
 0001:0005ca40       ?config_tab@@YAXXZ         1005da40 f   menu_system.obj
 0001:0005cfe0       ?get_mils@ImGui@@YAJXZ     1005dfe0 f   menu_system.obj
 0001:0005d020       ?legit_tab@@YAXXZ          1005e020 f   menu_system.obj
 0001:0005d340       ?misc_tab@@YAXXZ           1005e340 f   menu_system.obj
 0001:0005d620       ?rage_tab@@YAXXZ           1005e620 f   menu_system.obj
 0001:0005dba0       ?run_popup@c_menu@@QAEXXZ  1005eba0 f   menu_system.obj
 0001:0005dd20       ?visuals_tab@@YAXXZ        1005ed20 f   menu_system.obj
 0001:0005e6d0       ?FixSetupBones@C_BaseEntity@@QAEXPAVmatrix3x4_t@@@Z 1005f6d0 f   CEntity.obj
 0001:0005e7a0       ?GetHitbox@mstudiohitboxset_t@@QBEPAUmstudiobbox_t@@H@Z 1005f7a0 f i CEntity.obj
 0001:0005e7c0       ?GetHitboxPosition@C_BaseEntity@@QAE?AVVector@@HPAVmatrix3x4_t@@@Z 1005f7c0 f   CEntity.obj
 0001:0005e930       ?GetHitboxPosition@C_BaseEntity@@QAE?AVVector@@HPAVmatrix3x4_t@@PAM@Z 1005f930 f   CEntity.obj
 0001:0005eab0       ?GetHitboxSet@studiohdr_t@@QBEPAUmstudiohitboxset_t@@H@Z 1005fab0 f i CEntity.obj
 0001:0005eae0       ?GetStudiomodel@IVModelInfo@@QAEPAUstudiohdr_t@@PBUmodel_t@@@Z 1005fae0 f i CEntity.obj
 0001:0005eb10       ?IsKnifeorNade@C_BaseEntity@@QAE_NXZ 1005fb10 f   CEntity.obj
 0001:0005ed30       ?SetAbsAngles@C_BaseEntity@@QAEXVVector@@@Z 1005fd30 f   CEntity.obj
 0001:0005edf0       ?SetAbsOrigin@C_BaseEntity@@QAEXVVector@@@Z 1005fdf0 f   CEntity.obj
 0001:0005eea0       ??$?6U?$char_traits@D@std@@@std@@YAAAV?$basic_ostream@DU?$char_traits@D@std@@@0@AAV10@PBD@Z 1005fea0 f i Interfaces.obj
 0001:0005f220       ??$?6V?$basic_ofstream@DU?$char_traits@D@std@@@std@@$$BY0OF@D$0A@@std@@YA$$QAV?$basic_ofstream@DU?$char_traits@D@std@@@0@$$QAV10@AAY0OF@$$CBD@Z 10060220 f i Interfaces.obj
 0001:0005f220       ??$?6V?$basic_ofstream@DU?$char_traits@D@std@@@std@@$$BY0MO@D$0A@@std@@YA$$QAV?$basic_ofstream@DU?$char_traits@D@std@@@0@$$QAV10@AAY0MO@$$CBD@Z 10060220 f i Interfaces.obj
 0001:0005f250       ??$CaptureInterface@VIGameEventManager@@@interfaces@@YAPAVIGameEventManager@@PBD0@Z 10060250 f i Interfaces.obj
 0001:0005f300       ??$FindClass@VCModelRender@@@interfaces@@YAPAVCModelRender@@V?$basic_string@DU?$char_traits@D@std@@V?$allocator@D@2@@std@@0_N@Z 10060300 f i Interfaces.obj
 0001:0005f4e0       ??$FindClass@VCPrediction@@@interfaces@@YAPAVCPrediction@@V?$basic_string@DU?$char_traits@D@std@@V?$allocator@D@2@@std@@0_N@Z 100604e0 f i Interfaces.obj
 0001:0005f6c0       ??$FindClass@VIBaseClientDLL@@@interfaces@@YAPAVIBaseClientDLL@@V?$basic_string@DU?$char_traits@D@std@@V?$allocator@D@2@@std@@0_N@Z 100606c0 f i Interfaces.obj
 0001:0005f8a0       ??$FindClass@VICVar@@@interfaces@@YAPAVICVar@@V?$basic_string@DU?$char_traits@D@std@@V?$allocator@D@2@@std@@0_N@Z 100608a0 f i Interfaces.obj
 0001:0005fa80       ??$FindClass@VIClientEntityList@@@interfaces@@YAPAVIClientEntityList@@V?$basic_string@DU?$char_traits@D@std@@V?$allocator@D@2@@std@@0_N@Z 10060a80 f i Interfaces.obj
 0001:0005fc60       ??$FindClass@VIEngineTrace@@@interfaces@@YAPAVIEngineTrace@@V?$basic_string@DU?$char_traits@D@std@@V?$allocator@D@2@@std@@0_N@Z 10060c60 f i Interfaces.obj
 0001:0005fe40       ??$FindClass@VIGameMovement@@@interfaces@@YAPAVIGameMovement@@V?$basic_string@DU?$char_traits@D@std@@V?$allocator@D@2@@std@@0_N@Z 10060e40 f i Interfaces.obj
 0001:00060020       ??$FindClass@VIMaterialSystem@@@interfaces@@YAPAVIMaterialSystem@@V?$basic_string@DU?$char_traits@D@std@@V?$allocator@D@2@@std@@0_N@Z 10061020 f i Interfaces.obj
 0001:00060200       ??$FindClass@VIPanel@@@interfaces@@YAPAVIPanel@@V?$basic_string@DU?$char_traits@D@std@@V?$allocator@D@2@@std@@0_N@Z 10061200 f i Interfaces.obj
 0001:000603e0       ??$FindClass@VIPhysicsSurfaceProps@@@interfaces@@YAPAVIPhysicsSurfaceProps@@V?$basic_string@DU?$char_traits@D@std@@V?$allocator@D@2@@std@@0_N@Z 100613e0 f i Interfaces.obj
 0001:000605c0       ??$FindClass@VISurface@@@interfaces@@YAPAVISurface@@V?$basic_string@DU?$char_traits@D@std@@V?$allocator@D@2@@std@@0_N@Z 100615c0 f i Interfaces.obj
 0001:000607a0       ??$FindClass@VIVEngineClient@@@interfaces@@YAPAVIVEngineClient@@V?$basic_string@DU?$char_traits@D@std@@V?$allocator@D@2@@std@@0_N@Z 100617a0 f i Interfaces.obj
 0001:00060980       ??$FindClass@VIVModelInfo@@@interfaces@@YAPAVIVModelInfo@@V?$basic_string@DU?$char_traits@D@std@@V?$allocator@D@2@@std@@0_N@Z 10061980 f i Interfaces.obj
 0001:00060b60       ??$FindClass@VIVRenderView@@@interfaces@@YAPAVIVRenderView@@V?$basic_string@DU?$char_traits@D@std@@V?$allocator@D@2@@std@@0_N@Z 10061b60 f i Interfaces.obj
 0001:00060d40       ??$sprintf_s@$0BAA@@@YAHAAY0BAA@DPBDZZ 10061d40 f i Interfaces.obj
 0001:00060d70       ??0?$basic_ofstream@DU?$char_traits@D@std@@@std@@QAE@PBDHH@Z 10061d70 f i Interfaces.obj
 0001:00060e90       ??0_Sentry_base@?$basic_ostream@DU?$char_traits@D@std@@@std@@QAE@AAV12@@Z 10061e90 f i Interfaces.obj
 0001:00060ef0       ??0sentry@?$basic_ostream@DU?$char_traits@D@std@@@std@@QAE@AAV12@@Z 10061ef0 f i Interfaces.obj
 0001:00060fd0       ??1_Sentry_base@?$basic_ostream@DU?$char_traits@D@std@@@std@@QAE@XZ 10061fd0 f i Interfaces.obj
 0001:00061050       ??1sentry@?$basic_ostream@DU?$char_traits@D@std@@@std@@QAE@XZ 10062050 f i Interfaces.obj
 0001:000610b0       ??Bsentry@?$basic_ostream@DU?$char_traits@D@std@@@std@@QBE_NXZ 100620b0 f i Interfaces.obj
 0001:000610d0       ?Init@interfaces@@YAXXZ    100620d0 f   Interfaces.obj
 0001:000616a0       ?open@?$basic_filebuf@DU?$char_traits@D@std@@@std@@QAEPAV12@PBDHH@Z 100626a0 f i Interfaces.obj
 0001:00061760       ??$isinf@M@@YA_NM@Z        10062760 f i Math.obj
 0001:000617a0       ??$isnan@M@@YA_NM@Z        100627a0 f i Math.obj
 0001:000617e0       ??AVector@@QBEMH@Z         100627e0 f i Math.obj
 0001:00061800       ?AngleVectors@Math@@QAEXABVVector@@PAV2@11@Z 10062800 f   Math.obj
 0001:000619e0       ?AngleVectors@Math@@QAEXABVVector@@PAV2@@Z 100629e0 f   Math.obj
 0001:00061ae0       ?CalcAngle@Math@@QAE?AVVector@@ABV2@0@Z 10062ae0 f   Math.obj
 0001:00061d30       ?Clamp@Math@@QAE_NAAVVector@@@Z 10062d30 f   Math.obj
 0001:00061e20       ?ClampAngles@Math@@QAEXAAVVector@@@Z 10062e20 f   Math.obj
 0001:00061ec0       ?CrossProduct@@YA?AVVector@@ABV1@0@Z 10062ec0 f i Math.obj
 0001:00061f50       ?Distance@Math@@QAEMVVector2D@@0@Z 10062f50 f   Math.obj
 0001:00061fb0       ?DotProduct@@YAMABVVector@@0@Z 10062fb0 f i Math.obj
 0001:00062000       ?GRD_TO_BOG@Math@@QAEMM@Z  10063000 f   Math.obj
 0001:00062030       ?NormalizeAngles@Math@@QAEXAAVVector@@@Z 10063030 f   Math.obj
 0001:000620e0       ?NormalizeYaw@Math@@QAEMM@Z 100630e0 f   Math.obj
 0001:00062180       ?RandomFloat@Math@@QAEMMM@Z 10063180 f   Math.obj
 0001:00062210       ?VectorAngles@Math@@QAEXABVVector@@AAV2@1@Z 10063210 f   Math.obj
 0001:00062410       ?VectorAngles@Math@@QAEXABVVector@@AAV2@@Z 10063410 f   Math.obj
 0001:00062690       ?VectorTransform@Math@@QAEXVVector@@Vmatrix3x4_t@@AAV2@@Z 10063690 f   Math.obj
 0001:00062900       ?atan@@YAMM@Z              10063900 f i Math.obj
 0001:00062920       ?fpclassify@@YAHM@Z        10063920 f i Math.obj
 0001:00062940       ?round@@YAMM@Z             10063940 f i Math.obj
 0001:00062960       ?sin_cos@@YAXMPAM0@Z       10063960 f   Math.obj
 0001:000629a0       _atanf                     100639a0 f i Math.obj
 0001:000629c0       ??$?0AAU?$equal_to@V?$basic_string@DU?$char_traits@D@std@@V?$allocator@D@2@@std@@@std@@M@?$_Compressed_pair@U?$equal_to@V?$basic_string@DU?$char_traits@D@std@@V?$allocator@D@2@@std@@@std@@M$00@std@@QAE@U_One_then_variadic_args_t@1@AAU?$equal_to@V?$basic_string@DU?$char_traits@D@std@@V?$allocator@D@2@@std@@@1@$$QAM@Z 100639c0 f i NetvarManager.obj
 0001:000629f0       ??$?0AAU?$hash@V?$basic_string@DU?$char_traits@D@std@@V?$allocator@D@2@@std@@@std@@U_One_then_variadic_args_t@1@AAU?$equal_to@V?$basic_string@DU?$char_traits@D@std@@V?$allocator@D@2@@std@@@1@M@?$_Compressed_pair@U?$hash@V?$basic_string@DU?$char_traits@D@std@@V?$allocator@D@2@@std@@@std@@V?$_Compressed_pair@U?$equal_to@V?$basic_string@DU?$char_traits@D@std@@V?$allocator@D@2@@std@@@std@@M$00@2@$00@std@@QAE@U_One_then_variadic_args_t@1@AAU?$hash@V?$basic_string@DU?$char_traits@D@std@@V?$allocator@D@2@@std@@@1@$$QAU21@AAU?$equal_to@V?$basic_string@DU?$char_traits@D@std@@V?$allocator@D@2@@std@@@1@$$QAM@Z 100639f0 f i NetvarManager.obj
 0001:00062a60       ??$?0ABV?$allocator@U?$pair@$$CBV?$basic_string@DU?$char_traits@D@std@@V?$allocator@D@2@@std@@V?$shared_ptr@UNode@NetvarTree@@@2@@std@@@std@@$$V@?$_Compressed_pair@V?$allocator@U?$_List_node@U?$pair@$$CBV?$basic_string@DU?$char_traits@D@std@@V?$allocator@D@2@@std@@V?$shared_ptr@UNode@NetvarTree@@@2@@std@@PAX@std@@@std@@V?$_List_val@U?$_List_simple_types@U?$pair@$$CBV?$basic_string@DU?$char_traits@D@std@@V?$allocator@D@2@@std@@V?$shared_ptr@UNode@NetvarTree@@@2@@std@@@std@@@2@$00@std@@QAE@U_One_then_variadic_args_t@1@ABV?$allocator@U?$pair@$$CBV?$basic_string@DU?$char_traits@D@std@@V?$allocator@D@2@@std@@V?$shared_ptr@UNode@NetvarTree@@@2@@std@@@1@@Z 10063a60 f i NetvarManager.obj
 0001:00062a90       ??$?0ABV?$allocator@U?$pair@$$CBV?$basic_string@DU?$char_traits@D@std@@V?$allocator@D@2@@std@@V?$shared_ptr@UNode@NetvarTree@@@2@@std@@@std@@X@?$_List_alloc@U?$_List_base_types@U?$pair@$$CBV?$basic_string@DU?$char_traits@D@std@@V?$allocator@D@2@@std@@V?$shared_ptr@UNode@NetvarTree@@@2@@std@@V?$allocator@U?$pair@$$CBV?$basic_string@DU?$char_traits@D@std@@V?$allocator@D@2@@std@@V?$shared_ptr@UNode@NetvarTree@@@2@@std@@@2@@std@@@std@@QAE@ABV?$allocator@U?$pair@$$CBV?$basic_string@DU?$char_traits@D@std@@V?$allocator@D@2@@std@@V?$shared_ptr@UNode@NetvarTree@@@2@@std@@@1@@Z 10063a90 f i NetvarManager.obj
 0001:00062af0       ??$?0ABV?$allocator@U?$pair@$$CBV?$basic_string@DU?$char_traits@D@std@@V?$allocator@D@2@@std@@V?$shared_ptr@UNode@NetvarTree@@@2@@std@@@std@@X@?$_List_buy@U?$pair@$$CBV?$basic_string@DU?$char_traits@D@std@@V?$allocator@D@2@@std@@V?$shared_ptr@UNode@NetvarTree@@@2@@std@@V?$allocator@U?$pair@$$CBV?$basic_string@DU?$char_traits@D@std@@V?$allocator@D@2@@std@@V?$shared_ptr@UNode@NetvarTree@@@2@@std@@@2@@std@@QAE@ABV?$allocator@U?$pair@$$CBV?$basic_string@DU?$char_traits@D@std@@V?$allocator@D@2@@std@@V?$shared_ptr@UNode@NetvarTree@@@2@@std@@@1@@Z 10063af0 f i NetvarManager.obj
 0001:00062b20       ??$?0H@?$_Ref_count_obj@UNode@NetvarTree@@@std@@QAE@$$QAH@Z 10063b20 f i NetvarManager.obj
 0001:00062bb0       ??$?0PBDABV?$shared_ptr@UNode@NetvarTree@@@std@@$0A@@?$pair@$$CBV?$basic_string@DU?$char_traits@D@std@@V?$allocator@D@2@@std@@V?$shared_ptr@UNode@NetvarTree@@@2@@std@@QAE@$$QAPBDABV?$shared_ptr@UNode@NetvarTree@@@1@@Z 10063bb0 f i NetvarManager.obj
 0001:00062c00       ??$_Buynode@PBDABV?$shared_ptr@UNode@NetvarTree@@@std@@@?$_List_buy@U?$pair@$$CBV?$basic_string@DU?$char_traits@D@std@@V?$allocator@D@2@@std@@V?$shared_ptr@UNode@NetvarTree@@@2@@std@@V?$allocator@U?$pair@$$CBV?$basic_string@DU?$char_traits@D@std@@V?$allocator@D@2@@std@@V?$shared_ptr@UNode@NetvarTree@@@2@@std@@@2@@std@@QAEPAU?$_List_node@U?$pair@$$CBV?$basic_string@DU?$char_traits@D@std@@V?$allocator@D@2@@std@@V?$shared_ptr@UNode@NetvarTree@@@2@@std@@PAX@1@PAU21@0$$QAPBDABV?$shared_ptr@UNode@NetvarTree@@@1@@Z 10063c00 f i NetvarManager.obj
 0001:00062cf0       ??$_Insert@PBDABV?$shared_ptr@UNode@NetvarTree@@@std@@@?$list@U?$pair@$$CBV?$basic_string@DU?$char_traits@D@std@@V?$allocator@D@2@@std@@V?$shared_ptr@UNode@NetvarTree@@@2@@std@@V?$allocator@U?$pair@$$CBV?$basic_string@DU?$char_traits@D@std@@V?$allocator@D@2@@std@@V?$shared_ptr@UNode@NetvarTree@@@2@@std@@@2@@std@@QAEXV?$_List_unchecked_const_iterator@V?$_List_val@U?$_List_simple_types@U?$pair@$$CBV?$basic_string@DU?$char_traits@D@std@@V?$allocator@D@2@@std@@V?$shared_ptr@UNode@NetvarTree@@@2@@std@@@std@@@std@@U_Iterator_base0@2@@1@$$QAPBDABV?$shared_ptr@UNode@NetvarTree@@@1@@Z 10063cf0 f i NetvarManager.obj
 0001:00062d70       ??$construct@U?$pair@$$CBV?$basic_string@DU?$char_traits@D@std@@V?$allocator@D@2@@std@@V?$shared_ptr@UNode@NetvarTree@@@2@@std@@PBDABV?$shared_ptr@UNode@NetvarTree@@@2@@?$_Default_allocator_traits@V?$allocator@U?$_List_node@U?$pair@$$CBV?$basic_string@DU?$char_traits@D@std@@V?$allocator@D@2@@std@@V?$shared_ptr@UNode@NetvarTree@@@2@@std@@PAX@std@@@std@@@std@@SAXAAV?$allocator@U?$_List_node@U?$pair@$$CBV?$basic_string@DU?$char_traits@D@std@@V?$allocator@D@2@@std@@V?$shared_ptr@UNode@NetvarTree@@@2@@std@@PAX@std@@@1@QAU?$pair@$$CBV?$basic_string@DU?$char_traits@D@std@@V?$allocator@D@2@@std@@V?$shared_ptr@UNode@NetvarTree@@@2@@1@$$QAPBDABV?$shared_ptr@UNode@NetvarTree@@@1@@Z 10063d70 f i NetvarManager.obj
 0001:00062dc0       ??$emplace@PBDABV?$shared_ptr@UNode@NetvarTree@@@std@@@?$_Hash@V?$_Umap_traits@V?$basic_string@DU?$char_traits@D@std@@V?$allocator@D@2@@std@@V?$shared_ptr@UNode@NetvarTree@@@2@V?$_Uhash_compare@V?$basic_string@DU?$char_traits@D@std@@V?$allocator@D@2@@std@@U?$hash@V?$basic_string@DU?$char_traits@D@std@@V?$allocator@D@2@@std@@@2@U?$equal_to@V?$basic_string@DU?$char_traits@D@std@@V?$allocator@D@2@@std@@@2@@2@V?$allocator@U?$pair@$$CBV?$basic_string@DU?$char_traits@D@std@@V?$allocator@D@2@@std@@V?$shared_ptr@UNode@NetvarTree@@@2@@std@@@2@$0A@@std@@@std@@QAE?AU?$pair@V?$_List_iterator@V?$_List_val@U?$_List_simple_types@U?$pair@$$CBV?$basic_string@DU?$char_traits@D@std@@V?$allocator@D@2@@std@@V?$shared_ptr@UNode@NetvarTree@@@2@@std@@@std@@@std@@@std@@_N@1@$$QAPBDABV?$shared_ptr@UNode@NetvarTree@@@1@@Z 10063dc0 f i NetvarManager.obj
 0001:00062e40       ??$emplace_front@PBDABV?$shared_ptr@UNode@NetvarTree@@@std@@@?$list@U?$pair@$$CBV?$basic_string@DU?$char_traits@D@std@@V?$allocator@D@2@@std@@V?$shared_ptr@UNode@NetvarTree@@@2@@std@@V?$allocator@U?$pair@$$CBV?$basic_string@DU?$char_traits@D@std@@V?$allocator@D@2@@std@@V?$shared_ptr@UNode@NetvarTree@@@2@@std@@@2@@std@@QAEAAU?$pair@$$CBV?$basic_string@DU?$char_traits@D@std@@V?$allocator@D@2@@std@@V?$shared_ptr@UNode@NetvarTree@@@2@@1@$$QAPBDABV?$shared_ptr@UNode@NetvarTree@@@1@@Z 10063e40 f i NetvarManager.obj
 0001:00062eb0       ??$make_shared@UNode@NetvarTree@@H@std@@YA?AV?$shared_ptr@UNode@NetvarTree@@@0@$$QAH@Z 10063eb0 f i NetvarManager.obj
 0001:00062f90       ??0?$_Hash@V?$_Umap_traits@V?$basic_string@DU?$char_traits@D@std@@V?$allocator@D@2@@std@@V?$shared_ptr@UNode@NetvarTree@@@2@V?$_Uhash_compare@V?$basic_string@DU?$char_traits@D@std@@V?$allocator@D@2@@std@@U?$hash@V?$basic_string@DU?$char_traits@D@std@@V?$allocator@D@2@@std@@@2@U?$equal_to@V?$basic_string@DU?$char_traits@D@std@@V?$allocator@D@2@@std@@@2@@2@V?$allocator@U?$pair@$$CBV?$basic_string@DU?$char_traits@D@std@@V?$allocator@D@2@@std@@V?$shared_ptr@UNode@NetvarTree@@@2@@std@@@2@$0A@@std@@@std@@QAE@ABV?$_Uhash_compare@V?$basic_string@DU?$char_traits@D@std@@V?$allocator@D@2@@std@@U?$hash@V?$basic_string@DU?$char_traits@D@std@@V?$allocator@D@2@@std@@@2@U?$equal_to@V?$basic_string@DU?$char_traits@D@std@@V?$allocator@D@2@@std@@@2@@1@ABV?$allocator@U?$pair@$$CBV?$basic_string@DU?$char_traits@D@std@@V?$allocator@D@2@@std@@V?$shared_ptr@UNode@NetvarTree@@@2@@std@@@1@@Z 10063f90 f i NetvarManager.obj
 0001:00063050       ??0?$_Uhash_compare@V?$basic_string@DU?$char_traits@D@std@@V?$allocator@D@2@@std@@U?$hash@V?$basic_string@DU?$char_traits@D@std@@V?$allocator@D@2@@std@@@2@U?$equal_to@V?$basic_string@DU?$char_traits@D@std@@V?$allocator@D@2@@std@@@2@@std@@QAE@U?$hash@V?$basic_string@DU?$char_traits@D@std@@V?$allocator@D@2@@std@@@1@U?$equal_to@V?$basic_string@DU?$char_traits@D@std@@V?$allocator@D@2@@std@@@1@@Z 10064050 f i NetvarManager.obj
 0001:00063090       ??0?$_Umap_traits@V?$basic_string@DU?$char_traits@D@std@@V?$allocator@D@2@@std@@V?$shared_ptr@UNode@NetvarTree@@@2@V?$_Uhash_compare@V?$basic_string@DU?$char_traits@D@std@@V?$allocator@D@2@@std@@U?$hash@V?$basic_string@DU?$char_traits@D@std@@V?$allocator@D@2@@std@@@2@U?$equal_to@V?$basic_string@DU?$char_traits@D@std@@V?$allocator@D@2@@std@@@2@@2@V?$allocator@U?$pair@$$CBV?$basic_string@DU?$char_traits@D@std@@V?$allocator@D@2@@std@@V?$shared_ptr@UNode@NetvarTree@@@2@@std@@@2@$0A@@std@@QAE@ABV?$_Uhash_compare@V?$basic_string@DU?$char_traits@D@std@@V?$allocator@D@2@@std@@U?$hash@V?$basic_string@DU?$char_traits@D@std@@V?$allocator@D@2@@std@@@2@U?$equal_to@V?$basic_string@DU?$char_traits@D@std@@V?$allocator@D@2@@std@@@2@@1@@Z 10064090 f i NetvarManager.obj
 0001:000630b0       ??0?$list@U?$pair@$$CBV?$basic_string@DU?$char_traits@D@std@@V?$allocator@D@2@@std@@V?$shared_ptr@UNode@NetvarTree@@@2@@std@@V?$allocator@U?$pair@$$CBV?$basic_string@DU?$char_traits@D@std@@V?$allocator@D@2@@std@@V?$shared_ptr@UNode@NetvarTree@@@2@@std@@@2@@std@@QAE@ABV?$allocator@U?$pair@$$CBV?$basic_string@DU?$char_traits@D@std@@V?$allocator@D@2@@std@@V?$shared_ptr@UNode@NetvarTree@@@2@@std@@@1@@Z 100640b0 f i NetvarManager.obj
 0001:000630d0       ??0?$unordered_map@V?$basic_string@DU?$char_traits@D@std@@V?$allocator@D@2@@std@@V?$shared_ptr@UNode@NetvarTree@@@2@U?$hash@V?$basic_string@DU?$char_traits@D@std@@V?$allocator@D@2@@std@@@2@U?$equal_to@V?$basic_string@DU?$char_traits@D@std@@V?$allocator@D@2@@std@@@2@V?$allocator@U?$pair@$$CBV?$basic_string@DU?$char_traits@D@std@@V?$allocator@D@2@@std@@V?$shared_ptr@UNode@NetvarTree@@@2@@std@@@2@@std@@QAE@XZ 100640d0 f i NetvarManager.obj
 0001:00063110       ??0?$vector@V?$_List_unchecked_iterator@V?$_List_val@U?$_List_simple_types@U?$pair@$$CBV?$basic_string@DU?$char_traits@D@std@@V?$allocator@D@2@@std@@V?$shared_ptr@UNode@NetvarTree@@@2@@std@@@std@@@std@@@std@@V?$allocator@V?$_List_unchecked_iterator@V?$_List_val@U?$_List_simple_types@U?$pair@$$CBV?$basic_string@DU?$char_traits@D@std@@V?$allocator@D@2@@std@@V?$shared_ptr@UNode@NetvarTree@@@2@@std@@@std@@@std@@@std@@@2@@std@@QAE@ABV?$allocator@V?$_List_unchecked_iterator@V?$_List_val@U?$_List_simple_types@U?$pair@$$CBV?$basic_string@DU?$char_traits@D@std@@V?$allocator@D@2@@std@@V?$shared_ptr@UNode@NetvarTree@@@2@@std@@@std@@@std@@@std@@@1@@Z 10064110 f i NetvarManager.obj
 0001:00063160       ??0NetvarTree@@QAE@XZ      10064160 f   NetvarManager.obj
 0001:00063240       ??0Node@NetvarTree@@QAE@H@Z 10064240 f i NetvarManager.obj
 0001:00063270       ??_E?$_Ref_count_obj@UNode@NetvarTree@@@std@@UAEPAXI@Z 10064270 f i NetvarManager.obj
 0001:00063270       ??_G?$_Ref_count_obj@UNode@NetvarTree@@@std@@UAEPAXI@Z 10064270 f i NetvarManager.obj
 0001:000632a0       ??_GNode@NetvarTree@@QAEPAXI@Z 100642a0 f i NetvarManager.obj
 0001:000632d0       ?GetDataTable@RecvProp@@QBEPAVRecvTable@@XZ 100642d0 f i NetvarManager.obj
 0001:000632f0       ?GetName@RecvTable@@QAEPBDXZ 100642f0 f i NetvarManager.obj
 0001:00063310       ?GetOffset@RecvProp@@QBEHXZ 10064310 f i NetvarManager.obj
 0001:00063330       ?GetProp@RecvTable@@QAEPAVRecvProp@@H@Z 10064330 f i NetvarManager.obj
 0001:00063350       ?PopulateNodes@NetvarTree@@AAEXPAVRecvTable@@PAV?$unordered_map@V?$basic_string@DU?$char_traits@D@std@@V?$allocator@D@2@@std@@V?$shared_ptr@UNode@NetvarTree@@@2@U?$hash@V?$basic_string@DU?$char_traits@D@std@@V?$allocator@D@2@@std@@@2@U?$equal_to@V?$basic_string@DU?$char_traits@D@std@@V?$allocator@D@2@@std@@@2@V?$allocator@U?$pair@$$CBV?$basic_string@DU?$char_traits@D@std@@V?$allocator@D@2@@std@@V?$shared_ptr@UNode@NetvarTree@@@2@@std@@@2@@std@@@Z 10064350 f   NetvarManager.obj
 0001:00063450       ?_Buyheadnode@?$_List_alloc@U?$_List_base_types@U?$pair@$$CBV?$basic_string@DU?$char_traits@D@std@@V?$allocator@D@2@@std@@V?$shared_ptr@UNode@NetvarTree@@@2@@std@@V?$allocator@U?$pair@$$CBV?$basic_string@DU?$char_traits@D@std@@V?$allocator@D@2@@std@@V?$shared_ptr@UNode@NetvarTree@@@2@@std@@@2@@std@@@std@@QAEPAU?$_List_node@U?$pair@$$CBV?$basic_string@DU?$char_traits@D@std@@V?$allocator@D@2@@std@@V?$shared_ptr@UNode@NetvarTree@@@2@@std@@PAX@2@XZ 10064450 f i NetvarManager.obj
 0001:00063470       ?_Destroy@?$_Ref_count_obj@UNode@NetvarTree@@@std@@EAEXXZ 10064470 f i NetvarManager.obj
 0001:000634c0       ?_Getptr@?$_Ref_count_obj@UNode@NetvarTree@@@std@@QAEPAUNode@NetvarTree@@XZ 100644c0 f i NetvarManager.obj
 0001:000634d1       _K32GetModuleInformation@16 100644d1 f   kernel32:KERNEL32.dll
 0001:000634d7       _SHGetKnownFolderPath@16   100644d7 f   shell32:SHELL32.dll
 0001:000634dd       ?_Xlength_error@std@@YAXPBD@Z 100644dd f   msvcprt:MSVCP140.dll
 0001:000634e3       __Xtime_get_ticks          100644e3 f   msvcprt:MSVCP140.dll
 0001:000634e9       __Thrd_sleep               100644e9 f   msvcprt:MSVCP140.dll
 0001:000634ef       ?_Xout_of_range@std@@YAXPBD@Z 100644ef f   msvcprt:MSVCP140.dll
 0001:000634f5       ??1_Fac_node@std@@QAE@XZ   100644f5 f i msvcprt:locale0_implib.obj
 0001:00063554       ??1_Fac_tidy_reg_t@std@@QAE@XZ 10064554 f i msvcprt:locale0_implib.obj
 0001:0006357b       ?_Facet_Register@std@@YAXPAV_Facet_base@1@@Z 1006457b f   msvcprt:locale0_implib.obj
 0001:000635a7       ?_Getgloballocale@locale@std@@CAPAV_Locimp@12@XZ 100645a7 f   msvcprt:MSVCP140.dll
 0001:000635ad       ?_Execute_once@std@@YAHAAUonce_flag@1@P6GHPAX1PAPAX@Z1@Z 100645ad f   msvcprt:MSVCP140.dll
 0001:000635b3       ?_Syserror_map@std@@YAPBDH@Z 100645b3 f   msvcprt:MSVCP140.dll
 0001:000635b9       ?_Winerror_map@std@@YAHH@Z 100645b9 f   msvcprt:MSVCP140.dll
 0001:000635bf       ?_Winerror_message@std@@YAKKPADK@Z 100645bf f   msvcprt:MSVCP140.dll
 0001:00063614       ??$__crt_fast_encode_pointer@P6GHPAXW4_FILE_INFO_BY_HANDLE_CLASS@@0K@Z@@YAP6GHPAXW4_FILE_INFO_BY_HANDLE_CLASS@@0K@ZQ6GH010K@Z@Z 10064614 f i msvcprt:filesystem.obj
 0001:00063614       ??$__crt_fast_encode_pointer@P6GHPAU_RTL_CONDITION_VARIABLE@@PAU_RTL_CRITICAL_SECTION@@K@Z@@YAP6GHPAU_RTL_CONDITION_VARIABLE@@PAU_RTL_CRITICAL_SECTION@@K@ZQ6GH01K@Z@Z 10064614 f i MSVCRT:thread_safe_statics.obj
 0001:00063614       ??$__crt_fast_encode_pointer@P6GXPAU_RTL_CONDITION_VARIABLE@@@Z@@YAP6GXPAU_RTL_CONDITION_VARIABLE@@@ZQ6GX0@Z@Z 10064614 f i MSVCRT:thread_safe_statics.obj
 0001:0006363e       ___std_fs_close_handle@4   1006463e f   msvcprt:filesystem.obj
 0001:0006365e       ___std_fs_code_page@0      1006465e f   msvcprt:filesystem.obj
 0001:0006367c       ___std_fs_convert_narrow_to_wide@20 1006467c f   msvcprt:filesystem.obj
 0001:000636b0       ___std_fs_convert_wide_to_narrow@20 100646b0 f   msvcprt:filesystem.obj
 0001:00063763       ___std_fs_create_directory@4 10064763 f   msvcprt:filesystem.obj
 0001:0006379e       ___std_fs_directory_iterator_advance@8 1006479e f   msvcprt:filesystem.obj
 0001:000637bf       ___std_fs_directory_iterator_close@4 100647bf f   msvcprt:filesystem.obj
 0001:000637df       ___std_fs_directory_iterator_open@12 100647df f   msvcprt:filesystem.obj
 0001:0006383f       ___std_fs_get_stats@16     1006483f f   msvcprt:filesystem.obj
 0001:00063b82       ___std_fs_open_handle@16   10064b82 f   msvcprt:filesystem.obj
 0001:00063bb6       ___std_fs_remove@4         10064bb6 f   msvcprt:filesystem.obj
 0001:00063d03       ___std_fs_rename@8         10064d03 f   msvcprt:filesystem.obj
 0001:00063d26       ?_Fiopen@std@@YAPAU_iobuf@@PB_WHH@Z 10064d26 f   msvcprt:MSVCP140.dll
 0001:00063d2c       ?showmanyc@?$basic_streambuf@DU?$char_traits@D@std@@@std@@MAE_JXZ 10064d2c f   msvcprt:MSVCP140.dll
 0001:00063d32       ?uncaught_exception@std@@YA_NXZ 10064d32 f   msvcprt:MSVCP140.dll
 0001:00063d38       ?_Fiopen@std@@YAPAU_iobuf@@PBDHH@Z 10064d38 f   msvcprt:MSVCP140.dll
 0001:00063d3e       ??2@YAPAXI@Z               10064d3e f   MSVCRT:new_scalar.obj
 0001:00063d6e       ??3@YAXPAXI@Z              10064d6e f   MSVCRT:delete_scalar_size.obj
 0001:00063eae       __Init_thread_abort        10064eae f   MSVCRT:thread_safe_statics.obj
 0001:00063ed2       __Init_thread_footer       10064ed2 f   MSVCRT:thread_safe_statics.obj
 0001:00063f1c       __Init_thread_header       10064f1c f   MSVCRT:thread_safe_statics.obj
 0001:00063f6e       __Init_thread_notify       10064f6e f   MSVCRT:thread_safe_statics.obj
 0001:00063fb0       __Init_thread_wait         10064fb0 f   MSVCRT:thread_safe_statics.obj
 0001:00064010       @__security_check_cookie@4 10065010 f   MSVCRT:secchk.obj
 0001:00064030       __chkstk                   10065030 f   MSVCRT:chkstk.obj
 0001:00064030       __alloca_probe             10065030 f   MSVCRT:chkstk.obj
 0001:0006405d       ??_U@YAPAXI@Z              1006505d f   MSVCRT:new_array.obj
 0001:00064070       __ftoui3                   10065070 f   MSVCRT:ftol3.obj
 0001:0006407f       __ftoul3                   1006507f f   MSVCRT:ftol3.obj
 0001:0006408e       __ftol3                    1006508e f   MSVCRT:ftol3.obj
 0001:0006409b       __ftol3_NaN                1006509b f   MSVCRT:ftol3.obj
 0001:000640b3       __ftol3_work               100650b3 f   MSVCRT:ftol3.obj
 0001:00064139       __ftol3_common             10065139 f   MSVCRT:ftol3.obj
 0001:000641fb       __ftol3_arg_error          100651fb f   MSVCRT:ftol3.obj
 0001:0006420d       __ftol3_except             1006520d f   MSVCRT:ftol3.obj
 0001:00064251       __dtoui3                   10065251 f   MSVCRT:ftol3.obj
 0001:00064260       __dtoul3                   10065260 f   MSVCRT:ftol3.obj
 0001:0006426f       __dtol3                    1006526f f   MSVCRT:ftol3.obj
 0001:0006427c       __dtol3_NaN                1006527c f   MSVCRT:ftol3.obj
 0001:00064299       __dtol3_work               10065299 f   MSVCRT:ftol3.obj
 0001:00064380       __ultod3                   10065380 f   MSVCRT:ftol3.obj
 0001:000643c0       __ltod3                    100653c0 f   MSVCRT:ftol3.obj
 0001:000643e7       ??_L@YGXPAXIIP6EX0@Z1@Z    100653e7 f   MSVCRT:ehvecctr.obj
 0001:0006445b       ??_M@YGXPAXIIP6EX0@Z@Z     1006545b f   MSVCRT:ehvecdtr.obj
 0001:000644e0       ?__ArrayUnwind@@YGXPAXIIP6EX0@Z@Z 100654e0 f   MSVCRT:ehvecdtr.obj
 0001:00064559       ??_V@YAXPAX@Z              10065559 f   MSVCRT:delete_array.obj
 0001:000645a2       ___scrt_acquire_startup_lock 100655a2 f   MSVCRT:utility.obj
 0001:000645d4       ___scrt_dllmain_after_initialize_c 100655d4 f   MSVCRT:utility.obj
 0001:000645ff       ___scrt_dllmain_before_initialize_c 100655ff f   MSVCRT:utility.obj
 0001:0006460d       ___scrt_dllmain_crt_thread_attach 1006560d f   MSVCRT:utility.obj
 0001:0006462c       ___scrt_dllmain_crt_thread_detach 1006562c f   MSVCRT:utility.obj
 0001:00064639       ___scrt_dllmain_exception_filter 10065639 f   MSVCRT:utility.obj
 0001:0006466d       ___scrt_dllmain_uninitialize_c 1006566d f   MSVCRT:utility.obj
 0001:00064690       ___scrt_dllmain_uninitialize_critical 10065690 f   MSVCRT:utility.obj
 0001:0006469d       ___scrt_initialize_crt     1006569d f   MSVCRT:utility.obj
 0001:000646d6       ___scrt_initialize_onexit_tables 100656d6 f   MSVCRT:utility.obj
 0001:0006477b       ___scrt_is_nonwritable_in_current_image 1006577b f   MSVCRT:utility.obj
 0001:0006480f       ___scrt_release_startup_lock 1006580f f   MSVCRT:utility.obj
 0001:0006482c       ___scrt_uninitialize_crt   1006582c f   MSVCRT:utility.obj
 0001:00064854       __onexit                   10065854 f   MSVCRT:utility.obj
 0001:0006488f       _atexit                    1006588f f   MSVCRT:utility.obj
 0001:000648a4       ??_Gtype_info@@UAEPAXI@Z   100658a4 f i MSVCRT:std_type_info_static.obj
 0001:000648a4       ??_Etype_info@@UAEPAXI@Z   100658a4 f i MSVCRT:std_type_info_static.obj
 0001:000648d0       __alldiv                   100658d0 f   MSVCRT:lldiv.obj
 0001:00064980       __allmul                   10065980 f   MSVCRT:llmul.obj
 0001:000649c0       __ftol2_sse                100659c0 f   MSVCRT:ftol2.obj
 0001:000649c9       __ftol2_pentium4           100659c9 f   MSVCRT:ftol2.obj
 0001:000649dc       __ftol2_sse_excpt          100659dc f   MSVCRT:ftol2.obj
 0001:00064a00       __ftol2                    10065a00 f   MSVCRT:ftol2.obj
 0001:00064a75       ___raise_securityfailure   10065a75 f   MSVCRT:gs_report.obj
 0001:00064a9d       ___report_gsfailure        10065a9d f   MSVCRT:gs_report.obj
 0001:00064b96       ___report_rangecheckfailure 10065b96 f   MSVCRT:gs_report.obj
 0001:00064ba2       ___report_securityfailure  10065ba2 f   MSVCRT:gs_report.obj
 0001:00064c70       __alloca_probe_16          10065c70 f   MSVCRT:alloca16.obj
 0001:00064c86       __alloca_probe_8           10065c86     MSVCRT:alloca16.obj
 0001:00064ca0       __allshl                   10065ca0 f   MSVCRT:llshl.obj
 0001:00064fdf       __DllMainCRTStartup@12     10065fdf f   MSVCRT:dll_dllmain.obj
 0001:00065002       @_guard_check_icall_nop@4  10066002 f i MSVCRT:guard_support.obj
 0001:00065003       ??0bad_alloc@std@@QAE@ABV01@@Z 10066003 f i MSVCRT:throw_bad_alloc.obj
 0001:0006501e       ??0bad_alloc@std@@QAE@XZ   1006601e f i MSVCRT:throw_bad_alloc.obj
 0001:00065036       ??0bad_array_new_length@std@@QAE@ABV01@@Z 10066036 f i MSVCRT:throw_bad_alloc.obj
 0001:00065051       ??0bad_array_new_length@std@@QAE@XZ 10066051 f i MSVCRT:throw_bad_alloc.obj
 0001:00065069       ??1bad_alloc@std@@UAE@XZ   10066069 f i MSVCRT:throw_bad_alloc.obj
 0001:00065069       ??1bad_array_new_length@std@@UAE@XZ 10066069 f i MSVCRT:throw_bad_alloc.obj
 0001:0006507a       ??_Ebad_array_new_length@std@@UAEPAXI@Z 1006607a f i MSVCRT:throw_bad_alloc.obj
 0001:0006507a       ??_Gbad_array_new_length@std@@UAEPAXI@Z 1006607a f i MSVCRT:throw_bad_alloc.obj
 0001:0006507a       ??_Gbad_alloc@std@@UAEPAXI@Z 1006607a f i MSVCRT:throw_bad_alloc.obj
 0001:0006507a       ??_Ebad_alloc@std@@UAEPAXI@Z 1006607a f i MSVCRT:throw_bad_alloc.obj
 0001:000650a7       ?__scrt_throw_std_bad_alloc@@YAXXZ 100660a7 f   MSVCRT:throw_bad_alloc.obj
 0001:000650c4       ?__scrt_throw_std_bad_array_new_length@@YAXXZ 100660c4 f   MSVCRT:throw_bad_alloc.obj
 0001:000650e1       ??3@YAXPAX@Z               100660e1 f   MSVCRT:delete_scalar.obj
 0001:000650e6       ___scrt_fastfail           100660e6 f   MSVCRT:utility_desktop.obj
 0001:00065200       __crt_debugger_hook        10066200 f   MSVCRT:utility_desktop.obj
 0001:00065210       __SEH_prolog4              10066210 f   MSVCRT:sehprolg4.obj
 0001:00065256       __SEH_epilog4              10066256 f   MSVCRT:sehprolg4.obj
 0001:0006526b       __except_handler4          1006626b f   MSVCRT:chandler4gs.obj
 0001:0006528e       ___isa_available_init      1006628e f   MSVCRT:cpu_disp.obj
 0001:00065425       __get_startup_argv_mode    10066425 f   MSVCRT:argv_mode.obj
 0001:00065429       ___scrt_is_ucrt_dll_in_use 10066429 f   MSVCRT:ucrt_detection.obj
 0001:00065482       ___security_init_cookie    10066482 f   MSVCRT:gs_support.obj
 0001:000654cd       ?__scrt_initialize_type_info@@YAXXZ 100664cd f   MSVCRT:tncleanup.obj
 0001:000654d9       ?__scrt_uninitialize_type_info@@YAXXZ 100664d9 f   MSVCRT:tncleanup.obj
 0001:000654e5       ___scrt_initialize_default_local_stdio_options 100664e5 f   MSVCRT:default_local_stdio_options.obj
 0001:00065502       ___scrt_get_dyn_tls_init_callback 10066502 f   MSVCRT:dyn_tls_init.obj
 0001:00065508       __RTC_Initialize           10066508 f   MSVCRT:initsect.obj
 0001:00065534       __RTC_Terminate            10066534 f   MSVCRT:initsect.obj
 0001:00065560       _ImmGetContext@4           10066560 f   imm32:IMM32.dll
 0001:00065566       _ImmSetCompositionWindow@8 10066566 f   imm32:IMM32.dll
 0001:0006556c       __CxxThrowException@8      1006656c f   vcruntime:VCRUNTIME140.dll
 0001:00065572       ___CxxFrameHandler3        10066572 f   vcruntime:VCRUNTIME140.dll
 0001:00065578       _memcmp                    10066578 f   vcruntime:VCRUNTIME140.dll
 0001:0006557e       _memcpy                    1006657e f   vcruntime:VCRUNTIME140.dll
 0001:00065584       _memmove                   10066584 f   vcruntime:VCRUNTIME140.dll
 0001:0006558a       _memset                    1006658a f   vcruntime:VCRUNTIME140.dll
 0001:00065590       _strstr                    10066590 f   vcruntime:VCRUNTIME140.dll
 0001:00065596       __purecall                 10066596 f   vcruntime:VCRUNTIME140.dll
 0001:0006559c       ___std_exception_copy      1006659c f   vcruntime:VCRUNTIME140.dll
 0001:000655a2       ___std_exception_destroy   100665a2 f   vcruntime:VCRUNTIME140.dll
 0001:000655a8       _memchr                    100665a8 f   vcruntime:VCRUNTIME140.dll
 0001:000655ae       _strchr                    100665ae f   vcruntime:VCRUNTIME140.dll
 0001:000655b4       ___std_terminate           100665b4 f   vcruntime:VCRUNTIME140.dll
 0001:000655ba       __except_handler4_common   100665ba f   vcruntime:VCRUNTIME140.dll
 0001:000655c0       ___std_type_info_destroy_list 100665c0 f   vcruntime:VCRUNTIME140.dll
 0001:000655c6       __libm_sse2_cos_precise    100665c6 f   ucrt:api-ms-win-crt-math-l1-1-0.dll
 0001:000655cc       __libm_sse2_sin_precise    100665cc f   ucrt:api-ms-win-crt-math-l1-1-0.dll
 0001:000655d2       __libm_sse2_sqrt_precise   100665d2 f   ucrt:api-ms-win-crt-math-l1-1-0.dll
 0001:000655d8       __libm_sse2_pow_precise    100665d8 f   ucrt:api-ms-win-crt-math-l1-1-0.dll
 0001:000655de       _free                      100665de f   ucrt:api-ms-win-crt-heap-l1-1-0.dll
 0001:000655e4       _malloc                    100665e4 f   ucrt:api-ms-win-crt-heap-l1-1-0.dll
 0001:000655ea       __CIfmod                   100665ea f   ucrt:api-ms-win-crt-math-l1-1-0.dll
 0001:000655f0       _ceil                      100665f0 f   ucrt:api-ms-win-crt-math-l1-1-0.dll
 0001:000655f6       _floor                     100665f6 f   ucrt:api-ms-win-crt-math-l1-1-0.dll
 0001:000655fc       __CIatan2                  100665fc f   ucrt:api-ms-win-crt-math-l1-1-0.dll
 0001:00065602       _terminate                 10066602 f   ucrt:api-ms-win-crt-runtime-l1-1-0.dll
 0001:00065608       __libm_sse2_atan_precise   10066608 f   ucrt:api-ms-win-crt-math-l1-1-0.dll
 0001:0006560e       __callnewh                 1006660e f   ucrt:api-ms-win-crt-heap-l1-1-0.dll
 0001:00065614       __except1                  10066614 f   ucrt:api-ms-win-crt-math-l1-1-0.dll
 0001:0006561a       __seh_filter_dll           1006661a f   ucrt:api-ms-win-crt-runtime-l1-1-0.dll
 0001:00065620       __configure_narrow_argv    10066620 f   ucrt:api-ms-win-crt-runtime-l1-1-0.dll
 0001:00065626       __initialize_narrow_environment 10066626 f   ucrt:api-ms-win-crt-runtime-l1-1-0.dll
 0001:0006562c       __initialize_onexit_table  1006662c f   ucrt:api-ms-win-crt-runtime-l1-1-0.dll
 0001:00065632       __register_onexit_function 10066632 f   ucrt:api-ms-win-crt-runtime-l1-1-0.dll
 0001:00065638       __execute_onexit_table     10066638 f   ucrt:api-ms-win-crt-runtime-l1-1-0.dll
 0001:0006563e       __crt_atexit               1006663e f   ucrt:api-ms-win-crt-runtime-l1-1-0.dll
 0001:00065644       __cexit                    10066644 f   ucrt:api-ms-win-crt-runtime-l1-1-0.dll
 0001:0006564a       __initterm                 1006664a f   ucrt:api-ms-win-crt-runtime-l1-1-0.dll
 0001:00065650       __initterm_e               10066650 f   ucrt:api-ms-win-crt-runtime-l1-1-0.dll
 0001:00065656       _IsProcessorFeaturePresent@4 10066656 f   kernel32:KERNEL32.dll
 0001:0006565c       ___acrt_thread_detach      1006665c f   MSVCRT:ucrt_stubs.obj
 0001:0006565c       ___acrt_uninitialize_critical 1006665c f   MSVCRT:ucrt_stubs.obj
 0001:0006565c       ___vcrt_initialize         1006665c f   MSVCRT:ucrt_stubs.obj
 0001:0006565c       ___scrt_stub_for_acrt_uninitialize 1006665c f   MSVCRT:ucrt_stubs.obj
 0001:0006565c       ___scrt_stub_for_acrt_thread_detach 1006665c f   MSVCRT:ucrt_stubs.obj
 0001:0006565c       ___scrt_stub_for_acrt_thread_attach 1006665c f   MSVCRT:ucrt_stubs.obj
 0001:0006565c       ___vcrt_thread_detach      1006665c f   MSVCRT:ucrt_stubs.obj
 0001:0006565c       ___vcrt_uninitialize_critical 1006665c f   MSVCRT:ucrt_stubs.obj
 0001:0006565c       ___vcrt_uninitialize       1006665c f   MSVCRT:ucrt_stubs.obj
 0001:0006565c       ___acrt_thread_attach      1006665c f   MSVCRT:ucrt_stubs.obj
 0001:0006565c       ___acrt_initialize         1006665c f   MSVCRT:ucrt_stubs.obj
 0001:0006565c       ___scrt_stub_for_acrt_uninitialize_critical 1006665c f   MSVCRT:ucrt_stubs.obj
 0001:0006565c       ___vcrt_thread_attach      1006665c f   MSVCRT:ucrt_stubs.obj
 0001:0006565c       ___acrt_uninitialize       1006665c f   MSVCRT:ucrt_stubs.obj
 0001:0006565c       ___scrt_stub_for_acrt_initialize 1006665c f   MSVCRT:ucrt_stubs.obj
 0001:0006565f       ___scrt_stub_for_is_c_termination_complete 1006665f f   MSVCRT:ucrt_stubs.obj
 0001:0006565f       __is_c_termination_complete 1006665f f   MSVCRT:ucrt_stubs.obj
 0002:00000000       __imp__ImmGetContext@4     10069000     imm32:IMM32.dll
 0002:00000004       __imp__ImmSetCompositionWindow@8 10069004     imm32:IMM32.dll
 0002:00000008       \177IMM32_NULL_THUNK_DATA  10069008     imm32:IMM32.dll
 0002:0000000c       __imp__VirtualProtect@16   1006900c     kernel32:KERNEL32.dll
 0002:00000010       __imp__Sleep@4             10069010     kernel32:KERNEL32.dll
 0002:00000014       __imp__CreateThread@24     10069014     kernel32:KERNEL32.dll
 0002:00000018       __imp__DisableThreadLibraryCalls@4 10069018     kernel32:KERNEL32.dll
 0002:0000001c       __imp__FreeLibraryAndExitThread@8 1006901c     kernel32:KERNEL32.dll
 0002:00000020       __imp__GetModuleHandleW@4  10069020     kernel32:KERNEL32.dll
 0002:00000024       __imp__GetTickCount@0      10069024     kernel32:KERNEL32.dll
 0002:00000028       __imp__QueryPerformanceCounter@4 10069028     kernel32:KERNEL32.dll
 0002:0000002c       __imp__QueryPerformanceFrequency@4 1006902c     kernel32:KERNEL32.dll
 0002:00000030       __imp__GlobalAlloc@8       10069030     kernel32:KERNEL32.dll
 0002:00000034       __imp__GlobalUnlock@4      10069034     kernel32:KERNEL32.dll
 0002:00000038       __imp__GlobalLock@4        10069038     kernel32:KERNEL32.dll
 0002:0000003c       __imp__GetProcAddress@8    1006903c     kernel32:KERNEL32.dll
 0002:00000040       __imp__GetSystemTimeAsFileTime@4 10069040     kernel32:KERNEL32.dll
 0002:00000044       __imp__GetCurrentThreadId@0 10069044     kernel32:KERNEL32.dll
 0002:00000048       __imp__GetCurrentProcessId@0 10069048     kernel32:KERNEL32.dll
 0002:0000004c       __imp__IsDebuggerPresent@0 1006904c     kernel32:KERNEL32.dll
 0002:00000050       __imp__IsProcessorFeaturePresent@4 10069050     kernel32:KERNEL32.dll
 0002:00000054       __imp__TerminateProcess@8  10069054     kernel32:KERNEL32.dll
 0002:00000058       __imp__SetUnhandledExceptionFilter@4 10069058     kernel32:KERNEL32.dll
 0002:0000005c       __imp__UnhandledExceptionFilter@4 1006905c     kernel32:KERNEL32.dll
 0002:00000060       __imp__CreateEventW@16     10069060     kernel32:KERNEL32.dll
 0002:00000064       __imp__WaitForSingleObjectEx@12 10069064     kernel32:KERNEL32.dll
 0002:00000068       __imp__ResetEvent@4        10069068     kernel32:KERNEL32.dll
 0002:0000006c       __imp__SetEvent@4          1006906c     kernel32:KERNEL32.dll
 0002:00000070       __imp__DeleteCriticalSection@4 10069070     kernel32:KERNEL32.dll
 0002:00000074       __imp__InitializeCriticalSectionAndSpinCount@8 10069074     kernel32:KERNEL32.dll
 0002:00000078       __imp__LeaveCriticalSection@4 10069078     kernel32:KERNEL32.dll
 0002:0000007c       __imp__GetModuleHandleA@4  1006907c     kernel32:KERNEL32.dll
 0002:00000080       __imp__WideCharToMultiByte@32 10069080     kernel32:KERNEL32.dll
 0002:00000084       __imp__MultiByteToWideChar@24 10069084     kernel32:KERNEL32.dll
 0002:00000088       __imp__MoveFileExW@12      10069088     kernel32:KERNEL32.dll
 0002:0000008c       __imp__SetLastError@4      1006908c     kernel32:KERNEL32.dll
 0002:00000090       __imp__GetLastError@0      10069090     kernel32:KERNEL32.dll
 0002:00000094       __imp__CloseHandle@4       10069094     kernel32:KERNEL32.dll
 0002:00000098       __imp__AreFileApisANSI@0   10069098     kernel32:KERNEL32.dll
 0002:0000009c       __imp__RemoveDirectoryW@4  1006909c     kernel32:KERNEL32.dll
 0002:000000a0       __imp__GetFileInformationByHandle@8 100690a0     kernel32:KERNEL32.dll
 0002:000000a4       __imp__GetFileAttributesExW@12 100690a4     kernel32:KERNEL32.dll
 0002:000000a8       __imp__FindNextFileW@8     100690a8     kernel32:KERNEL32.dll
 0002:000000ac       __imp__FindFirstFileExW@24 100690ac     kernel32:KERNEL32.dll
 0002:000000b0       __imp__FindClose@4         100690b0     kernel32:KERNEL32.dll
 0002:000000b4       __imp__DeleteFileW@4       100690b4     kernel32:KERNEL32.dll
 0002:000000b8       __imp__CreateFileW@28      100690b8     kernel32:KERNEL32.dll
 0002:000000bc       __imp__CreateDirectoryW@8  100690bc     kernel32:KERNEL32.dll
 0002:000000c0       __imp__InitializeSListHead@4 100690c0     kernel32:KERNEL32.dll
 0002:000000c4       __imp__K32GetModuleInformation@16 100690c4     kernel32:KERNEL32.dll
 0002:000000c8       __imp__EnterCriticalSection@4 100690c8     kernel32:KERNEL32.dll
 0002:000000cc       __imp__GetCurrentProcess@0 100690cc     kernel32:KERNEL32.dll
 0002:000000d0       \177KERNEL32_NULL_THUNK_DATA 100690d0     kernel32:KERNEL32.dll
 0002:000000d4       __imp_?egptr@?$basic_streambuf@DU?$char_traits@D@std@@@std@@IBEPADXZ 100690d4     msvcprt:MSVCP140.dll
 0002:000000d8       __imp_?gbump@?$basic_streambuf@DU?$char_traits@D@std@@@std@@IAEXH@Z 100690d8     msvcprt:MSVCP140.dll
 0002:000000dc       __imp_?setg@?$basic_streambuf@DU?$char_traits@D@std@@@std@@IAEXPAD00@Z 100690dc     msvcprt:MSVCP140.dll
 0002:000000e0       __imp_?epptr@?$basic_streambuf@DU?$char_traits@D@std@@@std@@IBEPADXZ 100690e0     msvcprt:MSVCP140.dll
 0002:000000e4       __imp_?_Gndec@?$basic_streambuf@DU?$char_traits@D@std@@@std@@IAEPADXZ 100690e4     msvcprt:MSVCP140.dll
 0002:000000e8       __imp_?_Gninc@?$basic_streambuf@DU?$char_traits@D@std@@@std@@IAEPADXZ 100690e8     msvcprt:MSVCP140.dll
 0002:000000ec       __imp_?_Gnavail@?$basic_streambuf@DU?$char_traits@D@std@@@std@@IBE_JXZ 100690ec     msvcprt:MSVCP140.dll
 0002:000000f0       __imp_?pbump@?$basic_streambuf@DU?$char_traits@D@std@@@std@@IAEXH@Z 100690f0     msvcprt:MSVCP140.dll
 0002:000000f4       __imp_?_Pninc@?$basic_streambuf@DU?$char_traits@D@std@@@std@@IAEPADXZ 100690f4     msvcprt:MSVCP140.dll
 0002:000000f8       __imp_?_Pnavail@?$basic_streambuf@DU?$char_traits@D@std@@@std@@IBE_JXZ 100690f8     msvcprt:MSVCP140.dll
 0002:000000fc       __imp_?_Init@?$basic_streambuf@DU?$char_traits@D@std@@@std@@IAEXXZ 100690fc     msvcprt:MSVCP140.dll
 0002:00000100       __imp_?_Init@?$basic_streambuf@DU?$char_traits@D@std@@@std@@IAEXPAPAD0PAH001@Z 10069100     msvcprt:MSVCP140.dll
 0002:00000104       __imp_?xsgetn@?$basic_streambuf@DU?$char_traits@D@std@@@std@@MAE_JPAD_J@Z 10069104     msvcprt:MSVCP140.dll
 0002:00000108       __imp_?xsputn@?$basic_streambuf@DU?$char_traits@D@std@@@std@@MAE_JPBD_J@Z 10069108     msvcprt:MSVCP140.dll
 0002:0000010c       __imp_??1?$basic_ios@DU?$char_traits@D@std@@@std@@UAE@XZ 1006910c     msvcprt:MSVCP140.dll
 0002:00000110       __imp_?setstate@?$basic_ios@DU?$char_traits@D@std@@@std@@QAEXH_N@Z 10069110     msvcprt:MSVCP140.dll
 0002:00000114       __imp_??0?$basic_ios@DU?$char_traits@D@std@@@std@@IAE@XZ 10069114     msvcprt:MSVCP140.dll
 0002:00000118       __imp_??0?$basic_ostream@DU?$char_traits@D@std@@@std@@QAE@PAV?$basic_streambuf@DU?$char_traits@D@std@@@1@_N@Z 10069118     msvcprt:MSVCP140.dll
 0002:0000011c       __imp_??1?$basic_ostream@DU?$char_traits@D@std@@@std@@UAE@XZ 1006911c     msvcprt:MSVCP140.dll
 0002:00000120       __imp_?write@?$basic_ostream@DU?$char_traits@D@std@@@std@@QAEAAV12@PBD_J@Z 10069120     msvcprt:MSVCP140.dll
 0002:00000124       __imp_??0?$basic_istream@DU?$char_traits@D@std@@@std@@QAE@PAV?$basic_streambuf@DU?$char_traits@D@std@@@1@_N@Z 10069124     msvcprt:MSVCP140.dll
 0002:00000128       __imp_??1?$basic_istream@DU?$char_traits@D@std@@@std@@UAE@XZ 10069128     msvcprt:MSVCP140.dll
 0002:0000012c       __imp_?read@?$basic_istream@DU?$char_traits@D@std@@@std@@QAEAAV12@PAD_J@Z 1006912c     msvcprt:MSVCP140.dll
 0002:00000130       __imp_?_Fiopen@std@@YAPAU_iobuf@@PB_WHH@Z 10069130     msvcprt:MSVCP140.dll
 0002:00000134       __imp_?showmanyc@?$basic_streambuf@DU?$char_traits@D@std@@@std@@MAE_JXZ 10069134     msvcprt:MSVCP140.dll
 0002:00000138       __imp_?id@?$codecvt@DDU_Mbstatet@@@std@@2V0locale@2@A 10069138     msvcprt:MSVCP140.dll
 0002:0000013c       __imp_?uncaught_exception@std@@YA_NXZ 1006913c     msvcprt:MSVCP140.dll
 0002:00000140       __imp_?flags@ios_base@std@@QBEHXZ 10069140     msvcprt:MSVCP140.dll
 0002:00000144       __imp_?width@ios_base@std@@QBE_JXZ 10069144     msvcprt:MSVCP140.dll
 0002:00000148       __imp_?width@ios_base@std@@QAE_J_J@Z 10069148     msvcprt:MSVCP140.dll
 0002:0000014c       __imp_?sputc@?$basic_streambuf@DU?$char_traits@D@std@@@std@@QAEHD@Z 1006914c     msvcprt:MSVCP140.dll
 0002:00000150       __imp_?sputn@?$basic_streambuf@DU?$char_traits@D@std@@@std@@QAE_JPBD_J@Z 10069150     msvcprt:MSVCP140.dll
 0002:00000154       __imp_?tie@?$basic_ios@DU?$char_traits@D@std@@@std@@QBEPAV?$basic_ostream@DU?$char_traits@D@std@@@2@XZ 10069154     msvcprt:MSVCP140.dll
 0002:00000158       __imp_?rdbuf@?$basic_ios@DU?$char_traits@D@std@@@std@@QBEPAV?$basic_streambuf@DU?$char_traits@D@std@@@2@XZ 10069158     msvcprt:MSVCP140.dll
 0002:0000015c       __imp_?fill@?$basic_ios@DU?$char_traits@D@std@@@std@@QBEDXZ 1006915c     msvcprt:MSVCP140.dll
 0002:00000160       __imp_?_Osfx@?$basic_ostream@DU?$char_traits@D@std@@@std@@QAEXXZ 10069160     msvcprt:MSVCP140.dll
 0002:00000164       __imp_?flush@?$basic_ostream@DU?$char_traits@D@std@@@std@@QAEAAV12@XZ 10069164     msvcprt:MSVCP140.dll
 0002:00000168       __imp_?_Fiopen@std@@YAPAU_iobuf@@PBDHH@Z 10069168     msvcprt:MSVCP140.dll
 0002:0000016c       __imp_?good@ios_base@std@@QBE_NXZ 1006916c     msvcprt:MSVCP140.dll
 0002:00000170       __imp_?gptr@?$basic_streambuf@DU?$char_traits@D@std@@@std@@IBEPADXZ 10069170     msvcprt:MSVCP140.dll
 0002:00000174       __imp_?eback@?$basic_streambuf@DU?$char_traits@D@std@@@std@@IBEPADXZ 10069174     msvcprt:MSVCP140.dll
 0002:00000178       __imp_?getloc@?$basic_streambuf@DU?$char_traits@D@std@@@std@@QBE?AVlocale@2@XZ 10069178     msvcprt:MSVCP140.dll
 0002:0000017c       __imp_?_Winerror_message@std@@YAKKPADK@Z 1006917c     msvcprt:MSVCP140.dll
 0002:00000180       __imp_?_Winerror_map@std@@YAHH@Z 10069180     msvcprt:MSVCP140.dll
 0002:00000184       __imp_?_Syserror_map@std@@YAPBDH@Z 10069184     msvcprt:MSVCP140.dll
 0002:00000188       __imp_?_Execute_once@std@@YAHAAUonce_flag@1@P6GHPAX1PAPAX@Z1@Z 10069188     msvcprt:MSVCP140.dll
 0002:0000018c       __imp_?_Getcat@?$codecvt@DDU_Mbstatet@@@std@@SAIPAPBVfacet@locale@2@PBV42@@Z 1006918c     msvcprt:MSVCP140.dll
 0002:00000190       __imp_?unshift@?$codecvt@DDU_Mbstatet@@@std@@QBEHAAU_Mbstatet@@PAD1AAPAD@Z 10069190     msvcprt:MSVCP140.dll
 0002:00000194       __imp_?out@?$codecvt@DDU_Mbstatet@@@std@@QBEHAAU_Mbstatet@@PBD1AAPBDPAD3AAPAD@Z 10069194     msvcprt:MSVCP140.dll
 0002:00000198       __imp_?in@?$codecvt@DDU_Mbstatet@@@std@@QBEHAAU_Mbstatet@@PBD1AAPBDPAD3AAPAD@Z 10069198     msvcprt:MSVCP140.dll
 0002:0000019c       __imp_??0?$basic_streambuf@DU?$char_traits@D@std@@@std@@IAE@XZ 1006919c     msvcprt:MSVCP140.dll
 0002:000001a0       __imp_?always_noconv@codecvt_base@std@@QBE_NXZ 100691a0     msvcprt:MSVCP140.dll
 0002:000001a4       __imp_?_Getgloballocale@locale@std@@CAPAV_Locimp@12@XZ 100691a4     msvcprt:MSVCP140.dll
 0002:000001a8       __imp_??Bid@locale@std@@QAEIXZ 100691a8     msvcprt:MSVCP140.dll
 0002:000001ac       __imp_??1?$basic_streambuf@DU?$char_traits@D@std@@@std@@UAE@XZ 100691ac     msvcprt:MSVCP140.dll
 0002:000001b0       __imp_??1_Lockit@std@@QAE@XZ 100691b0     msvcprt:MSVCP140.dll
 0002:000001b4       __imp_??0_Lockit@std@@QAE@H@Z 100691b4     msvcprt:MSVCP140.dll
 0002:000001b8       __imp_?pptr@?$basic_streambuf@DU?$char_traits@D@std@@@std@@IBEPADXZ 100691b8     msvcprt:MSVCP140.dll
 0002:000001bc       __imp_?_Xout_of_range@std@@YAXPBD@Z 100691bc     msvcprt:MSVCP140.dll
 0002:000001c0       __imp___Thrd_sleep         100691c0     msvcprt:MSVCP140.dll
 0002:000001c4       __imp___Xtime_get_ticks    100691c4     msvcprt:MSVCP140.dll
 0002:000001c8       __imp_?_Xlength_error@std@@YAXPBD@Z 100691c8     msvcprt:MSVCP140.dll
 0002:000001cc       \177MSVCP140_NULL_THUNK_DATA 100691cc     msvcprt:MSVCP140.dll
 0002:000001d0       __imp__SHGetKnownFolderPath@16 100691d0     shell32:SHELL32.dll
 0002:000001d4       \177SHELL32_NULL_THUNK_DATA 100691d4     shell32:SHELL32.dll
 0002:000001d8       __imp__GetAsyncKeyState@4  100691d8     user32:USER32.dll
 0002:000001dc       __imp__CallWindowProcA@20  100691dc     user32:USER32.dll
 0002:000001e0       __imp__EmptyClipboard@0    100691e0     user32:USER32.dll
 0002:000001e4       __imp__GetClipboardData@4  100691e4     user32:USER32.dll
 0002:000001e8       __imp__SetClipboardData@8  100691e8     user32:USER32.dll
 0002:000001ec       __imp__CloseClipboard@0    100691ec     user32:USER32.dll
 0002:000001f0       __imp__OpenClipboard@4     100691f0     user32:USER32.dll
 0002:000001f4       __imp__SetCursor@4         100691f4     user32:USER32.dll
 0002:000001f8       __imp__GetClientRect@8     100691f8     user32:USER32.dll
 0002:000001fc       __imp__GetKeyState@4       100691fc     user32:USER32.dll
 0002:00000200       __imp__MessageBoxA@16      10069200     user32:USER32.dll
 0002:00000204       __imp__SetWindowLongA@12   10069204     user32:USER32.dll
 0002:00000208       __imp__FindWindowA@8       10069208     user32:USER32.dll
 0002:0000020c       \177USER32_NULL_THUNK_DATA 1006920c     user32:USER32.dll
 0002:00000210       __imp___except_handler4_common 10069210     vcruntime:VCRUNTIME140.dll
 0002:00000214       __imp____std_terminate     10069214     vcruntime:VCRUNTIME140.dll
 0002:00000218       __imp__strchr              10069218     vcruntime:VCRUNTIME140.dll
 0002:0000021c       __imp__memchr              1006921c     vcruntime:VCRUNTIME140.dll
 0002:00000220       __imp____std_exception_destroy 10069220     vcruntime:VCRUNTIME140.dll
 0002:00000224       __imp___purecall           10069224     vcruntime:VCRUNTIME140.dll
 0002:00000228       __imp____std_type_info_destroy_list 10069228     vcruntime:VCRUNTIME140.dll
 0002:0000022c       __imp__memset              1006922c     vcruntime:VCRUNTIME140.dll
 0002:00000230       __imp__memmove             10069230     vcruntime:VCRUNTIME140.dll
 0002:00000234       __imp__memcpy              10069234     vcruntime:VCRUNTIME140.dll
 0002:00000238       __imp__memcmp              10069238     vcruntime:VCRUNTIME140.dll
 0002:0000023c       __imp____CxxFrameHandler3  1006923c     vcruntime:VCRUNTIME140.dll
 0002:00000240       __imp___CxxThrowException@8 10069240     vcruntime:VCRUNTIME140.dll
 0002:00000244       __imp__strstr              10069244     vcruntime:VCRUNTIME140.dll
 0002:00000248       __imp____std_exception_copy 10069248     vcruntime:VCRUNTIME140.dll
 0002:0000024c       \177VCRUNTIME140_NULL_THUNK_DATA 1006924c     vcruntime:VCRUNTIME140.dll
 0002:00000250       __imp__atoi                10069250     ucrt:api-ms-win-crt-convert-l1-1-0.dll
 0002:00000254       __imp__mbstowcs_s          10069254     ucrt:api-ms-win-crt-convert-l1-1-0.dll
 0002:00000258       __imp__strtoul             10069258     ucrt:api-ms-win-crt-convert-l1-1-0.dll
 0002:0000025c       \177api-ms-win-crt-convert-l1-1-0_NULL_THUNK_DATA 1006925c     ucrt:api-ms-win-crt-convert-l1-1-0.dll
 0002:00000260       __imp___lock_file          10069260     ucrt:api-ms-win-crt-filesystem-l1-1-0.dll
 0002:00000264       __imp___unlock_file        10069264     ucrt:api-ms-win-crt-filesystem-l1-1-0.dll
 0002:00000268       \177api-ms-win-crt-filesystem-l1-1-0_NULL_THUNK_DATA 10069268     ucrt:api-ms-win-crt-filesystem-l1-1-0.dll
 0002:0000026c       __imp___callnewh           1006926c     ucrt:api-ms-win-crt-heap-l1-1-0.dll
 0002:00000270       __imp__malloc              10069270     ucrt:api-ms-win-crt-heap-l1-1-0.dll
 0002:00000274       __imp__free                10069274     ucrt:api-ms-win-crt-heap-l1-1-0.dll
 0002:00000278       \177api-ms-win-crt-heap-l1-1-0_NULL_THUNK_DATA 10069278     ucrt:api-ms-win-crt-heap-l1-1-0.dll
 0002:0000027c       __imp_____lc_codepage_func 1006927c     ucrt:api-ms-win-crt-locale-l1-1-0.dll
 0002:00000280       \177api-ms-win-crt-locale-l1-1-0_NULL_THUNK_DATA 10069280     ucrt:api-ms-win-crt-locale-l1-1-0.dll
 0002:00000284       __imp___libm_sse2_pow_precise 10069284     ucrt:api-ms-win-crt-math-l1-1-0.dll
 0002:00000288       __imp__fmax                10069288     ucrt:api-ms-win-crt-math-l1-1-0.dll
 0002:0000028c       __imp___libm_sse2_atan_precise 1006928c     ucrt:api-ms-win-crt-math-l1-1-0.dll
 0002:00000290       __imp___except1            10069290     ucrt:api-ms-win-crt-math-l1-1-0.dll
 0002:00000294       __imp___libm_sse2_sqrt_precise 10069294     ucrt:api-ms-win-crt-math-l1-1-0.dll
 0002:00000298       __imp___libm_sse2_sin_precise 10069298     ucrt:api-ms-win-crt-math-l1-1-0.dll
 0002:0000029c       __imp__roundf              1006929c     ucrt:api-ms-win-crt-math-l1-1-0.dll
 0002:000002a0       __imp___fdtest             100692a0     ucrt:api-ms-win-crt-math-l1-1-0.dll
 0002:000002a4       __imp__ceil                100692a4     ucrt:api-ms-win-crt-math-l1-1-0.dll
 0002:000002a8       __imp__floor               100692a8     ucrt:api-ms-win-crt-math-l1-1-0.dll
 0002:000002ac       __imp___CIatan2            100692ac     ucrt:api-ms-win-crt-math-l1-1-0.dll
 0002:000002b0       __imp___libm_sse2_cos_precise 100692b0     ucrt:api-ms-win-crt-math-l1-1-0.dll
 0002:000002b4       __imp__fmin                100692b4     ucrt:api-ms-win-crt-math-l1-1-0.dll
 0002:000002b8       __imp__fmaxf               100692b8     ucrt:api-ms-win-crt-math-l1-1-0.dll
 0002:000002bc       __imp___CIfmod             100692bc     ucrt:api-ms-win-crt-math-l1-1-0.dll
 0002:000002c0       \177api-ms-win-crt-math-l1-1-0_NULL_THUNK_DATA 100692c0     ucrt:api-ms-win-crt-math-l1-1-0.dll
 0002:000002c4       __imp___cexit              100692c4     ucrt:api-ms-win-crt-runtime-l1-1-0.dll
 0002:000002c8       __imp___initterm           100692c8     ucrt:api-ms-win-crt-runtime-l1-1-0.dll
 0002:000002cc       __imp___register_onexit_function 100692cc     ucrt:api-ms-win-crt-runtime-l1-1-0.dll
 0002:000002d0       __imp___initialize_onexit_table 100692d0     ucrt:api-ms-win-crt-runtime-l1-1-0.dll
 0002:000002d4       __imp___initterm_e         100692d4     ucrt:api-ms-win-crt-runtime-l1-1-0.dll
 0002:000002d8       __imp___initialize_narrow_environment 100692d8     ucrt:api-ms-win-crt-runtime-l1-1-0.dll
 0002:000002dc       __imp__terminate           100692dc     ucrt:api-ms-win-crt-runtime-l1-1-0.dll
 0002:000002e0       __imp___invalid_parameter_noinfo_noreturn 100692e0     ucrt:api-ms-win-crt-runtime-l1-1-0.dll
 0002:000002e4       __imp___execute_onexit_table 100692e4     ucrt:api-ms-win-crt-runtime-l1-1-0.dll
 0002:000002e8       __imp___configure_narrow_argv 100692e8     ucrt:api-ms-win-crt-runtime-l1-1-0.dll
 0002:000002ec       __imp___seh_filter_dll     100692ec     ucrt:api-ms-win-crt-runtime-l1-1-0.dll
 0002:000002f0       __imp___crt_atexit         100692f0     ucrt:api-ms-win-crt-runtime-l1-1-0.dll
 0002:000002f4       \177api-ms-win-crt-runtime-l1-1-0_NULL_THUNK_DATA 100692f4     ucrt:api-ms-win-crt-runtime-l1-1-0.dll
 0002:000002f8       __imp__fseek               100692f8     ucrt:api-ms-win-crt-stdio-l1-1-0.dll
 0002:000002fc       __imp__fread               100692fc     ucrt:api-ms-win-crt-stdio-l1-1-0.dll
 0002:00000300       __imp____stdio_common_vfprintf 10069300     ucrt:api-ms-win-crt-stdio-l1-1-0.dll
 0002:00000304       __imp__fclose              10069304     ucrt:api-ms-win-crt-stdio-l1-1-0.dll
 0002:00000308       __imp___wfopen             10069308     ucrt:api-ms-win-crt-stdio-l1-1-0.dll
 0002:0000030c       __imp____acrt_iob_func     1006930c     ucrt:api-ms-win-crt-stdio-l1-1-0.dll
 0002:00000310       __imp____stdio_common_vsprintf 10069310     ucrt:api-ms-win-crt-stdio-l1-1-0.dll
 0002:00000314       __imp___get_stream_buffer_pointers 10069314     ucrt:api-ms-win-crt-stdio-l1-1-0.dll
 0002:00000318       __imp__ftell               10069318     ucrt:api-ms-win-crt-stdio-l1-1-0.dll
 0002:0000031c       __imp____stdio_common_vsscanf 1006931c     ucrt:api-ms-win-crt-stdio-l1-1-0.dll
 0002:00000320       __imp__ungetc              10069320     ucrt:api-ms-win-crt-stdio-l1-1-0.dll
 0002:00000324       __imp__fgetc               10069324     ucrt:api-ms-win-crt-stdio-l1-1-0.dll
 0002:00000328       __imp____stdio_common_vsprintf_s 10069328     ucrt:api-ms-win-crt-stdio-l1-1-0.dll
 0002:0000032c       __imp__fgetpos             1006932c     ucrt:api-ms-win-crt-stdio-l1-1-0.dll
 0002:00000330       __imp__fputc               10069330     ucrt:api-ms-win-crt-stdio-l1-1-0.dll
 0002:00000334       __imp__fsetpos             10069334     ucrt:api-ms-win-crt-stdio-l1-1-0.dll
 0002:00000338       __imp___fseeki64           10069338     ucrt:api-ms-win-crt-stdio-l1-1-0.dll
 0002:0000033c       __imp__fwrite              1006933c     ucrt:api-ms-win-crt-stdio-l1-1-0.dll
 0002:00000340       __imp__fflush              10069340     ucrt:api-ms-win-crt-stdio-l1-1-0.dll
 0002:00000344       __imp__setvbuf             10069344     ucrt:api-ms-win-crt-stdio-l1-1-0.dll
 0002:00000348       \177api-ms-win-crt-stdio-l1-1-0_NULL_THUNK_DATA 10069348     ucrt:api-ms-win-crt-stdio-l1-1-0.dll
 0002:0000034c       __imp__strncpy             1006934c     ucrt:api-ms-win-crt-string-l1-1-0.dll
 0002:00000350       __imp__isprint             10069350     ucrt:api-ms-win-crt-string-l1-1-0.dll
 0002:00000354       __imp__toupper             10069354     ucrt:api-ms-win-crt-string-l1-1-0.dll
 0002:00000358       \177api-ms-win-crt-string-l1-1-0_NULL_THUNK_DATA 10069358     ucrt:api-ms-win-crt-string-l1-1-0.dll
 0002:0000035c       __imp__qsort               1006935c     ucrt:api-ms-win-crt-utility-l1-1-0.dll
 0002:00000360       \177api-ms-win-crt-utility-l1-1-0_NULL_THUNK_DATA 10069360     ucrt:api-ms-win-crt-utility-l1-1-0.dll
 0002:00000364       __imp__CoTaskMemFree@4     10069364     ole32:ole32.dll
 0002:00000368       \177ole32_NULL_THUNK_DATA  10069368     ole32:ole32.dll
 0002:0000036c       ___guard_check_icall_fptr  1006936c     MSVCRT:guard_support.obj
 0002:00000370       ___xc_a                    10069370     MSVCRT:initializers.obj
 0002:00000458       ___xc_z                    10069458     MSVCRT:initializers.obj
 0002:0000045c       ___xi_a                    1006945c     MSVCRT:initializers.obj
 0002:00000464       ___xi_z                    10069464     MSVCRT:initializers.obj
 0002:00000468       ___xl_a                    10069468     MSVCRT:tlssup.obj
 0002:0000046c       ___xl_z                    1006946c     MSVCRT:tlssup.obj
 0002:00000470       ___xp_a                    10069470     MSVCRT:initializers.obj
 0002:00000474       ___xp_z                    10069474     MSVCRT:initializers.obj
 0002:00000478       ___xt_a                    10069478     MSVCRT:initializers.obj
 0002:0000047c       ___xt_z                    1006947c     MSVCRT:initializers.obj
 0002:00000480       ?piecewise_construct@std@@3Upiecewise_construct_t@1@B 10069480     animation_system.obj
 0002:00000484       ??_C@_0BE@FJNGABL@client_panorama?4dll@ 10069484     animation_system.obj
 0002:00000498       ??_C@_0BH@BMLKANBG@m_bClientSideAnimation@ 10069498     animation_system.obj
 0002:000004b0       ??_C@_0BB@POPPCPOC@DT_BaseAnimating@ 100694b0     animation_system.obj
 0002:000004c4       ??_C@_0O@NDBNDAKG@DT_BaseEntity@ 100694c4     animation_system.obj
 0002:000004d4       ??_C@_0DG@LFMBAHLK@55?58B?5EC?583?5E4?5F8?583?5EC?518?556?55@ 100694d4     animation_system.obj
 0002:0000050c       ??_C@_0BC@HCJNFOGH@m_flPoseParameter@ 1006950c     animation_system.obj
 0002:00000520       ??_C@_0O@KNDKHNCF@DT_BasePlayer@ 10069520     animation_system.obj
 0002:00000530       ??_C@_0BD@IDNCLOOB@m_flSimulationTime@ 10069530     animation_system.obj
 0002:00000544       ??_C@_0M@GDCAJHLF@m_lifeState@ 10069544     animation_system.obj
 0002:00000550       ??_C@_09FOIALPOM@m_iHealth@ 10069550     animation_system.obj
 0002:0000055c       ??_C@_09JINBMJKL@localdata@ 1006955c     animation_system.obj
 0002:00000568       ??_C@_0M@BAFECOKC@m_vecOrigin@ 10069568     animation_system.obj
 0002:00000574       ??_C@_0BB@CHJEEOLK@m_vecVelocity?$FL0?$FN@ 10069574     animation_system.obj
 0002:00000588       ??_C@_0BD@OLBABOEK@vector?$DMT?$DO?5too?5long@ 10069588     animation_system.obj
 0002:0000059c       ??_C@_0BA@JFNIOLAK@string?5too?5long@ 1006959c     animation_system.obj
 0002:000005ac       ??_C@_0BB@MOGOBHAF@list?$DMT?$DO?5too?5long@ 100695ac     animation_system.obj
 0002:000005c0       __xmm@41f00000000000000000000000000000 100695c0     animation_system.obj
 0002:000005d0       ??_C@_08JPGJABNM@m_fFlags@ 100695d0     exploits.obj
 0002:000005e0       __real@c061800000000000    100695e0     exploits.obj
 0002:000005e8       __real@40a00000            100695e8     premium_stuff.obj
 0002:0000064c       __real@3f800000            1006964c     other_esp.obj
 0002:00000650       __real@42c80000            10069650     other_esp.obj
 0002:00000654       __real@437f0000            10069654     other_esp.obj
 0002:000006d8       ??_7exception@std@@6B@     100696d8     c_hooks.obj
 0002:000006e0       ??_C@_0BC@EOODALEL@Unknown?5exception@ 100696e0     c_hooks.obj
 0002:000006f8       ??_7runtime_error@std@@6B@ 100696f8     c_hooks.obj
 0002:00000704       ??_7IGameEventListener@@6B@ 10069704     c_hooks.obj
 0002:00000714       ??_7Event@@6B@             10069714     c_hooks.obj
 0002:00000720       ??_C@_0M@GPCKBPEK@player_hurt@ 10069720     c_hooks.obj
 0002:0000072c       ??_C@_0BK@ILCFOOBA@Failed?5to?5protect?5region?$CB@ 1006972c     c_hooks.obj
 0002:000007b4       ??_C@_0BA@MIGFFMNM@m_hActiveWeapon@ 100697b4     c_ragebot.obj
 0002:000007c4       ??_C@_0BH@EFEKCINC@DT_BaseCombatCharacter@ 100697c4     c_ragebot.obj
 0002:000007dc       ??_C@_0L@OEKNBODE@m_iTeamNum@ 100697dc     c_ragebot.obj
 0002:000007e8       ??_C@_0M@LGBCIIFJ@DT_CSPlayer@ 100697e8     c_ragebot.obj
 0002:000007f4       ??_C@_0M@MBFMJJPI@m_nTickBase@ 100697f4     c_ragebot.obj
 0002:00000800       ??_C@_0P@PAJMEMKA@m_angEyeAngles@ 10069800     c_ragebot.obj
 0002:00000810       ??_C@_0BG@IBOJPCLN@m_flNextPrimaryAttack@ 10069810     c_ragebot.obj
 0002:00000828       ??_C@_0BG@JBGBGMFE@LocalActiveWeaponData@ 10069828     c_ragebot.obj
 0002:00000840       ??_C@_0BE@OBECLDDP@DT_BaseCombatWeapon@ 10069840     c_ragebot.obj
 0002:00000854       ??_C@_0BL@KOKKEGGO@invalid?5deque?$DMT?$DO?5subscript@ 10069854     c_ragebot.obj
 0002:00000870       __real@00000000            10069870     c_ragebot.obj
 0002:00000874       __real@34000000            10069874     c_ragebot.obj
 0002:00000878       __real@3eae147b            10069878     c_ragebot.obj
 0002:00000880       __real@3fe0000000000000    10069880     c_ragebot.obj
 0002:00000888       __real@40c90fdb            10069888     c_ragebot.obj
 0002:0000088c       __real@41200000            1006988c     c_ragebot.obj
 0002:00000890       __real@41e80000            10069890     c_ragebot.obj
 0002:00000894       __real@41f00000            10069894     c_ragebot.obj
 0002:00000898       __real@43340000            10069898     c_ragebot.obj
 0002:0000089c       __real@43570000            1006989c     c_ragebot.obj
 0002:000008a0       __real@43800000            100698a0     c_ragebot.obj
 0002:000008a4       __real@43b20000            100698a4     c_ragebot.obj
 0002:000008b0       __xmm@7fffffffffffffff7fffffffffffffff 100698b0     c_ragebot.obj
 0002:000008c0       __xmm@80000000800000008000000080000000 100698c0     c_ragebot.obj
 0002:00000958       ??_C@_0N@IIBEIILJ@m_ArmorValue@ 10069958     Autowall.obj
 0002:00000968       ??_C@_0N@KELFAIEF@m_bHasHelmet@ 10069968     Autowall.obj
 0002:0000097c       ??_7ITraceFilter@@6B@      1006997c     Autowall.obj
 0002:00000988       ??_7C_TraceFilter@@6B@     10069988     Autowall.obj
 0002:00000990       __real@3d4ccccd            10069990     Autowall.obj
 0002:00000994       __real@3dcccccd            10069994     Autowall.obj
 0002:00000998       __real@3e23d70a            10069998     Autowall.obj
 0002:0000099c       __real@3f000000            1006999c     Autowall.obj
 0002:000009a0       __real@3f400000            100699a0     Autowall.obj
 0002:000009a8       __real@3f60624dd2f1a9fc    100699a8     Autowall.obj
 0002:000009b0       __real@3fa00000            100699b0     Autowall.obj
 0002:000009b4       __real@40000000            100699b4     Autowall.obj
 0002:000009b8       __real@40400000            100699b8     Autowall.obj
 0002:000009bc       __real@40800000            100699bc     Autowall.obj
 0002:000009c0       __real@41c00000            100699c0     Autowall.obj
 0002:000009c4       __real@42200000            100699c4     Autowall.obj
 0002:000009c8       __real@453b8000            100699c8     Autowall.obj
 0002:00000a40       ??_C@_0BE@HFJPMIJB@m_hConstraintEntity@ 10069a40     EnginePrediction.obj
 0002:00000ae0       ??_C@_0BA@GJLMCNFJ@DT_WeaponCSBase@ 10069ae0     LagComp.obj
 0002:00000af0       ??_C@_0BA@PHEHCCBG@m_fLastShotTime@ 10069af0     LagComp.obj
 0002:00000b00       ??_C@_0BC@KBDMBKEH@deque?$DMT?$DO?5too?5long@ 10069b00     LagComp.obj
 0002:00000b14       __real@3e4ccccd            10069b14     LagComp.obj
 0002:00000b28       ??_C@_0CD@HLJKEAO@55?58B?5EC?556?58B?5F1?5B9?5?$DP?5?$DP?5?$DP?5?$DP?5C7@ 10069b28     c_antiaim.obj
 0002:00000b4c       ??_C@_0O@CGPADDIF@m_nRenderMode@ 10069b4c     c_antiaim.obj
 0002:00000b5c       __real@3f816873            10069b5c     c_antiaim.obj
 0002:00000b60       __real@3fc9999984200ab7    10069b60     c_antiaim.obj
 0002:00000b68       __real@3fcc28f5c28f5c29    10069b68     c_antiaim.obj
 0002:00000b70       __real@3ff199999999999a    10069b70     c_antiaim.obj
 0002:00000b78       __real@403c3c3c            10069b78     c_antiaim.obj
 0002:00000b7c       __real@42340000            10069b7c     c_antiaim.obj
 0002:00000b80       __real@42480000            10069b80     c_antiaim.obj
 0002:00000b84       __real@42b3cccd            10069b84     c_antiaim.obj
 0002:00000b88       __real@42b40000            10069b88     c_antiaim.obj
 0002:00000b8c       __real@42ee0000            10069b8c     c_antiaim.obj
 0002:00000b90       __real@bf816873            10069b90     c_antiaim.obj
 0002:00000b98       __real@bfd333333deffaa4    10069b98     c_antiaim.obj
 0002:00000ba0       __real@ff7fffff            10069ba0     c_antiaim.obj
 0002:00000ba4       ??_C@_0CC@KGCKDAPP@0F?510?505?5?$DP?5?$DP?5?$DP?5?$DP?58D?585?5?$DP?5?$DP?5?$DP?5?$DP?5@ 10069ba4     Legitbot.obj
 0002:00000bc8       __real@3a83126f            10069bc8     Legitbot.obj
 0002:00000bcc       __real@47c35000            10069bcc     Legitbot.obj
 0002:00000bd0       __real@c2b40000            10069bd0     Resolver.obj
 0002:00000bf0       ??_C@_08CHHOFABL@m_iClip1@ 10069bf0     c_esp.obj
 0002:00000bfc       ??_C@_0BL@GKAMNBOO@m_iPrimaryReserveAmmoCount@ 10069bfc     c_esp.obj
 0002:00000c18       ??_C@_0BI@CFPLBAOH@invalid?5string?5position@ 10069c18     c_esp.obj
 0002:00000c30       __real@41000000            10069c30     c_esp.obj
 0002:00000c34       __real@bf800000            10069c34     imgui_impl_dx9.obj
 0002:00001f34       ??_C@_09GBFFKCDJ@?$CD?$CDOverlay@ 1006af34     imgui.obj
 0002:00001f3e       ??_C@_00CNPNBAHC@@         1006af3e     imgui.obj
 0002:00001f68       __real@1e3ce508            1006af68     imgui.obj
 0002:00001f6c       __real@358637bd            1006af6c     imgui.obj
 0002:00001f70       __real@3727c5ac            1006af70     imgui.obj
 0002:00001f74       __real@38d1b717            1006af74     imgui.obj
 0002:00001f78       __real@3b808081            1006af78     imgui.obj
 0002:00001f7c       __real@3c23d70a            1006af7c     imgui.obj
 0002:00001f80       __real@3c888889            1006af80     imgui.obj
 0002:00001f84       __real@3cdd2f1b            1006af84     imgui.obj
 0002:00001f88       __real@3d9fbe77            1006af88     imgui.obj
 0002:00001f8c       __real@3da3d70a            1006af8c     imgui.obj
 0002:00001f90       __real@3e19999a            1006af90     imgui.obj
 0002:00001f94       __real@3e2aaaab            1006af94     imgui.obj
 0002:00001f98       __real@3e6147ae            1006af98     imgui.obj
 0002:00001f9c       __real@3e800000            1006af9c     imgui.obj
 0002:00001fa0       __real@3e8a3d71            1006afa0     imgui.obj
 0002:00001fa4       __real@3e99999a            1006afa4     imgui.obj
 0002:00001fa8       __real@3ea3d70a            1006afa8     imgui.obj
 0002:00001fac       __real@3eb33333            1006afac     imgui.obj
 0002:00001fb0       __real@3ec28f5c            1006afb0     imgui.obj
 0002:00001fb4       __real@3ecccccd            1006afb4     imgui.obj
 0002:00001fb8       __real@3ee66666            1006afb8     imgui.obj
 0002:00001fbc       __real@3f07ae14            1006afbc     imgui.obj
 0002:00001fc0       __real@3f0a3d71            1006afc0     imgui.obj
 0002:00001fc4       __real@3f0ccccd            1006afc4     imgui.obj
 0002:00001fc8       __real@3f170a3d            1006afc8     imgui.obj
 0002:00001fcc       __real@3f19999a            1006afcc     imgui.obj
 0002:00001fd0       __real@3f2147ae            1006afd0     imgui.obj
 0002:00001fd4       __real@3f266666            1006afd4     imgui.obj
 0002:00001fd8       __real@3f2b851f            1006afd8     imgui.obj
 0002:00001fdc       __real@3f333333            1006afdc     imgui.obj
 0002:00001fe0       __real@3f350481            1006afe0     imgui.obj
 0002:00001fe4       __real@3f4ccccd            1006afe4     imgui.obj
 0002:00001fe8       __real@3f547ae1            1006afe8     imgui.obj
 0002:00001fec       __real@3f5db22d            1006afec     imgui.obj
 0002:00001ff0       __real@3f5db3d0            1006aff0     imgui.obj
 0002:00001ff4       __real@3f5eb852            1006aff4     imgui.obj
 0002:00001ff8       __real@3f666666            1006aff8     imgui.obj
 0002:00001ffc       __real@3f733333            1006affc     imgui.obj
 0002:00002000       __real@3f7d70a4            1006b000     imgui.obj
 0002:00002004       __real@3f7fff58            1006b004     imgui.obj
 0002:00002008       __real@3f800054            1006b008     imgui.obj
 0002:0000200c       __real@3f99999a            1006b00c     imgui.obj
 0002:00002010       __real@3faccccd            1006b010     imgui.obj
 0002:00002014       __real@3fc00000            1006b014     imgui.obj
 0002:00002018       __real@40200000            1006b018     imgui.obj
 0002:0000201c       __real@403f5c29            1006b01c     imgui.obj
 0002:00002020       __real@40c00000            1006b020     imgui.obj
 0002:00002024       __real@40e00000            1006b024     imgui.obj
 0002:00002028       __real@40eccccd            1006b028     imgui.obj
 0002:0000202c       __real@41100000            1006b02c     imgui.obj
 0002:00002030       __real@41300000            1006b030     imgui.obj
 0002:00002034       __real@41400000            1006b034     imgui.obj
 0002:00002038       __real@41600000            1006b038     imgui.obj
 0002:0000203c       __real@41700000            1006b03c     imgui.obj
 0002:00002040       __real@41800000            1006b040     imgui.obj
 0002:00002044       __real@41880000            1006b044     imgui.obj
 0002:00002048       __real@41900000            1006b048     imgui.obj
 0002:0000204c       __real@41a00000            1006b04c     imgui.obj
 0002:00002050       __real@41a80000            1006b050     imgui.obj
 0002:00002054       __real@41b00000            1006b054     imgui.obj
 0002:00002058       __real@42000000            1006b058     imgui.obj
 0002:0000205c       __real@42700000            1006b05c     imgui.obj
 0002:00002060       __real@42e80000            1006b060     imgui.obj
 0002:00002064       __real@42f00000            1006b064     imgui.obj
 0002:00002068       __real@43200000            1006b068     imgui.obj
 0002:0000206c       __real@432f0000            1006b06c     imgui.obj
 0002:00002070       __real@43310000            1006b070     imgui.obj
 0002:00002074       __real@43410000            1006b074     imgui.obj
 0002:00002078       __real@43420000            1006b078     imgui.obj
 0002:0000207c       __real@43b40000            1006b07c     imgui.obj
 0002:00002080       __real@43c80000            1006b080     imgui.obj
 0002:00002084       __real@447a0000            1006b084     imgui.obj
 0002:00002088       __real@461c3c00            1006b088     imgui.obj
 0002:0000208c       __real@7f7fffff            1006b08c     imgui.obj
 0002:00002090       __real@be99999a            1006b090     imgui.obj
 0002:00002094       __real@beaaaaab            1006b094     imgui.obj
 0002:00002098       __real@bf000000            1006b098     imgui.obj
 0002:0000209c       __real@bf5db22d            1006b09c     imgui.obj
 0002:000020a0       __real@bf5db3d0            1006b0a0     imgui.obj
 0002:000020a4       __real@c0000000            1006b0a4     imgui.obj
 0002:000020a8       __real@c1000000            1006b0a8     imgui.obj
 0002:000020ac       __real@c1880000            1006b0ac     imgui.obj
 0002:000020b0       __real@c61c3c00            1006b0b0     imgui.obj
 0002:00005a38       __real@3ffeb852            1006ea38     imgui_draw.obj
 0002:00005a3c       __real@40490fdb            1006ea3c     imgui_draw.obj
 0002:00005a40       __real@41500000            1006ea40     imgui_draw.obj
 0002:00005a44       __real@41980000            1006ea44     imgui_draw.obj
 0002:00005a48       __real@41b80000            1006ea48     imgui_draw.obj
 0002:00005a4c       __real@41f80000            1006ea4c     imgui_draw.obj
 0002:00005a50       __real@425c0000            1006ea50     imgui_draw.obj
 0002:00005a54       __real@42920000            1006ea54     imgui_draw.obj
 0002:00005a58       __real@42b60000            1006ea58     imgui_draw.obj
 0002:00005a5c       __real@46000000            1006ea5c     imgui_draw.obj
 0002:00005a60       __real@46800000            1006ea60     imgui_draw.obj
 0002:00005a64       __real@47800000            1006ea64     imgui_draw.obj
 0002:00005a68       __real@c6000000            1006ea68     imgui_draw.obj
 0002:00005a6c       ??_C@_0N@NCCMPMBI@cl_sidespeed@ 1006ea6c     createmove_hook.obj
 0002:00005a7c       __real@3c8efa35            1006ea7c     createmove_hook.obj
 0002:00005a80       __real@3e500000            1006ea80     createmove_hook.obj
 0002:00005a84       __real@3e600000            1006ea84     createmove_hook.obj
 0002:00005a88       __real@42652ee0            1006ea88     createmove_hook.obj
 0002:00005a8c       __real@42fa0000            1006ea8c     createmove_hook.obj
 0002:00005a90       __real@43e10000            1006ea90     createmove_hook.obj
 0002:00005a94       __real@c2340000            1006ea94     createmove_hook.obj
 0002:00005a98       __real@c2fa0000            1006ea98     createmove_hook.obj
 0002:00005a9c       __real@c3340000            1006ea9c     createmove_hook.obj
 0002:00005aa0       __real@3dc8c8c9            1006eaa0     directx_preset_hook.obj
 0002:00005aa4       __real@3e0c8c8d            1006eaa4     directx_preset_hook.obj
 0002:00005aa8       __real@3e0f5c29            1006eaa8     directx_preset_hook.obj
 0002:00005aac       __real@3e2e147b            1006eaac     directx_preset_hook.obj
 0002:00005ab0       __real@3e851eb8            1006eab0     directx_preset_hook.obj
 0002:00005ab4       __real@3edc28f6            1006eab4     directx_preset_hook.obj
 0002:00005ab8       __real@3f078788            1006eab8     directx_preset_hook.obj
 0002:00005abc       __real@3f179798            1006eabc     directx_preset_hook.obj
 0002:00005ac0       __real@3f1c28f6            1006eac0     directx_preset_hook.obj
 0002:00005ac4       __real@3f70a3d7            1006eac4     directx_preset_hook.obj
 0002:00005ac8       __real@3f7ae148            1006eac8     directx_preset_hook.obj
 0002:00005c30       ??_C@_09NFOPKLIK@sv_cheats@ 1006ec30     fsn_hook.obj
 0002:00005c3c       ??_C@_0M@BIELKGOF@thirdperson@ 1006ec3c     fsn_hook.obj
 0002:00005c48       ??_C@_0M@INGIFFDB@firstperson@ 1006ec48     fsn_hook.obj
 0002:00005ca4       ??_C@_0M@PPOAODEA@m_bIsScoped@ 1006eca4     oview_hook.obj
 0002:00005cb0       __real@3ee66663            1006ecb0     oview_hook.obj
 0002:00005cd0       ??_C@_0BL@OOBMLGKK@weapon_debug_spread_show?50@ 1006ecd0     painttraverse_hook.obj
 0002:00005cec       ??_C@_0M@HPFLIJIB@crosshair?50@ 1006ecec     painttraverse_hook.obj
 0002:00005cf8       ??_C@_0BL@MFDBOFGJ@weapon_debug_spread_show?53@ 1006ecf8     painttraverse_hook.obj
 0002:00005d14       ??_C@_0M@GGEALIMA@crosshair?51@ 1006ed14     painttraverse_hook.obj
 0002:00005d24       ??_7bad_cast@std@@6B@      1006ed24     config_system.obj
 0002:00005d2c       ??_C@_08EPJLHIJG@bad?5cast@ 1006ed2c     config_system.obj
 0002:00005d3c       ??_7_System_error@std@@6B@ 1006ed3c     config_system.obj
 0002:00005d44       ??_C@_02LMMGGCAJ@?3?5@     1006ed44     config_system.obj
 0002:00005d4c       ??_7system_error@std@@6B@  1006ed4c     config_system.obj
 0002:00005d58       ??_7_Generic_error_category@std@@6B@ 1006ed58     config_system.obj
 0002:00005d70       ??_C@_07DCLBNMLN@generic@  1006ed70     config_system.obj
 0002:00005d7c       ??_7_System_error_category@std@@6B@ 1006ed7c     config_system.obj
 0002:00005d94       ??_C@_06FHFOAHML@system@   1006ed94     config_system.obj
 0002:00005d9c       ??_C@_0O@BFJCFAAK@unknown?5error@ 1006ed9c     config_system.obj
 0002:00005daa       ?_Is_slash@std@@3U_Is_slash_oper@1@B 1006edaa     config_system.obj
 0002:00005db0       ??_7filesystem_error@filesystem@std@@6B@ 1006edb0     config_system.obj
 0002:00005db8       ??_C@_03NONCDIOG@?3?5?$CC@ 1006edb8     config_system.obj
 0002:00005dbc       ??_C@_04PHMHGEMA@?$CC?0?5?$CC@ 1006edbc     config_system.obj
 0002:00005dc4       ??_C@_13BBDEGPLJ@?$AA?$CK@ 1006edc4     config_system.obj
 0002:00005dc8       ??_C@_0CH@GANCNKKD@directory_iterator?3?3directory_i@ 1006edc8     config_system.obj
 0002:00005df0       ??_C@_0BP@DPMCMHCK@directory_iterator?3?3operator?$CL?$CL@ 1006edf0     config_system.obj
 0002:00005e10       ??_C@_06LEMKAMD@remove@    1006ee10     config_system.obj
 0002:00005e18       ??_C@_06LMEAOBLB@rename@   1006ee18     config_system.obj
 0002:00005e20       ??_C@_06DJIHEMFI@status@   1006ee20     config_system.obj
 0002:00005e28       ??_C@_0BB@FIPAOBBI@create_directory@ 1006ee28     config_system.obj
 0002:00005e40       ??_7?$basic_filebuf@DU?$char_traits@D@std@@@std@@6B@ 1006ee40     config_system.obj
 0002:00005e80       ??_7?$basic_ifstream@DU?$char_traits@D@std@@@std@@6B@ 1006ee80     config_system.obj
 0002:00005e84       ??_8?$basic_ifstream@DU?$char_traits@D@std@@@std@@7B@ 1006ee84     config_system.obj
 0002:00005e90       ??_7?$basic_ofstream@DU?$char_traits@D@std@@@std@@6B@ 1006ee90     config_system.obj
 0002:00005e94       ??_8?$basic_ofstream@DU?$char_traits@D@std@@@std@@7B@ 1006ee94     config_system.obj
 0002:00005ea0       ??_7?$_Ref_count_obj@U_Dir_enum_impl@filesystem@std@@@std@@6B@ 1006eea0     config_system.obj
 0002:00008eb8       __real@3df0f0f1            10071eb8     menu_system.obj
 0002:00008ebc       __real@3e1c9c9d            10071ebc     menu_system.obj
 0002:00008ec0       __real@42aa0000            10071ec0     menu_system.obj
 0002:00008ec4       __real@42be0000            10071ec4     menu_system.obj
 0002:00008ec8       __real@43180000            10071ec8     menu_system.obj
 0002:00008ecc       __real@43320000            10071ecc     menu_system.obj
 0002:00008ed0       __real@43490000            10071ed0     menu_system.obj
 0002:00008ed4       __real@437a0000            10071ed4     menu_system.obj
 0002:00008ed8       __real@43868000            10071ed8     menu_system.obj
 0002:00008edc       __real@43908000            10071edc     menu_system.obj
 0002:00008ee0       __real@43b48000            10071ee0     menu_system.obj
 0002:00008ee4       __real@43e38000            10071ee4     menu_system.obj
 0002:00008ee8       __real@440e0000            10071ee8     menu_system.obj
 0002:00008eec       __real@44160000            10071eec     menu_system.obj
 0002:00008ef0       __real@c0400000            10071ef0     menu_system.obj
 0002:00009ce8       __real@3f91df46a2529d39    10072ce8     Math.obj
 0002:00009cf0       __real@400921fb54442d18    10072cf0     Math.obj
 0002:00009cf8       __real@404ca5dc1a63c1f8    10072cf8     Math.obj
 0002:00009d00       __real@42b20000            10072d00     Math.obj
 0002:00009d04       __real@c2b20000            10072d04     Math.obj
 0002:00009d08       __real@c3b40000            10072d08     Math.obj
 0002:00009d10       ??_7?$_Ref_count_obj@UNode@NetvarTree@@@std@@6B@ 10072d10     NetvarManager.obj
 0002:00009d20       _FOLDERID_Documents        10072d20     shell32:shguid.obj
 0002:00009d30       ??_C@_1BK@MGMFAEKH@?$AAk?$AAe?$AAr?$AAn?$AAe?$AAl?$AA3?$AA2?$AA?4?$AAd?$AAl?$AAl@ 10072d30     msvcprt:filesystem.obj
 0002:00009d4c       ??_C@_0BN@NEEHBBPO@GetFileInformationByHandleEx@ 10072d4c     msvcprt:filesystem.obj
 0002:00009d6c       ??_C@_0BL@KBBHGKCM@SetFileInformationByHandle@ 10072d6c     msvcprt:filesystem.obj
 0002:00009d88       ??_C@_1EC@JIJBPKFM@?$AAa?$AAp?$AAi?$AA?9?$AAm?$AAs?$AA?9?$AAw?$AAi?$AAn?$AA?9?$AAc?$AAo?$AAr?$AAe@ 10072d88     MSVCRT:thread_safe_statics.obj
 0002:00009dcc       ??_C@_0BM@HLJJNPAH@InitializeConditionVariable@ 10072dcc     MSVCRT:thread_safe_statics.obj
 0002:00009de8       ??_C@_0BJ@JEBJOJFJ@SleepConditionVariableCS@ 10072de8     MSVCRT:thread_safe_statics.obj
 0002:00009e04       ??_C@_0BJ@PGPPEPCC@WakeAllConditionVariable@ 10072e04     MSVCRT:thread_safe_statics.obj
 0002:00009ea8       ??_7type_info@@6B@         10072ea8     MSVCRT:std_type_info_static.obj
 0002:00009eb4       __pRawDllMain              10072eb4     MSVCRT:dll_dllmain.obj
 0002:00009eb4       __pDefaultRawDllMain       10072eb4     MSVCRT:dll_dllmain.obj
 0002:00009ebc       ??_7bad_alloc@std@@6B@     10072ebc     MSVCRT:throw_bad_alloc.obj
 0002:00009ec4       ??_C@_0P@GHFPNOJB@bad?5allocation@ 10072ec4     MSVCRT:throw_bad_alloc.obj
 0002:00009ed8       ??_7bad_array_new_length@std@@6B@ 10072ed8     MSVCRT:throw_bad_alloc.obj
 0002:00009ee0       ??_C@_0BF@KINCDENJ@bad?5array?5new?5length@ 10072ee0     MSVCRT:throw_bad_alloc.obj
 0002:00009f58       __load_config_used         10072f58     MSVCRT:loadcfg.obj
 0002:00009ff8       __tls_used                 10072ff8     MSVCRT:tlssup.obj
 0002:0000a010       ??_R4exception@std@@6B@    10073010     c_hooks.obj
 0002:0000a024       ??_R3exception@std@@8      10073024     c_hooks.obj
 0002:0000a034       ??_R2exception@std@@8      10073034     c_hooks.obj
 0002:0000a03c       ??_R1A@?0A@EA@exception@std@@8 1007303c     c_hooks.obj
 0002:0000a058       ??_R4runtime_error@std@@6B@ 10073058     c_hooks.obj
 0002:0000a06c       ??_R3runtime_error@std@@8  1007306c     c_hooks.obj
 0002:0000a07c       ??_R2runtime_error@std@@8  1007307c     c_hooks.obj
 0002:0000a088       ??_R1A@?0A@EA@runtime_error@std@@8 10073088     c_hooks.obj
 0002:0000a0a4       ??_R4IGameEventListener@@6B@ 100730a4     c_hooks.obj
 0002:0000a0b8       ??_R3IGameEventListener@@8 100730b8     c_hooks.obj
 0002:0000a0c8       ??_R2IGameEventListener@@8 100730c8     c_hooks.obj
 0002:0000a0d0       ??_R1A@?0A@EA@IGameEventListener@@8 100730d0     c_hooks.obj
 0002:0000a0ec       ??_R4Event@@6B@            100730ec     c_hooks.obj
 0002:0000a100       ??_R3Event@@8              10073100     c_hooks.obj
 0002:0000a110       ??_R2Event@@8              10073110     c_hooks.obj
 0002:0000a11c       ??_R1A@?0A@EA@Event@@8     1007311c     c_hooks.obj
 0002:0000a138       ??_R4ITraceFilter@@6B@     10073138     Autowall.obj
 0002:0000a14c       ??_R3ITraceFilter@@8       1007314c     Autowall.obj
 0002:0000a15c       ??_R2ITraceFilter@@8       1007315c     Autowall.obj
 0002:0000a164       ??_R1A@?0A@EA@ITraceFilter@@8 10073164     Autowall.obj
 0002:0000a180       ??_R4C_TraceFilter@@6B@    10073180     Autowall.obj
 0002:0000a194       ??_R3C_TraceFilter@@8      10073194     Autowall.obj
 0002:0000a1a4       ??_R2C_TraceFilter@@8      100731a4     Autowall.obj
 0002:0000a1b0       ??_R1A@?0A@EA@C_TraceFilter@@8 100731b0     Autowall.obj
 0002:0000a1cc       ??_R4?$basic_filebuf@DU?$char_traits@D@std@@@std@@6B@ 100731cc     config_system.obj
 0002:0000a1e0       ??_R3?$basic_filebuf@DU?$char_traits@D@std@@@std@@8 100731e0     config_system.obj
 0002:0000a1f0       ??_R2?$basic_filebuf@DU?$char_traits@D@std@@@std@@8 100731f0     config_system.obj
 0002:0000a1fc       ??_R1A@?0A@EA@?$basic_filebuf@DU?$char_traits@D@std@@@std@@8 100731fc     config_system.obj
 0002:0000a218       ??_R1A@?0A@EA@?$basic_streambuf@DU?$char_traits@D@std@@@std@@8 10073218     config_system.obj
 0002:0000a234       ??_R3?$basic_streambuf@DU?$char_traits@D@std@@@std@@8 10073234     config_system.obj
 0002:0000a244       ??_R2?$basic_streambuf@DU?$char_traits@D@std@@@std@@8 10073244     config_system.obj
 0002:0000a24c       ??_R4?$basic_ifstream@DU?$char_traits@D@std@@@std@@6B@ 1007324c     config_system.obj
 0002:0000a260       ??_R3?$basic_ifstream@DU?$char_traits@D@std@@@std@@8 10073260     config_system.obj
 0002:0000a270       ??_R2?$basic_ifstream@DU?$char_traits@D@std@@@std@@8 10073270     config_system.obj
 0002:0000a288       ??_R1A@?0A@EA@?$basic_ifstream@DU?$char_traits@D@std@@@std@@8 10073288     config_system.obj
 0002:0000a2a4       ??_R1A@?0A@EA@?$basic_istream@DU?$char_traits@D@std@@@std@@8 100732a4     config_system.obj
 0002:0000a2c0       ??_R3?$basic_istream@DU?$char_traits@D@std@@@std@@8 100732c0     config_system.obj
 0002:0000a2d0       ??_R2?$basic_istream@DU?$char_traits@D@std@@@std@@8 100732d0     config_system.obj
 0002:0000a2e4       ??_R1A@A@3FA@?$basic_ios@DU?$char_traits@D@std@@@std@@8 100732e4     config_system.obj
 0002:0000a300       ??_R3?$basic_ios@DU?$char_traits@D@std@@@std@@8 10073300     config_system.obj
 0002:0000a310       ??_R2?$basic_ios@DU?$char_traits@D@std@@@std@@8 10073310     config_system.obj
 0002:0000a320       ??_R1A@?0A@EA@?$basic_ios@DU?$char_traits@D@std@@@std@@8 10073320     config_system.obj
 0002:0000a33c       ??_R1A@?0A@EA@ios_base@std@@8 1007333c     config_system.obj
 0002:0000a358       ??_R3ios_base@std@@8       10073358     config_system.obj
 0002:0000a368       ??_R2ios_base@std@@8       10073368     config_system.obj
 0002:0000a374       ??_R17?0A@EA@?$_Iosb@H@std@@8 10073374     config_system.obj
 0002:0000a390       ??_R3?$_Iosb@H@std@@8      10073390     config_system.obj
 0002:0000a3a0       ??_R2?$_Iosb@H@std@@8      100733a0     config_system.obj
 0002:0000a3a8       ??_R1A@?0A@EA@?$_Iosb@H@std@@8 100733a8     config_system.obj
 0002:0000a3c4       ??_R1A@A@3EA@ios_base@std@@8 100733c4     config_system.obj
 0002:0000a3e0       ??_R17A@3EA@?$_Iosb@H@std@@8 100733e0     config_system.obj
 0002:0000a3fc       ??_R4?$basic_ofstream@DU?$char_traits@D@std@@@std@@6B@ 100733fc     config_system.obj
 0002:0000a410       ??_R3?$basic_ofstream@DU?$char_traits@D@std@@@std@@8 10073410     config_system.obj
 0002:0000a420       ??_R2?$basic_ofstream@DU?$char_traits@D@std@@@std@@8 10073420     config_system.obj
 0002:0000a438       ??_R1A@?0A@EA@?$basic_ofstream@DU?$char_traits@D@std@@@std@@8 10073438     config_system.obj
 0002:0000a454       ??_R1A@?0A@EA@?$basic_ostream@DU?$char_traits@D@std@@@std@@8 10073454     config_system.obj
 0002:0000a470       ??_R3?$basic_ostream@DU?$char_traits@D@std@@@std@@8 10073470     config_system.obj
 0002:0000a480       ??_R2?$basic_ostream@DU?$char_traits@D@std@@@std@@8 10073480     config_system.obj
 0002:0000a494       ??_R4bad_cast@std@@6B@     10073494     config_system.obj
 0002:0000a4a8       ??_R3bad_cast@std@@8       100734a8     config_system.obj
 0002:0000a4b8       ??_R2bad_cast@std@@8       100734b8     config_system.obj
 0002:0000a4c4       ??_R1A@?0A@EA@bad_cast@std@@8 100734c4     config_system.obj
 0002:0000a4e0       ??_R3_Ref_count_base@std@@8 100734e0     config_system.obj
 0002:0000a4f0       ??_R2_Ref_count_base@std@@8 100734f0     config_system.obj
 0002:0000a4f8       ??_R1A@?0A@EA@_Ref_count_base@std@@8 100734f8     config_system.obj
 0002:0000a514       ??_R3error_category@std@@8 10073514     config_system.obj
 0002:0000a524       ??_R2error_category@std@@8 10073524     config_system.obj
 0002:0000a52c       ??_R1A@?0A@EA@error_category@std@@8 1007352c     config_system.obj
 0002:0000a548       ??_R4_System_error@std@@6B@ 10073548     config_system.obj
 0002:0000a55c       ??_R3_System_error@std@@8  1007355c     config_system.obj
 0002:0000a56c       ??_R2_System_error@std@@8  1007356c     config_system.obj
 0002:0000a57c       ??_R1A@?0A@EA@_System_error@std@@8 1007357c     config_system.obj
 0002:0000a598       ??_R4system_error@std@@6B@ 10073598     config_system.obj
 0002:0000a5ac       ??_R3system_error@std@@8   100735ac     config_system.obj
 0002:0000a5bc       ??_R2system_error@std@@8   100735bc     config_system.obj
 0002:0000a5d0       ??_R1A@?0A@EA@system_error@std@@8 100735d0     config_system.obj
 0002:0000a5ec       ??_R4_Generic_error_category@std@@6B@ 100735ec     config_system.obj
 0002:0000a600       ??_R3_Generic_error_category@std@@8 10073600     config_system.obj
 0002:0000a610       ??_R2_Generic_error_category@std@@8 10073610     config_system.obj
 0002:0000a61c       ??_R1A@?0A@EA@_Generic_error_category@std@@8 1007361c     config_system.obj
 0002:0000a638       ??_R4_System_error_category@std@@6B@ 10073638     config_system.obj
 0002:0000a64c       ??_R3_System_error_category@std@@8 1007364c     config_system.obj
 0002:0000a65c       ??_R2_System_error_category@std@@8 1007365c     config_system.obj
 0002:0000a668       ??_R1A@?0A@EA@_System_error_category@std@@8 10073668     config_system.obj
 0002:0000a684       ??_R4filesystem_error@filesystem@std@@6B@ 10073684     config_system.obj
 0002:0000a698       ??_R3filesystem_error@filesystem@std@@8 10073698     config_system.obj
 0002:0000a6a8       ??_R2filesystem_error@filesystem@std@@8 100736a8     config_system.obj
 0002:0000a6c0       ??_R1A@?0A@EA@filesystem_error@filesystem@std@@8 100736c0     config_system.obj
 0002:0000a6dc       ??_R4?$_Ref_count_obj@U_Dir_enum_impl@filesystem@std@@@std@@6B@ 100736dc     config_system.obj
 0002:0000a6f0       ??_R3?$_Ref_count_obj@U_Dir_enum_impl@filesystem@std@@@std@@8 100736f0     config_system.obj
 0002:0000a700       ??_R2?$_Ref_count_obj@U_Dir_enum_impl@filesystem@std@@@std@@8 10073700     config_system.obj
 0002:0000a70c       ??_R1A@?0A@EA@?$_Ref_count_obj@U_Dir_enum_impl@filesystem@std@@@std@@8 1007370c     config_system.obj
 0002:0000a728       ??_R4?$_Ref_count_obj@UNode@NetvarTree@@@std@@6B@ 10073728     NetvarManager.obj
 0002:0000a73c       ??_R3?$_Ref_count_obj@UNode@NetvarTree@@@std@@8 1007373c     NetvarManager.obj
 0002:0000a74c       ??_R2?$_Ref_count_obj@UNode@NetvarTree@@@std@@8 1007374c     NetvarManager.obj
 0002:0000a758       ??_R1A@?0A@EA@?$_Ref_count_obj@UNode@NetvarTree@@@std@@8 10073758     NetvarManager.obj
 0002:0000a774       ??_R4type_info@@6B@        10073774     MSVCRT:std_type_info_static.obj
 0002:0000a788       ??_R3type_info@@8          10073788     MSVCRT:std_type_info_static.obj
 0002:0000a798       ??_R2type_info@@8          10073798     MSVCRT:std_type_info_static.obj
 0002:0000a7a0       ??_R1A@?0A@EA@type_info@@8 100737a0     MSVCRT:std_type_info_static.obj
 0002:0000a7bc       ??_R4bad_alloc@std@@6B@    100737bc     MSVCRT:throw_bad_alloc.obj
 0002:0000a7d0       ??_R3bad_alloc@std@@8      100737d0     MSVCRT:throw_bad_alloc.obj
 0002:0000a7e0       ??_R2bad_alloc@std@@8      100737e0     MSVCRT:throw_bad_alloc.obj
 0002:0000a7ec       ??_R1A@?0A@EA@bad_alloc@std@@8 100737ec     MSVCRT:throw_bad_alloc.obj
 0002:0000a808       ??_R4bad_array_new_length@std@@6B@ 10073808     MSVCRT:throw_bad_alloc.obj
 0002:0000a81c       ??_R3bad_array_new_length@std@@8 1007381c     MSVCRT:throw_bad_alloc.obj
 0002:0000a82c       ??_R2bad_array_new_length@std@@8 1007382c     MSVCRT:throw_bad_alloc.obj
 0002:0000a83c       ??_R1A@?0A@EA@bad_array_new_length@std@@8 1007383c     MSVCRT:throw_bad_alloc.obj
 0002:0000a860       ___safe_se_handler_table   10073860     <linker-defined>
 0002:0000ae50       ___rtc_iaa                 10073e50     MSVCRT:initsect.obj
 0002:0000ae54       ___rtc_izz                 10073e54     MSVCRT:initsect.obj
 0002:0000ae58       ___rtc_taa                 10073e58     MSVCRT:initsect.obj
 0002:0000ae5c       ___rtc_tzz                 10073e5c     MSVCRT:initsect.obj
 0002:0000ae60       __tls_start                10073e60     MSVCRT:tlssup.obj
 0002:0000ae64       __Init_thread_epoch        10073e64     MSVCRT:thread_safe_statics.obj
 0002:0000ae68       __tls_end                  10073e68     MSVCRT:tlssup.obj
 0002:0000b458       __TI2?AVruntime_error@std@@ 10074458     c_hooks.obj
 0002:0000b468       __CTA2?AVruntime_error@std@@ 10074468     c_hooks.obj
 0002:0000b474       __CT??_R0?AVruntime_error@std@@@8??0runtime_error@std@@QAE@ABV01@@Z12 10074474     c_hooks.obj
 0002:0000b490       __CT??_R0?AVexception@std@@@8??0exception@std@@QAE@ABV01@@Z12 10074490     c_hooks.obj
 0002:0000c894       __CT??_R0?AVsystem_error@std@@@8??0system_error@std@@QAE@ABV01@@Z20 10075894     config_system.obj
 0002:0000c8b0       __CT??_R0?AV_System_error@std@@@8??0_System_error@std@@QAE@ABV01@@Z20 100758b0     config_system.obj
 0002:0000c8cc       __TI4?AVsystem_error@std@@ 100758cc     config_system.obj
 0002:0000c8dc       __CTA4?AVsystem_error@std@@ 100758dc     config_system.obj
 0002:0000c8f0       __TI5?AVfilesystem_error@filesystem@std@@ 100758f0     config_system.obj
 0002:0000c900       __CTA5?AVfilesystem_error@filesystem@std@@ 10075900     config_system.obj
 0002:0000c918       __CT??_R0?AVfilesystem_error@filesystem@std@@@8??0filesystem_error@filesystem@std@@QAE@ABV012@@Z92 10075918     config_system.obj
 0002:0000c934       __TI2?AVbad_cast@std@@     10075934     config_system.obj
 0002:0000c944       __CTA2?AVbad_cast@std@@    10075944     config_system.obj
 0002:0000c950       __CT??_R0?AVbad_cast@std@@@8??0bad_cast@std@@QAE@ABV01@@Z12 10075950     config_system.obj
 0002:0000cdbc       __TI2?AVbad_alloc@std@@    10075dbc     MSVCRT:throw_bad_alloc.obj
 0002:0000cdcc       __CTA2?AVbad_alloc@std@@   10075dcc     MSVCRT:throw_bad_alloc.obj
 0002:0000cdd8       __CT??_R0?AVbad_alloc@std@@@8??0bad_alloc@std@@QAE@ABV01@@Z12 10075dd8     MSVCRT:throw_bad_alloc.obj
 0002:0000cdf4       __TI3?AVbad_array_new_length@std@@ 10075df4     MSVCRT:throw_bad_alloc.obj
 0002:0000ce04       __CTA3?AVbad_array_new_length@std@@ 10075e04     MSVCRT:throw_bad_alloc.obj
 0002:0000ce14       __CT??_R0?AVbad_array_new_length@std@@@8??0bad_array_new_length@std@@QAE@ABV01@@Z12 10075e14     MSVCRT:throw_bad_alloc.obj
 0002:0000ce30       __IMPORT_DESCRIPTOR_KERNEL32 10075e30     kernel32:KERNEL32.dll
 0002:0000ce44       __IMPORT_DESCRIPTOR_USER32 10075e44     user32:USER32.dll
 0002:0000ce58       __IMPORT_DESCRIPTOR_SHELL32 10075e58     shell32:SHELL32.dll
 0002:0000ce6c       __IMPORT_DESCRIPTOR_ole32  10075e6c     ole32:ole32.dll
 0002:0000ce80       __IMPORT_DESCRIPTOR_MSVCP140 10075e80     msvcprt:MSVCP140.dll
 0002:0000ce94       __IMPORT_DESCRIPTOR_IMM32  10075e94     imm32:IMM32.dll
 0002:0000cea8       __IMPORT_DESCRIPTOR_VCRUNTIME140 10075ea8     vcruntime:VCRUNTIME140.dll
 0002:0000cebc       __IMPORT_DESCRIPTOR_api-ms-win-crt-runtime-l1-1-0 10075ebc     ucrt:api-ms-win-crt-runtime-l1-1-0.dll
 0002:0000ced0       __IMPORT_DESCRIPTOR_api-ms-win-crt-heap-l1-1-0 10075ed0     ucrt:api-ms-win-crt-heap-l1-1-0.dll
 0002:0000cee4       __IMPORT_DESCRIPTOR_api-ms-win-crt-convert-l1-1-0 10075ee4     ucrt:api-ms-win-crt-convert-l1-1-0.dll
 0002:0000cef8       __IMPORT_DESCRIPTOR_api-ms-win-crt-stdio-l1-1-0 10075ef8     ucrt:api-ms-win-crt-stdio-l1-1-0.dll
 0002:0000cf0c       __IMPORT_DESCRIPTOR_api-ms-win-crt-math-l1-1-0 10075f0c     ucrt:api-ms-win-crt-math-l1-1-0.dll
 0002:0000cf20       __IMPORT_DESCRIPTOR_api-ms-win-crt-string-l1-1-0 10075f20     ucrt:api-ms-win-crt-string-l1-1-0.dll
 0002:0000cf34       __IMPORT_DESCRIPTOR_api-ms-win-crt-utility-l1-1-0 10075f34     ucrt:api-ms-win-crt-utility-l1-1-0.dll
 0002:0000cf48       __IMPORT_DESCRIPTOR_api-ms-win-crt-filesystem-l1-1-0 10075f48     ucrt:api-ms-win-crt-filesystem-l1-1-0.dll
 0002:0000cf5c       __IMPORT_DESCRIPTOR_api-ms-win-crt-locale-l1-1-0 10075f5c     ucrt:api-ms-win-crt-locale-l1-1-0.dll
 0002:0000cf70       __NULL_IMPORT_DESCRIPTOR   10075f70     kernel32:KERNEL32.dll
 0003:00000024       ?GImGui@@3PAUImGuiContext@@A 10078024     imgui.obj
 0003:0000002c       ?maxSpeed@?1??DoFakeLag@Misc@@ABEXXZ@4MA 1007802c     createmove_hook.obj
 0003:00000030       ?Acceleration@?1??DoFakeLag@Misc@@ABEXXZ@4MA 10078030     createmove_hook.obj
 0003:00000034       ?stop@?1??DoFakeLag@Misc@@ABEXXZ@4_NA 10078034     createmove_hook.obj
 0003:00000035       ?stop2@?1??DoFakeLag@Misc@@ABEXXZ@4_NA 10078035     createmove_hook.obj
 0003:00000040       ?bSendPacket@g@@3_NA       10078040     GlobalVars.obj
 0003:00000044       ?TargetIndex@g@@3HA        10078044     GlobalVars.obj
 0003:00000048       __Init_global_epoch        10078048     MSVCRT:thread_safe_statics.obj
 0003:00000050       ___security_cookie_complement 10078050     MSVCRT:gs_cookie.obj
 0003:00000054       ___security_cookie         10078054     MSVCRT:gs_cookie.obj
 0003:00000058       __fltused                  10078058     MSVCRT:fltused.obj
 0003:00000060       ___scrt_native_dllmain_reason 10078060     MSVCRT:utility.obj
 0003:00000070       ___isa_enabled             10078070     MSVCRT:cpu_disp.obj
 0003:00000074       ___scrt_ucrt_dll_is_in_use 10078074     MSVCRT:ucrt_stubs.obj
 0003:00000078       ??_R0?AVruntime_error@std@@@8 10078078     c_hooks.obj
 0003:00000098       ??_R0?AVexception@std@@@8  10078098     c_hooks.obj
 0003:000000b4       ??_R0?AVIGameEventListener@@@8 100780b4     c_hooks.obj
 0003:000000d8       ??_R0?AVEvent@@@8          100780d8     c_hooks.obj
 0003:000000ec       ??_R0?AVITraceFilter@@@8   100780ec     Autowall.obj
 0003:00000108       ??_R0?AVC_TraceFilter@@@8  10078108     Autowall.obj
 0003:00000124       ??_R0?AVsystem_error@std@@@8 10078124     config_system.obj
 0003:00000144       ??_R0?AV_System_error@std@@@8 10078144     config_system.obj
 0003:00000164       ??_R0?AVfilesystem_error@filesystem@std@@@8 10078164     config_system.obj
 0003:00000194       ??_R0?AVbad_cast@std@@@8   10078194     config_system.obj
 0003:000001b0       ??_R0?AV?$basic_filebuf@DU?$char_traits@D@std@@@std@@@8 100781b0     config_system.obj
 0003:000001ec       ??_R0?AV?$basic_streambuf@DU?$char_traits@D@std@@@std@@@8 100781ec     config_system.obj
 0003:00000228       ??_R0?AV?$basic_ifstream@DU?$char_traits@D@std@@@std@@@8 10078228     config_system.obj
 0003:00000264       ??_R0?AV?$basic_istream@DU?$char_traits@D@std@@@std@@@8 10078264     config_system.obj
 0003:000002a0       ??_R0?AV?$basic_ios@DU?$char_traits@D@std@@@std@@@8 100782a0     config_system.obj
 0003:000002d8       ??_R0?AVios_base@std@@@8   100782d8     config_system.obj
 0003:000002f4       ??_R0?AV?$_Iosb@H@std@@@8  100782f4     config_system.obj
 0003:00000310       ??_R0?AV?$basic_ofstream@DU?$char_traits@D@std@@@std@@@8 10078310     config_system.obj
 0003:0000034c       ??_R0?AV?$basic_ostream@DU?$char_traits@D@std@@@std@@@8 1007834c     config_system.obj
 0003:00000388       ??_R0?AV_Ref_count_base@std@@@8 10078388     config_system.obj
 0003:000003ac       ??_R0?AVerror_category@std@@@8 100783ac     config_system.obj
 0003:000003d0       ??_R0?AV_Generic_error_category@std@@@8 100783d0     config_system.obj
 0003:000003fc       ??_R0?AV_System_error_category@std@@@8 100783fc     config_system.obj
 0003:00000428       ??_R0?AV?$_Ref_count_obj@U_Dir_enum_impl@filesystem@std@@@std@@@8 10078428     config_system.obj
 0003:0000046c       ??_R0?AV?$_Ref_count_obj@UNode@NetvarTree@@@std@@@8 1007846c     NetvarManager.obj
 0003:000004a4       ??_R0?AVtype_info@@@8      100784a4     MSVCRT:std_type_info_static.obj
 0003:000004bc       ??_R0?AVbad_alloc@std@@@8  100784bc     MSVCRT:throw_bad_alloc.obj
 0003:000004d8       ??_R0?AVbad_array_new_length@std@@@8 100784d8     MSVCRT:throw_bad_alloc.obj
 0003:00000500       ?c_animfix@@3Vanimations_system@@A 10078500     animation_system.obj
 0003:0000050c       ?pattern_to_byte@?1??PatternScan@Utils@@SAPAEPAXPBD@Z@4V<lambda>@@A 1007850c     animation_system.obj
 0003:00000510       ?$TSS0@?1??PatternScan@Utils@@SAPAEPAXPBD@Z@4HA 10078510     animation_system.obj
 0003:00000514       ?update_anim_state@?1??UpdateAnimationState@C_BaseEntity@@QAEXPAVCBasePlayerAnimState@@VVector@@@Z@4PAEA 10078514     animation_system.obj
 0003:00000518       ?$TSS0@?1??UpdateAnimationState@C_BaseEntity@@QAEXPAVCBasePlayerAnimState@@VVector@@@Z@4HA 10078518     animation_system.obj
 0003:0000051c       ?_m_flPoseParameter@?1??m_flPoseParameter@C_BaseEntity@@QAEAAV?$array@M$0BI@@std@@XZ@4HA 1007851c     animation_system.obj
 0003:00000520       ?$TSS0@?1??m_flPoseParameter@C_BaseEntity@@QAEAAV?$array@M$0BI@@std@@XZ@4HA 10078520     animation_system.obj
 0003:00000524       ?m_flSimulationTime@?1??GetSimulationTime@C_BaseEntity@@QAEMXZ@4HA 10078524     animation_system.obj
 0003:00000528       ?$TSS0@?1??GetSimulationTime@C_BaseEntity@@QAEMXZ@4HA 10078528     animation_system.obj
 0003:0000052c       ?m_lifeState@?1??GetLifeState@C_BaseEntity@@QAE_NXZ@4HA 1007852c     animation_system.obj
 0003:00000530       ?$TSS0@?1??GetLifeState@C_BaseEntity@@QAE_NXZ@4HA 10078530     animation_system.obj
 0003:00000534       ?m_iHealth@?1??GetHealth@C_BaseEntity@@QAEHXZ@4HA 10078534     animation_system.obj
 0003:00000538       ?$TSS0@?1??GetHealth@C_BaseEntity@@QAEHXZ@4HA 10078538     animation_system.obj
 0003:0000053c       ?m_vecOrigin@?1??GetOrigin@C_BaseEntity@@QAE?AVVector@@XZ@4HA 1007853c     animation_system.obj
 0003:00000540       ?$TSS0@?1??GetOrigin@C_BaseEntity@@QAE?AVVector@@XZ@4HA 10078540     animation_system.obj
 0003:00000544       ?m_vecVelocity@?1??GetVelocity@C_BaseEntity@@QAE?AVVector@@XZ@4HA 10078544     animation_system.obj
 0003:00000548       ?$TSS0@?1??GetVelocity@C_BaseEntity@@QAE?AVVector@@XZ@4HA 10078548     animation_system.obj
 0003:00000908       ?exploit@@3Vc_exploits@@A  10078908     exploits.obj
 0003:00000914       ?m_fFlags@?1??GetFlags@C_BaseEntity@@QAE?AW4EntityFlags@@XZ@4HA 10078914     exploits.obj
 0003:00000918       ?$TSS0@?1??GetFlags@C_BaseEntity@@QAE?AW4EntityFlags@@XZ@4HA 10078918     exploits.obj
 0003:0000091c       ?stuff@@3Vc_stuff@@A       1007891c     premium_stuff.obj
 0003:00000928       ?c_other_esp@@3Vother_esp@@A 10078928     other_esp.obj
 0003:00000938       ?_OptionsStorage@?1??__local_stdio_printf_options@@9@4_KA 10078938     other_esp.obj
 0003:00000948       ?g_Misc@@3VMisc@@A         10078948     c_hooks.obj
 0003:00000950       ?hooks@@3Vc_hooks@@A       10078950     c_hooks.obj
 0003:00000a88       ?g_Event@@3VEvent@@A       10078a88     c_hooks.obj
 0003:00000a90       ?HThisModule@@3PAUHINSTANCE__@@A 10078a90     dll_main.obj
 0003:00000aa8       ?aimbot@@3Vc_aimbot@@A     10078aa8     c_ragebot.obj
 0003:00062334       ?m_hActiveWeapon@?1??GetActiveWeapon@C_BaseEntity@@QAEPAVC_BaseCombatWeapon@@XZ@4HA 100da334     c_ragebot.obj
 0003:00062338       ?$TSS0@?1??GetActiveWeapon@C_BaseEntity@@QAEPAVC_BaseCombatWeapon@@XZ@4HA 100da338     c_ragebot.obj
 0003:0006233c       ?m_iTeamNum@?1??GetTeam@C_BaseEntity@@QAEHXZ@4HA 100da33c     c_ragebot.obj
 0003:00062340       ?$TSS0@?1??GetTeam@C_BaseEntity@@QAEHXZ@4HA 100da340     c_ragebot.obj
 0003:00062344       ?m_nTickBase@?1??GetTickBase@C_BaseEntity@@QAEHXZ@4HA 100da344     c_ragebot.obj
 0003:00062348       ?$TSS0@?1??GetTickBase@C_BaseEntity@@QAEHXZ@4HA 100da348     c_ragebot.obj
 0003:0006234c       ?m_angEyeAngles@?1??GetEyeAngles@C_BaseEntity@@QAE?AVVector@@XZ@4HA 100da34c     c_ragebot.obj
 0003:00062350       ?$TSS0@?1??GetEyeAngles@C_BaseEntity@@QAE?AVVector@@XZ@4HA 100da350     c_ragebot.obj
 0003:00062354       ?m_flNextPrimaryAttack@?1??GetNextPrimaryAttack@C_BaseCombatWeapon@@QAEMXZ@4HA 100da354     c_ragebot.obj
 0003:00062358       ?$TSS0@?1??GetNextPrimaryAttack@C_BaseCombatWeapon@@QAEMXZ@4HA 100da358     c_ragebot.obj
 0003:00062360       ?g_Autowall@@3VAutowall@@A 100da360     Autowall.obj
 0003:0006236c       ?m_ArmorValue@?1??ArmorValue@C_BaseEntity@@QAEHXZ@4HA 100da36c     Autowall.obj
 0003:00062370       ?$TSS0@?1??ArmorValue@C_BaseEntity@@QAEHXZ@4HA 100da370     Autowall.obj
 0003:00062374       ?m_bHasHelmet@?1??HasHelmet@C_BaseEntity@@QAE_NXZ@4HA 100da374     Autowall.obj
 0003:00062378       ?$TSS0@?1??HasHelmet@C_BaseEntity@@QAE_NXZ@4HA 100da378     Autowall.obj
 0003:0006238c       ?flOldCurtime@@3MA         100da38c     EnginePrediction.obj
 0003:00062390       ?flOldFrametime@@3MA       100da390     EnginePrediction.obj
 0003:00062394       ?m_nPredictionRandomSeed@@3PAHA 100da394     EnginePrediction.obj
 0003:00062398       ?m_pSetPredictionPlayer@@3PAHA 100da398     EnginePrediction.obj
 0003:000623a4       ?m_hConstraintEntity@?1??SetCurrentCommand@C_BaseEntity@@QAEXPAVCUserCmd@@@Z@4HA 100da3a4     EnginePrediction.obj
 0003:000623a8       ?$TSS0@?1??SetCurrentCommand@C_BaseEntity@@QAEXPAVCUserCmd@@@Z@4HA 100da3a8     EnginePrediction.obj
 0003:000623b8       ?g_LagComp@@3VLagComp@@A   100da3b8     LagComp.obj
 0003:000629d0       ?m_fLastShotTime@?1??GetLastShotTime@C_BaseCombatWeapon@@QAEMXZ@4HA 100da9d0     LagComp.obj
 0003:000629d4       ?$TSS0@?1??GetLastShotTime@C_BaseCombatWeapon@@QAEMXZ@4HA 100da9d4     LagComp.obj
 0003:00062be8       ?antiaim@@3Vc_antiaim@@A   100dabe8     c_antiaim.obj
 0003:00062be9       ?m_should_update_fake@@3_NA 100dabe9     c_antiaim.obj
 0003:00062bea       ?init_fake_anim@@3_NA      100dabea     c_antiaim.obj
 0003:00062bf0       ?m_fake_layers@@3V?$array@VAnimationLayer@@$0P@@std@@A 100dabf0     c_antiaim.obj
 0003:00062f38       ?m_fake_poses@@3V?$array@M$0BI@@std@@A 100daf38     c_antiaim.obj
 0003:00062f98       ?m_fake_state@@3PAVCBasePlayerAnimState@@A 100daf98     c_antiaim.obj
 0003:00062f9c       ?m_fake_spawntime@@3MA     100daf9c     c_antiaim.obj
 0003:00062fa0       ?m_fake_position_matrix@@3PAVmatrix3x4_t@@A 100dafa0     c_antiaim.obj
 0003:000647a8       ?create_anim_state@?1??create_animation_state@C_BaseEntity@@QAEXPAVCBasePlayerAnimState@@@Z@4P6EX0PAV2@@ZA 100dc7a8     c_antiaim.obj
 0003:000647ac       ?$TSS0@?1??create_animation_state@C_BaseEntity@@QAEXPAVCBasePlayerAnimState@@@Z@4HA 100dc7ac     c_antiaim.obj
 0003:000647b0       ?m_Movetype@?1??GetMoveType@C_BaseEntity@@QAE?AW4MoveType_t@@XZ@4HA 100dc7b0     c_antiaim.obj
 0003:000647b4       ?$TSS0@?1??GetMoveType@C_BaseEntity@@QAE?AW4MoveType_t@@XZ@4HA 100dc7b4     c_antiaim.obj
 0003:000647d8       ?g_Legitbot@@3VLegitbot@@A 100dc7d8     Legitbot.obj
 0003:00064cec       ?pViewMatrix@?1???R<lambda_498009bf6358dc471fbe163595f67980>@@QBE_NXZ@4IA 100dccec     Legitbot.obj
 0003:00064f08       ?g_Resolver@@3VResolver@@A 100dcf08     Resolver.obj
 0003:000652f8       ?esp@@3Vc_esp@@A           100dd2f8     c_esp.obj
 0003:00065348       ?m_iClip1@?1??GetAmmo@C_BaseCombatWeapon@@QAEHXZ@4HA 100dd348     c_esp.obj
 0003:0006534c       ?$TSS0@?1??GetAmmo@C_BaseCombatWeapon@@QAEHXZ@4HA 100dd34c     c_esp.obj
 0003:00065350       ?primary_reserve@?1??m_iPrimaryReserveAmmoCount@C_BaseCombatWeapon@@QAEHXZ@4HA 100dd350     c_esp.obj
 0003:00065354       ?$TSS0@?1??m_iPrimaryReserveAmmoCount@C_BaseCombatWeapon@@QAEHXZ@4HA 100dd354     c_esp.obj
 0003:00065380       ?_OptionsStorage@?1??__local_stdio_scanf_options@@9@4_KA 100dd380     imgui.obj
 0003:00068ed4       ?cl_sidespeed@?1??DoAutostrafe@Misc@@ABEXPAVCUserCmd@@@Z@4QAVConVar@@A 100e0ed4     createmove_hook.obj
 0003:00068ed8       ?$TSS0@?1??DoAutostrafe@Misc@@ABEXPAVCUserCmd@@@Z@4HA 100e0ed8     createmove_hook.obj
 0003:00068edc       ?last_jumped@?1??DoBhop@Misc@@ABEXXZ@4_NA 100e0edc     createmove_hook.obj
 0003:00068edd       ?should_fake@?1??DoBhop@Misc@@ABEXXZ@4_NA 100e0edd     createmove_hook.obj
 0003:00068ede       ?init@?1??DoFakeLag@Misc@@ABEXXZ@4_NA 100e0ede     createmove_hook.obj
 0003:00068ee8       ?m_pStateBlockDraw@@3PAUIDirect3DStateBlock9@@A 100e0ee8     directx_preset_hook.obj
 0003:00068eec       ?m_pStateBlockText@@3PAUIDirect3DStateBlock9@@A 100e0eec     directx_preset_hook.obj
 0003:00068ef0       ?state_block@@3PAUIDirect3DStateBlock9@@A 100e0ef0     directx_preset_hook.obj
 0003:00068ef4       ?dwOld_D3DRS_COLORWRITEENABLE@@3KA 100e0ef4     directx_preset_hook.obj
 0003:00068f60       ?init@?1??ThirdPerson@Misc@@QAEXW4ClientFrameStage_t@@@Z@4_NA 100e0f60     fsn_hook.obj
 0003:00068f7c       ?c_hooking@@3PAVhooking@@A 100e0f7c     hooking_init.obj
 0003:00068fa0       ?m_bIsScoped@?1??IsScoped@C_BaseEntity@@QAE_NXZ@4HA 100e0fa0     oview_hook.obj
 0003:00068fa4       ?$TSS0@?1??IsScoped@C_BaseEntity@@QAE_NXZ@4HA 100e0fa4     oview_hook.obj
 0003:00068fb8       ?init@?1??Crosshair@Misc@@QAEXXZ@4_NA 100e0fb8     painttraverse_hook.obj
 0003:00068fb9       ?init2@?1??Crosshair@Misc@@QAEXXZ@4_NA 100e0fb9     painttraverse_hook.obj
 0003:00068fe8       ?galaxy_vars@@3Vc_config@@A 100e0fe8     config_system.obj
 0003:00069194       ?_Stinit@?1??_Init@?$basic_filebuf@DU?$char_traits@D@std@@@std@@IAEXPAU_iobuf@@W4_Initfl@23@@Z@4U_Mbstatet@@A 100e1194     config_system.obj
 0003:0006919c       ?_Flag@?1???$_Immortalize@V_Generic_error_category@std@@@std@@YAAAV_Generic_error_category@1@XZ@4PAXA 100e119c     config_system.obj
 0003:000691a0       ?_Storage@?1???$_Immortalize@V_Generic_error_category@std@@@std@@YAAAV_Generic_error_category@1@XZ@4T?$_Align_type@H$07@1@A 100e11a0     config_system.obj
 0003:000691a8       ?_Flag@?1???$_Immortalize@V_System_error_category@std@@@std@@YAAAV_System_error_category@1@XZ@4PAXA 100e11a8     config_system.obj
 0003:000691ac       ?_Storage@?1???$_Immortalize@V_System_error_category@std@@@std@@YAAAV_System_error_category@1@XZ@4T?$_Align_type@H$07@1@A 100e11ac     config_system.obj
 0003:000691b4       ?_Psave@?$_Facetptr@V?$codecvt@DDU_Mbstatet@@@std@@@std@@2PBVfacet@locale@2@B 100e11b4     config_system.obj
 0003:000691b8       ?Main@@3PAUImFont@@A       100e11b8     menu_system.obj
 0003:000691bc       ?MainCaps@@3PAUImFont@@A   100e11bc     menu_system.obj
 0003:000691c0       ?show_popup@@3_NA          100e11c0     menu_system.obj
 0003:000691c1       ?save_config@@3_NA         100e11c1     menu_system.obj
 0003:000691c2       ?load_config@@3_NA         100e11c2     menu_system.obj
 0003:000691c3       ?reverse@@3_NA             100e11c3     menu_system.obj
 0003:000691c4       ?offset@@3HA               100e11c4     menu_system.obj
 0003:000691d0       ?menu@@3Vc_menu@@A         100e11d0     menu_system.obj
 0003:00069208       ?pCmd@g@@3PAVCUserCmd@@A   100e1208     GlobalVars.obj
 0003:0006920c       ?pLocalEntity@g@@3PAVC_BaseEntity@@A 100e120c     GlobalVars.obj
 0003:00069210       ?uRandomSeed@g@@3IA        100e1210     GlobalVars.obj
 0003:00069214       ?LagPeek@g@@3_NA           100e1214     GlobalVars.obj
 0003:00069215       ?m_got_fake_matrix@g@@3_NA 100e1215     GlobalVars.obj
 0003:00069218       ?Shot@g@@3PA_NA            100e1218     GlobalVars.obj
 0003:0006925c       ?weapon_font@g@@3KA        100e125c     GlobalVars.obj
 0003:00069260       ?Hit@g@@3PA_NA             100e1260     GlobalVars.obj
 0003:000692a4       ?watermark_font@g@@3KA     100e12a4     GlobalVars.obj
 0003:000692a8       ?MissedShots@g@@3PAHA      100e12a8     GlobalVars.obj
 0003:000693ac       ?CourierNew@g@@3KA         100e13ac     GlobalVars.obj
 0003:000693b0       ?Tahoma@g@@3KA             100e13b0     GlobalVars.obj
 0003:000693b4       ?FakeAngle@g@@3VVector@@A  100e13b4     GlobalVars.obj
 0003:000693c0       ?OriginalView@g@@3VVector@@A 100e13c0     GlobalVars.obj
 0003:000693cc       ?RealAngle@g@@3VVector@@A  100e13cc     GlobalVars.obj
 0003:000693d8       ?AimbotHitbox@g@@3PAY0BM@VVector@@A 100e13d8     GlobalVars.obj
 0003:0006e930       ?m_fake_matrix@g@@3PAVmatrix3x4_t@@A 100e6930     GlobalVars.obj
 0003:00070130       ?EnemyEyeAngs@g@@3PAVVector@@A 100e8130     GlobalVars.obj
 0003:0007043c       ?g_pEngine@@3PAVIVEngineClient@@A 100e843c     Interfaces.obj
 0003:00070440       ?g_pPanel@@3PAVIPanel@@A   100e8440     Interfaces.obj
 0003:00070444       ?g_pClientMode@@3PAVIClientMode@@A 100e8444     Interfaces.obj
 0003:00070448       ?g_pGlobalVars@@3PAVCGlobalVarsBase@@A 100e8448     Interfaces.obj
 0003:0007044c       ?g_pClientDll@@3PAVIBaseClientDLL@@A 100e844c     Interfaces.obj
 0003:00070450       ?g_pMoveHelper@@3PAVIMoveHelper@@A 100e8450     Interfaces.obj
 0003:00070454       ?g_pMovement@@3PAVIGameMovement@@A 100e8454     Interfaces.obj
 0003:00070458       ?g_pPrediction@@3PAVCPrediction@@A 100e8458     Interfaces.obj
 0003:0007045c       ?g_pEventManager@@3PAVIGameEventManager@@A 100e845c     Interfaces.obj
 0003:00070460       ?g_pSurface@@3PAVISurface@@A 100e8460     Interfaces.obj
 0003:00070464       ?g_pTrace@@3PAVIEngineTrace@@A 100e8464     Interfaces.obj
 0003:00070468       ?g_pSurfaceData@@3PAVIPhysicsSurfaceProps@@A 100e8468     Interfaces.obj
 0003:0007046c       ?g_pCvar@@3PAVICVar@@A     100e846c     Interfaces.obj
 0003:00070470       ?g_pModelRender@@3PAVCModelRender@@A 100e8470     Interfaces.obj
 0003:00070474       ?g_pEntityList@@3PAVIClientEntityList@@A 100e8474     Interfaces.obj
 0003:00070478       ?g_pMaterialSys@@3PAVIMaterialSystem@@A 100e8478     Interfaces.obj
 0003:0007047c       ?g_pRenderView@@3PAVIVRenderView@@A 100e847c     Interfaces.obj
 0003:00070480       ?g_pModelInfo@@3PAVIVModelInfo@@A 100e8480     Interfaces.obj
 0003:00070484       ?g_pMemAlloc@@3PAVIMemAlloc@@A 100e8484     Interfaces.obj
 0003:00070490       ?g_Math@@3VMath@@A         100e8490     Math.obj
 0003:000704c0       ?g_pNetvars@@3V?$unique_ptr@VNetvarTree@@U?$default_delete@VNetvarTree@@@std@@@std@@A 100e84c0     NetvarManager.obj
 0003:000704cc       ?GetFinalPathNameByHandleW_p@?A0xb24c12bc@@3P6GKPAXPA_WKK@ZA 100e84cc     msvcprt:filesystem.obj
 0003:000704d0       ?_GetFileInformationByHandleEx_p@?A0xb24c12bc@@3P6GHPAXW4_FILE_INFO_BY_HANDLE_CLASS@@0K@ZA 100e84d0     msvcprt:filesystem.obj
 0003:000704d4       ?_SetFileInformationByHandle_p@?A0xb24c12bc@@3P6GHPAXW4_FILE_INFO_BY_HANDLE_CLASS@@0K@ZA 100e84d4     msvcprt:filesystem.obj
 0003:000704d8       ?_CreateSymbolicLinkW_p@?A0xb24c12bc@@3P6GEPB_W0K@ZA 100e84d8     msvcprt:filesystem.obj
 0003:00070504       __tls_index                100e8504     MSVCRT:tlssup.obj
 0003:00070508       ___scrt_current_native_startup_state 100e8508     MSVCRT:utility.obj
 0003:0007050c       ___scrt_native_startup_lock 100e850c     MSVCRT:utility.obj
 0003:00070850       ___scrt_debugger_hook_flag 100e8850     MSVCRT:utility_desktop.obj
 0003:00070854       ___isa_available           100e8854     MSVCRT:cpu_disp.obj
 0003:00070858       ___favor                   100e8858     MSVCRT:cpu_disp.obj
 0003:00070860       ?__type_info_root_node@@3U__type_info_node@@A 100e8860     MSVCRT:tncleanup.obj
 0003:00070868       ___dyn_tls_init_callback   100e8868     <common>

 entry point at        0001:00064fdf

 Static symbols

 0000:fff11000       .debug$S                   10000000     msvcprt:MSVCP140.dll
 0000:fff11000       .debug$S                   10000000     kernel32:KERNEL32.dll
 0000:fff11000       .debug$S                   10000000     kernel32:KERNEL32.dll
 0000:fff11000       .debug$S                   10000000     kernel32:KERNEL32.dll
 0000:fff11000       .debug$S                   10000000     kernel32:KERNEL32.dll
 0000:fff11000       .debug$S                   10000000     kernel32:KERNEL32.dll
 0000:fff11000       .debug$S                   10000000     kernel32:KERNEL32.dll
 0000:fff11000       .debug$S                   10000000     kernel32:KERNEL32.dll
 0000:fff11000       .debug$S                   10000000     kernel32:KERNEL32.dll
 0000:fff11000       .debug$S                   10000000     kernel32:KERNEL32.dll
 0000:fff11000       .debug$S                   10000000     kernel32:KERNEL32.dll
 0000:fff11000       .debug$S                   10000000     kernel32:KERNEL32.dll
 0000:fff11000       .debug$S                   10000000     kernel32:KERNEL32.dll
 0000:fff11000       .debug$S                   10000000     kernel32:KERNEL32.dll
 0000:fff11000       .debug$S                   10000000     kernel32:KERNEL32.dll
 0000:fff11000       .debug$S                   10000000     kernel32:KERNEL32.dll
 0000:fff11000       .debug$S                   10000000     kernel32:KERNEL32.dll
 0000:fff11000       .debug$S                   10000000     kernel32:KERNEL32.dll
 0000:fff11000       .debug$S                   10000000     kernel32:KERNEL32.dll
 0000:fff11000       .debug$S                   10000000     kernel32:KERNEL32.dll
 0000:fff11000       .debug$S                   10000000     kernel32:KERNEL32.dll
 0000:fff11000       .debug$S                   10000000     kernel32:KERNEL32.dll
 0000:fff11000       .debug$S                   10000000     kernel32:KERNEL32.dll
 0000:fff11000       .debug$S                   10000000     kernel32:KERNEL32.dll
 0000:fff11000       .debug$S                   10000000     kernel32:KERNEL32.dll
 0000:fff11000       .debug$S                   10000000     kernel32:KERNEL32.dll
 0000:fff11000       .debug$S                   10000000     kernel32:KERNEL32.dll
 0000:fff11000       .debug$S                   10000000     kernel32:KERNEL32.dll
 0000:fff11000       .debug$S                   10000000     kernel32:KERNEL32.dll
 0000:fff11000       .debug$S                   10000000     kernel32:KERNEL32.dll
 0000:fff11000       .debug$S                   10000000     kernel32:KERNEL32.dll
 0000:fff11000       .debug$S                   10000000     kernel32:KERNEL32.dll
 0000:fff11000       .debug$S                   10000000     kernel32:KERNEL32.dll
 0000:fff11000       .debug$S                   10000000     kernel32:KERNEL32.dll
 0000:fff11000       .debug$S                   10000000     kernel32:KERNEL32.dll
 0000:fff11000       .debug$S                   10000000     kernel32:KERNEL32.dll
 0000:fff11000       .debug$S                   10000000     kernel32:KERNEL32.dll
 0000:fff11000       .debug$S                   10000000     kernel32:KERNEL32.dll
 0000:fff11000       .debug$S                   10000000     kernel32:KERNEL32.dll
 0000:fff11000       .debug$S                   10000000     kernel32:KERNEL32.dll
 0000:fff11000       .debug$S                   10000000     kernel32:KERNEL32.dll
 0000:fff11000       .debug$S                   10000000     kernel32:KERNEL32.dll
 0000:fff11000       .debug$S                   10000000     kernel32:KERNEL32.dll
 0000:fff11000       .debug$S                   10000000     kernel32:KERNEL32.dll
 0000:fff11000       .debug$S                   10000000     kernel32:KERNEL32.dll
 0000:fff11000       .debug$S                   10000000     kernel32:KERNEL32.dll
 0000:fff11000       .debug$S                   10000000     kernel32:KERNEL32.dll
 0000:fff11000       .debug$S                   10000000     kernel32:KERNEL32.dll
 0000:fff11000       .debug$S                   10000000     kernel32:KERNEL32.dll
 0000:fff11000       .debug$S                   10000000     kernel32:KERNEL32.dll
 0000:fff11000       .debug$S                   10000000     kernel32:KERNEL32.dll
 0000:fff11000       .debug$S                   10000000     kernel32:KERNEL32.dll
 0000:fff11000       .debug$S                   10000000     kernel32:KERNEL32.dll
 0000:fff11000       .debug$S                   10000000     kernel32:KERNEL32.dll
 0000:fff11000       .debug$S                   10000000     kernel32:KERNEL32.dll
 0000:fff11000       .debug$S                   10000000     kernel32:KERNEL32.dll
 0000:fff11000       .debug$S                   10000000     ucrt:api-ms-win-crt-runtime-l1-1-0.dll
 0000:fff11000       .debug$S                   10000000     ucrt:api-ms-win-crt-runtime-l1-1-0.dll
 0000:fff11000       .debug$S                   10000000     ucrt:api-ms-win-crt-runtime-l1-1-0.dll
 0000:fff11000       .debug$S                   10000000     ucrt:api-ms-win-crt-runtime-l1-1-0.dll
 0000:fff11000       .debug$S                   10000000     ucrt:api-ms-win-crt-runtime-l1-1-0.dll
 0000:fff11000       .debug$S                   10000000     ucrt:api-ms-win-crt-runtime-l1-1-0.dll
 0000:fff11000       .debug$S                   10000000     ucrt:api-ms-win-crt-runtime-l1-1-0.dll
 0000:fff11000       .debug$S                   10000000     ucrt:api-ms-win-crt-runtime-l1-1-0.dll
 0000:fff11000       .debug$S                   10000000     ucrt:api-ms-win-crt-runtime-l1-1-0.dll
 0000:fff11000       .debug$S                   10000000     ucrt:api-ms-win-crt-runtime-l1-1-0.dll
 0000:fff11000       .debug$S                   10000000     ucrt:api-ms-win-crt-runtime-l1-1-0.dll
 0000:fff11000       .debug$S                   10000000     ucrt:api-ms-win-crt-math-l1-1-0.dll
 0000:fff11000       .debug$S                   10000000     ucrt:api-ms-win-crt-heap-l1-1-0.dll
 0000:fff11000       .debug$S                   10000000     ucrt:api-ms-win-crt-locale-l1-1-0.dll
 0000:fff11000       .debug$S                   10000000     ucrt:api-ms-win-crt-math-l1-1-0.dll
 0000:fff11000       .debug$S                   10000000     ucrt:api-ms-win-crt-math-l1-1-0.dll
 0000:fff11000       .debug$S                   10000000     ucrt:api-ms-win-crt-math-l1-1-0.dll
 0000:fff11000       .debug$S                   10000000     ucrt:api-ms-win-crt-runtime-l1-1-0.dll
 0000:fff11000       .debug$S                   10000000     ucrt:api-ms-win-crt-filesystem-l1-1-0.dll
 0000:fff11000       .debug$S                   10000000     ucrt:api-ms-win-crt-filesystem-l1-1-0.dll
 0000:fff11000       .debug$S                   10000000     ucrt:api-ms-win-crt-stdio-l1-1-0.dll
 0000:fff11000       .debug$S                   10000000     ucrt:api-ms-win-crt-stdio-l1-1-0.dll
 0000:fff11000       .debug$S                   10000000     ucrt:api-ms-win-crt-stdio-l1-1-0.dll
 0000:fff11000       .debug$S                   10000000     ucrt:api-ms-win-crt-stdio-l1-1-0.dll
 0000:fff11000       .debug$S                   10000000     ucrt:api-ms-win-crt-stdio-l1-1-0.dll
 0000:fff11000       .debug$S                   10000000     ucrt:api-ms-win-crt-stdio-l1-1-0.dll
 0000:fff11000       .debug$S                   10000000     ucrt:api-ms-win-crt-stdio-l1-1-0.dll
 0000:fff11000       .debug$S                   10000000     ucrt:api-ms-win-crt-stdio-l1-1-0.dll
 0000:fff11000       .debug$S                   10000000     ucrt:api-ms-win-crt-stdio-l1-1-0.dll
 0000:fff11000       .debug$S                   10000000     ucrt:api-ms-win-crt-math-l1-1-0.dll
 0000:fff11000       .debug$S                   10000000     ucrt:api-ms-win-crt-math-l1-1-0.dll
 0000:fff11000       .debug$S                   10000000     ucrt:api-ms-win-crt-math-l1-1-0.dll
 0000:fff11000       .debug$S                   10000000     ucrt:api-ms-win-crt-math-l1-1-0.dll
 0000:fff11000       .debug$S                   10000000     ucrt:api-ms-win-crt-stdio-l1-1-0.dll
 0000:fff11000       .debug$S                   10000000     ucrt:api-ms-win-crt-stdio-l1-1-0.dll
 0000:fff11000       .debug$S                   10000000     ucrt:api-ms-win-crt-stdio-l1-1-0.dll
 0000:fff11000       .debug$S                   10000000     ucrt:api-ms-win-crt-stdio-l1-1-0.dll
 0000:fff11000       .debug$S                   10000000     ucrt:api-ms-win-crt-stdio-l1-1-0.dll
 0000:fff11000       .debug$S                   10000000     ucrt:api-ms-win-crt-stdio-l1-1-0.dll
 0000:fff11000       .debug$S                   10000000     ucrt:api-ms-win-crt-stdio-l1-1-0.dll
 0000:fff11000       .debug$S                   10000000     ucrt:api-ms-win-crt-stdio-l1-1-0.dll
 0000:fff11000       .debug$S                   10000000     ucrt:api-ms-win-crt-stdio-l1-1-0.dll
 0000:fff11000       .debug$S                   10000000     ucrt:api-ms-win-crt-stdio-l1-1-0.dll
 0000:fff11000       .debug$S                   10000000     ucrt:api-ms-win-crt-convert-l1-1-0.dll
 0000:fff11000       .debug$S                   10000000     ucrt:api-ms-win-crt-utility-l1-1-0.dll
 0000:fff11000       .debug$S                   10000000     ucrt:api-ms-win-crt-heap-l1-1-0.dll
 0000:fff11000       .debug$S                   10000000     ucrt:api-ms-win-crt-heap-l1-1-0.dll
 0000:fff11000       .debug$S                   10000000     ucrt:api-ms-win-crt-string-l1-1-0.dll
 0000:fff11000       .debug$S                   10000000     ucrt:api-ms-win-crt-string-l1-1-0.dll
 0000:fff11000       .debug$S                   10000000     ucrt:api-ms-win-crt-string-l1-1-0.dll
 0000:fff11000       .debug$S                   10000000     ucrt:api-ms-win-crt-math-l1-1-0.dll
 0000:fff11000       .debug$S                   10000000     ucrt:api-ms-win-crt-math-l1-1-0.dll
 0000:fff11000       .debug$S                   10000000     ucrt:api-ms-win-crt-math-l1-1-0.dll
 0000:fff11000       .debug$S                   10000000     ucrt:api-ms-win-crt-math-l1-1-0.dll
 0000:fff11000       .debug$S                   10000000     ucrt:api-ms-win-crt-math-l1-1-0.dll
 0000:fff11000       .debug$S                   10000000     ucrt:api-ms-win-crt-math-l1-1-0.dll
 0000:fff11000       .debug$S                   10000000     ucrt:api-ms-win-crt-math-l1-1-0.dll
 0000:fff11000       .debug$S                   10000000     ucrt:api-ms-win-crt-stdio-l1-1-0.dll
 0000:fff11000       .debug$S                   10000000     ucrt:api-ms-win-crt-convert-l1-1-0.dll
 0000:fff11000       .debug$S                   10000000     ucrt:api-ms-win-crt-convert-l1-1-0.dll
 0000:fff11000       .debug$S                   10000000     ucrt:api-ms-win-crt-heap-l1-1-0.dll
 0000:fff11000       .debug$S                   10000000     ucrt:api-ms-win-crt-runtime-l1-1-0.dll
 0000:fff11000       .debug$S                   10000000     kernel32:KERNEL32.dll
 0000:fff11000       .debug$S                   10000000     vcruntime:VCRUNTIME140.dll
 0000:fff11000       .debug$S                   10000000     vcruntime:VCRUNTIME140.dll
 0000:fff11000       .debug$S                   10000000     vcruntime:VCRUNTIME140.dll
 0000:fff11000       .debug$S                   10000000     vcruntime:VCRUNTIME140.dll
 0000:fff11000       .debug$S                   10000000     vcruntime:VCRUNTIME140.dll
 0000:fff11000       .debug$S                   10000000     vcruntime:VCRUNTIME140.dll
 0000:fff11000       .debug$S                   10000000     vcruntime:VCRUNTIME140.dll
 0000:fff11000       .debug$S                   10000000     vcruntime:VCRUNTIME140.dll
 0000:fff11000       .debug$S                   10000000     vcruntime:VCRUNTIME140.dll
 0000:fff11000       .debug$S                   10000000     vcruntime:VCRUNTIME140.dll
 0000:fff11000       .debug$S                   10000000     vcruntime:VCRUNTIME140.dll
 0000:fff11000       .debug$S                   10000000     vcruntime:VCRUNTIME140.dll
 0000:fff11000       .debug$S                   10000000     vcruntime:VCRUNTIME140.dll
 0000:fff11000       .debug$S                   10000000     vcruntime:VCRUNTIME140.dll
 0000:fff11000       .debug$S                   10000000     vcruntime:VCRUNTIME140.dll
 0000:fff11000       .debug$S                   10000000     kernel32:KERNEL32.dll
 0000:fff11000       .debug$S                   10000000     imm32:IMM32.dll
 0000:fff11000       .debug$S                   10000000     imm32:IMM32.dll
 0000:fff11000       .debug$S                   10000000     kernel32:KERNEL32.dll
 0000:fff11000       .debug$S                   10000000     kernel32:KERNEL32.dll
 0000:fff11000       .debug$S                   10000000     kernel32:KERNEL32.dll
 0000:fff11000       .debug$S                   10000000     kernel32:KERNEL32.dll
 0000:fff11000       .debug$S                   10000000     kernel32:KERNEL32.dll
 0000:fff11000       .debug$S                   10000000     user32:USER32.dll
 0000:fff11000       .debug$S                   10000000     user32:USER32.dll
 0000:fff11000       .debug$S                   10000000     user32:USER32.dll
 0000:fff11000       .debug$S                   10000000     user32:USER32.dll
 0000:fff11000       .debug$S                   10000000     user32:USER32.dll
 0000:fff11000       .debug$S                   10000000     user32:USER32.dll
 0000:fff11000       .debug$S                   10000000     user32:USER32.dll
 0000:fff11000       .debug$S                   10000000     user32:USER32.dll
 0000:fff11000       .debug$S                   10000000     user32:USER32.dll
 0000:fff11000       .debug$S                   10000000     user32:USER32.dll
 0000:fff11000       .debug$S                   10000000     user32:USER32.dll
 0000:fff11000       .debug$S                   10000000     user32:USER32.dll
 0000:fff11000       .debug$S                   10000000     user32:USER32.dll
 0000:fff11000       .debug$S                   10000000     shell32:SHELL32.dll
 0000:fff11000       .debug$S                   10000000     ole32:ole32.dll
 0000:fff11000       .debug$S                   10000000     msvcprt:MSVCP140.dll
 0000:fff11000       .debug$S                   10000000     msvcprt:MSVCP140.dll
 0000:fff11000       .debug$S                   10000000     msvcprt:MSVCP140.dll
 0000:fff11000       .debug$S                   10000000     msvcprt:MSVCP140.dll
 0000:fff11000       .debug$S                   10000000     msvcprt:MSVCP140.dll
 0000:fff11000       .debug$S                   10000000     msvcprt:MSVCP140.dll
 0000:fff11000       .debug$S                   10000000     msvcprt:MSVCP140.dll
 0000:fff11000       .debug$S                   10000000     msvcprt:MSVCP140.dll
 0000:fff11000       .debug$S                   10000000     msvcprt:MSVCP140.dll
 0000:fff11000       .debug$S                   10000000     msvcprt:MSVCP140.dll
 0000:fff11000       .debug$S                   10000000     msvcprt:MSVCP140.dll
 0000:fff11000       .debug$S                   10000000     msvcprt:MSVCP140.dll
 0000:fff11000       .debug$S                   10000000     msvcprt:MSVCP140.dll
 0000:fff11000       .debug$S                   10000000     msvcprt:MSVCP140.dll
 0000:fff11000       .debug$S                   10000000     msvcprt:MSVCP140.dll
 0000:fff11000       .debug$S                   10000000     msvcprt:MSVCP140.dll
 0000:fff11000       .debug$S                   10000000     msvcprt:MSVCP140.dll
 0000:fff11000       .debug$S                   10000000     msvcprt:MSVCP140.dll
 0000:fff11000       .debug$S                   10000000     msvcprt:MSVCP140.dll
 0000:fff11000       .debug$S                   10000000     msvcprt:MSVCP140.dll
 0000:fff11000       .debug$S                   10000000     msvcprt:MSVCP140.dll
 0000:fff11000       .debug$S                   10000000     msvcprt:MSVCP140.dll
 0000:fff11000       .debug$S                   10000000     msvcprt:MSVCP140.dll
 0000:fff11000       .debug$S                   10000000     msvcprt:MSVCP140.dll
 0000:fff11000       .debug$S                   10000000     msvcprt:MSVCP140.dll
 0000:fff11000       .debug$S                   10000000     msvcprt:MSVCP140.dll
 0000:fff11000       .debug$S                   10000000     msvcprt:MSVCP140.dll
 0000:fff11000       .debug$S                   10000000     msvcprt:MSVCP140.dll
 0000:fff11000       .debug$S                   10000000     msvcprt:MSVCP140.dll
 0000:fff11000       .debug$S                   10000000     msvcprt:MSVCP140.dll
 0000:fff11000       .debug$S                   10000000     msvcprt:MSVCP140.dll
 0000:fff11000       .debug$S                   10000000     msvcprt:MSVCP140.dll
 0000:fff11000       .debug$S                   10000000     msvcprt:MSVCP140.dll
 0000:fff11000       .debug$S                   10000000     msvcprt:MSVCP140.dll
 0000:fff11000       .debug$S                   10000000     msvcprt:MSVCP140.dll
 0000:fff11000       .debug$S                   10000000     msvcprt:MSVCP140.dll
 0000:fff11000       .debug$S                   10000000     msvcprt:MSVCP140.dll
 0000:fff11000       .debug$S                   10000000     msvcprt:MSVCP140.dll
 0000:fff11000       .debug$S                   10000000     msvcprt:MSVCP140.dll
 0000:fff11000       .debug$S                   10000000     msvcprt:MSVCP140.dll
 0000:fff11000       .debug$S                   10000000     msvcprt:MSVCP140.dll
 0000:fff11000       .debug$S                   10000000     msvcprt:MSVCP140.dll
 0000:fff11000       .debug$S                   10000000     msvcprt:MSVCP140.dll
 0000:fff11000       .debug$S                   10000000     msvcprt:MSVCP140.dll
 0000:fff11000       .debug$S                   10000000     msvcprt:MSVCP140.dll
 0000:fff11000       .debug$S                   10000000     msvcprt:MSVCP140.dll
 0000:fff11000       .debug$S                   10000000     msvcprt:MSVCP140.dll
 0000:fff11000       .debug$S                   10000000     msvcprt:MSVCP140.dll
 0000:fff11000       .debug$S                   10000000     msvcprt:MSVCP140.dll
 0000:fff11000       .debug$S                   10000000     msvcprt:MSVCP140.dll
 0000:fff11000       .debug$S                   10000000     msvcprt:MSVCP140.dll
 0000:fff11000       .debug$S                   10000000     msvcprt:MSVCP140.dll
 0000:fff11000       .debug$S                   10000000     msvcprt:MSVCP140.dll
 0000:fff11000       .debug$S                   10000000     msvcprt:MSVCP140.dll
 0000:fff11000       .debug$S                   10000000     msvcprt:MSVCP140.dll
 0000:fff11000       .debug$S                   10000000     msvcprt:MSVCP140.dll
 0000:fff11000       .debug$S                   10000000     msvcprt:MSVCP140.dll
 0000:fff11000       .debug$S                   10000000     msvcprt:MSVCP140.dll
 0000:fff11000       .debug$S                   10000000     msvcprt:MSVCP140.dll
 0000:fff11000       .debug$S                   10000000     msvcprt:MSVCP140.dll
 0000:fff11000       .debug$S                   10000000     msvcprt:MSVCP140.dll
 0000:fff11000       .debug$S                   10000000     msvcprt:MSVCP140.dll
 0000:fff11000       .debug$S                   10000000     msvcprt:MSVCP140.dll
 0000:fff11000       .debug$S                   10000000     msvcprt:MSVCP140.dll
 0000:fff11000       .debug$S                   10000000     msvcprt:MSVCP140.dll
 0000:fff11000       .debug$S                   10000000     msvcprt:MSVCP140.dll
 0000:fff11000       .debug$S                   10000000     msvcprt:MSVCP140.dll
 0000:fff11000       .debug$S                   10000000     msvcprt:MSVCP140.dll
 0001:00000000       ??__Evec2_origin@@YAXXZ    10001000 f   animation_system.obj
 0001:00000030       ??__Evec2_origin@@YAXXZ    10001030 f   exploits.obj
 0001:00000060       ??__Evec2_origin@@YAXXZ    10001060 f   premium_stuff.obj
 0001:00000090       ??__Evec2_origin@@YAXXZ    10001090 f   other_esp.obj
 0001:000000c0       ??__Eg_Event@@YAXXZ        100010c0 f   c_hooks.obj
 0001:000000e0       ??__Ehooks@@YAXXZ          100010e0 f   c_hooks.obj
 0001:00000100       ??__Evec2_origin@@YAXXZ    10001100 f   c_hooks.obj
 0001:00000130       ??__Evec2_origin@@YAXXZ    10001130 f   dll_main.obj
 0001:00000160       ??__Eaimbot@@YAXXZ         10001160 f   c_ragebot.obj
 0001:00000170       ??__Evec2_origin@@YAXXZ    10001170 f   c_ragebot.obj
 0001:000001a0       ??__Evec2_origin@@YAXXZ    100011a0 f   Autowall.obj
 0001:000001d0       ??__Evec2_origin@@YAXXZ    100011d0 f   EnginePrediction.obj
 0001:00000200       ??__Eg_LagComp@@YAXXZ      10001200 f   LagComp.obj
 0001:00000220       ??__Evec2_origin@@YAXXZ    10001220 f   LagComp.obj
 0001:00000250       ??__Em_fake_position_matrix@@YAXXZ 10001250 f   c_antiaim.obj
 0001:00000270       ??__Evec2_origin@@YAXXZ    10001270 f   c_antiaim.obj
 0001:000002a0       ??__Eg_Legitbot@@YAXXZ     100012a0 f   Legitbot.obj
 0001:000002c0       ??__Evec2_origin@@YAXXZ    100012c0 f   Legitbot.obj
 0001:000002f0       ??__Eg_Resolver@@YAXXZ     100012f0 f   Resolver.obj
 0001:00000300       ??__Evec2_origin@@YAXXZ    10001300 f   Resolver.obj
 0001:00000330       ??__Eesp@@YAXXZ            10001330 f   c_esp.obj
 0001:00000340       ??__Evec2_origin@@YAXXZ    10001340 f   c_esp.obj
 0001:00000370       ??__EGImDefaultContext@@YAXXZ 10001370 f   imgui.obj
 0001:00000390       ??__EGImDefaultFontAtlas@@YAXXZ 10001390 f   imgui.obj
 0001:000003b0       ??__EGNullClipRect@@YAXXZ  100013b0 f   imgui_draw.obj
 0001:00000400       ??__Evec2_origin@@YAXXZ    10001400 f   bone_processing_hook.obj
 0001:00000430       ??__Evec2_origin@@YAXXZ    10001430 f   createmove_hook.obj
 0001:00000460       ??__Evec2_origin@@YAXXZ    10001460 f   directx_preset_hook.obj
 0001:00000490       ??__Evec2_origin@@YAXXZ    10001490 f   dme_hook.obj
 0001:000004c0       ??__Evec2_origin@@YAXXZ    100014c0 f   event_hook.obj
 0001:000004f0       ??__Evec2_origin@@YAXXZ    100014f0 f   fsn_hook.obj
 0001:00000520       ??__Evec2_origin@@YAXXZ    10001520 f   hooking_init.obj
 0001:00000550       ??__Evec2_origin@@YAXXZ    10001550 f   lock_cursor_hook.obj
 0001:00000580       ??__Evec2_origin@@YAXXZ    10001580 f   oview_hook.obj
 0001:000005b0       ??__Evec2_origin@@YAXXZ    100015b0 f   painttraverse_hook.obj
 0001:000005e0       ??__Evec2_origin@@YAXXZ    100015e0 f   sceneend_hook.obj
 0001:00000610       ??__Evec2_origin@@YAXXZ    10001610 f   wndproc_hook.obj
 0001:00000640       ??__Egalaxy_vars@@YAXXZ    10001640 f   config_system.obj
 0001:00000660       ??__Emenu@@YAXXZ           10001660 f   menu_system.obj
 0001:00000670       ??__Evec2_origin@@YAXXZ    10001670 f   menu_system.obj
 0001:000006a0       ??__Ew_printf@XorCompileTime@@YAXXZ 100016a0 f   menu_system.obj
 0001:000006b0       ??__Ew_printf_s@XorCompileTime@@YAXXZ 100016b0 f   menu_system.obj
 0001:000006c0       ??__Ew_sprintf@XorCompileTime@@YAXXZ 100016c0 f   menu_system.obj
 0001:000006d0       ??__Ew_sprintf_s@XorCompileTime@@YAXXZ 100016d0 f   menu_system.obj
 0001:000006e0       ??__Evec2_origin@@YAXXZ    100016e0 f   CEntity.obj
 0001:00000710       ??__EAimbotHitbox@g@@YAXXZ 10001710 f   GlobalVars.obj
 0001:00000730       ??__EEnemyEyeAngs@g@@YAXXZ 10001730 f   GlobalVars.obj
 0001:00000750       ??__EFakeAngle@g@@YAXXZ    10001750 f   GlobalVars.obj
 0001:00000760       ??__EOriginalView@g@@YAXXZ 10001760 f   GlobalVars.obj
 0001:00000770       ??__ERealAngle@g@@YAXXZ    10001770 f   GlobalVars.obj
 0001:00000780       ??__Em_fake_matrix@g@@YAXXZ 10001780 f   GlobalVars.obj
 0001:000007a0       ??__Evec2_origin@@YAXXZ    100017a0 f   GlobalVars.obj
 0001:000007d0       ??__Evec2_origin@@YAXXZ    100017d0 f   Interfaces.obj
 0001:00000800       ??__Esignmask@@YAXXZ       10001800 f   Math.obj
 0001:00000840       ??__Evec2_origin@@YAXXZ    10001840 f   Math.obj
 0001:00000870       ??__Eg_pNetvars@@YAXXZ     10001870 f   NetvarManager.obj
 0001:0000088c       ??__E_Fac_tidy_reg@std@@YAXXZ 1000188c f   msvcprt:locale0_implib.obj
 0001:00001011       __catch$??$_Buynode@ABUpiecewise_construct_t@std@@V?$tuple@$$QAV?$basic_string@DU?$char_traits@D@std@@V?$allocator@D@2@@std@@@2@V?$tuple@$$V@2@@?$_List_buy@U?$pair@$$CBV?$basic_string@DU?$char_traits@D@std@@V?$allocator@D@2@@std@@V?$shared_ptr@UNode@NetvarTree@@@2@@std@@V?$allocator@U?$pair@$$CBV?$basic_string@DU?$char_traits@D@std@@V?$allocator@D@2@@std@@V?$shared_ptr@UNode@NetvarTree@@@2@@std@@@2@@std@@QAEPAU?$_List_node@U?$pair@$$CBV?$basic_string@DU?$char_traits@D@std@@V?$allocator@D@2@@std@@V?$shared_ptr@UNode@NetvarTree@@@2@@std@@PAX@1@PAU21@0ABUpiecewise_construct_t@1@$$QAV?$tuple@$$QAV?$basic_string@DU?$char_traits@D@std@@V?$allocator@D@2@@std@@@1@$$QAV?$tuple@$$V@1@@Z$0 10002011 f i animation_system.obj
 0001:000013a9       __catch$??$_Emplace_reallocate@H@?$vector@HV?$allocator@H@std@@@std@@QAEPAHQAH$$QAH@Z$0 100023a9 f i animation_system.obj
 0001:00001722       __catch$??$_Insert@AAU?$pair@$$CBV?$basic_string@DU?$char_traits@D@std@@V?$allocator@D@2@@std@@V?$shared_ptr@UNode@NetvarTree@@@2@@std@@V?$_List_unchecked_iterator@V?$_List_val@U?$_List_simple_types@U?$pair@$$CBV?$basic_string@DU?$char_traits@D@std@@V?$allocator@D@2@@std@@V?$shared_ptr@UNode@NetvarTree@@@2@@std@@@std@@@std@@@2@@?$_Hash@V?$_Umap_traits@V?$basic_string@DU?$char_traits@D@std@@V?$allocator@D@2@@std@@V?$shared_ptr@UNode@NetvarTree@@@2@V?$_Uhash_compare@V?$basic_string@DU?$char_traits@D@std@@V?$allocator@D@2@@std@@U?$hash@V?$basic_string@DU?$char_traits@D@std@@V?$allocator@D@2@@std@@@2@U?$equal_to@V?$basic_string@DU?$char_traits@D@std@@V?$allocator@D@2@@std@@@2@@2@V?$allocator@U?$pair@$$CBV?$basic_string@DU?$char_traits@D@std@@V?$allocator@D@2@@std@@V?$shared_ptr@UNode@NetvarTree@@@2@@std@@@2@$0A@@std@@@std@@IAE?AU?$pair@V?$_List_iterator@V?$_List_val@U?$_List_simple_types@U?$pair@$$CBV?$basic_string@DU?$char_traits@D@std@@V?$allocator@D@2@@std@@V?$shared_ptr@UNode@NetvarTree@@@2@@std@@@std@@@std@@@std@@_N@1@AAU?$pair@$$CBV?$basic_string@DU?$char_traits@D@std@@V?$allocator@D@2@@std@@V?$shared_ptr@UNode@NetvarTree@@@2@@1@V?$_List_unchecked_iterator@V?$_List_val@U?$_List_simple_types@U?$pair@$$CBV?$basic_string@DU?$char_traits@D@std@@V?$allocator@D@2@@std@@V?$shared_ptr@UNode@NetvarTree@@@2@@std@@@std@@@std@@@1@@Z$0 10002722 f i animation_system.obj
 0001:000017dc       __catch$??$_Insert@AAU?$pair@$$CBV?$basic_string@DU?$char_traits@D@std@@V?$allocator@D@2@@std@@V?$shared_ptr@UNode@NetvarTree@@@2@@std@@V?$_List_unchecked_iterator@V?$_List_val@U?$_List_simple_types@U?$pair@$$CBV?$basic_string@DU?$char_traits@D@std@@V?$allocator@D@2@@std@@V?$shared_ptr@UNode@NetvarTree@@@2@@std@@@std@@@std@@@2@@?$_Hash@V?$_Umap_traits@V?$basic_string@DU?$char_traits@D@std@@V?$allocator@D@2@@std@@V?$shared_ptr@UNode@NetvarTree@@@2@V?$_Uhash_compare@V?$basic_string@DU?$char_traits@D@std@@V?$allocator@D@2@@std@@U?$hash@V?$basic_string@DU?$char_traits@D@std@@V?$allocator@D@2@@std@@@2@U?$equal_to@V?$basic_string@DU?$char_traits@D@std@@V?$allocator@D@2@@std@@@2@@2@V?$allocator@U?$pair@$$CBV?$basic_string@DU?$char_traits@D@std@@V?$allocator@D@2@@std@@V?$shared_ptr@UNode@NetvarTree@@@2@@std@@@2@$0A@@std@@@std@@IAE?AU?$pair@V?$_List_iterator@V?$_List_val@U?$_List_simple_types@U?$pair@$$CBV?$basic_string@DU?$char_traits@D@std@@V?$allocator@D@2@@std@@V?$shared_ptr@UNode@NetvarTree@@@2@@std@@@std@@@std@@@std@@_N@1@AAU?$pair@$$CBV?$basic_string@DU?$char_traits@D@std@@V?$allocator@D@2@@std@@V?$shared_ptr@UNode@NetvarTree@@@2@@1@V?$_List_unchecked_iterator@V?$_List_val@U?$_List_simple_types@U?$pair@$$CBV?$basic_string@DU?$char_traits@D@std@@V?$allocator@D@2@@std@@V?$shared_ptr@UNode@NetvarTree@@@2@@std@@@std@@@std@@@1@@Z$2 100027dc f i animation_system.obj
 0001:00003c7a       __catch$?_Buynode0@?$_List_alloc@U?$_List_base_types@U?$pair@$$CBV?$basic_string@DU?$char_traits@D@std@@V?$allocator@D@2@@std@@V?$shared_ptr@UNode@NetvarTree@@@2@@std@@V?$allocator@U?$pair@$$CBV?$basic_string@DU?$char_traits@D@std@@V?$allocator@D@2@@std@@V?$shared_ptr@UNode@NetvarTree@@@2@@std@@@2@@std@@@std@@QAEPAU?$_List_node@U?$pair@$$CBV?$basic_string@DU?$char_traits@D@std@@V?$allocator@D@2@@std@@V?$shared_ptr@UNode@NetvarTree@@@2@@std@@PAX@2@PAU32@0@Z$0 10004c7a f i animation_system.obj
 0001:0000485b       __catch$?_Reallocate_exactly@?$vector@V?$_List_unchecked_iterator@V?$_List_val@U?$_List_simple_types@U?$pair@$$CBV?$basic_string@DU?$char_traits@D@std@@V?$allocator@D@2@@std@@V?$shared_ptr@UNode@NetvarTree@@@2@@std@@@std@@@std@@@std@@V?$allocator@V?$_List_unchecked_iterator@V?$_List_val@U?$_List_simple_types@U?$pair@$$CBV?$basic_string@DU?$char_traits@D@std@@V?$allocator@D@2@@std@@V?$shared_ptr@UNode@NetvarTree@@@2@@std@@@std@@@std@@@std@@@2@@std@@AAEXI@Z$0 1000585b f i animation_system.obj
 0001:00007c52       __catch$?RestoreTable@ShadowVTManager@@QAEXXZ$0 10008c52 f i c_hooks.obj
 0001:00008996       __catch$?attach@@YGKPAX@Z$0 10009996 f   dll_main.obj
 0001:00008cf0       ??0<lambda_d047aa5cc1f86c7b1c4b875d1253a0f3>@@QAE@ABQAUImGuiWindow@@@Z 10009cf0 f i imgui.obj
 0001:00008cf0       ??0<lambda_42d221394b547edb48c6f2ecbde06d0c>@@QAE@ABQAUImGuiWindow@@@Z 10009cf0 f i imgui.obj
 0001:0000bdc4       $LN8                       1000cdc4     Autowall.obj
 0001:00016390       ?ImGui_ImplDX9_CreateFontsTexture@@YA_NXZ 10017390 f   imgui_impl_dx9.obj
 0001:0001770c       $LN22                      1001870c     imgui_impl_dx9.obj
 0001:0001abd0       ??D@YA?AUImVec2@@ABU0@0@Z  1001bbd0 f   imgui.obj
 0001:0001abd0       ??D@YA?AUImVec2@@ABU0@0@Z  1001bbd0 f   imgui_draw.obj
 0001:0001ac10       ??D@YA?AUImVec2@@ABU0@M@Z  1001bc10 f   imgui.obj
 0001:0001ac10       ??D@YA?AUImVec2@@ABU0@M@Z  1001bc10 f   imgui_draw.obj
 0001:0001ac50       ??G@YA?AUImVec2@@ABU0@0@Z  1001bc50 f   imgui.obj
 0001:0001ac50       ??G@YA?AUImVec2@@ABU0@0@Z  1001bc50 f   imgui_draw.obj
 0001:0001ac90       ??H@YA?AUImVec2@@ABU0@0@Z  1001bc90 f   imgui_draw.obj
 0001:0001ac90       ??H@YA?AUImVec2@@ABU0@0@Z  1001bc90 f   imgui.obj
 0001:0001acd0       ??K@YA?AUImVec2@@ABU0@0@Z  1001bcd0 f   imgui.obj
 0001:0001ad10       ??R<lambda_42d221394b547edb48c6f2ecbde06d0c>@@QBEXHHM@Z 1001bd10 f   imgui.obj
 0001:0001ae30       ??R<lambda_d047aa5cc1f86c7b1c4b875d1253a0f3>@@QBEXHH_NM@Z 1001be30 f   imgui.obj
 0001:0001b1c0       ??X@YAAAUImVec2@@AAU0@M@Z  1001c1c0 f   imgui.obj
 0001:0001b1c0       ??X@YAAAUImVec2@@AAU0@M@Z  1001c1c0 f   imgui_draw.obj
 0001:0001b1f0       ??Y@YAAAUImVec2@@AAU0@ABU0@@Z 1001c1f0 f   imgui.obj
 0001:0001b2b0       ?AddDrawListToRenderList@@YAXAAV?$ImVector@PAUImDrawList@@@@PAUImDrawList@@@Z 1001c2b0 f   imgui.obj
 0001:0001b3a0       ?AddWindowSettings@@YAPAUImGuiIniData@@PBD@Z 1001c3a0 f   imgui.obj
 0001:0001b470       ?AddWindowToRenderList@@YAXAAV?$ImVector@PAUImDrawList@@@@PAUImGuiWindow@@@Z 1001c470 f   imgui.obj
 0001:0001b510       ?AddWindowToSortedBuffer@@YAXAAV?$ImVector@PAUImGuiWindow@@@@PAUImGuiWindow@@@Z 1001c510 f   imgui.obj
 0001:0001b5d0       ?ApplySizeFullWithConstraint@@YAXPAUImGuiWindow@@UImVec2@@@Z 1001c5d0 f   imgui.obj
 0001:0001f090       ?BeginChildEx@@YA_NPBDIABUImVec2@@_NH@Z 10020090 f   imgui.obj
 0001:0001fa50       ?BeginPopupEx@@YA_NIH@Z    10020a50 f   imgui.obj
 0001:00020b10       ?CheckStacksSize@@YAXPAUImGuiWindow@@_N@Z 10021b10 f   imgui.obj
 0001:00021580       ?ChildWindowComparer@@YAHPBX0@Z 10022580 f   imgui.obj
 0001:00021660       ?ClearSetNextWindowData@@YAXXZ 10022660 f   imgui.obj
 0001:00021b20       ?CloseInactivePopups@@YAXXZ 10022b20 f   imgui.obj
 0001:00021c90       ?ClosePopup@@YAXI@Z        10022c90 f   imgui.obj
 0001:00021cd0       ?ClosePopupToLevel@@YAXH@Z 10022cd0 f   imgui.obj
 0001:00022768       $LN12                      10023768     imgui.obj
 0001:00023720       ?ColorEditOptionsPopup@@YAXH@Z 10024720 f   imgui.obj
 0001:00024c90       ?ColorPickerOptionsPopup@@YAXHPAM@Z 10025c90 f   imgui.obj
 0001:00024f10       ?ColorSquareSize@@YAMXZ    10025f10 f   imgui.obj
 0001:00025b30       ?CreateNewWindow@@YAPAUImGuiWindow@@PBDUImVec2@@H@Z 10026b30 f   imgui.obj
 0001:00025f40       ?DataTypeApplyOpFromText@@YA_NPBD0W4ImGuiDataType@@PAX0@Z 10026f40 f   imgui.obj
 0001:00026260       ?DataTypeFormatString@@YAXW4ImGuiDataType@@PAXHPADH@Z 10027260 f   imgui.obj
 0001:00028590       ?FindBestPopupWindowPos@@YA?AUImVec2@@ABU1@0PAHABUImRect@@@Z 10029590 f   imgui.obj
 0001:00028970       ?FindHoveredWindow@@YAPAUImGuiWindow@@UImVec2@@_N@Z 10029970 f   imgui.obj
 0001:00028b70       ?FindWindowSettings@@YAPAUImGuiIniData@@PBD@Z 10029b70 f   imgui.obj
 0001:00028fe0       ?GetClipboardTextFn_DefaultImpl@@YAPBDPAX@Z 10029fe0 f   imgui.obj
 0001:000294f0       ?GetDefaultFont@@YAPAUImFont@@XZ 1002a4f0 f   imgui.obj
 0001:00029540       ?GetDraggedColumnOffset@@YAMH@Z 1002a540 f   imgui.obj
 0001:00029670       ?GetFrontMostModalRootWindow@@YAPAUImGuiWindow@@XZ 1002a670 f   imgui.obj
 0001:00029870       ?GetMinimumStepAtDecimalPrecision@@YAMH@Z 1002a870 f   imgui.obj
 0001:00029ab0       ?GetStyleVarInfo@@YAPBUImGuiStyleVarInfo@@H@Z 1002aab0 f   imgui.obj
 0001:00029b70       ?GetVisibleRect@@YA?AUImRect@@XZ 1002ab70 f   imgui.obj
 0001:0002a6e0       $LN51                      1002b6e0     imgui.obj
 0001:0002a700       ?ImAlphaBlendColor@@YAIII@Z 1002b700 f   imgui.obj
 0001:0002a7f0       ?ImCharIsSpace@@YA_NH@Z    1002b7f0 f   imgui_draw.obj
 0001:0002a7f0       ?ImCharIsSpace@@YA_NH@Z    1002b7f0 f   imgui.obj
 0001:0002a820       ?ImClamp@@YA?AUImVec2@@ABU1@0U1@@Z 1002b820 f   imgui.obj
 0001:0002a8b0       ?ImClamp@@YAHHHH@Z         1002b8b0 f   imgui.obj
 0001:0002a8f0       ?ImClamp@@YAMMMM@Z         1002b8f0 f   imgui.obj
 0001:0002ab70       ?ImFloor@@YA?AUImVec2@@ABU1@@Z 1002bb70 f   imgui.obj
 0001:0002abb0       ?ImFloor@@YAMM@Z           1002bbb0 f   imgui.obj
 0001:0002adf0       ?ImLengthSqr@@YAMABUImVec2@@@Z 1002bdf0 f   imgui.obj
 0001:0002ae30       ?ImLerp@@YAHHHM@Z          1002be30 f   imgui.obj
 0001:0002ae60       ?ImLerp@@YAMMMM@Z          1002be60 f   imgui.obj
 0001:0002ae90       ?ImMax@@YA?AUImVec2@@ABU1@0@Z 1002be90 f   imgui.obj
 0001:0002af10       ?ImMax@@YAHHH@Z            1002bf10 f   imgui.obj
 0001:0002af10       ?ImMax@@YAHHH@Z            1002bf10 f   imgui_draw.obj
 0001:0002af40       ?ImMax@@YAMMM@Z            1002bf40 f   imgui_draw.obj
 0001:0002af40       ?ImMax@@YAMMM@Z            1002bf40 f   imgui.obj
 0001:0002af70       ?ImMin@@YA?AUImVec2@@ABU1@0@Z 1002bf70 f   imgui.obj
 0001:0002aff0       ?ImMin@@YAHHH@Z            1002bff0 f   imgui.obj
 0001:0002b020       ?ImMin@@YAMMM@Z            1002c020 f   imgui_draw.obj
 0001:0002b020       ?ImMin@@YAMMM@Z            1002c020 f   imgui.obj
 0001:0002b050       ?ImSaturate@@YAMM@Z        1002c050 f   imgui.obj
 0001:0002b5f0       ?ImTextCharToUtf8@@YAHPADHI@Z 1002c5f0 f   imgui.obj
 0001:0002b7f0       ?ImTextCountUtf8BytesFromChar@@YAHI@Z 1002c7f0 f   imgui.obj
 0001:0002ba00       ?ImeSetInputScreenPosFn_DefaultImpl@@YAXHH@Z 1002ca00 f   imgui.obj
 0001:0002bbe0       ?InputTextCalcTextLenAndLineCount@@YAHPBDPAPBD@Z 1002cbe0 f   imgui.obj
 0001:0002bc70       ?InputTextCalcTextSizeW@@YA?AUImVec2@@PBG0PAPBGPAU1@_N@Z 1002cc70 f   imgui.obj
 0001:0002e830       ?InputTextFilterCharacter@@YA_NPAIHP6AHPAUImGuiTextEditCallbackData@@@ZPAX@Z 1002f830 f   imgui.obj
 0001:0002eea0       ?IsKeyPressedMap@@YA_NH_N@Z 1002fea0 f   imgui.obj
 0001:0002f100       ?IsWindowContentHoverable@@YA_NPAUImGuiWindow@@@Z 10030100 f   imgui.obj
 0001:0002f4b0       ?Items_ArrayGetter@@YA_NPAXHPAPBD@Z 100304b0 f   imgui.obj
 0001:0002fad0       ?LoadIniSettingsFromDisk@@YAXPBD@Z 10030ad0 f   imgui.obj
 0001:0002fde0       ?LogRenderedText@@YAXABUImVec2@@PBD1@Z 10030de0 f   imgui.obj
 0001:00030000       ?LowerBound@@YAPAUPair@ImGuiStorage@@AAV?$ImVector@UPair@ImGuiStorage@@@@I@Z 10031000 f   imgui.obj
 0001:00030080       ?MarkIniSettingsDirty@@YAXPAUImGuiWindow@@@Z 10031080 f   imgui.obj
 0001:000315e0       ?OffsetNormToPixels@@YAMPAUImGuiWindow@@M@Z 100325e0 f   imgui.obj
 0001:000319d0       ?PixelsToOffsetNorm@@YAMPAUImGuiWindow@@M@Z 100329d0 f   imgui.obj
 0001:00034040       ?STB_TEXTEDIT_DELETECHARS@ImGuiStb@@YAXPAUImGuiTextEditState@@HH@Z 10035040 f   imgui.obj
 0001:000340f0       ?STB_TEXTEDIT_GETCHAR@ImGuiStb@@YAGPBUImGuiTextEditState@@H@Z 100350f0 f   imgui.obj
 0001:00034110       ?STB_TEXTEDIT_GETWIDTH@ImGuiStb@@YAMPAUImGuiTextEditState@@HH@Z 10035110 f   imgui.obj
 0001:000341a0       ?STB_TEXTEDIT_INSERTCHARS@ImGuiStb@@YA_NPAUImGuiTextEditState@@HPBGH@Z 100351a0 f   imgui.obj
 0001:000342a0       ?STB_TEXTEDIT_KEYTOTEXT@ImGuiStb@@YAHH@Z 100352a0 f   imgui.obj
 0001:000342d0       ?STB_TEXTEDIT_LAYOUTROW@ImGuiStb@@YAXPAUStbTexteditRow@1@PAUImGuiTextEditState@@H@Z 100352d0 f   imgui.obj
 0001:00034370       ?STB_TEXTEDIT_MOVEWORDLEFT_IMPL@ImGuiStb@@YAHPAUImGuiTextEditState@@H@Z 10035370 f   imgui.obj
 0001:000343c0       ?STB_TEXTEDIT_MOVEWORDRIGHT_IMPL@ImGuiStb@@YAHPAUImGuiTextEditState@@H@Z 100353c0 f   imgui.obj
 0001:00034420       ?STB_TEXTEDIT_STRINGLEN@ImGuiStb@@YAHPBUImGuiTextEditState@@@Z 10035420 f   imgui.obj
 0001:00034540       ?SaveIniSettingsToDisk@@YAXPBD@Z 10035540 f   imgui.obj
 0001:00034740       ?Scrollbar@@YAXPAUImGuiWindow@@_N@Z 10035740 f   imgui.obj
 0001:000360b0       ?SetClipboardTextFn_DefaultImpl@@YAXPAXPBD@Z 100370b0 f   imgui.obj
 0001:000362e0       ?SetCurrentFont@@YAXPAUImFont@@@Z 100372e0 f   imgui.obj
 0001:00036390       ?SetCurrentWindow@@YAXPAUImGuiWindow@@@Z 10037390 f   imgui.obj
 0001:000364b0       ?SetCursorPosYAndSetupDummyPrevLine@@YAXMM@Z 100374b0 f   imgui.obj
 0001:000367d0       ?SetWindowCollapsed@@YAXPAUImGuiWindow@@_NH@Z 100377d0 f   imgui.obj
 0001:00036830       ?SetWindowPos@@YAXPAUImGuiWindow@@ABUImVec2@@H@Z 10037830 f   imgui.obj
 0001:00036920       ?SetWindowScrollY@@YAXPAUImGuiWindow@@M@Z 10037920 f   imgui.obj
 0001:00036970       ?SetWindowSize@@YAXPAUImGuiWindow@@ABUImVec2@@H@Z 10037970 f   imgui.obj
 0001:000378e0       ?SliderBehaviorCalcRatioFromValue@@YAMMMMMM@Z 100388e0 f   imgui.obj
 0001:00038f30       ?is_separator@ImGuiStb@@YA_NI@Z 10039f30 f   imgui.obj
 0001:00038fa0       ?is_word_boundary_from_right@ImGuiStb@@YAHPAUImGuiTextEditState@@H@Z 10039fa0 f   imgui.obj
 0001:00039910       ?stb_text_create_undo_record@ImGuiStb@@YAPAUStbUndoRecord@1@PAUStbUndoState@1@H@Z 1003a910 f   imgui.obj
 0001:000399c0       ?stb_text_createundo@ImGuiStb@@YAPAGPAUStbUndoState@1@HHH@Z 1003a9c0 f   imgui.obj
 0001:00039a60       ?stb_text_locate_coord@ImGuiStb@@YAHPAUImGuiTextEditState@@MM@Z 1003aa60 f   imgui.obj
 0001:00039c30       ?stb_text_makeundo_delete@ImGuiStb@@YAXPAUImGuiTextEditState@@PAUSTB_TexteditState@1@HH@Z 1003ac30 f   imgui.obj
 0001:00039ca0       ?stb_text_makeundo_insert@ImGuiStb@@YAXPAUSTB_TexteditState@1@HH@Z 1003aca0 f   imgui.obj
 0001:00039cc0       ?stb_text_makeundo_replace@ImGuiStb@@YAXPAUImGuiTextEditState@@PAUSTB_TexteditState@1@HHH@Z 1003acc0 f   imgui.obj
 0001:00039d30       ?stb_text_redo@ImGuiStb@@YAXPAUImGuiTextEditState@@PAUSTB_TexteditState@1@@Z 1003ad30 f   imgui.obj
 0001:00039f30       ?stb_text_undo@ImGuiStb@@YAXPAUImGuiTextEditState@@PAUSTB_TexteditState@1@@Z 1003af30 f   imgui.obj
 0001:0003a170       ?stb_textedit_clamp@ImGuiStb@@YAXPAUImGuiTextEditState@@PAUSTB_TexteditState@1@@Z 1003b170 f   imgui.obj
 0001:0003a1f0       ?stb_textedit_clear_state@ImGuiStb@@YAXPAUSTB_TexteditState@1@H@Z 1003b1f0 f   imgui.obj
 0001:0003a280       ?stb_textedit_click@ImGuiStb@@YAXPAUImGuiTextEditState@@PAUSTB_TexteditState@1@MM@Z 1003b280 f   imgui.obj
 0001:0003a2d0       ?stb_textedit_cut@ImGuiStb@@YAHPAUImGuiTextEditState@@PAUSTB_TexteditState@1@@Z 1003b2d0 f   imgui.obj
 0001:0003a310       ?stb_textedit_delete@ImGuiStb@@YAXPAUImGuiTextEditState@@PAUSTB_TexteditState@1@HH@Z 1003b310 f   imgui.obj
 0001:0003a350       ?stb_textedit_delete_selection@ImGuiStb@@YAXPAUImGuiTextEditState@@PAUSTB_TexteditState@1@@Z 1003b350 f   imgui.obj
 0001:0003a410       ?stb_textedit_discard_redo@ImGuiStb@@YAXPAUStbUndoState@1@@Z 1003b410 f   imgui.obj
 0001:0003a570       ?stb_textedit_discard_undo@ImGuiStb@@YAXPAUStbUndoState@1@@Z 1003b570 f   imgui.obj
 0001:0003a690       ?stb_textedit_drag@ImGuiStb@@YAXPAUImGuiTextEditState@@PAUSTB_TexteditState@1@MM@Z 1003b690 f   imgui.obj
 0001:0003a6f0       ?stb_textedit_find_charpos@ImGuiStb@@YAXPAUStbFindState@1@PAUImGuiTextEditState@@HH@Z 1003b6f0 f   imgui.obj
 0001:0003a8f0       ?stb_textedit_flush_redo@ImGuiStb@@YAXPAUStbUndoState@1@@Z 1003b8f0 f   imgui.obj
 0001:0003a920       ?stb_textedit_initialize_state@ImGuiStb@@YAXPAUSTB_TexteditState@1@H@Z 1003b920 f   imgui.obj
 0001:0003a940       ?stb_textedit_key@ImGuiStb@@YAXPAUImGuiTextEditState@@PAUSTB_TexteditState@1@H@Z 1003b940 f   imgui.obj
 0001:0003b4d0       $LN100                     1003c4d0     imgui.obj
 0001:0003b508       $LN101                     1003c508     imgui.obj
 0001:0003b540       ?stb_textedit_move_to_first@ImGuiStb@@YAXPAUSTB_TexteditState@1@@Z 1003c540 f   imgui.obj
 0001:0003b580       ?stb_textedit_move_to_last@ImGuiStb@@YAXPAUImGuiTextEditState@@PAUSTB_TexteditState@1@@Z 1003c580 f   imgui.obj
 0001:0003b5d0       ?stb_textedit_paste@ImGuiStb@@YAHPAUImGuiTextEditState@@PAUSTB_TexteditState@1@PBGH@Z 1003c5d0 f   imgui.obj
 0001:0003b680       ?stb_textedit_prep_selection_at_cursor@ImGuiStb@@YAXPAUSTB_TexteditState@1@@Z 1003c680 f   imgui.obj
 0001:0003b6c0       ?stb_textedit_sortselection@ImGuiStb@@YAXPAUSTB_TexteditState@1@@Z 1003c6c0 f   imgui.obj
 0001:0003fa80       ?Decode85@@YAXPBEPAE@Z     10040a80 f   imgui_draw.obj
 0001:0003fbc0       ?Decode85Byte@@YAID@Z      10040bc0 f   imgui_draw.obj
 0001:0003fc50       ?GetDefaultCompressedFontDataTTFBase85@@YAPBDXZ 10040c50 f   imgui_draw.obj
 0001:00041440       ?ImInvLength@@YAMABUImVec2@@M@Z 10042440 f   imgui_draw.obj
 0001:000414b0       ?ImUpperPowerOfTwo@@YAHH@Z 100424b0 f   imgui_draw.obj
 0001:000430c0       ?rect_height_compare@@YAHPBX0@Z 100440c0 f   imgui_draw.obj
 0001:00043150       ?rect_original_order@@YAHPBX0@Z 10044150 f   imgui_draw.obj
 0001:000433a0       ?stb__lit@@YAXPAEI@Z       100443a0 f   imgui_draw.obj
 0001:00043410       ?stb__match@@YAXPAEI@Z     10044410 f   imgui_draw.obj
 0001:000434a0       ?stb_adler32@@YAIIPAEI@Z   100444a0 f   imgui_draw.obj
 0001:00043680       ?stb_decompress@@YAIPAE0I@Z 10044680 f   imgui_draw.obj
 0001:00043870       ?stb_decompress_length@@YAIPAE@Z 10044870 f   imgui_draw.obj
 0001:000438c0       ?stb_decompress_token@@YAPAEPAE@Z 100448c0 f   imgui_draw.obj
 0001:00043cb0       ?stbrp__skyline_find_best_pos@@YA?AUstbrp__findresult@@PAUstbrp_context@@HH@Z 10044cb0 f   imgui_draw.obj
 0001:00043ef0       ?stbrp__skyline_find_min_y@@YAHPAUstbrp_context@@PAUstbrp_node@@HHPAH@Z 10044ef0 f   imgui_draw.obj
 0001:00043ff0       ?stbrp__skyline_pack_rectangle@@YA?AUstbrp__findresult@@PAUstbrp_context@@HH@Z 10044ff0 f   imgui_draw.obj
 0001:00044160       ?stbtt_FlattenCurves@@YAPAUstbtt__point@@PAUstbtt_vertex@@HMPAPAHPAHPAX@Z 10045160 f   imgui_draw.obj
 0001:0004458c       $LN25                      1004558c     imgui_draw.obj
 0001:000445a0       ?stbtt_GetFontOffsetForIndex_internal@@YAHPAEH@Z 100455a0 f   imgui_draw.obj
 0001:000446d0       ?stbtt_InitFont_internal@@YAHPAUstbtt_fontinfo@@PAEH@Z 100456d0 f   imgui_draw.obj
 0001:00044e20       ?stbtt__GetGlyfOffset@@YAHPBUstbtt_fontinfo@@H@Z 10045e20 f   imgui_draw.obj
 0001:00044f20       ?stbtt__GetGlyphInfoT2@@YAHPBUstbtt_fontinfo@@HPAH111@Z 10045f20 f   imgui_draw.obj
 0001:00045030       ?stbtt__GetGlyphShapeT2@@YAHPBUstbtt_fontinfo@@HPAPAUstbtt_vertex@@@Z 10046030 f   imgui_draw.obj
 0001:00045150       ?stbtt__GetGlyphShapeTT@@YAHPBUstbtt_fontinfo@@HPAPAUstbtt_vertex@@@Z 10046150 f   imgui_draw.obj
 0001:00045f20       ?stbtt__add_point@@YAXPAUstbtt__point@@HMM@Z 10046f20 f   imgui_draw.obj
 0001:00045f50       ?stbtt__buf_get8@@YAEPAUstbtt__buf@@@Z 10046f50 f   imgui_draw.obj
 0001:00045f90       ?stbtt__buf_get@@YAIPAUstbtt__buf@@H@Z 10046f90 f   imgui_draw.obj
 0001:00045fe0       ?stbtt__buf_peek8@@YAEPAUstbtt__buf@@@Z 10046fe0 f   imgui_draw.obj
 0001:00046010       ?stbtt__buf_range@@YA?AUstbtt__buf@@PBU1@HH@Z 10047010 f   imgui_draw.obj
 0001:000460c0       ?stbtt__buf_seek@@YAXPAUstbtt__buf@@H@Z 100470c0 f   imgui_draw.obj
 0001:00046100       ?stbtt__buf_skip@@YAXPAUstbtt__buf@@H@Z 10047100 f   imgui_draw.obj
 0001:00046120       ?stbtt__cff_get_index@@YA?AUstbtt__buf@@PAU1@@Z 10047120 f   imgui_draw.obj
 0001:000461e0       ?stbtt__cff_index_count@@YAHPAUstbtt__buf@@@Z 100471e0 f   imgui_draw.obj
 0001:00046210       ?stbtt__cff_index_get@@YA?AUstbtt__buf@@U1@H@Z 10047210 f   imgui_draw.obj
 0001:000462e0       ?stbtt__cff_int@@YAIPAUstbtt__buf@@@Z 100472e0 f   imgui_draw.obj
 0001:000463c0       ?stbtt__cff_skip_operand@@YAXPAUstbtt__buf@@@Z 100473c0 f   imgui_draw.obj
 0001:00046440       ?stbtt__cid_get_glyph_subrs@@YA?AUstbtt__buf@@PBUstbtt_fontinfo@@H@Z 10047440 f   imgui_draw.obj
 0001:00046610       ?stbtt__close_shape@@YAHPAUstbtt_vertex@@HHHHHHHHH@Z 10047610 f   imgui_draw.obj
 0001:00046700       ?stbtt__csctx_close_shape@@YAXPAUstbtt__csctx@@@Z 10047700 f   imgui_draw.obj
 0001:00046760       ?stbtt__csctx_rccurve_to@@YAXPAUstbtt__csctx@@MMMMMM@Z 10047760 f   imgui_draw.obj
 0001:00046810       ?stbtt__csctx_rline_to@@YAXPAUstbtt__csctx@@MM@Z 10047810 f   imgui_draw.obj
 0001:00046870       ?stbtt__csctx_rmove_to@@YAXPAUstbtt__csctx@@MM@Z 10047870 f   imgui_draw.obj
 0001:00046910       ?stbtt__csctx_v@@YAXPAUstbtt__csctx@@EHHHHHH@Z 10047910 f   imgui_draw.obj
 0001:000469d0       ?stbtt__dict_get@@YA?AUstbtt__buf@@PAU1@H@Z 100479d0 f   imgui_draw.obj
 0001:00046af0       ?stbtt__dict_get_ints@@YAXPAUstbtt__buf@@HHPAI@Z 10047af0 f   imgui_draw.obj
 0001:00046b70       ?stbtt__fill_active_edges_new@@YAXPAM0HPAUstbtt__active_edge@@M@Z 10047b70 f   imgui_draw.obj
 0001:000475f0       ?stbtt__find_table@@YAIPAEIPBD@Z 100485f0 f   imgui_draw.obj
 0001:00047700       ?stbtt__get_subr@@YA?AUstbtt__buf@@U1@H@Z 10048700 f   imgui_draw.obj
 0001:000477e0       ?stbtt__get_subrs@@YA?AUstbtt__buf@@U1@0@Z 100487e0 f   imgui_draw.obj
 0001:00047970       ?stbtt__h_prefilter@@YAXPAEHHHI@Z 10048970 f   imgui_draw.obj
 0001:00047c24       $LN31                      10048c24     imgui_draw.obj
 0001:00047c40       ?stbtt__handle_clipped_edge@@YAXPAMHPAUstbtt__active_edge@@MMMM@Z 10048c40 f   imgui_draw.obj
 0001:00047df0       ?stbtt__hheap_alloc@@YAPAXPAUstbtt__hheap@@IPAX@Z 10048df0 f   imgui_draw.obj
 0001:00047ec0       ?stbtt__hheap_cleanup@@YAXPAUstbtt__hheap@@PAX@Z 10048ec0 f   imgui_draw.obj
 0001:00047f00       ?stbtt__hheap_free@@YAXPAUstbtt__hheap@@PAX@Z 10048f00 f   imgui_draw.obj
 0001:00047f20       ?stbtt__isfont@@YAHPAE@Z   10048f20 f   imgui_draw.obj
 0001:00048180       ?stbtt__new_active@@YAPAUstbtt__active_edge@@PAUstbtt__hheap@@PAUstbtt__edge@@HMPAX@Z 10049180 f   imgui_draw.obj
 0001:000482b0       ?stbtt__new_buf@@YA?AUstbtt__buf@@PBXI@Z 100492b0 f   imgui_draw.obj
 0001:000482f0       ?stbtt__oversample_shift@@YAMH@Z 100492f0 f   imgui_draw.obj
 0001:00048330       ?stbtt__rasterize@@YAXPAUstbtt__bitmap@@PAUstbtt__point@@PAHHMMMMHHHPAX@Z 10049330 f   imgui_draw.obj
 0001:00048600       ?stbtt__rasterize_sorted_edges@@YAXPAUstbtt__bitmap@@PAUstbtt__edge@@HHHHPAX@Z 10049600 f   imgui_draw.obj
 0001:00048a20       ?stbtt__run_charstring@@YAHPBUstbtt_fontinfo@@HPAUstbtt__csctx@@@Z 10049a20 f   imgui_draw.obj
 0001:00049fcc       $LN104                     1004afcc     imgui_draw.obj
 0001:0004a01c       $LN103                     1004b01c     imgui_draw.obj
 0001:0004a03c       $LN105                     1004b03c     imgui_draw.obj
 0001:0004a050       ?stbtt__sort_edges@@YAXPAUstbtt__edge@@H@Z 1004b050 f   imgui_draw.obj
 0001:0004a080       ?stbtt__sort_edges_ins_sort@@YAXPAUstbtt__edge@@H@Z 1004b080 f   imgui_draw.obj
 0001:0004a1a0       ?stbtt__sort_edges_quicksort@@YAXPAUstbtt__edge@@H@Z 1004b1a0 f   imgui_draw.obj
 0001:0004a4f0       ?stbtt__tesselate_cubic@@YAXPAUstbtt__point@@PAHMMMMMMMMMH@Z 1004b4f0 f   imgui_draw.obj
 0001:0004a8a0       ?stbtt__tesselate_curve@@YAHPAUstbtt__point@@PAHMMMMMMMH@Z 1004b8a0 f   imgui_draw.obj
 0001:0004aaa0       ?stbtt__track_vertex@@YAXPAUstbtt__csctx@@HH@Z 1004baa0 f   imgui_draw.obj
 0001:0004ab30       ?stbtt__v_prefilter@@YAXPAEHHHI@Z 1004bb30 f   imgui_draw.obj
 0001:0004ae34       $LN31                      1004be34     imgui_draw.obj
 0001:0004ae50       ?stbtt_setvertex@@YAXPAUstbtt_vertex@@EHHHH@Z 1004be50 f   imgui_draw.obj
 0001:0004ae90       ?ttLONG@@YAHPAE@Z          1004be90 f   imgui_draw.obj
 0001:0004ae90       ?ttULONG@@YAIPAE@Z         1004be90 f   imgui_draw.obj
 0001:0004aee0       ?ttSHORT@@YAFPAE@Z         1004bee0 f   imgui_draw.obj
 0001:0004aee0       ?ttUSHORT@@YAGPAE@Z        1004bee0 f   imgui_draw.obj
 0001:0004af70       _stbrp_init_target         1004bf70 f   imgui_draw.obj
 0001:0004b0a0       _stbrp_pack_rects          1004c0a0 f   imgui_draw.obj
 0001:0004b280       _stbrp_setup_allow_out_of_mem 1004c280 f   imgui_draw.obj
 0001:0004b2c0       _stbtt_FindGlyphIndex      1004c2c0 f   imgui_draw.obj
 0001:0004b6b0       _stbtt_GetFontOffsetForIndex 1004c6b0 f   imgui_draw.obj
 0001:0004b6d0       _stbtt_GetFontVMetrics     1004c6d0 f   imgui_draw.obj
 0001:0004b750       _stbtt_GetGlyphBitmapBox   1004c750 f   imgui_draw.obj
 0001:0004b7a0       _stbtt_GetGlyphBitmapBoxSubpixel 1004c7a0 f   imgui_draw.obj
 0001:0004b910       _stbtt_GetGlyphBox         1004c910 f   imgui_draw.obj
 0001:0004ba00       _stbtt_GetGlyphHMetrics    1004ca00 f   imgui_draw.obj
 0001:0004baf0       _stbtt_GetGlyphShape       1004caf0 f   imgui_draw.obj
 0001:0004bb30       _stbtt_GetPackedQuad       1004cb30 f   imgui_draw.obj
 0001:0004bd30       _stbtt_InitFont            1004cd30 f   imgui_draw.obj
 0001:0004bd50       _stbtt_MakeGlyphBitmapSubpixel 1004cd50 f   imgui_draw.obj
 0001:0004be50       _stbtt_PackBegin           1004ce50 f   imgui_draw.obj
 0001:0004bf70       _stbtt_PackEnd             1004cf70 f   imgui_draw.obj
 0001:0004bfa0       _stbtt_PackFontRangesGatherRects 1004cfa0 f   imgui_draw.obj
 0001:0004c1c0       _stbtt_PackFontRangesRenderIntoRects 1004d1c0 f   imgui_draw.obj
 0001:0004c750       _stbtt_PackSetOversampling 1004d750 f   imgui_draw.obj
 0001:0004c780       _stbtt_Rasterize           1004d780 f   imgui_draw.obj
 0001:0004c860       _stbtt_ScaleForMappingEmToPixels 1004d860 f   imgui_draw.obj
 0001:0004c8a0       _stbtt_ScaleForPixelHeight 1004d8a0 f   imgui_draw.obj
 0001:0004cf07       __catch$?Setup@ShadowVTManager@@QAEXPAX@Z$0 1004df07 f i bone_processing_hook.obj
 0001:00052200       ??$?RVdirectory_entry@filesystem@std@@@<lambda_bea2c85d2d76a7d41383a900013bf5c9>@@QBE?AV?$basic_string@DU?$char_traits@D@std@@V?$allocator@D@2@@std@@ABVdirectory_entry@filesystem@2@@Z 10053200 f   config_system.obj
 0001:00052b2e       __catch$??$_Emplace_reallocate@AAPBD@?$vector@V?$basic_string@DU?$char_traits@D@std@@V?$allocator@D@2@@std@@V?$allocator@V?$basic_string@DU?$char_traits@D@std@@V?$allocator@D@2@@std@@@2@@std@@QAEPAV?$basic_string@DU?$char_traits@D@std@@V?$allocator@D@2@@1@QAV21@AAPBD@Z$0 10053b2e f i config_system.obj
 0001:00052d2e       __catch$??$_Emplace_reallocate@V?$basic_string@DU?$char_traits@D@std@@V?$allocator@D@2@@std@@@?$vector@V?$basic_string@DU?$char_traits@D@std@@V?$allocator@D@2@@std@@V?$allocator@V?$basic_string@DU?$char_traits@D@std@@V?$allocator@D@2@@std@@@2@@std@@QAEPAV?$basic_string@DU?$char_traits@D@std@@V?$allocator@D@2@@1@QAV21@$$QAV21@@Z$0 10053d2e f i config_system.obj
 0001:000543a0       ??$transform@Vdirectory_iterator@filesystem@std@@V?$back_insert_iterator@V?$vector@V?$basic_string@DU?$char_traits@D@std@@V?$allocator@D@2@@std@@V?$allocator@V?$basic_string@DU?$char_traits@D@std@@V?$allocator@D@2@@std@@@2@@std@@@3@V<lambda_bea2c85d2d76a7d41383a900013bf5c9>@@@std@@YA?AV?$back_insert_iterator@V?$vector@V?$basic_string@DU?$char_traits@D@std@@V?$allocator@D@2@@std@@V?$allocator@V?$basic_string@DU?$char_traits@D@std@@V?$allocator@D@2@@std@@@2@@std@@@0@Vdirectory_iterator@filesystem@0@0V10@V<lambda_bea2c85d2d76a7d41383a900013bf5c9>@@@Z 100553a0 f   config_system.obj
 0001:0005b750       ?<lambda_invoker_cdecl>@<lambda_0c4c841431b0a4df57a8980f483f76db>@@CA_NPAXHPAPBD@Z 1005c750 f   menu_system.obj
 0001:0005b790       ??B<lambda_0c4c841431b0a4df57a8980f483f76db>@@QBEP6A_NPAXHPAPBD@ZXZ 1005c790 f   menu_system.obj
 0001:0005b7a0       ??R<lambda_0c4c841431b0a4df57a8980f483f76db>@@QBE_NPAXHPAPBD@Z 1005c7a0 f   menu_system.obj
 0001:0005c5b4       $LN17                      1005d5b4     menu_system.obj
 0001:0005f19d       __catch$??$?6U?$char_traits@D@std@@@std@@YAAAV?$basic_ostream@DU?$char_traits@D@std@@@0@AAV10@PBD@Z$0 1006019d f i Interfaces.obj
 0001:00062c9e       __catch$??$_Buynode@PBDABV?$shared_ptr@UNode@NetvarTree@@@std@@@?$_List_buy@U?$pair@$$CBV?$basic_string@DU?$char_traits@D@std@@V?$allocator@D@2@@std@@V?$shared_ptr@UNode@NetvarTree@@@2@@std@@V?$allocator@U?$pair@$$CBV?$basic_string@DU?$char_traits@D@std@@V?$allocator@D@2@@std@@V?$shared_ptr@UNode@NetvarTree@@@2@@std@@@2@@std@@QAEPAU?$_List_node@U?$pair@$$CBV?$basic_string@DU?$char_traits@D@std@@V?$allocator@D@2@@std@@V?$shared_ptr@UNode@NetvarTree@@@2@@std@@PAX@1@PAU21@0$$QAPBDABV?$shared_ptr@UNode@NetvarTree@@@1@@Z$0 10063c9e f i NetvarManager.obj
 0001:000635c5       ??$_Runtime_dynamic_link@P6GHPAXW4_FILE_INFO_BY_HANDLE_CLASS@@0K@Z@?A0xb24c12bc@@YGP6GHPAXW4_FILE_INFO_BY_HANDLE_CLASS@@0K@ZQCR6GH010K@ZQB_WQBDQ6GH010K@Z@Z 100645c5 f   msvcprt:filesystem.obj
 0001:00063631       ?_Not_supported_GetFileInformationByHandleEx@?A0xb24c12bc@@YGHPAXW4_FILE_INFO_BY_HANDLE_CLASS@@0K@Z 10064631 f   msvcprt:filesystem.obj
 0001:00063631       ?_Not_supported_SetFileInformationByHandle@?A0xb24c12bc@@YGHPAXW4_FILE_INFO_BY_HANDLE_CLASS@@0K@Z 10064631 f   msvcprt:filesystem.obj
 0001:00063d7c       ?__scrt_initialize_thread_safe_statics@@YAHXZ 10064d7c f   MSVCRT:thread_safe_statics.obj
 0001:00063da3       ?__scrt_initialize_thread_safe_statics_platform_specific@@YAXXZ 10064da3 f   MSVCRT:thread_safe_statics.obj
 0001:00063e92       ?__scrt_uninitialize_thread_safe_statics@@YAXXZ 10064e92 f   MSVCRT:thread_safe_statics.obj
 0001:00064030       $$000000                   10065030     MSVCRT:chkstk.obj
 0001:00064070       $$000000                   10065070     MSVCRT:ftol3.obj
 0001:0006455e       ?find_pe_section@@YAPAU_IMAGE_SECTION_HEADER@@QAEI@Z 1006555e f   MSVCRT:utility.obj
 0001:000648d0       $$000000                   100658d0     MSVCRT:lldiv.obj
 0001:00064980       $$000000                   10065980     MSVCRT:llmul.obj
 0001:000649c0       $$000000                   100659c0     MSVCRT:ftol2.obj
 0001:00064c70       $$000000                   10065c70     MSVCRT:alloca16.obj
 0001:00064ca0       $$000000                   10065ca0     MSVCRT:llshl.obj
 0001:00064cbf       ?dllmain_crt_dispatch@@YGHQAUHINSTANCE__@@KQAX@Z 10065cbf f   MSVCRT:dll_dllmain.obj
 0001:00064d12       ?dllmain_crt_process_attach@@YAHQAUHINSTANCE__@@QAX@Z 10065d12 f   MSVCRT:dll_dllmain.obj
 0001:00064e1c       ?dllmain_crt_process_detach@@YAH_N@Z 10065e1c f   MSVCRT:dll_dllmain.obj
 0001:00064eae       ?dllmain_dispatch@@YAHQAUHINSTANCE__@@KQAX@Z 10065eae f   MSVCRT:dll_dllmain.obj
 0001:00064fb4       ?dllmain_raw@@YGHQAUHINSTANCE__@@KQAX@Z 10065fb4 f   MSVCRT:dll_dllmain.obj
 0001:00065210       $$000000                   10066210     MSVCRT:sehprolg4.obj
 0001:00065435       ___get_entropy             10066435 f   MSVCRT:gs_support.obj
 0001:00065670       __ehhandler$?end@?$list@U?$pair@$$CBV?$basic_string@DU?$char_traits@D@std@@V?$allocator@D@2@@std@@V?$shared_ptr@UNode@NetvarTree@@@2@@std@@V?$allocator@U?$pair@$$CBV?$basic_string@DU?$char_traits@D@std@@V?$allocator@D@2@@std@@V?$shared_ptr@UNode@NetvarTree@@@2@@std@@@2@@std@@QAE?AV?$_List_iterator@V?$_List_val@U?$_List_simple_types@U?$pair@$$CBV?$basic_string@DU?$char_traits@D@std@@V?$allocator@D@2@@std@@V?$shared_ptr@UNode@NetvarTree@@@2@@std@@@std@@@std@@@2@XZ 10066670 f   animation_system.obj
 0001:00065670       __ehhandler$?begin@?$deque@UPlayerRecords@@V?$allocator@UPlayerRecords@@@std@@@std@@QAE?AV?$_Deque_iterator@V?$_Deque_val@U?$_Deque_simple_types@UPlayerRecords@@@std@@@std@@@2@XZ 10066670 f   c_ragebot.obj
 0001:00065670       __ehhandler$?_Make_iter@?$list@U?$pair@$$CBV?$basic_string@DU?$char_traits@D@std@@V?$allocator@D@2@@std@@V?$shared_ptr@UNode@NetvarTree@@@2@@std@@V?$allocator@U?$pair@$$CBV?$basic_string@DU?$char_traits@D@std@@V?$allocator@D@2@@std@@V?$shared_ptr@UNode@NetvarTree@@@2@@std@@@2@@std@@QBE?AV?$_List_iterator@V?$_List_val@U?$_List_simple_types@U?$pair@$$CBV?$basic_string@DU?$char_traits@D@std@@V?$allocator@D@2@@std@@V?$shared_ptr@UNode@NetvarTree@@@2@@std@@@std@@@std@@@2@V?$_List_const_iterator@V?$_List_val@U?$_List_simple_types@U?$pair@$$CBV?$basic_string@DU?$char_traits@D@std@@V?$allocator@D@2@@std@@V?$shared_ptr@UNode@NetvarTree@@@2@@std@@@std@@@std@@@2@@Z 10066670 f   animation_system.obj
 0001:00065670       __ehhandler$??4?$basic_string@DU?$char_traits@D@std@@V?$allocator@D@2@@std@@QAEAAV01@$$QAV01@@Z 10066670 f   imgui.obj
 0001:00065670       __ehhandler$??$?0V?$basic_string@DU?$char_traits@D@std@@V?$allocator@D@2@@std@@$$V$0A@@?$tuple@$$QAV?$basic_string@DU?$char_traits@D@std@@V?$allocator@D@2@@std@@@std@@QAE@$$QAV?$basic_string@DU?$char_traits@D@std@@V?$allocator@D@2@@1@@Z 10066670 f   animation_system.obj
 0001:00065670       __ehhandler$?__scrt_initialize_thread_safe_statics_platform_specific@@YAXXZ 10066670 f   MSVCRT:thread_safe_statics.obj
 0001:00065670       __ehhandler$??0?$vector@HV?$allocator@H@std@@@std@@QAE@$$QAV01@@Z 10066670 f   animation_system.obj
 0001:00065670       __ehhandler$??0?$basic_string@DU?$char_traits@D@std@@V?$allocator@D@2@@std@@QAE@$$QAV01@@Z 10066670 f   animation_system.obj
 0001:00065670       __ehhandler$?begin@?$deque@ULegitPlayerRecords@@V?$allocator@ULegitPlayerRecords@@@std@@@std@@QAE?AV?$_Deque_iterator@V?$_Deque_val@U?$_Deque_simple_types@ULegitPlayerRecords@@@std@@@std@@@2@XZ 10066670 f   Legitbot.obj
 0001:00065670       __ehhandler$?end@?$vector@V?$basic_string@DU?$char_traits@D@std@@V?$allocator@D@2@@std@@V?$allocator@V?$basic_string@DU?$char_traits@D@std@@V?$allocator@D@2@@std@@@2@@std@@QBE?AV?$_Vector_const_iterator@V?$_Vector_val@U?$_Simple_types@V?$basic_string@DU?$char_traits@D@std@@V?$allocator@D@2@@std@@@std@@@std@@@2@XZ 10066670 f   config_system.obj
 0001:00065670       __ehhandler$?begin@?$vector@V?$basic_string@DU?$char_traits@D@std@@V?$allocator@D@2@@std@@V?$allocator@V?$basic_string@DU?$char_traits@D@std@@V?$allocator@D@2@@std@@@2@@std@@QBE?AV?$_Vector_const_iterator@V?$_Vector_val@U?$_Simple_types@V?$basic_string@DU?$char_traits@D@std@@V?$allocator@D@2@@std@@@std@@@std@@@2@XZ 10066670 f   config_system.obj
 0001:00065670       __ehhandler$?begin@?$list@U?$pair@$$CBV?$basic_string@DU?$char_traits@D@std@@V?$allocator@D@2@@std@@V?$shared_ptr@UNode@NetvarTree@@@2@@std@@V?$allocator@U?$pair@$$CBV?$basic_string@DU?$char_traits@D@std@@V?$allocator@D@2@@std@@V?$shared_ptr@UNode@NetvarTree@@@2@@std@@@2@@std@@QAE?AV?$_List_iterator@V?$_List_val@U?$_List_simple_types@U?$pair@$$CBV?$basic_string@DU?$char_traits@D@std@@V?$allocator@D@2@@std@@V?$shared_ptr@UNode@NetvarTree@@@2@@std@@@std@@@std@@@2@XZ 10066670 f   animation_system.obj
 0001:00065670       __ehhandler$??4?$basic_string@_WU?$char_traits@_W@std@@V?$allocator@_W@2@@std@@QAEAAV01@$$QAV01@@Z 10066670 f   config_system.obj
 0001:00065670       __ehhandler$??0?$basic_string@_WU?$char_traits@_W@std@@V?$allocator@_W@2@@std@@QAE@$$QAV01@@Z 10066670 f   config_system.obj
 0001:00065690       __unwindfunclet$??$GetOffset@PBD@NetvarTree@@QAEHPBD0@Z$0 10066690 f   animation_system.obj
 0001:00065690       __unwindfunclet$??$GetOffset@PBDPBD@NetvarTree@@QAEHPBD00@Z$0 10066690 f   animation_system.obj
 0001:00065698       __ehhandler$??$GetOffset@PBDPBD@NetvarTree@@QAEHPBD00@Z 10066698 f   animation_system.obj
 0001:00065698       __ehhandler$??$GetOffset@PBD@NetvarTree@@QAEHPBD0@Z 10066698 f   animation_system.obj
 0001:000656c0       __unwindfunclet$??0_System_error@std@@IAE@Verror_code@1@ABV?$basic_string@DU?$char_traits@D@std@@V?$allocator@D@2@@1@@Z$1 100666c0 f   config_system.obj
 0001:000656c0       __unwindfunclet$??$GetOffsetRecursive@PBD@NetvarTree@@AAEHAAV?$unordered_map@V?$basic_string@DU?$char_traits@D@std@@V?$allocator@D@2@@std@@V?$shared_ptr@UNode@NetvarTree@@@2@U?$hash@V?$basic_string@DU?$char_traits@D@std@@V?$allocator@D@2@@std@@@2@U?$equal_to@V?$basic_string@DU?$char_traits@D@std@@V?$allocator@D@2@@std@@@2@V?$allocator@U?$pair@$$CBV?$basic_string@DU?$char_traits@D@std@@V?$allocator@D@2@@std@@V?$shared_ptr@UNode@NetvarTree@@@2@@std@@@2@@std@@HPBD1@Z$0 100666c0 f   animation_system.obj
 0001:000656c0       __unwindfunclet$?IsKnifeorNade@C_BaseEntity@@QAE_NXZ$0 100666c0 f   CEntity.obj
 0001:000656c0       __unwindfunclet$?message@_System_error_category@std@@UBE?AV?$basic_string@DU?$char_traits@D@std@@V?$allocator@D@2@@2@H@Z$0 100666c0 f   config_system.obj
 0001:000656c8       __ehhandler$??$GetOffsetRecursive@PBD@NetvarTree@@AAEHAAV?$unordered_map@V?$basic_string@DU?$char_traits@D@std@@V?$allocator@D@2@@std@@V?$shared_ptr@UNode@NetvarTree@@@2@U?$hash@V?$basic_string@DU?$char_traits@D@std@@V?$allocator@D@2@@std@@@2@U?$equal_to@V?$basic_string@DU?$char_traits@D@std@@V?$allocator@D@2@@std@@@2@V?$allocator@U?$pair@$$CBV?$basic_string@DU?$char_traits@D@std@@V?$allocator@D@2@@std@@V?$shared_ptr@UNode@NetvarTree@@@2@@std@@@2@@std@@HPBD1@Z 100666c8 f   animation_system.obj
 0001:000656c8       __ehhandler$?message@_System_error_category@std@@UBE?AV?$basic_string@DU?$char_traits@D@std@@V?$allocator@D@2@@2@H@Z 100666c8 f   config_system.obj
 0001:000656c8       __ehhandler$?IsKnifeorNade@C_BaseEntity@@QAE_NXZ 100666c8 f   CEntity.obj
 0001:000656c8       __ehhandler$??0_System_error@std@@IAE@Verror_code@1@ABV?$basic_string@DU?$char_traits@D@std@@V?$allocator@D@2@@1@@Z 100666c8 f   config_system.obj
 0001:000656f0       __ehhandler$??$_Buynode@ABUpiecewise_construct_t@std@@V?$tuple@$$QAV?$basic_string@DU?$char_traits@D@std@@V?$allocator@D@2@@std@@@2@V?$tuple@$$V@2@@?$_List_buy@U?$pair@$$CBV?$basic_string@DU?$char_traits@D@std@@V?$allocator@D@2@@std@@V?$shared_ptr@UNode@NetvarTree@@@2@@std@@V?$allocator@U?$pair@$$CBV?$basic_string@DU?$char_traits@D@std@@V?$allocator@D@2@@std@@V?$shared_ptr@UNode@NetvarTree@@@2@@std@@@2@@std@@QAEPAU?$_List_node@U?$pair@$$CBV?$basic_string@DU?$char_traits@D@std@@V?$allocator@D@2@@std@@V?$shared_ptr@UNode@NetvarTree@@@2@@std@@PAX@1@PAU21@0ABUpiecewise_construct_t@1@$$QAV?$tuple@$$QAV?$basic_string@DU?$char_traits@D@std@@V?$allocator@D@2@@std@@@1@$$QAV?$tuple@$$V@1@@Z 100666f0 f   animation_system.obj
 0001:00065710       __ehhandler$??$_Emplace_reallocate@H@?$vector@HV?$allocator@H@std@@@std@@QAEPAHQAH$$QAH@Z 10066710 f   animation_system.obj
 0001:00065730       __ehhandler$?data@?$basic_string@DU?$char_traits@D@std@@V?$allocator@D@2@@std@@QAEPADXZ 10066730 f   config_system.obj
 0001:00065730       __ehhandler$?data@?$basic_string@DU?$char_traits@D@std@@V?$allocator@D@2@@std@@QBEPBDXZ 10066730 f   config_system.obj
 0001:00065730       __ehhandler$??1?$basic_filebuf@DU?$char_traits@D@std@@@std@@UAE@XZ 10066730 f   config_system.obj
 0001:00065730       __ehhandler$??0?$basic_string@DU?$char_traits@D@std@@V?$allocator@D@2@@std@@QAE@ABV?$allocator@D@1@@Z 10066730 f   config_system.obj
 0001:00065730       __ehhandler$??$?0U?$default_delete@V_Facet_base@std@@@std@@$0A@@?$unique_ptr@V_Facet_base@std@@U?$default_delete@V_Facet_base@std@@@2@@std@@QAE@PAV_Facet_base@1@@Z 10066730 f   config_system.obj
 0001:00065730       __ehhandler$??0?$basic_string@DU?$char_traits@D@std@@V?$allocator@D@2@@std@@QAE@XZ 10066730 f   config_system.obj
 0001:00065730       __ehhandler$??1?$_Deque_alloc@U?$_Deque_base_types@UPlayerRecords@@V?$allocator@UPlayerRecords@@@std@@@std@@@std@@QAE@XZ 10066730 f   LagComp.obj
 0001:00065730       __ehhandler$??1?$basic_string@DU?$char_traits@D@std@@V?$allocator@D@2@@std@@QAE@XZ 10066730 f   animation_system.obj
 0001:00065730       __ehhandler$?c_str@?$basic_string@DU?$char_traits@D@std@@V?$allocator@D@2@@std@@QBEPBDXZ 10066730 f   animation_system.obj
 0001:00065730       __ehhandler$??1?$_Uninitialized_backout_al@PAV?$basic_string@DU?$char_traits@D@std@@V?$allocator@D@2@@std@@V?$allocator@V?$basic_string@DU?$char_traits@D@std@@V?$allocator@D@2@@std@@@2@@std@@QAE@XZ 10066730 f   config_system.obj
 0001:00065730       __ehhandler$??1?$deque@UPlayerRecords@@V?$allocator@UPlayerRecords@@@std@@@std@@QAE@XZ 10066730 f   LagComp.obj
 0001:00065730       __ehhandler$??$?0U?$default_delete@VNetvarTree@@@std@@$0A@@?$unique_ptr@VNetvarTree@@U?$default_delete@VNetvarTree@@@std@@@std@@QAE@PAVNetvarTree@@@Z 10066730 f   c_hooks.obj
 0001:00065730       __ehhandler$??0?$vector@HV?$allocator@H@std@@@std@@QAE@XZ 10066730 f   animation_system.obj
 0001:00065730       __ehhandler$??$?0U?$default_delete@VVMTHook@@@std@@$0A@@?$unique_ptr@VVMTHook@@U?$default_delete@VVMTHook@@@std@@@std@@QAE@PAVVMTHook@@@Z 10066730 f   c_hooks.obj
 0001:00065730       __ehhandler$??1?$vector@V?$basic_string@DU?$char_traits@D@std@@V?$allocator@D@2@@std@@V?$allocator@V?$basic_string@DU?$char_traits@D@std@@V?$allocator@D@2@@std@@@2@@std@@QAE@XZ 10066730 f   config_system.obj
 0001:00065730       __ehhandler$?data@?$basic_string@_WU?$char_traits@_W@std@@V?$allocator@_W@2@@std@@QBEPB_WXZ 10066730 f   config_system.obj
 0001:00065730       __ehhandler$??0?$shared_ptr@U_Dir_enum_impl@filesystem@std@@@std@@QAE@$$QAV01@@Z 10066730 f   config_system.obj
 0001:00065730       __ehhandler$??0?$shared_ptr@U_Dir_enum_impl@filesystem@std@@@std@@QAE@ABV01@@Z 10066730 f   config_system.obj
 0001:00065730       __ehhandler$??$?0U?$default_delete@VShadowVTManager@@@std@@$0A@@?$unique_ptr@VShadowVTManager@@U?$default_delete@VShadowVTManager@@@std@@@std@@QAE@PAVShadowVTManager@@@Z 10066730 f   bone_processing_hook.obj
 0001:00065730       __ehhandler$??$?0U?$default_delete@$$BY0A@I@std@@$0A@@?$unique_ptr@$$BY0A@IU?$default_delete@$$BY0A@I@std@@@std@@QAE@$$T@Z 10066730 f   c_hooks.obj
 0001:00065730       __ehhandler$??1?$unique_ptr@$$BY0A@IU?$default_delete@$$BY0A@I@std@@@std@@QAE@XZ 10066730 f   c_hooks.obj
 0001:00065730       __ehhandler$??1c_hooks@@QAE@XZ 10066730 f   c_hooks.obj
 0001:00065730       __ehhandler$??0c_hooks@@QAE@XZ 10066730 f   c_hooks.obj
 0001:00065730       __ehhandler$??$?0U?$default_delete@VShadowVTManager@@@std@@$0A@@?$unique_ptr@VShadowVTManager@@U?$default_delete@VShadowVTManager@@@std@@@std@@QAE@XZ 10066730 f   c_hooks.obj
 0001:00065730       __ehhandler$??$?0U?$default_delete@VVMTHook@@@std@@$0A@@?$unique_ptr@VVMTHook@@U?$default_delete@VVMTHook@@@std@@@std@@QAE@XZ 10066730 f   c_hooks.obj
 0001:00065730       __ehhandler$??1?$vector@V?$_List_unchecked_iterator@V?$_List_val@U?$_List_simple_types@U?$pair@$$CBV?$basic_string@DU?$char_traits@D@std@@V?$allocator@D@2@@std@@V?$shared_ptr@UNode@NetvarTree@@@2@@std@@@std@@@std@@@std@@V?$allocator@V?$_List_unchecked_iterator@V?$_List_val@U?$_List_simple_types@U?$pair@$$CBV?$basic_string@DU?$char_traits@D@std@@V?$allocator@D@2@@std@@V?$shared_ptr@UNode@NetvarTree@@@2@@std@@@std@@@std@@@std@@@2@@std@@QAE@XZ 10066730 f   c_hooks.obj
 0001:00065730       __ehhandler$??1?$list@U?$pair@$$CBV?$basic_string@DU?$char_traits@D@std@@V?$allocator@D@2@@std@@V?$shared_ptr@UNode@NetvarTree@@@2@@std@@V?$allocator@U?$pair@$$CBV?$basic_string@DU?$char_traits@D@std@@V?$allocator@D@2@@std@@V?$shared_ptr@UNode@NetvarTree@@@2@@std@@@2@@std@@QAE@XZ 10066730 f   c_hooks.obj
 0001:00065730       __ehhandler$??1?$_List_alloc@U?$_List_base_types@U?$pair@$$CBV?$basic_string@DU?$char_traits@D@std@@V?$allocator@D@2@@std@@V?$shared_ptr@UNode@NetvarTree@@@2@@std@@V?$allocator@U?$pair@$$CBV?$basic_string@DU?$char_traits@D@std@@V?$allocator@D@2@@std@@V?$shared_ptr@UNode@NetvarTree@@@2@@std@@@2@@std@@@std@@QAE@XZ 10066730 f   c_hooks.obj
 0001:00065730       __ehhandler$??1?$_Deque_alloc@U?$_Deque_base_types@ULegitPlayerRecords@@V?$allocator@ULegitPlayerRecords@@@std@@@std@@@std@@QAE@XZ 10066730 f   Legitbot.obj
 0001:00065730       __ehhandler$??1?$deque@ULegitPlayerRecords@@V?$allocator@ULegitPlayerRecords@@@std@@@std@@QAE@XZ 10066730 f   Legitbot.obj
 0001:00065730       __ehhandler$??1LagComp@@QAE@XZ 10066730 f   LagComp.obj
 0001:00065730       __ehhandler$??1Legitbot@@QAE@XZ 10066730 f   Legitbot.obj
 0001:00065730       __ehhandler$??1?$_Uninitialized_backout_al@PAV?$_List_unchecked_iterator@V?$_List_val@U?$_List_simple_types@U?$pair@$$CBV?$basic_string@DU?$char_traits@D@std@@V?$allocator@D@2@@std@@V?$shared_ptr@UNode@NetvarTree@@@2@@std@@@std@@@std@@@std@@V?$allocator@V?$_List_unchecked_iterator@V?$_List_val@U?$_List_simple_types@U?$pair@$$CBV?$basic_string@DU?$char_traits@D@std@@V?$allocator@D@2@@std@@V?$shared_ptr@UNode@NetvarTree@@@2@@std@@@std@@@std@@@std@@@2@@std@@QAE@XZ 10066730 f   animation_system.obj
 0001:00065730       __ehhandler$?c_str@?$basic_string@_WU?$char_traits@_W@std@@V?$allocator@_W@2@@std@@QBEPB_WXZ 10066730 f   config_system.obj
 0001:00065730       __ehhandler$?_Skip_dots@_Dir_enum_impl@filesystem@std@@SA?AW4__std_win_error@@W4__std_fs_dir_handle@@AAU__std_fs_find_data@@@Z 10066730 f   config_system.obj
 0001:00065730       __ehhandler$??$_Freenode0@V?$allocator@U?$_List_node@U?$pair@$$CBV?$basic_string@DU?$char_traits@D@std@@V?$allocator@D@2@@std@@V?$shared_ptr@UNode@NetvarTree@@@2@@std@@PAX@std@@@std@@@?$_List_node@U?$pair@$$CBV?$basic_string@DU?$char_traits@D@std@@V?$allocator@D@2@@std@@V?$shared_ptr@UNode@NetvarTree@@@2@@std@@PAX@std@@SAXAAV?$allocator@U?$_List_node@U?$pair@$$CBV?$basic_string@DU?$char_traits@D@std@@V?$allocator@D@2@@std@@V?$shared_ptr@UNode@NetvarTree@@@2@@std@@PAX@std@@@1@PAU01@@Z 10066730 f   animation_system.obj
 0001:00065730       __ehhandler$??0?$vector@V?$basic_string@DU?$char_traits@D@std@@V?$allocator@D@2@@std@@V?$allocator@V?$basic_string@DU?$char_traits@D@std@@V?$allocator@D@2@@std@@@2@@std@@QAE@XZ 10066730 f   config_system.obj
 0001:00065730       __ehhandler$??$?0U?$default_delete@VNetvarTree@@@std@@$0A@@?$unique_ptr@VNetvarTree@@U?$default_delete@VNetvarTree@@@std@@@std@@QAE@XZ 10066730 f   NetvarManager.obj
 0001:00065730       __ehhandler$??0?$shared_ptr@UNode@NetvarTree@@@std@@QAE@$$QAV01@@Z 10066730 f   NetvarManager.obj
 0001:00065730       __ehhandler$??0?$shared_ptr@UNode@NetvarTree@@@std@@QAE@ABV01@@Z 10066730 f   NetvarManager.obj
 0001:00065730       __ehhandler$??1?$basic_string@_WU?$char_traits@_W@std@@V?$allocator@_W@2@@std@@QAE@XZ 10066730 f   config_system.obj
 0001:00065730       __ehhandler$??$?0PAIU?$default_delete@$$BY0A@I@std@@$0A@X@?$unique_ptr@$$BY0A@IU?$default_delete@$$BY0A@I@std@@@std@@QAE@PAI@Z 10066730 f   c_hooks.obj
 0001:00065730       __ehhandler$??0?$basic_string@_WU?$char_traits@_W@std@@V?$allocator@_W@2@@std@@QAE@XZ 10066730 f   config_system.obj
 0001:00065730       __ehhandler$?data@?$basic_string@_WU?$char_traits@_W@std@@V?$allocator@_W@2@@std@@QAEPA_WXZ 10066730 f   config_system.obj
 0001:00065730       __ehhandler$??1?$ImVector@Ustbrp_rect@@@@QAE@XZ 10066730 f   imgui_draw.obj
 0001:00065730       __ehhandler$??0?$vector@V?$_List_unchecked_iterator@V?$_List_val@U?$_List_simple_types@U?$pair@$$CBV?$basic_string@DU?$char_traits@D@std@@V?$allocator@D@2@@std@@V?$shared_ptr@UNode@NetvarTree@@@2@@std@@@std@@@std@@@std@@V?$allocator@V?$_List_unchecked_iterator@V?$_List_val@U?$_List_simple_types@U?$pair@$$CBV?$basic_string@DU?$char_traits@D@std@@V?$allocator@D@2@@std@@V?$shared_ptr@UNode@NetvarTree@@@2@@std@@@std@@@std@@@std@@@2@@std@@QAE@ABV?$allocator@V?$_List_unchecked_iterator@V?$_List_val@U?$_List_simple_types@U?$pair@$$CBV?$basic_string@DU?$char_traits@D@std@@V?$allocator@D@2@@std@@V?$shared_ptr@UNode@NetvarTree@@@2@@std@@@std@@@std@@@std@@@1@@Z 10066730 f   NetvarManager.obj
 0001:00065730       __ehhandler$??1?$ImVector@I@@QAE@XZ 10066730 f   imgui.obj
 0001:00065730       __ehhandler$??1?$ImVector@UImGuiColumnData@@@@QAE@XZ 10066730 f   imgui.obj
 0001:00065730       __ehhandler$??1?$ImVector@UImGuiGroupData@@@@QAE@XZ 10066730 f   imgui.obj
 0001:00065730       __ehhandler$??1?$ImVector@_N@@QAE@XZ 10066730 f   imgui.obj
 0001:00065730       __ehhandler$??1ImGuiContext@@QAE@XZ 10066730 f   imgui.obj
 0001:00065730       __ehhandler$??1?$ImVector@PAUImDrawList@@@@QAE@XZ 10066730 f   imgui.obj
 0001:00065730       __ehhandler$??1?$ImVector@UImGuiPopupRef@@@@QAE@XZ 10066730 f   imgui.obj
 0001:00065730       __ehhandler$??1?$ImVector@UImGuiStyleMod@@@@QAE@XZ 10066730 f   imgui.obj
 0001:00065730       __ehhandler$??1?$ImVector@UImGuiColMod@@@@QAE@XZ 10066730 f   imgui.obj
 0001:00065730       __ehhandler$??1?$ImVector@UImGuiIniData@@@@QAE@XZ 10066730 f   imgui.obj
 0001:00065730       __ehhandler$??1?$ImVector@PAUImGuiWindow@@@@QAE@XZ 10066730 f   imgui.obj
 0001:00065730       __ehhandler$??1?$ImVector@M@@QAE@XZ 10066730 f   imgui.obj
 0001:00065730       __ehhandler$??1?$ImVector@PAUImFont@@@@QAE@XZ 10066730 f   imgui.obj
 0001:00065730       __ehhandler$??1ImDrawList@@QAE@XZ 10066730 f   imgui.obj
 0001:00065730       __ehhandler$??1?$ImVector@UImDrawChannel@@@@QAE@XZ 10066730 f   imgui.obj
 0001:00065730       __ehhandler$??1?$ImVector@UImVec2@@@@QAE@XZ 10066730 f   imgui.obj
 0001:00065730       __ehhandler$??1?$ImVector@PAX@@QAE@XZ 10066730 f   imgui.obj
 0001:00065730       __ehhandler$??1?$ImVector@UImVec4@@@@QAE@XZ 10066730 f   imgui.obj
 0001:00065730       __ehhandler$??1?$ImVector@UImDrawVert@@@@QAE@XZ 10066730 f   imgui.obj
 0001:00065730       __ehhandler$??1?$ImVector@G@@QAE@XZ 10066730 f   imgui.obj
 0001:00065730       __ehhandler$??1?$ImVector@UImDrawCmd@@@@QAE@XZ 10066730 f   imgui.obj
 0001:00065730       __ehhandler$??1?$ImVector@UPair@ImGuiStorage@@@@QAE@XZ 10066730 f   imgui.obj
 0001:00065730       __ehhandler$??1?$ImVector@D@@QAE@XZ 10066730 f   imgui.obj
 0001:00065730       __ehhandler$??1ImFont@@QAE@XZ 10066730 f   imgui_draw.obj
 0001:00065730       __ehhandler$??1?$ImVector@UGlyph@ImFont@@@@QAE@XZ 10066730 f   imgui_draw.obj
 0001:00065730       __ehhandler$??1?$ImVector@UImFontConfig@@@@QAE@XZ 10066730 f   imgui_draw.obj
 0001:00065730       __ehhandler$??1?$ImVector@UCustomRect@ImFontAtlas@@@@QAE@XZ 10066730 f   imgui_draw.obj
 0001:00065730       __ehhandler$??1?$shared_ptr@UNode@NetvarTree@@@std@@QAE@XZ 10066730 f   animation_system.obj
 0001:00065730       __ehhandler$??1ImFontAtlas@@QAE@XZ 10066730 f   imgui_draw.obj
 0001:00065730       __ehhandler$??1sentry@?$basic_ostream@DU?$char_traits@D@std@@@std@@QAE@XZ 10066730 f   Interfaces.obj
 0001:00065730       __ehhandler$??1?$shared_ptr@U_Dir_enum_impl@filesystem@std@@@std@@QAE@XZ 10066730 f   config_system.obj
 0001:00065730       __ehhandler$??1?$vector@HV?$allocator@H@std@@@std@@QAE@XZ 10066730 f   animation_system.obj
 0001:00065730       __ehhandler$?data@?$vector@HV?$allocator@H@std@@@std@@QAEPAHXZ 10066730 f   animation_system.obj
 0001:00065750       __ehhandler$??$_Insert@AAU?$pair@$$CBV?$basic_string@DU?$char_traits@D@std@@V?$allocator@D@2@@std@@V?$shared_ptr@UNode@NetvarTree@@@2@@std@@V?$_List_unchecked_iterator@V?$_List_val@U?$_List_simple_types@U?$pair@$$CBV?$basic_string@DU?$char_traits@D@std@@V?$allocator@D@2@@std@@V?$shared_ptr@UNode@NetvarTree@@@2@@std@@@std@@@std@@@2@@?$_Hash@V?$_Umap_traits@V?$basic_string@DU?$char_traits@D@std@@V?$allocator@D@2@@std@@V?$shared_ptr@UNode@NetvarTree@@@2@V?$_Uhash_compare@V?$basic_string@DU?$char_traits@D@std@@V?$allocator@D@2@@std@@U?$hash@V?$basic_string@DU?$char_traits@D@std@@V?$allocator@D@2@@std@@@2@U?$equal_to@V?$basic_string@DU?$char_traits@D@std@@V?$allocator@D@2@@std@@@2@@2@V?$allocator@U?$pair@$$CBV?$basic_string@DU?$char_traits@D@std@@V?$allocator@D@2@@std@@V?$shared_ptr@UNode@NetvarTree@@@2@@std@@@2@$0A@@std@@@std@@IAE?AU?$pair@V?$_List_iterator@V?$_List_val@U?$_List_simple_types@U?$pair@$$CBV?$basic_string@DU?$char_traits@D@std@@V?$allocator@D@2@@std@@V?$shared_ptr@UNode@NetvarTree@@@2@@std@@@std@@@std@@@std@@_N@1@AAU?$pair@$$CBV?$basic_string@DU?$char_traits@D@std@@V?$allocator@D@2@@std@@V?$shared_ptr@UNode@NetvarTree@@@2@@1@V?$_List_unchecked_iterator@V?$_List_val@U?$_List_simple_types@U?$pair@$$CBV?$basic_string@DU?$char_traits@D@std@@V?$allocator@D@2@@std@@V?$shared_ptr@UNode@NetvarTree@@@2@@std@@@std@@@std@@@1@@Z 10066750 f   animation_system.obj
 0001:00065770       __unwindfunclet$??$_Uninitialized_move_al_unchecked@PAV?$_List_unchecked_iterator@V?$_List_val@U?$_List_simple_types@U?$pair@$$CBV?$basic_string@DU?$char_traits@D@std@@V?$allocator@D@2@@std@@V?$shared_ptr@UNode@NetvarTree@@@2@@std@@@std@@@std@@@std@@PAV12@V?$allocator@V?$_List_unchecked_iterator@V?$_List_val@U?$_List_simple_types@U?$pair@$$CBV?$basic_string@DU?$char_traits@D@std@@V?$allocator@D@2@@std@@V?$shared_ptr@UNode@NetvarTree@@@2@@std@@@std@@@std@@@std@@@2@@std@@YAPAV?$_List_unchecked_iterator@V?$_List_val@U?$_List_simple_types@U?$pair@$$CBV?$basic_string@DU?$char_traits@D@std@@V?$allocator@D@2@@std@@V?$shared_ptr@UNode@NetvarTree@@@2@@std@@@std@@@std@@@0@PAV10@QAV10@1AAV?$allocator@V?$_List_unchecked_iterator@V?$_List_val@U?$_List_simple_types@U?$pair@$$CBV?$basic_string@DU?$char_traits@D@std@@V?$allocator@D@2@@std@@V?$shared_ptr@UNode@NetvarTree@@@2@@std@@@std@@@std@@@std@@@0@U_General_ptr_iterator_tag@0@U_Unused_parameter@0@@Z$0 10066770 f   animation_system.obj
 0001:00065770       __unwindfunclet$??$_Uninit_alloc_fill_n1@PAV?$_List_unchecked_iterator@V?$_List_val@U?$_List_simple_types@U?$pair@$$CBV?$basic_string@DU?$char_traits@D@std@@V?$allocator@D@2@@std@@V?$shared_ptr@UNode@NetvarTree@@@2@@std@@@std@@@std@@@std@@IV?$allocator@V?$_List_unchecked_iterator@V?$_List_val@U?$_List_simple_types@U?$pair@$$CBV?$basic_string@DU?$char_traits@D@std@@V?$allocator@D@2@@std@@V?$shared_ptr@UNode@NetvarTree@@@2@@std@@@std@@@std@@@std@@@2@@std@@YAPAV?$_List_unchecked_iterator@V?$_List_val@U?$_List_simple_types@U?$pair@$$CBV?$basic_string@DU?$char_traits@D@std@@V?$allocator@D@2@@std@@V?$shared_ptr@UNode@NetvarTree@@@2@@std@@@std@@@std@@@0@QAV10@IABV10@AAV?$allocator@V?$_List_unchecked_iterator@V?$_List_val@U?$_List_simple_types@U?$pair@$$CBV?$basic_string@DU?$char_traits@D@std@@V?$allocator@D@2@@std@@V?$shared_ptr@UNode@NetvarTree@@@2@@std@@@std@@@std@@@std@@@0@U?$integral_constant@_N$0A@@0@@Z$0 10066770 f   animation_system.obj
 0001:00065778       __ehhandler$??$_Uninitialized_move_al_unchecked@PAV?$_List_unchecked_iterator@V?$_List_val@U?$_List_simple_types@U?$pair@$$CBV?$basic_string@DU?$char_traits@D@std@@V?$allocator@D@2@@std@@V?$shared_ptr@UNode@NetvarTree@@@2@@std@@@std@@@std@@@std@@PAV12@V?$allocator@V?$_List_unchecked_iterator@V?$_List_val@U?$_List_simple_types@U?$pair@$$CBV?$basic_string@DU?$char_traits@D@std@@V?$allocator@D@2@@std@@V?$shared_ptr@UNode@NetvarTree@@@2@@std@@@std@@@std@@@std@@@2@@std@@YAPAV?$_List_unchecked_iterator@V?$_List_val@U?$_List_simple_types@U?$pair@$$CBV?$basic_string@DU?$char_traits@D@std@@V?$allocator@D@2@@std@@V?$shared_ptr@UNode@NetvarTree@@@2@@std@@@std@@@std@@@0@PAV10@QAV10@1AAV?$allocator@V?$_List_unchecked_iterator@V?$_List_val@U?$_List_simple_types@U?$pair@$$CBV?$basic_string@DU?$char_traits@D@std@@V?$allocator@D@2@@std@@V?$shared_ptr@UNode@NetvarTree@@@2@@std@@@std@@@std@@@std@@@0@U_General_ptr_iterator_tag@0@U_Unused_parameter@0@@Z 10066778 f   animation_system.obj
 0001:00065778       __ehhandler$??$_Uninit_alloc_fill_n1@PAV?$_List_unchecked_iterator@V?$_List_val@U?$_List_simple_types@U?$pair@$$CBV?$basic_string@DU?$char_traits@D@std@@V?$allocator@D@2@@std@@V?$shared_ptr@UNode@NetvarTree@@@2@@std@@@std@@@std@@@std@@IV?$allocator@V?$_List_unchecked_iterator@V?$_List_val@U?$_List_simple_types@U?$pair@$$CBV?$basic_string@DU?$char_traits@D@std@@V?$allocator@D@2@@std@@V?$shared_ptr@UNode@NetvarTree@@@2@@std@@@std@@@std@@@std@@@2@@std@@YAPAV?$_List_unchecked_iterator@V?$_List_val@U?$_List_simple_types@U?$pair@$$CBV?$basic_string@DU?$char_traits@D@std@@V?$allocator@D@2@@std@@V?$shared_ptr@UNode@NetvarTree@@@2@@std@@@std@@@std@@@0@QAV10@IABV10@AAV?$allocator@V?$_List_unchecked_iterator@V?$_List_val@U?$_List_simple_types@U?$pair@$$CBV?$basic_string@DU?$char_traits@D@std@@V?$allocator@D@2@@std@@V?$shared_ptr@UNode@NetvarTree@@@2@@std@@@std@@@std@@@std@@@0@U?$integral_constant@_N$0A@@0@@Z 10066778 f   animation_system.obj
 0001:000657a0       __unwindfunclet$??0?$basic_string@DU?$char_traits@D@std@@V?$allocator@D@2@@std@@QAE@QBD@Z$0 100667a0 f   animation_system.obj
 0001:000657a0       __unwindfunclet$??0?$basic_string@DU?$char_traits@D@std@@V?$allocator@D@2@@std@@QAE@ID@Z$0 100667a0 f   config_system.obj
 0001:000657a0       __unwindfunclet$??$?0V?$basic_string_view@_WU?$char_traits@_W@std@@@std@@X@?$basic_string@_WU?$char_traits@_W@std@@V?$allocator@_W@2@@std@@QAE@ABV?$basic_string_view@_WU?$char_traits@_W@std@@@1@ABV?$allocator@_W@1@@Z$0 100667a0 f   config_system.obj
 0001:000657a8       __ehhandler$??0?$basic_string@DU?$char_traits@D@std@@V?$allocator@D@2@@std@@QAE@ID@Z 100667a8 f   config_system.obj
 0001:000657a8       __ehhandler$??0?$basic_string@DU?$char_traits@D@std@@V?$allocator@D@2@@std@@QAE@QBD@Z 100667a8 f   animation_system.obj
 0001:000657a8       __ehhandler$??$?0V?$basic_string_view@_WU?$char_traits@_W@std@@@std@@X@?$basic_string@_WU?$char_traits@_W@std@@V?$allocator@_W@2@@std@@QAE@ABV?$basic_string_view@_WU?$char_traits@_W@std@@@1@ABV?$allocator@_W@1@@Z 100667a8 f   config_system.obj
 0001:000657d0       __unwindfunclet$??R<lambda_90060b9e869af971fde551ed84c55648>@@QBE?AV?$vector@HV?$allocator@H@std@@@std@@PBD@Z$0 100667d0 f   animation_system.obj
 0001:000657d8       __ehhandler$??R<lambda_90060b9e869af971fde551ed84c55648>@@QBE?AV?$vector@HV?$allocator@H@std@@@std@@PBD@Z 100667d8 f   animation_system.obj
 0001:00065800       __unwindfunclet$?GetHealth@C_BaseEntity@@QAEHXZ$0 10066800 f   animation_system.obj
 0001:0006580c       __ehhandler$?GetHealth@C_BaseEntity@@QAEHXZ 1006680c f   animation_system.obj
 0001:00065830       __unwindfunclet$?GetLifeState@C_BaseEntity@@QAE_NXZ$0 10066830 f   animation_system.obj
 0001:0006583c       __ehhandler$?GetLifeState@C_BaseEntity@@QAE_NXZ 1006683c f   animation_system.obj
 0001:00065860       __unwindfunclet$??0system_error@std@@QAE@Verror_code@1@@Z$0 10066860 f   config_system.obj
 0001:00065860       __unwindfunclet$?GetOffsetRecursive@NetvarTree@@CAHAAV?$unordered_map@V?$basic_string@DU?$char_traits@D@std@@V?$allocator@D@2@@std@@V?$shared_ptr@UNode@NetvarTree@@@2@U?$hash@V?$basic_string@DU?$char_traits@D@std@@V?$allocator@D@2@@std@@@2@U?$equal_to@V?$basic_string@DU?$char_traits@D@std@@V?$allocator@D@2@@std@@@2@V?$allocator@U?$pair@$$CBV?$basic_string@DU?$char_traits@D@std@@V?$allocator@D@2@@std@@V?$shared_ptr@UNode@NetvarTree@@@2@@std@@@2@@std@@HPBD@Z$0 10066860 f   animation_system.obj
 0001:00065868       __ehhandler$?GetOffsetRecursive@NetvarTree@@CAHAAV?$unordered_map@V?$basic_string@DU?$char_traits@D@std@@V?$allocator@D@2@@std@@V?$shared_ptr@UNode@NetvarTree@@@2@U?$hash@V?$basic_string@DU?$char_traits@D@std@@V?$allocator@D@2@@std@@@2@U?$equal_to@V?$basic_string@DU?$char_traits@D@std@@V?$allocator@D@2@@std@@@2@V?$allocator@U?$pair@$$CBV?$basic_string@DU?$char_traits@D@std@@V?$allocator@D@2@@std@@V?$shared_ptr@UNode@NetvarTree@@@2@@std@@@2@@std@@HPBD@Z 10066868 f   animation_system.obj
 0001:00065868       __ehhandler$??0system_error@std@@QAE@Verror_code@1@@Z 10066868 f   config_system.obj
 0001:00065890       __unwindfunclet$?GetOrigin@C_BaseEntity@@QAE?AVVector@@XZ$0 10066890 f   animation_system.obj
 0001:0006589c       __ehhandler$?GetOrigin@C_BaseEntity@@QAE?AVVector@@XZ 1006689c f   animation_system.obj
 0001:000658c0       __unwindfunclet$?GetSimulationTime@C_BaseEntity@@QAEMXZ$0 100668c0 f   animation_system.obj
 0001:000658cc       __ehhandler$?GetSimulationTime@C_BaseEntity@@QAEMXZ 100668cc f   animation_system.obj
 0001:000658f0       __unwindfunclet$?GetVelocity@C_BaseEntity@@QAE?AVVector@@XZ$0 100668f0 f   animation_system.obj
 0001:000658fc       __ehhandler$?GetVelocity@C_BaseEntity@@QAE?AVVector@@XZ 100668fc f   animation_system.obj
 0001:00065920       __unwindfunclet$?LocalAnimFix@animations_system@@QAEXPAVC_BaseEntity@@@Z$0 10066920 f   animation_system.obj
 0001:0006592c       __unwindfunclet$?LocalAnimFix@animations_system@@QAEXPAVC_BaseEntity@@@Z$1 1006692c f   animation_system.obj
 0001:00065938       __ehhandler$?LocalAnimFix@animations_system@@QAEXPAVC_BaseEntity@@@Z 10066938 f   animation_system.obj
 0001:00065960       __unwindfunclet$?UpdateAnimationState@C_BaseEntity@@QAEXPAVCBasePlayerAnimState@@VVector@@@Z$0 10066960 f   animation_system.obj
 0001:0006596c       __ehhandler$?UpdateAnimationState@C_BaseEntity@@QAEXPAVCBasePlayerAnimState@@VVector@@@Z 1006696c f   animation_system.obj
 0001:00065990       __ehhandler$?end@?$deque@UPlayerRecords@@V?$allocator@UPlayerRecords@@@std@@@std@@QAE?AV?$_Deque_iterator@V?$_Deque_val@U?$_Deque_simple_types@UPlayerRecords@@@std@@@std@@@2@XZ 10066990 f   LagComp.obj
 0001:00065990       __ehhandler$?now@system_clock@chrono@std@@SA?AV?$time_point@Usystem_clock@chrono@std@@V?$duration@_JU?$ratio@$00$0JIJGIA@@std@@@23@@23@XZ 10066990 f   dll_main.obj
 0001:00065990       __ehhandler$??B?$basic_string@_WU?$char_traits@_W@std@@V?$allocator@_W@2@@std@@QBE?AV?$basic_string_view@_WU?$char_traits@_W@std@@@1@XZ 10066990 f   config_system.obj
 0001:00065990       __ehhandler$?_Assign_rv_contents_with_alloc_always_equal@?$basic_string@_WU?$char_traits@_W@std@@V?$allocator@_W@2@@std@@QAEX$$QAV12@U?$integral_constant@_N$00@2@@Z 10066990 f   config_system.obj
 0001:00065990       __ehhandler$?_Assign_rv_contents_with_alloc_always_equal@?$basic_string@DU?$char_traits@D@std@@V?$allocator@D@2@@std@@QAEX$$QAV12@U?$integral_constant@_N$00@2@@Z 10066990 f   animation_system.obj
 0001:00065990       __ehhandler$?_Move_from@?$vector@HV?$allocator@H@std@@@std@@AAEX$$QAV12@U?$integral_constant@_N$00@2@@Z 10066990 f   animation_system.obj
 0001:00065990       __ehhandler$??1_Sentry_base@?$basic_ostream@DU?$char_traits@D@std@@@std@@QAE@XZ 10066990 f   Interfaces.obj
 0001:00065990       __ehhandler$?end@?$deque@ULegitPlayerRecords@@V?$allocator@ULegitPlayerRecords@@@std@@@std@@QAE?AV?$_Deque_iterator@V?$_Deque_val@U?$_Deque_simple_types@ULegitPlayerRecords@@@std@@@std@@@2@XZ 10066990 f   Legitbot.obj
 0001:000659b0       __ehhandler$?_Buynode0@?$_List_alloc@U?$_List_base_types@U?$pair@$$CBV?$basic_string@DU?$char_traits@D@std@@V?$allocator@D@2@@std@@V?$shared_ptr@UNode@NetvarTree@@@2@@std@@V?$allocator@U?$pair@$$CBV?$basic_string@DU?$char_traits@D@std@@V?$allocator@D@2@@std@@V?$shared_ptr@UNode@NetvarTree@@@2@@std@@@2@@std@@@std@@QAEPAU?$_List_node@U?$pair@$$CBV?$basic_string@DU?$char_traits@D@std@@V?$allocator@D@2@@std@@V?$shared_ptr@UNode@NetvarTree@@@2@@std@@PAX@2@PAU32@0@Z 100669b0 f   animation_system.obj
 0001:000659d0       __ehhandler$?_Equal@?$basic_string@DU?$char_traits@D@std@@V?$allocator@D@2@@std@@QBE_NABV12@@Z 100669d0 f   animation_system.obj
 0001:000659f0       __ehhandler$?_Reallocate_exactly@?$vector@V?$_List_unchecked_iterator@V?$_List_val@U?$_List_simple_types@U?$pair@$$CBV?$basic_string@DU?$char_traits@D@std@@V?$allocator@D@2@@std@@V?$shared_ptr@UNode@NetvarTree@@@2@@std@@@std@@@std@@@std@@V?$allocator@V?$_List_unchecked_iterator@V?$_List_val@U?$_List_simple_types@U?$pair@$$CBV?$basic_string@DU?$char_traits@D@std@@V?$allocator@D@2@@std@@V?$shared_ptr@UNode@NetvarTree@@@2@@std@@@std@@@std@@@std@@@2@@std@@AAEXI@Z 100669f0 f   animation_system.obj
 0001:00065a10       __unwindfunclet$?m_flPoseParameter@C_BaseEntity@@QAEAAV?$array@M$0BI@@std@@XZ$0 10066a10 f   animation_system.obj
 0001:00065a1c       __ehhandler$?m_flPoseParameter@C_BaseEntity@@QAEAAV?$array@M$0BI@@std@@XZ 10066a1c f   animation_system.obj
 0001:00065a40       __unwindfunclet$?GetFlags@C_BaseEntity@@QAE?AW4EntityFlags@@XZ$0 10066a40 f   exploits.obj
 0001:00065a4c       __ehhandler$?GetFlags@C_BaseEntity@@QAE?AW4EntityFlags@@XZ 10066a4c f   exploits.obj
 0001:00065a70       __unwindfunclet$??$make_unique@VNetvarTree@@$$V$0A@@std@@YA?AV?$unique_ptr@VNetvarTree@@U?$default_delete@VNetvarTree@@@std@@@0@XZ$0 10066a70 f   c_hooks.obj
 0001:00065a7f       __ehhandler$??$make_unique@VNetvarTree@@$$V$0A@@std@@YA?AV?$unique_ptr@VNetvarTree@@U?$default_delete@VNetvarTree@@@std@@@0@XZ 10066a7f f   c_hooks.obj
 0001:00065aa0       __unwindfunclet$??$make_unique@VVMTHook@@PAPAK$0A@@std@@YA?AV?$unique_ptr@VVMTHook@@U?$default_delete@VVMTHook@@@std@@@0@$$QAPAPAK@Z$0 10066aa0 f   c_hooks.obj
 0001:00065aa0       __unwindfunclet$??$make_unique@VVMTHook@@AAPAVIClientMode@@$0A@@std@@YA?AV?$unique_ptr@VVMTHook@@U?$default_delete@VVMTHook@@@std@@@0@AAPAVIClientMode@@@Z$0 10066aa0 f   c_hooks.obj
 0001:00065aa0       __unwindfunclet$??$make_unique@VVMTHook@@AAPAVIPanel@@$0A@@std@@YA?AV?$unique_ptr@VVMTHook@@U?$default_delete@VVMTHook@@@std@@@0@AAPAVIPanel@@@Z$0 10066aa0 f   c_hooks.obj
 0001:00065aa0       __unwindfunclet$??$make_unique@VVMTHook@@AAPAVISurface@@$0A@@std@@YA?AV?$unique_ptr@VVMTHook@@U?$default_delete@VVMTHook@@@std@@@0@AAPAVISurface@@@Z$0 10066aa0 f   c_hooks.obj
 0001:00065aa0       __unwindfunclet$??$make_unique@VVMTHook@@AAPAVIBaseClientDLL@@$0A@@std@@YA?AV?$unique_ptr@VVMTHook@@U?$default_delete@VVMTHook@@@std@@@0@AAPAVIBaseClientDLL@@@Z$0 10066aa0 f   c_hooks.obj
 0001:00065aa0       __unwindfunclet$??$make_unique@VVMTHook@@AAPAVCModelRender@@$0A@@std@@YA?AV?$unique_ptr@VVMTHook@@U?$default_delete@VVMTHook@@@std@@@0@AAPAVCModelRender@@@Z$0 10066aa0 f   c_hooks.obj
 0001:00065aa0       __unwindfunclet$??$make_unique@VVMTHook@@AAPAVIVRenderView@@$0A@@std@@YA?AV?$unique_ptr@VVMTHook@@U?$default_delete@VVMTHook@@@std@@@0@AAPAVIVRenderView@@@Z$0 10066aa0 f   c_hooks.obj
 0001:00065aaf       __ehhandler$??$make_unique@VVMTHook@@AAPAVCModelRender@@$0A@@std@@YA?AV?$unique_ptr@VVMTHook@@U?$default_delete@VVMTHook@@@std@@@0@AAPAVCModelRender@@@Z 10066aaf f   c_hooks.obj
 0001:00065aaf       __ehhandler$??$make_unique@VVMTHook@@AAPAVIClientMode@@$0A@@std@@YA?AV?$unique_ptr@VVMTHook@@U?$default_delete@VVMTHook@@@std@@@0@AAPAVIClientMode@@@Z 10066aaf f   c_hooks.obj
 0001:00065aaf       __ehhandler$??$make_unique@VVMTHook@@AAPAVIVRenderView@@$0A@@std@@YA?AV?$unique_ptr@VVMTHook@@U?$default_delete@VVMTHook@@@std@@@0@AAPAVIVRenderView@@@Z 10066aaf f   c_hooks.obj
 0001:00065aaf       __ehhandler$??$make_unique@VVMTHook@@AAPAVIBaseClientDLL@@$0A@@std@@YA?AV?$unique_ptr@VVMTHook@@U?$default_delete@VVMTHook@@@std@@@0@AAPAVIBaseClientDLL@@@Z 10066aaf f   c_hooks.obj
 0001:00065aaf       __ehhandler$??$make_unique@VVMTHook@@PAPAK$0A@@std@@YA?AV?$unique_ptr@VVMTHook@@U?$default_delete@VVMTHook@@@std@@@0@$$QAPAPAK@Z 10066aaf f   c_hooks.obj
 0001:00065aaf       __ehhandler$??$make_unique@VVMTHook@@AAPAVISurface@@$0A@@std@@YA?AV?$unique_ptr@VVMTHook@@U?$default_delete@VVMTHook@@@std@@@0@AAPAVISurface@@@Z 10066aaf f   c_hooks.obj
 0001:00065aaf       __ehhandler$??$make_unique@VVMTHook@@AAPAVIPanel@@$0A@@std@@YA?AV?$unique_ptr@VVMTHook@@U?$default_delete@VVMTHook@@@std@@@0@AAPAVIPanel@@@Z 10066aaf f   c_hooks.obj
 0001:00065ad0       __unwindfunclet$??0VMTHook@@QAE@PAX@Z$0 10066ad0 f   c_hooks.obj
 0001:00065ad8       __ehhandler$??0VMTHook@@QAE@PAX@Z 10066ad8 f   c_hooks.obj
 0001:00065b00       __ehhandler$?zero@?$duration@_JU?$ratio@$00$0DOI@@std@@@chrono@std@@SA?AV123@XZ 10066b00 f   dll_main.obj
 0001:00065b00       __ehhandler$??0_Find_file_handle@filesystem@std@@QAE@$$QAU012@@Z 10066b00 f   config_system.obj
 0001:00065b00       __ehhandler$?_Destroy@?$_Ref_count_obj@UNode@NetvarTree@@@std@@EAEXXZ 10066b00 f   NetvarManager.obj
 0001:00065b00       __ehhandler$??1ShadowVTManager@@QAE@XZ 10066b00 f   c_hooks.obj
 0001:00065b00       __ehhandler$?begin@?$basic_string@DU?$char_traits@D@std@@V?$allocator@D@2@@std@@QAE?AV?$_String_iterator@V?$_String_val@U?$_Simple_types@D@std@@@std@@@2@XZ 10066b00 f   c_esp.obj
 0001:00065b00       __ehhandler$?_Destroy@?$_Ref_count_obj@U_Dir_enum_impl@filesystem@std@@@std@@EAEXXZ 10066b00 f   config_system.obj
 0001:00065b00       __ehhandler$??1_Fac_node@std@@QAE@XZ 10066b00 f   msvcprt:locale0_implib.obj
 0001:00065b00       __ehhandler$?end@?$basic_string@DU?$char_traits@D@std@@V?$allocator@D@2@@std@@QAE?AV?$_String_iterator@V?$_String_val@U?$_Simple_types@D@std@@@std@@@2@XZ 10066b00 f   c_esp.obj
 0001:00065b00       __ehhandler$??$?6U<unnamed-type-cfg>@c_config@@@?$ArchiveX@V?$basic_ofstream@DU?$char_traits@D@std@@@std@@@@QBEABV0@ABU<unnamed-type-cfg>@c_config@@@Z 10066b00 f   config_system.obj
 0001:00065b00       __ehhandler$??$?5U<unnamed-type-cfg>@c_config@@@?$ArchiveX@V?$basic_ifstream@DU?$char_traits@D@std@@@std@@@@QBEABV0@AAU<unnamed-type-cfg>@c_config@@@Z 10066b00 f   config_system.obj
 0001:00065b00       __ehhandler$?default_error_condition@_System_error_category@std@@UBE?AVerror_condition@2@H@Z 10066b00 f   config_system.obj
 0001:00065b20       __unwindfunclet$?Init@c_hooks@@SAXXZ$1 10066b20 f   c_hooks.obj
 0001:00065b28       __ehhandler$?Init@c_hooks@@SAXXZ 10066b28 f   c_hooks.obj
 0001:00065b50       __unwindfunclet$?Restore@c_hooks@@SAXXZ$0 10066b50 f   c_hooks.obj
 0001:00065b58       __unwindfunclet$?Restore@c_hooks@@SAXXZ$1 10066b58 f   c_hooks.obj
 0001:00065b60       __ehhandler$?Restore@c_hooks@@SAXXZ 10066b60 f   c_hooks.obj
 0001:00065b90       __ehhandler$?RestoreTable@ShadowVTManager@@QAEXXZ 10066b90 f   c_hooks.obj
 0001:00065bb0       __ehhandler$?find@?$basic_string@DU?$char_traits@D@std@@V?$allocator@D@2@@std@@QBEIQBDI@Z 10066bb0 f   c_esp.obj
 0001:00065bb0       __ehhandler$?clear@?$list@U?$pair@$$CBV?$basic_string@DU?$char_traits@D@std@@V?$allocator@D@2@@std@@V?$shared_ptr@UNode@NetvarTree@@@2@@std@@V?$allocator@U?$pair@$$CBV?$basic_string@DU?$char_traits@D@std@@V?$allocator@D@2@@std@@V?$shared_ptr@UNode@NetvarTree@@@2@@std@@@2@@std@@QAEXXZ 10066bb0 f   c_hooks.obj
 0001:00065bb0       __ehhandler$?is_absolute@path@filesystem@std@@QBE_NXZ 10066bb0 f   config_system.obj
 0001:00065bb0       __ehhandler$?_Equal@?$basic_string@DU?$char_traits@D@std@@V?$allocator@D@2@@std@@QBE_NQBD@Z 10066bb0 f   config_system.obj
 0001:00065bb0       __ehhandler$??1locale@std@@QAE@XZ 10066bb0 f   config_system.obj
 0001:00065bb0       __ehhandler$?remove_filename@path@filesystem@std@@QAEAAV123@XZ 10066bb0 f   config_system.obj
 0001:00065bd0       __ehhandler$?attach@@YGKPAX@Z 10066bd0 f   dll_main.obj
 0001:00065bf0       __unwindfunclet$??0?$_Deque_const_iterator@V?$_Deque_val@U?$_Deque_simple_types@ULegitPlayerRecords@@@std@@@std@@@std@@QAE@IPBU_Container_base12@1@@Z$0 10066bf0 f   Legitbot.obj
 0001:00065bf0       __unwindfunclet$??0?$_Deque_const_iterator@V?$_Deque_val@U?$_Deque_simple_types@UPlayerRecords@@@std@@@std@@@std@@QAE@IPBU_Container_base12@1@@Z$0 10066bf0 f   c_ragebot.obj
 0001:00065bf8       __ehhandler$??0?$_Deque_const_iterator@V?$_Deque_val@U?$_Deque_simple_types@UPlayerRecords@@@std@@@std@@@std@@QAE@IPBU_Container_base12@1@@Z 10066bf8 f   c_ragebot.obj
 0001:00065bf8       __ehhandler$??0?$_Deque_const_iterator@V?$_Deque_val@U?$_Deque_simple_types@ULegitPlayerRecords@@@std@@@std@@@std@@QAE@IPBU_Container_base12@1@@Z 10066bf8 f   Legitbot.obj
 0001:00065c20       __unwindfunclet$??H?$_Deque_iterator@V?$_Deque_val@U?$_Deque_simple_types@ULegitPlayerRecords@@@std@@@std@@@std@@QBE?AV01@H@Z$0 10066c20 f   Legitbot.obj
 0001:00065c20       __unwindfunclet$??H?$_Deque_iterator@V?$_Deque_val@U?$_Deque_simple_types@UPlayerRecords@@@std@@@std@@@std@@QBE?AV01@H@Z$0 10066c20 f   c_ragebot.obj
 0001:00065c28       __ehhandler$??H?$_Deque_iterator@V?$_Deque_val@U?$_Deque_simple_types@ULegitPlayerRecords@@@std@@@std@@@std@@QBE?AV01@H@Z 10066c28 f   Legitbot.obj
 0001:00065c28       __ehhandler$??H?$_Deque_iterator@V?$_Deque_val@U?$_Deque_simple_types@UPlayerRecords@@@std@@@std@@@std@@QBE?AV01@H@Z 10066c28 f   c_ragebot.obj
 0001:00065c50       __unwindfunclet$?GetActiveWeapon@C_BaseEntity@@QAEPAVC_BaseCombatWeapon@@XZ$0 10066c50 f   c_ragebot.obj
 0001:00065c5c       __ehhandler$?GetActiveWeapon@C_BaseEntity@@QAEPAVC_BaseCombatWeapon@@XZ 10066c5c f   c_ragebot.obj
 0001:00065c80       __unwindfunclet$?GetEyeAngles@C_BaseEntity@@QAE?AVVector@@XZ$0 10066c80 f   c_ragebot.obj
 0001:00065c8c       __ehhandler$?GetEyeAngles@C_BaseEntity@@QAE?AVVector@@XZ 10066c8c f   c_ragebot.obj
 0001:00065cb0       __unwindfunclet$?GetNextPrimaryAttack@C_BaseCombatWeapon@@QAEMXZ$0 10066cb0 f   c_ragebot.obj
 0001:00065cbc       __ehhandler$?GetNextPrimaryAttack@C_BaseCombatWeapon@@QAEMXZ 10066cbc f   c_ragebot.obj
 0001:00065ce0       __unwindfunclet$?GetTeam@C_BaseEntity@@QAEHXZ$0 10066ce0 f   c_ragebot.obj
 0001:00065cec       __ehhandler$?GetTeam@C_BaseEntity@@QAEHXZ 10066cec f   c_ragebot.obj
 0001:00065d10       __unwindfunclet$?GetTickBase@C_BaseEntity@@QAEHXZ$0 10066d10 f   c_ragebot.obj
 0001:00065d1c       __ehhandler$?GetTickBase@C_BaseEntity@@QAEHXZ 10066d1c f   c_ragebot.obj
 0001:00065d40       __unwindfunclet$?Hitscan@c_aimbot@@QAE?AVVector@@PAVC_BaseEntity@@@Z$0 10066d40 f   c_ragebot.obj
 0001:00065d4b       __ehhandler$?Hitscan@c_aimbot@@QAE?AVVector@@PAVC_BaseEntity@@@Z 10066d4b f   c_ragebot.obj
 0001:00065d80       __unwindfunclet$?at@?$deque@ULegitPlayerRecords@@V?$allocator@ULegitPlayerRecords@@@std@@@std@@QAEAAULegitPlayerRecords@@I@Z$0 10066d80 f   Legitbot.obj
 0001:00065d80       __unwindfunclet$?at@?$deque@UPlayerRecords@@V?$allocator@UPlayerRecords@@@std@@@std@@QAEAAUPlayerRecords@@I@Z$0 10066d80 f   c_ragebot.obj
 0001:00065d88       __unwindfunclet$?at@?$deque@ULegitPlayerRecords@@V?$allocator@ULegitPlayerRecords@@@std@@@std@@QAEAAULegitPlayerRecords@@I@Z$1 10066d88 f   Legitbot.obj
 0001:00065d88       __unwindfunclet$?at@?$deque@UPlayerRecords@@V?$allocator@UPlayerRecords@@@std@@@std@@QAEAAUPlayerRecords@@I@Z$1 10066d88 f   c_ragebot.obj
 0001:00065d90       __ehhandler$?at@?$deque@ULegitPlayerRecords@@V?$allocator@ULegitPlayerRecords@@@std@@@std@@QAEAAULegitPlayerRecords@@I@Z 10066d90 f   Legitbot.obj
 0001:00065d90       __ehhandler$?at@?$deque@UPlayerRecords@@V?$allocator@UPlayerRecords@@@std@@@std@@QAEAAUPlayerRecords@@I@Z 10066d90 f   c_ragebot.obj
 0001:00065db0       __unwindfunclet$?ArmorValue@C_BaseEntity@@QAEHXZ$0 10066db0 f   Autowall.obj
 0001:00065dbc       __ehhandler$?ArmorValue@C_BaseEntity@@QAEHXZ 10066dbc f   Autowall.obj
 0001:00065de0       __unwindfunclet$?HasHelmet@C_BaseEntity@@QAE_NXZ$0 10066de0 f   Autowall.obj
 0001:00065dec       __ehhandler$?HasHelmet@C_BaseEntity@@QAE_NXZ 10066dec f   Autowall.obj
 0001:00065e10       __unwindfunclet$?TraceToExitalt@@YA_NAAVVector@@AAUC_Trace@@V1@2PAU2@@Z$0 10066e10 f   Autowall.obj
 0001:00065e1c       __ehhandler$?TraceToExitalt@@YA_NAAVVector@@AAUC_Trace@@V1@2PAU2@@Z 10066e1c f   Autowall.obj
 0001:00065e40       __unwindfunclet$?UTIL_ClipTraceToPlayers@@YAXABVVector@@0IPAVITraceFilter@@PAUC_Trace@@@Z$0 10066e40 f   Autowall.obj
 0001:00065e4c       __ehhandler$?UTIL_ClipTraceToPlayers@@YAXABVVector@@0IPAVITraceFilter@@PAUC_Trace@@@Z 10066e4c f   Autowall.obj
 0001:00065e70       __unwindfunclet$?SetCurrentCommand@C_BaseEntity@@QAEXPAVCUserCmd@@@Z$0 10066e70 f   EnginePrediction.obj
 0001:00065e7c       __ehhandler$?SetCurrentCommand@C_BaseEntity@@QAEXPAVCUserCmd@@@Z 10066e7c f   EnginePrediction.obj
 0001:00065ea0       __unwindfunclet$??$move_backward@V?$_Deque_iterator@V?$_Deque_val@U?$_Deque_simple_types@ULegitPlayerRecords@@@std@@@std@@@std@@V12@@std@@YA?AV?$_Deque_iterator@V?$_Deque_val@U?$_Deque_simple_types@ULegitPlayerRecords@@@std@@@std@@@0@V10@00@Z$0 10066ea0 f   Legitbot.obj
 0001:00065ea0       __unwindfunclet$??$move@V?$_Deque_iterator@V?$_Deque_val@U?$_Deque_simple_types@UPlayerRecords@@@std@@@std@@@std@@V12@@std@@YA?AV?$_Deque_iterator@V?$_Deque_val@U?$_Deque_simple_types@UPlayerRecords@@@std@@@std@@@0@V10@00@Z$0 10066ea0 f   LagComp.obj
 0001:00065ea0       __unwindfunclet$??$move_backward@V?$_Deque_iterator@V?$_Deque_val@U?$_Deque_simple_types@UPlayerRecords@@@std@@@std@@@std@@V12@@std@@YA?AV?$_Deque_iterator@V?$_Deque_val@U?$_Deque_simple_types@UPlayerRecords@@@std@@@std@@@0@V10@00@Z$0 10066ea0 f   LagComp.obj
 0001:00065ea0       __unwindfunclet$??$move@V?$_Deque_iterator@V?$_Deque_val@U?$_Deque_simple_types@ULegitPlayerRecords@@@std@@@std@@@std@@V12@@std@@YA?AV?$_Deque_iterator@V?$_Deque_val@U?$_Deque_simple_types@ULegitPlayerRecords@@@std@@@std@@@0@V10@00@Z$0 10066ea0 f   Legitbot.obj
 0001:00065ea8       __unwindfunclet$??$move_backward@V?$_Deque_iterator@V?$_Deque_val@U?$_Deque_simple_types@UPlayerRecords@@@std@@@std@@@std@@V12@@std@@YA?AV?$_Deque_iterator@V?$_Deque_val@U?$_Deque_simple_types@UPlayerRecords@@@std@@@std@@@0@V10@00@Z$1 10066ea8 f   LagComp.obj
 0001:00065ea8       __unwindfunclet$??$move@V?$_Deque_iterator@V?$_Deque_val@U?$_Deque_simple_types@UPlayerRecords@@@std@@@std@@@std@@V12@@std@@YA?AV?$_Deque_iterator@V?$_Deque_val@U?$_Deque_simple_types@UPlayerRecords@@@std@@@std@@@0@V10@00@Z$1 10066ea8 f   LagComp.obj
 0001:00065ea8       __unwindfunclet$??$move_backward@V?$_Deque_iterator@V?$_Deque_val@U?$_Deque_simple_types@ULegitPlayerRecords@@@std@@@std@@@std@@V12@@std@@YA?AV?$_Deque_iterator@V?$_Deque_val@U?$_Deque_simple_types@ULegitPlayerRecords@@@std@@@std@@@0@V10@00@Z$1 10066ea8 f   Legitbot.obj
 0001:00065ea8       __unwindfunclet$??$move@V?$_Deque_iterator@V?$_Deque_val@U?$_Deque_simple_types@ULegitPlayerRecords@@@std@@@std@@@std@@V12@@std@@YA?AV?$_Deque_iterator@V?$_Deque_val@U?$_Deque_simple_types@ULegitPlayerRecords@@@std@@@std@@@0@V10@00@Z$1 10066ea8 f   Legitbot.obj
 0001:00065eb0       __unwindfunclet$??$move_backward@V?$_Deque_iterator@V?$_Deque_val@U?$_Deque_simple_types@ULegitPlayerRecords@@@std@@@std@@@std@@V12@@std@@YA?AV?$_Deque_iterator@V?$_Deque_val@U?$_Deque_simple_types@ULegitPlayerRecords@@@std@@@std@@@0@V10@00@Z$2 10066eb0 f   Legitbot.obj
 0001:00065eb0       __unwindfunclet$??$move_backward@V?$_Deque_iterator@V?$_Deque_val@U?$_Deque_simple_types@UPlayerRecords@@@std@@@std@@@std@@V12@@std@@YA?AV?$_Deque_iterator@V?$_Deque_val@U?$_Deque_simple_types@UPlayerRecords@@@std@@@std@@@0@V10@00@Z$2 10066eb0 f   LagComp.obj
 0001:00065eb0       __unwindfunclet$??$move@V?$_Deque_iterator@V?$_Deque_val@U?$_Deque_simple_types@UPlayerRecords@@@std@@@std@@@std@@V12@@std@@YA?AV?$_Deque_iterator@V?$_Deque_val@U?$_Deque_simple_types@UPlayerRecords@@@std@@@std@@@0@V10@00@Z$2 10066eb0 f   LagComp.obj
 0001:00065eb0       __unwindfunclet$??$move@V?$_Deque_iterator@V?$_Deque_val@U?$_Deque_simple_types@ULegitPlayerRecords@@@std@@@std@@@std@@V12@@std@@YA?AV?$_Deque_iterator@V?$_Deque_val@U?$_Deque_simple_types@ULegitPlayerRecords@@@std@@@std@@@0@V10@00@Z$2 10066eb0 f   Legitbot.obj
 0001:00065eb8       __ehhandler$??$move_backward@V?$_Deque_iterator@V?$_Deque_val@U?$_Deque_simple_types@UPlayerRecords@@@std@@@std@@@std@@V12@@std@@YA?AV?$_Deque_iterator@V?$_Deque_val@U?$_Deque_simple_types@UPlayerRecords@@@std@@@std@@@0@V10@00@Z 10066eb8 f   LagComp.obj
 0001:00065eb8       __ehhandler$??$move_backward@V?$_Deque_iterator@V?$_Deque_val@U?$_Deque_simple_types@ULegitPlayerRecords@@@std@@@std@@@std@@V12@@std@@YA?AV?$_Deque_iterator@V?$_Deque_val@U?$_Deque_simple_types@ULegitPlayerRecords@@@std@@@std@@@0@V10@00@Z 10066eb8 f   Legitbot.obj
 0001:00065eb8       __ehhandler$??$move@V?$_Deque_iterator@V?$_Deque_val@U?$_Deque_simple_types@ULegitPlayerRecords@@@std@@@std@@@std@@V12@@std@@YA?AV?$_Deque_iterator@V?$_Deque_val@U?$_Deque_simple_types@ULegitPlayerRecords@@@std@@@std@@@0@V10@00@Z 10066eb8 f   Legitbot.obj
 0001:00065eb8       __ehhandler$??$move@V?$_Deque_iterator@V?$_Deque_val@U?$_Deque_simple_types@UPlayerRecords@@@std@@@std@@@std@@V12@@std@@YA?AV?$_Deque_iterator@V?$_Deque_val@U?$_Deque_simple_types@UPlayerRecords@@@std@@@std@@@0@V10@00@Z 10066eb8 f   LagComp.obj
 0001:00065ee0       __unwindfunclet$??H?$_Deque_const_iterator@V?$_Deque_val@U?$_Deque_simple_types@ULegitPlayerRecords@@@std@@@std@@@std@@QBE?AV01@H@Z$0 10066ee0 f   Legitbot.obj
 0001:00065ee0       __unwindfunclet$??H?$_Deque_const_iterator@V?$_Deque_val@U?$_Deque_simple_types@UPlayerRecords@@@std@@@std@@@std@@QBE?AV01@H@Z$0 10066ee0 f   LagComp.obj
 0001:00065ee8       __ehhandler$??H?$_Deque_const_iterator@V?$_Deque_val@U?$_Deque_simple_types@UPlayerRecords@@@std@@@std@@@std@@QBE?AV01@H@Z 10066ee8 f   LagComp.obj
 0001:00065ee8       __ehhandler$??H?$_Deque_const_iterator@V?$_Deque_val@U?$_Deque_simple_types@ULegitPlayerRecords@@@std@@@std@@@std@@QBE?AV01@H@Z 10066ee8 f   Legitbot.obj
 0001:00065f10       __unwindfunclet$?ClearRecords@LagComp@@QAEXH@Z$0 10066f10 f   LagComp.obj
 0001:00065f18       __unwindfunclet$?ClearRecords@LagComp@@QAEXH@Z$1 10066f18 f   LagComp.obj
 0001:00065f20       __ehhandler$?ClearRecords@LagComp@@QAEXH@Z 10066f20 f   LagComp.obj
 0001:00065f40       __unwindfunclet$?GetLastShotTime@C_BaseCombatWeapon@@QAEMXZ$0 10066f40 f   LagComp.obj
 0001:00065f4c       __ehhandler$?GetLastShotTime@C_BaseCombatWeapon@@QAEMXZ 10066f4c f   LagComp.obj
 0001:00065f70       __unwindfunclet$?StoreRecord@LagComp@@QAEXPAVC_BaseEntity@@@Z$0 10066f70 f   LagComp.obj
 0001:00065f7b       __unwindfunclet$?StoreRecord@LagComp@@QAEXPAVC_BaseEntity@@@Z$1 10066f7b f   LagComp.obj
 0001:00065f86       __ehhandler$?StoreRecord@LagComp@@QAEXPAVC_BaseEntity@@@Z 10066f86 f   LagComp.obj
 0001:00065fb0       __unwindfunclet$?_Make_iter@?$deque@UPlayerRecords@@V?$allocator@UPlayerRecords@@@std@@@std@@QBE?AV?$_Deque_iterator@V?$_Deque_val@U?$_Deque_simple_types@UPlayerRecords@@@std@@@std@@@2@V?$_Deque_const_iterator@V?$_Deque_val@U?$_Deque_simple_types@UPlayerRecords@@@std@@@std@@@2@@Z$0 10066fb0 f   LagComp.obj
 0001:00065fb0       __unwindfunclet$?_Make_iter@?$deque@ULegitPlayerRecords@@V?$allocator@ULegitPlayerRecords@@@std@@@std@@QBE?AV?$_Deque_iterator@V?$_Deque_val@U?$_Deque_simple_types@ULegitPlayerRecords@@@std@@@std@@@2@V?$_Deque_const_iterator@V?$_Deque_val@U?$_Deque_simple_types@ULegitPlayerRecords@@@std@@@std@@@2@@Z$0 10066fb0 f   Legitbot.obj
 0001:00065fb8       __ehhandler$?_Make_iter@?$deque@UPlayerRecords@@V?$allocator@UPlayerRecords@@@std@@@std@@QBE?AV?$_Deque_iterator@V?$_Deque_val@U?$_Deque_simple_types@UPlayerRecords@@@std@@@std@@@2@V?$_Deque_const_iterator@V?$_Deque_val@U?$_Deque_simple_types@UPlayerRecords@@@std@@@std@@@2@@Z 10066fb8 f   LagComp.obj
 0001:00065fb8       __ehhandler$?_Make_iter@?$deque@ULegitPlayerRecords@@V?$allocator@ULegitPlayerRecords@@@std@@@std@@QBE?AV?$_Deque_iterator@V?$_Deque_val@U?$_Deque_simple_types@ULegitPlayerRecords@@@std@@@std@@@2@V?$_Deque_const_iterator@V?$_Deque_val@U?$_Deque_simple_types@ULegitPlayerRecords@@@std@@@std@@@2@@Z 10066fb8 f   Legitbot.obj
 0001:00065fe0       __unwindfunclet$?erase@?$deque@UPlayerRecords@@V?$allocator@UPlayerRecords@@@std@@@std@@QAE?AV?$_Deque_iterator@V?$_Deque_val@U?$_Deque_simple_types@UPlayerRecords@@@std@@@std@@@2@V?$_Deque_const_iterator@V?$_Deque_val@U?$_Deque_simple_types@UPlayerRecords@@@std@@@std@@@2@0@Z$0 10066fe0 f   LagComp.obj
 0001:00065fe0       __unwindfunclet$?erase@?$deque@ULegitPlayerRecords@@V?$allocator@ULegitPlayerRecords@@@std@@@std@@QAE?AV?$_Deque_iterator@V?$_Deque_val@U?$_Deque_simple_types@ULegitPlayerRecords@@@std@@@std@@@2@V?$_Deque_const_iterator@V?$_Deque_val@U?$_Deque_simple_types@ULegitPlayerRecords@@@std@@@std@@@2@0@Z$0 10066fe0 f   Legitbot.obj
 0001:00065fe8       __unwindfunclet$?erase@?$deque@UPlayerRecords@@V?$allocator@UPlayerRecords@@@std@@@std@@QAE?AV?$_Deque_iterator@V?$_Deque_val@U?$_Deque_simple_types@UPlayerRecords@@@std@@@std@@@2@V?$_Deque_const_iterator@V?$_Deque_val@U?$_Deque_simple_types@UPlayerRecords@@@std@@@std@@@2@0@Z$1 10066fe8 f   LagComp.obj
 0001:00065fe8       __unwindfunclet$?erase@?$deque@ULegitPlayerRecords@@V?$allocator@ULegitPlayerRecords@@@std@@@std@@QAE?AV?$_Deque_iterator@V?$_Deque_val@U?$_Deque_simple_types@ULegitPlayerRecords@@@std@@@std@@@2@V?$_Deque_const_iterator@V?$_Deque_val@U?$_Deque_simple_types@ULegitPlayerRecords@@@std@@@std@@@2@0@Z$1 10066fe8 f   Legitbot.obj
 0001:00065ff0       __unwindfunclet$?erase@?$deque@ULegitPlayerRecords@@V?$allocator@ULegitPlayerRecords@@@std@@@std@@QAE?AV?$_Deque_iterator@V?$_Deque_val@U?$_Deque_simple_types@ULegitPlayerRecords@@@std@@@std@@@2@V?$_Deque_const_iterator@V?$_Deque_val@U?$_Deque_simple_types@ULegitPlayerRecords@@@std@@@std@@@2@0@Z$3 10066ff0 f   Legitbot.obj
 0001:00065ff0       __unwindfunclet$?erase@?$deque@UPlayerRecords@@V?$allocator@UPlayerRecords@@@std@@@std@@QAE?AV?$_Deque_iterator@V?$_Deque_val@U?$_Deque_simple_types@UPlayerRecords@@@std@@@std@@@2@V?$_Deque_const_iterator@V?$_Deque_val@U?$_Deque_simple_types@UPlayerRecords@@@std@@@std@@@2@0@Z$3 10066ff0 f   LagComp.obj
 0001:00065ff8       __unwindfunclet$?erase@?$deque@UPlayerRecords@@V?$allocator@UPlayerRecords@@@std@@@std@@QAE?AV?$_Deque_iterator@V?$_Deque_val@U?$_Deque_simple_types@UPlayerRecords@@@std@@@std@@@2@V?$_Deque_const_iterator@V?$_Deque_val@U?$_Deque_simple_types@UPlayerRecords@@@std@@@std@@@2@0@Z$5 10066ff8 f   LagComp.obj
 0001:00065ff8       __unwindfunclet$?erase@?$deque@ULegitPlayerRecords@@V?$allocator@ULegitPlayerRecords@@@std@@@std@@QAE?AV?$_Deque_iterator@V?$_Deque_val@U?$_Deque_simple_types@ULegitPlayerRecords@@@std@@@std@@@2@V?$_Deque_const_iterator@V?$_Deque_val@U?$_Deque_simple_types@ULegitPlayerRecords@@@std@@@std@@@2@0@Z$5 10066ff8 f   Legitbot.obj
 0001:00066000       __unwindfunclet$?erase@?$deque@ULegitPlayerRecords@@V?$allocator@ULegitPlayerRecords@@@std@@@std@@QAE?AV?$_Deque_iterator@V?$_Deque_val@U?$_Deque_simple_types@ULegitPlayerRecords@@@std@@@std@@@2@V?$_Deque_const_iterator@V?$_Deque_val@U?$_Deque_simple_types@ULegitPlayerRecords@@@std@@@std@@@2@0@Z$6 10067000 f   Legitbot.obj
 0001:00066000       __unwindfunclet$?erase@?$deque@UPlayerRecords@@V?$allocator@UPlayerRecords@@@std@@@std@@QAE?AV?$_Deque_iterator@V?$_Deque_val@U?$_Deque_simple_types@UPlayerRecords@@@std@@@std@@@2@V?$_Deque_const_iterator@V?$_Deque_val@U?$_Deque_simple_types@UPlayerRecords@@@std@@@std@@@2@0@Z$6 10067000 f   LagComp.obj
 0001:0006600b       __unwindfunclet$?erase@?$deque@ULegitPlayerRecords@@V?$allocator@ULegitPlayerRecords@@@std@@@std@@QAE?AV?$_Deque_iterator@V?$_Deque_val@U?$_Deque_simple_types@ULegitPlayerRecords@@@std@@@std@@@2@V?$_Deque_const_iterator@V?$_Deque_val@U?$_Deque_simple_types@ULegitPlayerRecords@@@std@@@std@@@2@0@Z$7 1006700b f   Legitbot.obj
 0001:0006600b       __unwindfunclet$?erase@?$deque@UPlayerRecords@@V?$allocator@UPlayerRecords@@@std@@@std@@QAE?AV?$_Deque_iterator@V?$_Deque_val@U?$_Deque_simple_types@UPlayerRecords@@@std@@@std@@@2@V?$_Deque_const_iterator@V?$_Deque_val@U?$_Deque_simple_types@UPlayerRecords@@@std@@@std@@@2@0@Z$7 1006700b f   LagComp.obj
 0001:00066016       __unwindfunclet$?erase@?$deque@ULegitPlayerRecords@@V?$allocator@ULegitPlayerRecords@@@std@@@std@@QAE?AV?$_Deque_iterator@V?$_Deque_val@U?$_Deque_simple_types@ULegitPlayerRecords@@@std@@@std@@@2@V?$_Deque_const_iterator@V?$_Deque_val@U?$_Deque_simple_types@ULegitPlayerRecords@@@std@@@std@@@2@0@Z$16 10067016 f   Legitbot.obj
 0001:00066016       __unwindfunclet$?erase@?$deque@UPlayerRecords@@V?$allocator@UPlayerRecords@@@std@@@std@@QAE?AV?$_Deque_iterator@V?$_Deque_val@U?$_Deque_simple_types@UPlayerRecords@@@std@@@std@@@2@V?$_Deque_const_iterator@V?$_Deque_val@U?$_Deque_simple_types@UPlayerRecords@@@std@@@std@@@2@0@Z$16 10067016 f   LagComp.obj
 0001:00066021       __ehhandler$?erase@?$deque@ULegitPlayerRecords@@V?$allocator@ULegitPlayerRecords@@@std@@@std@@QAE?AV?$_Deque_iterator@V?$_Deque_val@U?$_Deque_simple_types@ULegitPlayerRecords@@@std@@@std@@@2@V?$_Deque_const_iterator@V?$_Deque_val@U?$_Deque_simple_types@ULegitPlayerRecords@@@std@@@std@@@2@0@Z 10067021 f   Legitbot.obj
 0001:00066021       __ehhandler$?erase@?$deque@UPlayerRecords@@V?$allocator@UPlayerRecords@@@std@@@std@@QAE?AV?$_Deque_iterator@V?$_Deque_val@U?$_Deque_simple_types@UPlayerRecords@@@std@@@std@@@2@V?$_Deque_const_iterator@V?$_Deque_val@U?$_Deque_simple_types@UPlayerRecords@@@std@@@std@@@2@0@Z 10067021 f   LagComp.obj
 0001:00066040       __unwindfunclet$?erase@?$deque@ULegitPlayerRecords@@V?$allocator@ULegitPlayerRecords@@@std@@@std@@QAE?AV?$_Deque_iterator@V?$_Deque_val@U?$_Deque_simple_types@ULegitPlayerRecords@@@std@@@std@@@2@V?$_Deque_const_iterator@V?$_Deque_val@U?$_Deque_simple_types@ULegitPlayerRecords@@@std@@@std@@@2@@Z$0 10067040 f   Legitbot.obj
 0001:00066040       __unwindfunclet$?erase@?$deque@UPlayerRecords@@V?$allocator@UPlayerRecords@@@std@@@std@@QAE?AV?$_Deque_iterator@V?$_Deque_val@U?$_Deque_simple_types@UPlayerRecords@@@std@@@std@@@2@V?$_Deque_const_iterator@V?$_Deque_val@U?$_Deque_simple_types@UPlayerRecords@@@std@@@std@@@2@@Z$0 10067040 f   LagComp.obj
 0001:00066048       __ehhandler$?erase@?$deque@UPlayerRecords@@V?$allocator@UPlayerRecords@@@std@@@std@@QAE?AV?$_Deque_iterator@V?$_Deque_val@U?$_Deque_simple_types@UPlayerRecords@@@std@@@std@@@2@V?$_Deque_const_iterator@V?$_Deque_val@U?$_Deque_simple_types@UPlayerRecords@@@std@@@std@@@2@@Z 10067048 f   LagComp.obj
 0001:00066048       __ehhandler$?erase@?$deque@ULegitPlayerRecords@@V?$allocator@ULegitPlayerRecords@@@std@@@std@@QAE?AV?$_Deque_iterator@V?$_Deque_val@U?$_Deque_simple_types@ULegitPlayerRecords@@@std@@@std@@@2@V?$_Deque_const_iterator@V?$_Deque_val@U?$_Deque_simple_types@ULegitPlayerRecords@@@std@@@std@@@2@@Z 10067048 f   Legitbot.obj
 0001:00066070       __unwindfunclet$?GetMoveType@C_BaseEntity@@QAE?AW4MoveType_t@@XZ$0 10067070 f   c_antiaim.obj
 0001:0006607c       __ehhandler$?GetMoveType@C_BaseEntity@@QAE?AW4MoveType_t@@XZ 1006707c f   c_antiaim.obj
 0001:000660a0       __unwindfunclet$?create_animation_state@C_BaseEntity@@QAEXPAVCBasePlayerAnimState@@@Z$0 100670a0 f   c_antiaim.obj
 0001:000660ac       __ehhandler$?create_animation_state@C_BaseEntity@@QAEXPAVCBasePlayerAnimState@@@Z 100670ac f   c_antiaim.obj
 0001:000660d0       __unwindfunclet$?desyncchams@c_antiaim@@QAEXXZ$0 100670d0 f   c_antiaim.obj
 0001:000660dc       __ehhandler$?desyncchams@c_antiaim@@QAEXXZ 100670dc f   c_antiaim.obj
 0001:00066100       __unwindfunclet$?OnCreateMove@Legitbot@@QAEXXZ$0 10067100 f   Legitbot.obj
 0001:0006610b       __unwindfunclet$?OnCreateMove@Legitbot@@QAEXXZ$1 1006710b f   Legitbot.obj
 0001:00066116       __ehhandler$?OnCreateMove@Legitbot@@QAEXXZ 10067116 f   Legitbot.obj
 0001:00066140       __unwindfunclet$??$?0PADX@?$basic_string@DU?$char_traits@D@std@@V?$allocator@D@2@@std@@QAE@PAD0ABV?$allocator@D@1@@Z$0 10067140 f   c_esp.obj
 0001:00066148       __ehhandler$??$?0PADX@?$basic_string@DU?$char_traits@D@std@@V?$allocator@D@2@@std@@QAE@PAD0ABV?$allocator@D@1@@Z 10067148 f   c_esp.obj
 0001:00066170       __unwindfunclet$??0?$basic_string@DU?$char_traits@D@std@@V?$allocator@D@2@@std@@QAE@ABV01@@Z$0 10067170 f   c_esp.obj
 0001:00066170       __unwindfunclet$??0?$basic_string@_WU?$char_traits@_W@std@@V?$allocator@_W@2@@std@@QAE@ABV01@@Z$0 10067170 f   config_system.obj
 0001:00066178       __ehhandler$??0?$basic_string@DU?$char_traits@D@std@@V?$allocator@D@2@@std@@QAE@ABV01@@Z 10067178 f   c_esp.obj
 0001:00066178       __ehhandler$??0?$basic_string@_WU?$char_traits@_W@std@@V?$allocator@_W@2@@std@@QAE@ABV01@@Z 10067178 f   config_system.obj
 0001:000661a0       __unwindfunclet$?GetAmmo@C_BaseCombatWeapon@@QAEHXZ$0 100671a0 f   c_esp.obj
 0001:000661ac       __ehhandler$?GetAmmo@C_BaseCombatWeapon@@QAEHXZ 100671ac f   c_esp.obj
 0001:000661d0       __unwindfunclet$?RenderHealth@c_esp@@AAEXPAVC_BaseEntity@@@Z$0 100671d0 f   c_esp.obj
 0001:000661d8       __unwindfunclet$?RenderHealth@c_esp@@AAEXPAVC_BaseEntity@@@Z$1 100671d8 f   c_esp.obj
 0001:000661e0       __ehhandler$?RenderHealth@c_esp@@AAEXPAVC_BaseEntity@@@Z 100671e0 f   c_esp.obj
 0001:00066210       __unwindfunclet$?RenderWeaponName@c_esp@@AAEXPAVC_BaseEntity@@@Z$0 10067210 f   c_esp.obj
 0001:0006621b       __unwindfunclet$?RenderWeaponName@c_esp@@AAEXPAVC_BaseEntity@@@Z$1 1006721b f   c_esp.obj
 0001:00066226       __unwindfunclet$?RenderWeaponName@c_esp@@AAEXPAVC_BaseEntity@@@Z$3 10067226 f   c_esp.obj
 0001:00066231       __unwindfunclet$?RenderWeaponName@c_esp@@AAEXPAVC_BaseEntity@@@Z$4 10067231 f   c_esp.obj
 0001:0006623c       __ehhandler$?RenderWeaponName@c_esp@@AAEXPAVC_BaseEntity@@@Z 1006723c f   c_esp.obj
 0001:00066270       __unwindfunclet$?clean_name@@YA?AV?$basic_string@DU?$char_traits@D@std@@V?$allocator@D@2@@std@@V12@@Z$0 10067270 f   c_esp.obj
 0001:00066278       __unwindfunclet$?clean_name@@YA?AV?$basic_string@DU?$char_traits@D@std@@V?$allocator@D@2@@std@@V12@@Z$1 10067278 f   c_esp.obj
 0001:00066280       __ehhandler$?clean_name@@YA?AV?$basic_string@DU?$char_traits@D@std@@V?$allocator@D@2@@std@@V12@@Z 10067280 f   c_esp.obj
 0001:000662b0       __unwindfunclet$?m_iPrimaryReserveAmmoCount@C_BaseCombatWeapon@@QAEHXZ$0 100672b0 f   c_esp.obj
 0001:000662bc       __ehhandler$?m_iPrimaryReserveAmmoCount@C_BaseCombatWeapon@@QAEHXZ 100672bc f   c_esp.obj
 0001:000662e0       __unwindfunclet$??0ImDrawList@@QAE@XZ$0 100672e0 f   imgui.obj
 0001:000662e8       __unwindfunclet$??0ImDrawList@@QAE@XZ$1 100672e8 f   imgui.obj
 0001:000662f3       __unwindfunclet$??0ImDrawList@@QAE@XZ$2 100672f3 f   imgui.obj
 0001:000662fe       __unwindfunclet$??0ImDrawList@@QAE@XZ$3 100672fe f   imgui.obj
 0001:00066309       __unwindfunclet$??0ImDrawList@@QAE@XZ$4 10067309 f   imgui.obj
 0001:00066314       __unwindfunclet$??0ImDrawList@@QAE@XZ$5 10067314 f   imgui.obj
 0001:0006631f       __unwindfunclet$??0ImDrawList@@QAE@XZ$6 1006731f f   imgui.obj
 0001:0006632a       __ehhandler$??0ImDrawList@@QAE@XZ 1006732a f   imgui.obj
 0001:00066350       __unwindfunclet$??0ImGuiContext@@QAE@XZ$0 10067350 f   imgui.obj
 0001:0006635e       __unwindfunclet$??0ImGuiContext@@QAE@XZ$1 1006735e f   imgui.obj
 0001:0006636c       __unwindfunclet$??0ImGuiContext@@QAE@XZ$2 1006736c f   imgui.obj
 0001:0006637a       __unwindfunclet$??0ImGuiContext@@QAE@XZ$3 1006737a f   imgui.obj
 0001:00066388       __unwindfunclet$??0ImGuiContext@@QAE@XZ$4 10067388 f   imgui.obj
 0001:00066396       __unwindfunclet$??0ImGuiContext@@QAE@XZ$5 10067396 f   imgui.obj
 0001:000663a4       __unwindfunclet$??0ImGuiContext@@QAE@XZ$6 100673a4 f   imgui.obj
 0001:000663b2       __unwindfunclet$??0ImGuiContext@@QAE@XZ$7 100673b2 f   imgui.obj
 0001:000663c0       __unwindfunclet$??0ImGuiContext@@QAE@XZ$8 100673c0 f   imgui.obj
 0001:000663ce       __unwindfunclet$??0ImGuiContext@@QAE@XZ$9 100673ce f   imgui.obj
 0001:000663e6       __unwindfunclet$??0ImGuiContext@@QAE@XZ$10 100673e6 f   imgui.obj
 0001:000663f4       __unwindfunclet$??0ImGuiContext@@QAE@XZ$11 100673f4 f   imgui.obj
 0001:00066402       __unwindfunclet$??0ImGuiContext@@QAE@XZ$12 10067402 f   imgui.obj
 0001:00066410       __unwindfunclet$??0ImGuiContext@@QAE@XZ$13 10067410 f   imgui.obj
 0001:0006641e       __ehhandler$??0ImGuiContext@@QAE@XZ 1006741e f   imgui.obj
 0001:00066440       __unwindfunclet$??0ImGuiDrawContext@@QAE@XZ$0 10067440 f   imgui.obj
 0001:0006644b       __unwindfunclet$??0ImGuiDrawContext@@QAE@XZ$1 1006744b f   imgui.obj
 0001:00066456       __unwindfunclet$??0ImGuiDrawContext@@QAE@XZ$2 10067456 f   imgui.obj
 0001:00066464       __unwindfunclet$??0ImGuiDrawContext@@QAE@XZ$3 10067464 f   imgui.obj
 0001:00066472       __unwindfunclet$??0ImGuiDrawContext@@QAE@XZ$4 10067472 f   imgui.obj
 0001:00066480       __unwindfunclet$??0ImGuiDrawContext@@QAE@XZ$5 10067480 f   imgui.obj
 0001:0006648e       __unwindfunclet$??0ImGuiDrawContext@@QAE@XZ$6 1006748e f   imgui.obj
 0001:0006649c       __ehhandler$??0ImGuiDrawContext@@QAE@XZ 1006749c f   imgui.obj
 0001:000664c0       __unwindfunclet$??0ImGuiTextBuffer@@QAE@XZ$0 100674c0 f   imgui.obj
 0001:000664c8       __ehhandler$??0ImGuiTextBuffer@@QAE@XZ 100674c8 f   imgui.obj
 0001:000664f0       __unwindfunclet$??0ImGuiTextEditState@@QAE@XZ$0 100674f0 f   imgui.obj
 0001:000664fb       __unwindfunclet$??0ImGuiTextEditState@@QAE@XZ$1 100674fb f   imgui.obj
 0001:00066506       __ehhandler$??0ImGuiTextEditState@@QAE@XZ 10067506 f   imgui.obj
 0001:00066530       __unwindfunclet$??0ImGuiWindow@@QAE@PBD@Z$0 10067530 f   imgui.obj
 0001:0006653e       __unwindfunclet$??0ImGuiWindow@@QAE@PBD@Z$1 1006753e f   imgui.obj
 0001:0006654c       __unwindfunclet$??0ImGuiWindow@@QAE@PBD@Z$2 1006754c f   imgui.obj
 0001:0006655a       __unwindfunclet$??0ImGuiWindow@@QAE@PBD@Z$3 1006755a f   imgui.obj
 0001:00066578       __ehhandler$??0ImGuiWindow@@QAE@PBD@Z 10067578 f   imgui.obj
 0001:000665a0       __unwindfunclet$?CreateContext@ImGui@@YAPAUImGuiContext@@P6APAXI@ZP6AXPAX@Z@Z$0 100675a0 f   imgui.obj
 0001:000665b8       __ehhandler$?CreateContext@ImGui@@YAPAUImGuiContext@@P6APAXI@ZP6AXPAX@Z@Z 100675b8 f   imgui.obj
 0001:000665e0       __unwindfunclet$?CreateNewWindow@@YAPAUImGuiWindow@@PBDUImVec2@@H@Z$0 100675e0 f   imgui.obj
 0001:000665f8       __ehhandler$?CreateNewWindow@@YAPAUImGuiWindow@@PBDUImVec2@@H@Z 100675f8 f   imgui.obj
 0001:00066620       __unwindfunclet$?EndChild@ImGui@@YAX_N@Z$0 10067620 f   imgui.obj
 0001:00066628       __ehhandler$?EndChild@ImGui@@YAX_N@Z 10067628 f   imgui.obj
 0001:00066650       __unwindfunclet$?GetClipboardTextFn_DefaultImpl@@YAPBDPAX@Z$0 10067650 f   imgui.obj
 0001:0006665c       __ehhandler$?GetClipboardTextFn_DefaultImpl@@YAPBDPAX@Z 1006765c f   imgui.obj
 0001:00066680       __unwindfunclet$?ImFileOpen@@YAPAU_iobuf@@PBD0@Z$0 10067680 f   imgui.obj
 0001:00066688       __ehhandler$?ImFileOpen@@YAPAU_iobuf@@PBD0@Z 10067688 f   imgui.obj
 0001:000666b0       __unwindfunclet$?ListBox@ImGui@@YA_NPBDPAHP6A_NPAXHPAPBD@Z2HH@Z$0 100676b0 f   imgui.obj
 0001:000666b8       __ehhandler$?ListBox@ImGui@@YA_NPBDPAHP6A_NPAXHPAPBD@Z2HH@Z 100676b8 f   imgui.obj
 0001:000666e0       __unwindfunclet$?NewFrame@ImGui@@YAXXZ$0 100676e0 f   imgui.obj
 0001:00066701       __ehhandler$?NewFrame@ImGui@@YAXXZ 10067701 f   imgui.obj
 0001:00066720       __unwindfunclet$??0ImDrawChannel@@QAE@XZ$0 10067720 f   imgui_draw.obj
 0001:00066728       __ehhandler$??0ImDrawChannel@@QAE@XZ 10067728 f   imgui_draw.obj
 0001:00066750       __unwindfunclet$??0ImFont@@QAE@XZ$0 10067750 f   imgui_draw.obj
 0001:0006675b       __unwindfunclet$??0ImFont@@QAE@XZ$1 1006775b f   imgui_draw.obj
 0001:00066766       __unwindfunclet$??0ImFont@@QAE@XZ$2 10067766 f   imgui_draw.obj
 0001:00066771       __ehhandler$??0ImFont@@QAE@XZ 10067771 f   imgui_draw.obj
 0001:00066790       __unwindfunclet$??0ImFontAtlas@@QAE@XZ$0 10067790 f   imgui_draw.obj
 0001:0006679b       __unwindfunclet$??0ImFontAtlas@@QAE@XZ$1 1006779b f   imgui_draw.obj
 0001:000667a6       __unwindfunclet$??0ImFontAtlas@@QAE@XZ$2 100677a6 f   imgui_draw.obj
 0001:000667b1       __ehhandler$??0ImFontAtlas@@QAE@XZ 100677b1 f   imgui_draw.obj
 0001:000667d0       __unwindfunclet$?AddFont@ImFontAtlas@@QAEPAUImFont@@PBUImFontConfig@@@Z$0 100677d0 f   imgui_draw.obj
 0001:000667e8       __ehhandler$?AddFont@ImFontAtlas@@QAEPAUImFont@@PBUImFontConfig@@@Z 100677e8 f   imgui_draw.obj
 0001:00066810       __unwindfunclet$?ChannelsSplit@ImDrawList@@QAEXH@Z$0 10067810 f   imgui_draw.obj
 0001:00066828       __ehhandler$?ChannelsSplit@ImDrawList@@QAEXH@Z 10067828 f   imgui_draw.obj
 0001:00066850       __unwindfunclet$?ImFontAtlasBuildPackCustomRects@@YAXPAUImFontAtlas@@PAX@Z$0 10067850 f   imgui_draw.obj
 0001:00066858       __ehhandler$?ImFontAtlasBuildPackCustomRects@@YAXPAUImFontAtlas@@PAX@Z 10067858 f   imgui_draw.obj
 0001:00066880       __unwindfunclet$?PathArcToFast@ImDrawList@@QAEXABUImVec2@@MHH@Z$0 10067880 f   imgui_draw.obj
 0001:0006688c       __ehhandler$?PathArcToFast@ImDrawList@@QAEXABUImVec2@@MHH@Z 1006788c f   imgui_draw.obj
 0001:000668b0       __unwindfunclet$??$make_unique@VShadowVTManager@@$$V$0A@@std@@YA?AV?$unique_ptr@VShadowVTManager@@U?$default_delete@VShadowVTManager@@@std@@@0@XZ$0 100678b0 f   bone_processing_hook.obj
 0001:000668bf       __ehhandler$??$make_unique@VShadowVTManager@@$$V$0A@@std@@YA?AV?$unique_ptr@VShadowVTManager@@U?$default_delete@VShadowVTManager@@@std@@@0@XZ 100678bf f   bone_processing_hook.obj
 0001:000668e0       __ehhandler$?Setup@ShadowVTManager@@QAEXPAX@Z 100678e0 f   bone_processing_hook.obj
 0001:00066900       __unwindfunclet$?CreateMove@c_hooks@@SI_NPAVIClientMode@@PAXMPAVCUserCmd@@@Z$0 10067900 f   createmove_hook.obj
 0001:0006690c       __ehhandler$?CreateMove@c_hooks@@SI_NPAVIClientMode@@PAXMPAVCUserCmd@@@Z 1006790c f   createmove_hook.obj
 0001:00066930       __unwindfunclet$?DoAutostrafe@Misc@@ABEXPAVCUserCmd@@@Z$0 10067930 f   createmove_hook.obj
 0001:0006693c       __ehhandler$?DoAutostrafe@Misc@@ABEXPAVCUserCmd@@@Z 1006793c f   createmove_hook.obj
 0001:00066960       __unwindfunclet$?Hooked_EndScene@c_hooks@@SGXPAUIDirect3DDevice9@@@Z$0 10067960 f   directx_preset_hook.obj
 0001:0006696c       __ehhandler$?Hooked_EndScene@c_hooks@@SGXPAUIDirect3DDevice9@@@Z 1006796c f   directx_preset_hook.obj
 0001:00066990       __unwindfunclet$?Hooked_EndScene_Reset@c_hooks@@SGXPAUIDirect3DDevice9@@PAU_D3DPRESENT_PARAMETERS_@@@Z$0 10067990 f   directx_preset_hook.obj
 0001:0006699c       __ehhandler$?Hooked_EndScene_Reset@c_hooks@@SGXPAUIDirect3DDevice9@@PAU_D3DPRESENT_PARAMETERS_@@@Z 1006799c f   directx_preset_hook.obj
 0001:000669c0       __unwindfunclet$?DrawModelExecute@c_hooks@@SIXPAX0PAVIMatRenderContext@@ABUDrawModelState_t@@ABUModelRenderInfo_t@@PAVmatrix3x4_t@@@Z$0 100679c0 f   dme_hook.obj
 0001:000669cc       __ehhandler$?DrawModelExecute@c_hooks@@SIXPAX0PAVIMatRenderContext@@ABUDrawModelState_t@@ABUModelRenderInfo_t@@PAVmatrix3x4_t@@@Z 100679cc f   dme_hook.obj
 0001:000669f0       __unwindfunclet$?FrameStageNotify@c_hooks@@SGXW4ClientFrameStage_t@@@Z$0 100679f0 f   fsn_hook.obj
 0001:000669fc       __ehhandler$?FrameStageNotify@c_hooks@@SGXW4ClientFrameStage_t@@@Z 100679fc f   fsn_hook.obj
 0001:00066a20       __unwindfunclet$?server_hitbox@@YAXXZ$0 10067a20 f   fsn_hook.obj
 0001:00066a2c       __unwindfunclet$?server_hitbox@@YAXXZ$1 10067a2c f   fsn_hook.obj
 0001:00066a38       __ehhandler$?server_hitbox@@YAXXZ 10067a38 f   fsn_hook.obj
 0001:00066a60       __unwindfunclet$?LockCursor@c_hooks@@SIXPAVISurface@@PAX@Z$0 10067a60 f   lock_cursor_hook.obj
 0001:00066a6c       __ehhandler$?LockCursor@c_hooks@@SIXPAVISurface@@PAX@Z 10067a6c f   lock_cursor_hook.obj
 0001:00066a90       __unwindfunclet$?IsScoped@C_BaseEntity@@QAE_NXZ$0 10067a90 f   oview_hook.obj
 0001:00066a9c       __ehhandler$?IsScoped@C_BaseEntity@@QAE_NXZ 10067a9c f   oview_hook.obj
 0001:00066ac0       __unwindfunclet$?OverrideView@c_hooks@@SIXPAX0PAVCViewSetup@@@Z$0 10067ac0 f   oview_hook.obj
 0001:00066acc       __ehhandler$?OverrideView@c_hooks@@SIXPAX0PAVCViewSetup@@@Z 10067acc f   oview_hook.obj
 0001:00066af0       __unwindfunclet$?PaintTraverse@c_hooks@@SIXPAXHI_N1@Z$0 10067af0 f   painttraverse_hook.obj
 0001:00066afc       __ehhandler$?PaintTraverse@c_hooks@@SIXPAXHI_N1@Z 10067afc f   painttraverse_hook.obj
 0001:00066b20       __unwindfunclet$?SceneEnd@c_hooks@@SIXPAX0@Z$0 10067b20 f   sceneend_hook.obj
 0001:00066b2c       __ehhandler$?SceneEnd@c_hooks@@SIXPAX0@Z 10067b2c f   sceneend_hook.obj
 0001:00066b50       __unwindfunclet$??$?0U_Creator@_Dir_enum_impl@filesystem@std@@ABW4directory_options@23@@?$_Ref_count_obj@U_Dir_enum_impl@filesystem@std@@@std@@QAE@$$QAU_Creator@_Dir_enum_impl@filesystem@1@ABW4directory_options@41@@Z$0 10067b50 f   config_system.obj
 0001:00066b58       __ehhandler$??$?0U_Creator@_Dir_enum_impl@filesystem@std@@ABW4directory_options@23@@?$_Ref_count_obj@U_Dir_enum_impl@filesystem@std@@@std@@QAE@$$QAU_Creator@_Dir_enum_impl@filesystem@1@ABW4directory_options@41@@Z 10067b58 f   config_system.obj
 0001:00066b80       __unwindfunclet$??$?RVdirectory_entry@filesystem@std@@@<lambda_bea2c85d2d76a7d41383a900013bf5c9>@@QBE?AV?$basic_string@DU?$char_traits@D@std@@V?$allocator@D@2@@std@@ABVdirectory_entry@filesystem@2@@Z$0 10067b80 f   config_system.obj
 0001:00066b88       __ehhandler$??$?RVdirectory_entry@filesystem@std@@@<lambda_bea2c85d2d76a7d41383a900013bf5c9>@@QBE?AV?$basic_string@DU?$char_traits@D@std@@V?$allocator@D@2@@std@@ABVdirectory_entry@filesystem@2@@Z 10067b88 f   config_system.obj
 0001:00066bb0       __unwindfunclet$??$?_0PBD$0A@@path@filesystem@std@@QAEAAV012@ABQBD@Z$0 10067bb0 f   config_system.obj
 0001:00066bb0       __unwindfunclet$??$?_0V?$basic_string_view@_WU?$char_traits@_W@std@@@std@@$0A@@path@filesystem@std@@QAEAAV012@ABV?$basic_string_view@_WU?$char_traits@_W@std@@@2@@Z$0 10067bb0 f   config_system.obj
 0001:00066bb8       __ehhandler$??$?_0V?$basic_string_view@_WU?$char_traits@_W@std@@@std@@$0A@@path@filesystem@std@@QAEAAV012@ABV?$basic_string_view@_WU?$char_traits@_W@std@@@2@@Z 10067bb8 f   config_system.obj
 0001:00066bb8       __ehhandler$??$?_0PBD$0A@@path@filesystem@std@@QAEAAV012@ABQBD@Z 10067bb8 f   config_system.obj
 0001:00066be0       __unwindfunclet$??$_Convert_wide_to_narrow@U?$char_traits@D@std@@V?$allocator@D@2@@filesystem@std@@YA?AV?$basic_string@DU?$char_traits@D@std@@V?$allocator@D@2@@1@W4__std_code_page@@V?$basic_string_view@_WU?$char_traits@_W@std@@@1@ABV?$allocator@D@1@@Z$0 10067be0 f   config_system.obj
 0001:00066be8       __ehhandler$??$_Convert_wide_to_narrow@U?$char_traits@D@std@@V?$allocator@D@2@@filesystem@std@@YA?AV?$basic_string@DU?$char_traits@D@std@@V?$allocator@D@2@@1@W4__std_code_page@@V?$basic_string_view@_WU?$char_traits@_W@std@@@1@ABV?$allocator@D@1@@Z 10067be8 f   config_system.obj
 0001:00066c10       __ehhandler$??$_Emplace_reallocate@AAPBD@?$vector@V?$basic_string@DU?$char_traits@D@std@@V?$allocator@D@2@@std@@V?$allocator@V?$basic_string@DU?$char_traits@D@std@@V?$allocator@D@2@@std@@@2@@std@@QAEPAV?$basic_string@DU?$char_traits@D@std@@V?$allocator@D@2@@1@QAV21@AAPBD@Z 10067c10 f   config_system.obj
 0001:00066c30       __ehhandler$??$_Emplace_reallocate@V?$basic_string@DU?$char_traits@D@std@@V?$allocator@D@2@@std@@@?$vector@V?$basic_string@DU?$char_traits@D@std@@V?$allocator@D@2@@std@@V?$allocator@V?$basic_string@DU?$char_traits@D@std@@V?$allocator@D@2@@std@@@2@@std@@QAEPAV?$basic_string@DU?$char_traits@D@std@@V?$allocator@D@2@@1@QAV21@$$QAV21@@Z 10067c30 f   config_system.obj
 0001:00066c50       __unwindfunclet$??$_Initialize_dir_enum@U_Dir_enum_impl@filesystem@std@@@_Dir_enum_impl@filesystem@std@@SA?AW4__std_win_error@@AAV?$shared_ptr@U_Dir_enum_impl@filesystem@std@@@2@ABVpath@12@W4directory_options@12@@Z$0 10067c50 f   config_system.obj
 0001:00066c5b       __ehhandler$??$_Initialize_dir_enum@U_Dir_enum_impl@filesystem@std@@@_Dir_enum_impl@filesystem@std@@SA?AW4__std_win_error@@AAV?$shared_ptr@U_Dir_enum_impl@filesystem@std@@@2@ABVpath@12@W4directory_options@12@@Z 10067c5b f   config_system.obj
 0001:00066c90       __unwindfunclet$??$_Uninitialized_move_al_unchecked@PAV?$basic_string@DU?$char_traits@D@std@@V?$allocator@D@2@@std@@PAV12@V?$allocator@V?$basic_string@DU?$char_traits@D@std@@V?$allocator@D@2@@std@@@2@@std@@YAPAV?$basic_string@DU?$char_traits@D@std@@V?$allocator@D@2@@0@PAV10@QAV10@1AAV?$allocator@V?$basic_string@DU?$char_traits@D@std@@V?$allocator@D@2@@std@@@0@U_General_ptr_iterator_tag@0@U_Unused_parameter@0@@Z$0 10067c90 f   config_system.obj
 0001:00066c98       __ehhandler$??$_Uninitialized_move_al_unchecked@PAV?$basic_string@DU?$char_traits@D@std@@V?$allocator@D@2@@std@@PAV12@V?$allocator@V?$basic_string@DU?$char_traits@D@std@@V?$allocator@D@2@@std@@@2@@std@@YAPAV?$basic_string@DU?$char_traits@D@std@@V?$allocator@D@2@@0@PAV10@QAV10@1AAV?$allocator@V?$basic_string@DU?$char_traits@D@std@@V?$allocator@D@2@@std@@@0@U_General_ptr_iterator_tag@0@U_Unused_parameter@0@@Z 10067c98 f   config_system.obj
 0001:00066cc0       __unwindfunclet$??$make_shared@U_Dir_enum_impl@filesystem@std@@U_Creator@123@ABW4directory_options@23@@std@@YA?AV?$shared_ptr@U_Dir_enum_impl@filesystem@std@@@0@$$QAU_Creator@_Dir_enum_impl@filesystem@0@ABW4directory_options@40@@Z$0 10067cc0 f   config_system.obj
 0001:00066ccf       __unwindfunclet$??$make_shared@U_Dir_enum_impl@filesystem@std@@U_Creator@123@ABW4directory_options@23@@std@@YA?AV?$shared_ptr@U_Dir_enum_impl@filesystem@std@@@0@$$QAU_Creator@_Dir_enum_impl@filesystem@0@ABW4directory_options@40@@Z$1 10067ccf f   config_system.obj
 0001:00066cd7       __ehhandler$??$make_shared@U_Dir_enum_impl@filesystem@std@@U_Creator@123@ABW4directory_options@23@@std@@YA?AV?$shared_ptr@U_Dir_enum_impl@filesystem@std@@@0@$$QAU_Creator@_Dir_enum_impl@filesystem@0@ABW4directory_options@40@@Z 10067cd7 f   config_system.obj
 0001:00066d00       __unwindfunclet$??$transform@Vdirectory_iterator@filesystem@std@@V?$back_insert_iterator@V?$vector@V?$basic_string@DU?$char_traits@D@std@@V?$allocator@D@2@@std@@V?$allocator@V?$basic_string@DU?$char_traits@D@std@@V?$allocator@D@2@@std@@@2@@std@@@3@V<lambda_bea2c85d2d76a7d41383a900013bf5c9>@@@std@@YA?AV?$back_insert_iterator@V?$vector@V?$basic_string@DU?$char_traits@D@std@@V?$allocator@D@2@@std@@V?$allocator@V?$basic_string@DU?$char_traits@D@std@@V?$allocator@D@2@@std@@@2@@std@@@0@Vdirectory_iterator@filesystem@0@0V10@V<lambda_bea2c85d2d76a7d41383a900013bf5c9>@@@Z$0 10067d00 f   config_system.obj
 0001:00066d08       __unwindfunclet$??$transform@Vdirectory_iterator@filesystem@std@@V?$back_insert_iterator@V?$vector@V?$basic_string@DU?$char_traits@D@std@@V?$allocator@D@2@@std@@V?$allocator@V?$basic_string@DU?$char_traits@D@std@@V?$allocator@D@2@@std@@@2@@std@@@3@V<lambda_bea2c85d2d76a7d41383a900013bf5c9>@@@std@@YA?AV?$back_insert_iterator@V?$vector@V?$basic_string@DU?$char_traits@D@std@@V?$allocator@D@2@@std@@V?$allocator@V?$basic_string@DU?$char_traits@D@std@@V?$allocator@D@2@@std@@@2@@std@@@0@Vdirectory_iterator@filesystem@0@0V10@V<lambda_bea2c85d2d76a7d41383a900013bf5c9>@@@Z$1 10067d08 f   config_system.obj
 0001:00066d10       __unwindfunclet$??$transform@Vdirectory_iterator@filesystem@std@@V?$back_insert_iterator@V?$vector@V?$basic_string@DU?$char_traits@D@std@@V?$allocator@D@2@@std@@V?$allocator@V?$basic_string@DU?$char_traits@D@std@@V?$allocator@D@2@@std@@@2@@std@@@3@V<lambda_bea2c85d2d76a7d41383a900013bf5c9>@@@std@@YA?AV?$back_insert_iterator@V?$vector@V?$basic_string@DU?$char_traits@D@std@@V?$allocator@D@2@@std@@V?$allocator@V?$basic_string@DU?$char_traits@D@std@@V?$allocator@D@2@@std@@@2@@std@@@0@Vdirectory_iterator@filesystem@0@0V10@V<lambda_bea2c85d2d76a7d41383a900013bf5c9>@@@Z$2 10067d10 f   config_system.obj
 0001:00066d18       __unwindfunclet$??$transform@Vdirectory_iterator@filesystem@std@@V?$back_insert_iterator@V?$vector@V?$basic_string@DU?$char_traits@D@std@@V?$allocator@D@2@@std@@V?$allocator@V?$basic_string@DU?$char_traits@D@std@@V?$allocator@D@2@@std@@@2@@std@@@3@V<lambda_bea2c85d2d76a7d41383a900013bf5c9>@@@std@@YA?AV?$back_insert_iterator@V?$vector@V?$basic_string@DU?$char_traits@D@std@@V?$allocator@D@2@@std@@V?$allocator@V?$basic_string@DU?$char_traits@D@std@@V?$allocator@D@2@@std@@@2@@std@@@0@Vdirectory_iterator@filesystem@0@0V10@V<lambda_bea2c85d2d76a7d41383a900013bf5c9>@@@Z$3 10067d18 f   config_system.obj
 0001:00066d20       __unwindfunclet$??$transform@Vdirectory_iterator@filesystem@std@@V?$back_insert_iterator@V?$vector@V?$basic_string@DU?$char_traits@D@std@@V?$allocator@D@2@@std@@V?$allocator@V?$basic_string@DU?$char_traits@D@std@@V?$allocator@D@2@@std@@@2@@std@@@3@V<lambda_bea2c85d2d76a7d41383a900013bf5c9>@@@std@@YA?AV?$back_insert_iterator@V?$vector@V?$basic_string@DU?$char_traits@D@std@@V?$allocator@D@2@@std@@V?$allocator@V?$basic_string@DU?$char_traits@D@std@@V?$allocator@D@2@@std@@@2@@std@@@0@Vdirectory_iterator@filesystem@0@0V10@V<lambda_bea2c85d2d76a7d41383a900013bf5c9>@@@Z$4 10067d20 f   config_system.obj
 0001:00066d28       __ehhandler$??$transform@Vdirectory_iterator@filesystem@std@@V?$back_insert_iterator@V?$vector@V?$basic_string@DU?$char_traits@D@std@@V?$allocator@D@2@@std@@V?$allocator@V?$basic_string@DU?$char_traits@D@std@@V?$allocator@D@2@@std@@@2@@std@@@3@V<lambda_bea2c85d2d76a7d41383a900013bf5c9>@@@std@@YA?AV?$back_insert_iterator@V?$vector@V?$basic_string@DU?$char_traits@D@std@@V?$allocator@D@2@@std@@V?$allocator@V?$basic_string@DU?$char_traits@D@std@@V?$allocator@D@2@@std@@@2@@std@@@0@Vdirectory_iterator@filesystem@0@0V10@V<lambda_bea2c85d2d76a7d41383a900013bf5c9>@@@Z 10067d28 f   config_system.obj
 0001:00066d50       __unwindfunclet$??$use_facet@V?$codecvt@DDU_Mbstatet@@@std@@@std@@YAABV?$codecvt@DDU_Mbstatet@@@0@ABVlocale@0@@Z$0 10067d50 f   config_system.obj
 0001:00066d59       __unwindfunclet$??$use_facet@V?$codecvt@DDU_Mbstatet@@@std@@@std@@YAABV?$codecvt@DDU_Mbstatet@@@0@ABVlocale@0@@Z$1 10067d59 f   config_system.obj
 0001:00066d61       __ehhandler$??$use_facet@V?$codecvt@DDU_Mbstatet@@@std@@@std@@YAABV?$codecvt@DDU_Mbstatet@@@0@ABVlocale@0@@Z 10067d61 f   config_system.obj
 0001:00066d80       __unwindfunclet$??0?$basic_filebuf@DU?$char_traits@D@std@@@std@@QAE@PAU_iobuf@@@Z$0 10067d80 f   config_system.obj
 0001:00066d89       __ehhandler$??0?$basic_filebuf@DU?$char_traits@D@std@@@std@@QAE@PAU_iobuf@@@Z 10067d89 f   config_system.obj
 0001:00066db0       __unwindfunclet$??0?$basic_ifstream@DU?$char_traits@D@std@@@std@@QAE@PB_WHH@Z$0 10067db0 f   config_system.obj
 0001:00066dcd       __unwindfunclet$??0?$basic_ifstream@DU?$char_traits@D@std@@@std@@QAE@PB_WHH@Z$1 10067dcd f   config_system.obj
 0001:00066dd9       __unwindfunclet$??0?$basic_ifstream@DU?$char_traits@D@std@@@std@@QAE@PB_WHH@Z$2 10067dd9 f   config_system.obj
 0001:00066de4       __ehhandler$??0?$basic_ifstream@DU?$char_traits@D@std@@@std@@QAE@PB_WHH@Z 10067de4 f   config_system.obj
 0001:00066e00       __unwindfunclet$??0?$basic_ofstream@DU?$char_traits@D@std@@@std@@QAE@PB_WHH@Z$0 10067e00 f   config_system.obj
 0001:00066e00       __unwindfunclet$??0?$basic_ofstream@DU?$char_traits@D@std@@@std@@QAE@PBDHH@Z$0 10067e00 f   Interfaces.obj
 0001:00066e1d       __unwindfunclet$??0?$basic_ofstream@DU?$char_traits@D@std@@@std@@QAE@PB_WHH@Z$1 10067e1d f   config_system.obj
 0001:00066e1d       __unwindfunclet$??0?$basic_ofstream@DU?$char_traits@D@std@@@std@@QAE@PBDHH@Z$1 10067e1d f   Interfaces.obj
 0001:00066e29       __unwindfunclet$??0?$basic_ofstream@DU?$char_traits@D@std@@@std@@QAE@PB_WHH@Z$2 10067e29 f   config_system.obj
 0001:00066e29       __unwindfunclet$??0?$basic_ofstream@DU?$char_traits@D@std@@@std@@QAE@PBDHH@Z$2 10067e29 f   Interfaces.obj
 0001:00066e34       __ehhandler$??0?$basic_ofstream@DU?$char_traits@D@std@@@std@@QAE@PBDHH@Z 10067e34 f   Interfaces.obj
 0001:00066e34       __ehhandler$??0?$basic_ofstream@DU?$char_traits@D@std@@@std@@QAE@PB_WHH@Z 10067e34 f   config_system.obj
 0001:00066e50       __unwindfunclet$??0_Creator@_Dir_enum_impl@filesystem@std@@QAE@ABVpath@23@W4directory_options@23@@Z$0 10067e50 f   config_system.obj
 0001:00066e58       __unwindfunclet$??0_Creator@_Dir_enum_impl@filesystem@std@@QAE@ABVpath@23@W4directory_options@23@@Z$1 10067e58 f   config_system.obj
 0001:00066e63       __ehhandler$??0_Creator@_Dir_enum_impl@filesystem@std@@QAE@ABVpath@23@W4directory_options@23@@Z 10067e63 f   config_system.obj
 0001:00066e80       __unwindfunclet$??0_Dir_enum_impl@filesystem@std@@QAE@$$QAU_Creator@012@W4directory_options@12@@Z$0 10067e80 f   config_system.obj
 0001:00066e88       __unwindfunclet$??0_Dir_enum_impl@filesystem@std@@QAE@$$QAU_Creator@012@W4directory_options@12@@Z$1 10067e88 f   config_system.obj
 0001:00066e93       __ehhandler$??0_Dir_enum_impl@filesystem@std@@QAE@$$QAU_Creator@012@W4directory_options@12@@Z 10067e93 f   config_system.obj
 0001:00066eb0       __unwindfunclet$??0directory_iterator@filesystem@std@@QAE@ABVpath@12@@Z$0 10067eb0 f   config_system.obj
 0001:00066eb8       __ehhandler$??0directory_iterator@filesystem@std@@QAE@ABVpath@12@@Z 10067eb8 f   config_system.obj
 0001:00066ee0       __unwindfunclet$??0filesystem_error@filesystem@std@@QAE@ABV012@@Z$0 10067ee0 f   config_system.obj
 0001:00066ee8       __unwindfunclet$??0filesystem_error@filesystem@std@@QAE@ABV012@@Z$1 10067ee8 f   config_system.obj
 0001:00066ef3       __unwindfunclet$??0filesystem_error@filesystem@std@@QAE@ABV012@@Z$2 10067ef3 f   config_system.obj
 0001:00066efe       __ehhandler$??0filesystem_error@filesystem@std@@QAE@ABV012@@Z 10067efe f   config_system.obj
 0001:00066f20       __unwindfunclet$??0filesystem_error@filesystem@std@@QAE@ABV?$basic_string@DU?$char_traits@D@std@@V?$allocator@D@2@@2@ABVpath@12@1Verror_code@2@@Z$0 10067f20 f   config_system.obj
 0001:00066f28       __unwindfunclet$??0filesystem_error@filesystem@std@@QAE@ABV?$basic_string@DU?$char_traits@D@std@@V?$allocator@D@2@@2@ABVpath@12@1Verror_code@2@@Z$1 10067f28 f   config_system.obj
 0001:00066f33       __unwindfunclet$??0filesystem_error@filesystem@std@@QAE@ABV?$basic_string@DU?$char_traits@D@std@@V?$allocator@D@2@@2@ABVpath@12@1Verror_code@2@@Z$2 10067f33 f   config_system.obj
 0001:00066f3e       __ehhandler$??0filesystem_error@filesystem@std@@QAE@ABV?$basic_string@DU?$char_traits@D@std@@V?$allocator@D@2@@2@ABVpath@12@1Verror_code@2@@Z 10067f3e f   config_system.obj
 0001:00066f60       __unwindfunclet$??0filesystem_error@filesystem@std@@QAE@ABV?$basic_string@DU?$char_traits@D@std@@V?$allocator@D@2@@2@ABVpath@12@Verror_code@2@@Z$0 10067f60 f   config_system.obj
 0001:00066f68       __unwindfunclet$??0filesystem_error@filesystem@std@@QAE@ABV?$basic_string@DU?$char_traits@D@std@@V?$allocator@D@2@@2@ABVpath@12@Verror_code@2@@Z$1 10067f68 f   config_system.obj
 0001:00066f73       __unwindfunclet$??0filesystem_error@filesystem@std@@QAE@ABV?$basic_string@DU?$char_traits@D@std@@V?$allocator@D@2@@2@ABVpath@12@Verror_code@2@@Z$2 10067f73 f   config_system.obj
 0001:00066f7e       __unwindfunclet$??0filesystem_error@filesystem@std@@QAE@ABV?$basic_string@DU?$char_traits@D@std@@V?$allocator@D@2@@2@ABVpath@12@Verror_code@2@@Z$3 10067f7e f   config_system.obj
 0001:00066f86       __ehhandler$??0filesystem_error@filesystem@std@@QAE@ABV?$basic_string@DU?$char_traits@D@std@@V?$allocator@D@2@@2@ABVpath@12@Verror_code@2@@Z 10067f86 f   config_system.obj
 0001:00066fb0       __unwindfunclet$??0filesystem_error@filesystem@std@@QAE@ABV?$basic_string@DU?$char_traits@D@std@@V?$allocator@D@2@@2@Verror_code@2@@Z$0 10067fb0 f   config_system.obj
 0001:00066fb8       __unwindfunclet$??0filesystem_error@filesystem@std@@QAE@ABV?$basic_string@DU?$char_traits@D@std@@V?$allocator@D@2@@2@Verror_code@2@@Z$1 10067fb8 f   config_system.obj
 0001:00066fc3       __unwindfunclet$??0filesystem_error@filesystem@std@@QAE@ABV?$basic_string@DU?$char_traits@D@std@@V?$allocator@D@2@@2@Verror_code@2@@Z$2 10067fc3 f   config_system.obj
 0001:00066fce       __ehhandler$??0filesystem_error@filesystem@std@@QAE@ABV?$basic_string@DU?$char_traits@D@std@@V?$allocator@D@2@@2@Verror_code@2@@Z 10067fce f   config_system.obj
 0001:00066ff0       __unwindfunclet$??Kfilesystem@std@@YA?AVpath@01@ABV201@0@Z$0 10067ff0 f   config_system.obj
 0001:00066ff8       __ehhandler$??Kfilesystem@std@@YA?AVpath@01@ABV201@0@Z 10067ff8 f   config_system.obj
 0001:00067020       __unwindfunclet$?_Convert_narrow_to_wide@filesystem@std@@YA?AV?$basic_string@_WU?$char_traits@_W@std@@V?$allocator@_W@2@@2@W4__std_code_page@@V?$basic_string_view@DU?$char_traits@D@std@@@2@@Z$0 10068020 f   config_system.obj
 0001:00067028       __ehhandler$?_Convert_narrow_to_wide@filesystem@std@@YA?AV?$basic_string@_WU?$char_traits@_W@std@@V?$allocator@_W@2@@2@W4__std_code_page@@V?$basic_string_view@DU?$char_traits@D@std@@@2@@Z 10068028 f   config_system.obj
 0001:00067050       __unwindfunclet$?_Makestr@_System_error@std@@CA?AV?$basic_string@DU?$char_traits@D@std@@V?$allocator@D@2@@2@Verror_code@2@V32@@Z$0 10068050 f   config_system.obj
 0001:00067058       __unwindfunclet$?_Makestr@_System_error@std@@CA?AV?$basic_string@DU?$char_traits@D@std@@V?$allocator@D@2@@2@Verror_code@2@V32@@Z$1 10068058 f   config_system.obj
 0001:00067060       __ehhandler$?_Makestr@_System_error@std@@CA?AV?$basic_string@DU?$char_traits@D@std@@V?$allocator@D@2@@2@Verror_code@2@V32@@Z 10068060 f   config_system.obj
 0001:00067090       __unwindfunclet$?_Pretty_message@filesystem_error@filesystem@std@@CA?AV?$basic_string@DU?$char_traits@D@std@@V?$allocator@D@2@@3@V?$basic_string_view@DU?$char_traits@D@std@@@3@ABVpath@23@1@Z$0 10068090 f   config_system.obj
 0001:00067098       __unwindfunclet$?_Pretty_message@filesystem_error@filesystem@std@@CA?AV?$basic_string@DU?$char_traits@D@std@@V?$allocator@D@2@@3@V?$basic_string_view@DU?$char_traits@D@std@@@3@ABVpath@23@1@Z$1 10068098 f   config_system.obj
 0001:000670a0       __unwindfunclet$?_Pretty_message@filesystem_error@filesystem@std@@CA?AV?$basic_string@DU?$char_traits@D@std@@V?$allocator@D@2@@3@V?$basic_string_view@DU?$char_traits@D@std@@@3@ABVpath@23@1@Z$2 100680a0 f   config_system.obj
 0001:000670a8       __ehhandler$?_Pretty_message@filesystem_error@filesystem@std@@CA?AV?$basic_string@DU?$char_traits@D@std@@V?$allocator@D@2@@3@V?$basic_string_view@DU?$char_traits@D@std@@@3@ABVpath@23@1@Z 100680a8 f   config_system.obj
 0001:000670d0       __unwindfunclet$?_Refresh@_Dir_enum_impl@filesystem@std@@QAEXABU__std_fs_find_data@@@Z$0 100680d0 f   config_system.obj
 0001:000670d8       __ehhandler$?_Refresh@_Dir_enum_impl@filesystem@std@@QAEXABU__std_fs_find_data@@@Z 100680d8 f   config_system.obj
 0001:00067100       __unwindfunclet$?_Throw_fs_error@filesystem@std@@YAXPBDW4__std_win_error@@@Z$0 10068100 f   config_system.obj
 0001:00067108       __ehhandler$?_Throw_fs_error@filesystem@std@@YAXPBDW4__std_win_error@@@Z 10068108 f   config_system.obj
 0001:00067130       __unwindfunclet$?_Throw_fs_error@filesystem@std@@YAXPBDW4__std_win_error@@ABVpath@12@@Z$0 10068130 f   config_system.obj
 0001:00067130       __unwindfunclet$?_Throw_fs_error@filesystem@std@@YAXPBDW4__std_win_error@@ABVpath@12@2@Z$0 10068130 f   config_system.obj
 0001:00067138       __ehhandler$?_Throw_fs_error@filesystem@std@@YAXPBDW4__std_win_error@@ABVpath@12@2@Z 10068138 f   config_system.obj
 0001:00067138       __ehhandler$?_Throw_fs_error@filesystem@std@@YAXPBDW4__std_win_error@@ABVpath@12@@Z 10068138 f   config_system.obj
 0001:00067160       __ehhandler$?run@c_config@@QAEXPBD@Z 10068160 f   config_system.obj
 0001:00067160       __ehhandler$?add@c_config@@QAEXPBD@Z 10068160 f   config_system.obj
 0001:00067180       __ehhandler$?system_category@std@@YAABVerror_category@1@XZ 10068180 f   config_system.obj
 0001:00067180       __ehhandler$?generic_category@std@@YAABVerror_category@1@XZ 10068180 f   config_system.obj
 0001:000671a0       __ehhandler$?load@c_config@@QAEXI@Z 100681a0 f   config_system.obj
 0001:000671d0       __unwindfunclet$?open@?$basic_filebuf@DU?$char_traits@D@std@@@std@@QAEPAV12@PBDHH@Z$0 100681d0 f   Interfaces.obj
 0001:000671d0       __unwindfunclet$?open@?$basic_filebuf@DU?$char_traits@D@std@@@std@@QAEPAV12@PB_WHH@Z$0 100681d0 f   config_system.obj
 0001:000671d8       __ehhandler$?open@?$basic_filebuf@DU?$char_traits@D@std@@@std@@QAEPAV12@PB_WHH@Z 100681d8 f   config_system.obj
 0001:000671d8       __ehhandler$?open@?$basic_filebuf@DU?$char_traits@D@std@@@std@@QAEPAV12@PBDHH@Z 100681d8 f   Interfaces.obj
 0001:00067200       __ehhandler$?remove@c_config@@QAEXI@Z 10068200 f   config_system.obj
 0001:00067230       __ehhandler$?rename@c_config@@QAEXIPBD@Z 10068230 f   config_system.obj
 0001:00067260       __ehhandler$?save@c_config@@QBEXI@Z 10068260 f   config_system.obj
 0001:00067290       __unwindfunclet$?uflow@?$basic_filebuf@DU?$char_traits@D@std@@@std@@MAEHXZ$0 10068290 f   config_system.obj
 0001:00067298       __ehhandler$?uflow@?$basic_filebuf@DU?$char_traits@D@std@@@std@@MAEHXZ 10068298 f   config_system.obj
 0001:000672c0       __unwindfunclet$?SetAbsAngles@C_BaseEntity@@QAEXVVector@@@Z$0 100682c0 f   CEntity.obj
 0001:000672cc       __ehhandler$?SetAbsAngles@C_BaseEntity@@QAEXVVector@@@Z 100682cc f   CEntity.obj
 0001:000672f0       __unwindfunclet$?SetAbsOrigin@C_BaseEntity@@QAEXVVector@@@Z$0 100682f0 f   CEntity.obj
 0001:000672fc       __ehhandler$?SetAbsOrigin@C_BaseEntity@@QAEXVVector@@@Z 100682fc f   CEntity.obj
 0001:00067320       __unwindfunclet$??$?6U?$char_traits@D@std@@@std@@YAAAV?$basic_ostream@DU?$char_traits@D@std@@@0@AAV10@PBD@Z$2 10068320 f   Interfaces.obj
 0001:0006732b       __ehhandler$??$?6U?$char_traits@D@std@@@std@@YAAAV?$basic_ostream@DU?$char_traits@D@std@@@0@AAV10@PBD@Z 1006832b f   Interfaces.obj
 0001:00067350       __unwindfunclet$??$CaptureInterface@VIGameEventManager@@@interfaces@@YAPAVIGameEventManager@@PBD0@Z$0 10068350 f   Interfaces.obj
 0001:00067358       __ehhandler$??$CaptureInterface@VIGameEventManager@@@interfaces@@YAPAVIGameEventManager@@PBD0@Z 10068358 f   Interfaces.obj
 0001:00067380       __unwindfunclet$??$FindClass@VCPrediction@@@interfaces@@YAPAVCPrediction@@V?$basic_string@DU?$char_traits@D@std@@V?$allocator@D@2@@std@@0_N@Z$0 10068380 f   Interfaces.obj
 0001:00067380       __unwindfunclet$??$FindClass@VIGameMovement@@@interfaces@@YAPAVIGameMovement@@V?$basic_string@DU?$char_traits@D@std@@V?$allocator@D@2@@std@@0_N@Z$0 10068380 f   Interfaces.obj
 0001:00067380       __unwindfunclet$??$FindClass@VIVEngineClient@@@interfaces@@YAPAVIVEngineClient@@V?$basic_string@DU?$char_traits@D@std@@V?$allocator@D@2@@std@@0_N@Z$0 10068380 f   Interfaces.obj
 0001:00067380       __unwindfunclet$??$FindClass@VIClientEntityList@@@interfaces@@YAPAVIClientEntityList@@V?$basic_string@DU?$char_traits@D@std@@V?$allocator@D@2@@std@@0_N@Z$0 10068380 f   Interfaces.obj
 0001:00067380       __unwindfunclet$??$FindClass@VIBaseClientDLL@@@interfaces@@YAPAVIBaseClientDLL@@V?$basic_string@DU?$char_traits@D@std@@V?$allocator@D@2@@std@@0_N@Z$0 10068380 f   Interfaces.obj
 0001:00067380       __unwindfunclet$??$FindClass@VIVModelInfo@@@interfaces@@YAPAVIVModelInfo@@V?$basic_string@DU?$char_traits@D@std@@V?$allocator@D@2@@std@@0_N@Z$0 10068380 f   Interfaces.obj
 0001:00067380       __unwindfunclet$??$FindClass@VISurface@@@interfaces@@YAPAVISurface@@V?$basic_string@DU?$char_traits@D@std@@V?$allocator@D@2@@std@@0_N@Z$0 10068380 f   Interfaces.obj
 0001:00067380       __unwindfunclet$??$FindClass@VIEngineTrace@@@interfaces@@YAPAVIEngineTrace@@V?$basic_string@DU?$char_traits@D@std@@V?$allocator@D@2@@std@@0_N@Z$0 10068380 f   Interfaces.obj
 0001:00067380       __unwindfunclet$??$FindClass@VCModelRender@@@interfaces@@YAPAVCModelRender@@V?$basic_string@DU?$char_traits@D@std@@V?$allocator@D@2@@std@@0_N@Z$0 10068380 f   Interfaces.obj
 0001:00067380       __unwindfunclet$??$FindClass@VIVRenderView@@@interfaces@@YAPAVIVRenderView@@V?$basic_string@DU?$char_traits@D@std@@V?$allocator@D@2@@std@@0_N@Z$0 10068380 f   Interfaces.obj
 0001:00067380       __unwindfunclet$??$FindClass@VIPanel@@@interfaces@@YAPAVIPanel@@V?$basic_string@DU?$char_traits@D@std@@V?$allocator@D@2@@std@@0_N@Z$0 10068380 f   Interfaces.obj
 0001:00067380       __unwindfunclet$??$FindClass@VIPhysicsSurfaceProps@@@interfaces@@YAPAVIPhysicsSurfaceProps@@V?$basic_string@DU?$char_traits@D@std@@V?$allocator@D@2@@std@@0_N@Z$0 10068380 f   Interfaces.obj
 0001:00067380       __unwindfunclet$??$FindClass@VICVar@@@interfaces@@YAPAVICVar@@V?$basic_string@DU?$char_traits@D@std@@V?$allocator@D@2@@std@@0_N@Z$0 10068380 f   Interfaces.obj
 0001:00067380       __unwindfunclet$??$FindClass@VIMaterialSystem@@@interfaces@@YAPAVIMaterialSystem@@V?$basic_string@DU?$char_traits@D@std@@V?$allocator@D@2@@std@@0_N@Z$0 10068380 f   Interfaces.obj
 0001:00067388       __unwindfunclet$??$FindClass@VIVRenderView@@@interfaces@@YAPAVIVRenderView@@V?$basic_string@DU?$char_traits@D@std@@V?$allocator@D@2@@std@@0_N@Z$1 10068388 f   Interfaces.obj
 0001:00067388       __unwindfunclet$??$FindClass@VIGameMovement@@@interfaces@@YAPAVIGameMovement@@V?$basic_string@DU?$char_traits@D@std@@V?$allocator@D@2@@std@@0_N@Z$1 10068388 f   Interfaces.obj
 0001:00067388       __unwindfunclet$??$FindClass@VIMaterialSystem@@@interfaces@@YAPAVIMaterialSystem@@V?$basic_string@DU?$char_traits@D@std@@V?$allocator@D@2@@std@@0_N@Z$1 10068388 f   Interfaces.obj
 0001:00067388       __unwindfunclet$??$FindClass@VCModelRender@@@interfaces@@YAPAVCModelRender@@V?$basic_string@DU?$char_traits@D@std@@V?$allocator@D@2@@std@@0_N@Z$1 10068388 f   Interfaces.obj
 0001:00067388       __unwindfunclet$??$FindClass@VIVModelInfo@@@interfaces@@YAPAVIVModelInfo@@V?$basic_string@DU?$char_traits@D@std@@V?$allocator@D@2@@std@@0_N@Z$1 10068388 f   Interfaces.obj
 0001:00067388       __unwindfunclet$??$FindClass@VICVar@@@interfaces@@YAPAVICVar@@V?$basic_string@DU?$char_traits@D@std@@V?$allocator@D@2@@std@@0_N@Z$1 10068388 f   Interfaces.obj
 0001:00067388       __unwindfunclet$??$FindClass@VCPrediction@@@interfaces@@YAPAVCPrediction@@V?$basic_string@DU?$char_traits@D@std@@V?$allocator@D@2@@std@@0_N@Z$1 10068388 f   Interfaces.obj
 0001:00067388       __unwindfunclet$??$FindClass@VIPanel@@@interfaces@@YAPAVIPanel@@V?$basic_string@DU?$char_traits@D@std@@V?$allocator@D@2@@std@@0_N@Z$1 10068388 f   Interfaces.obj
 0001:00067388       __unwindfunclet$??$FindClass@VIPhysicsSurfaceProps@@@interfaces@@YAPAVIPhysicsSurfaceProps@@V?$basic_string@DU?$char_traits@D@std@@V?$allocator@D@2@@std@@0_N@Z$1 10068388 f   Interfaces.obj
 0001:00067388       __unwindfunclet$??$FindClass@VIClientEntityList@@@interfaces@@YAPAVIClientEntityList@@V?$basic_string@DU?$char_traits@D@std@@V?$allocator@D@2@@std@@0_N@Z$1 10068388 f   Interfaces.obj
 0001:00067388       __unwindfunclet$??$FindClass@VIBaseClientDLL@@@interfaces@@YAPAVIBaseClientDLL@@V?$basic_string@DU?$char_traits@D@std@@V?$allocator@D@2@@std@@0_N@Z$1 10068388 f   Interfaces.obj
 0001:00067388       __unwindfunclet$??$FindClass@VIEngineTrace@@@interfaces@@YAPAVIEngineTrace@@V?$basic_string@DU?$char_traits@D@std@@V?$allocator@D@2@@std@@0_N@Z$1 10068388 f   Interfaces.obj
 0001:00067388       __unwindfunclet$??$FindClass@VIVEngineClient@@@interfaces@@YAPAVIVEngineClient@@V?$basic_string@DU?$char_traits@D@std@@V?$allocator@D@2@@std@@0_N@Z$1 10068388 f   Interfaces.obj
 0001:00067388       __unwindfunclet$??$FindClass@VISurface@@@interfaces@@YAPAVISurface@@V?$basic_string@DU?$char_traits@D@std@@V?$allocator@D@2@@std@@0_N@Z$1 10068388 f   Interfaces.obj
 0001:00067390       __ehhandler$??$FindClass@VIEngineTrace@@@interfaces@@YAPAVIEngineTrace@@V?$basic_string@DU?$char_traits@D@std@@V?$allocator@D@2@@std@@0_N@Z 10068390 f   Interfaces.obj
 0001:00067390       __ehhandler$??$FindClass@VIPhysicsSurfaceProps@@@interfaces@@YAPAVIPhysicsSurfaceProps@@V?$basic_string@DU?$char_traits@D@std@@V?$allocator@D@2@@std@@0_N@Z 10068390 f   Interfaces.obj
 0001:00067390       __ehhandler$??$FindClass@VIVEngineClient@@@interfaces@@YAPAVIVEngineClient@@V?$basic_string@DU?$char_traits@D@std@@V?$allocator@D@2@@std@@0_N@Z 10068390 f   Interfaces.obj
 0001:00067390       __ehhandler$??$FindClass@VIBaseClientDLL@@@interfaces@@YAPAVIBaseClientDLL@@V?$basic_string@DU?$char_traits@D@std@@V?$allocator@D@2@@std@@0_N@Z 10068390 f   Interfaces.obj
 0001:00067390       __ehhandler$??$FindClass@VCModelRender@@@interfaces@@YAPAVCModelRender@@V?$basic_string@DU?$char_traits@D@std@@V?$allocator@D@2@@std@@0_N@Z 10068390 f   Interfaces.obj
 0001:00067390       __ehhandler$??$FindClass@VCPrediction@@@interfaces@@YAPAVCPrediction@@V?$basic_string@DU?$char_traits@D@std@@V?$allocator@D@2@@std@@0_N@Z 10068390 f   Interfaces.obj
 0001:00067390       __ehhandler$??$FindClass@VICVar@@@interfaces@@YAPAVICVar@@V?$basic_string@DU?$char_traits@D@std@@V?$allocator@D@2@@std@@0_N@Z 10068390 f   Interfaces.obj
 0001:00067390       __ehhandler$??$FindClass@VIClientEntityList@@@interfaces@@YAPAVIClientEntityList@@V?$basic_string@DU?$char_traits@D@std@@V?$allocator@D@2@@std@@0_N@Z 10068390 f   Interfaces.obj
 0001:00067390       __ehhandler$??$FindClass@VIGameMovement@@@interfaces@@YAPAVIGameMovement@@V?$basic_string@DU?$char_traits@D@std@@V?$allocator@D@2@@std@@0_N@Z 10068390 f   Interfaces.obj
 0001:00067390       __ehhandler$??$FindClass@VIMaterialSystem@@@interfaces@@YAPAVIMaterialSystem@@V?$basic_string@DU?$char_traits@D@std@@V?$allocator@D@2@@std@@0_N@Z 10068390 f   Interfaces.obj
 0001:00067390       __ehhandler$??$FindClass@VIPanel@@@interfaces@@YAPAVIPanel@@V?$basic_string@DU?$char_traits@D@std@@V?$allocator@D@2@@std@@0_N@Z 10068390 f   Interfaces.obj
 0001:00067390       __ehhandler$??$FindClass@VIVRenderView@@@interfaces@@YAPAVIVRenderView@@V?$basic_string@DU?$char_traits@D@std@@V?$allocator@D@2@@std@@0_N@Z 10068390 f   Interfaces.obj
 0001:00067390       __ehhandler$??$FindClass@VIVModelInfo@@@interfaces@@YAPAVIVModelInfo@@V?$basic_string@DU?$char_traits@D@std@@V?$allocator@D@2@@std@@0_N@Z 10068390 f   Interfaces.obj
 0001:00067390       __ehhandler$??$FindClass@VISurface@@@interfaces@@YAPAVISurface@@V?$basic_string@DU?$char_traits@D@std@@V?$allocator@D@2@@std@@0_N@Z 10068390 f   Interfaces.obj
 0001:000673c0       __unwindfunclet$??0sentry@?$basic_ostream@DU?$char_traits@D@std@@@std@@QAE@AAV12@@Z$0 100683c0 f   Interfaces.obj
 0001:000673c8       __ehhandler$??0sentry@?$basic_ostream@DU?$char_traits@D@std@@@std@@QAE@AAV12@@Z 100683c8 f   Interfaces.obj
 0001:000673f0       __unwindfunclet$?Init@interfaces@@YAXXZ$0 100683f0 f   Interfaces.obj
 0001:000673f8       __unwindfunclet$?Init@interfaces@@YAXXZ$2 100683f8 f   Interfaces.obj
 0001:00067400       __unwindfunclet$?Init@interfaces@@YAXXZ$4 10068400 f   Interfaces.obj
 0001:00067408       __unwindfunclet$?Init@interfaces@@YAXXZ$6 10068408 f   Interfaces.obj
 0001:00067410       __unwindfunclet$?Init@interfaces@@YAXXZ$8 10068410 f   Interfaces.obj
 0001:0006741b       __unwindfunclet$?Init@interfaces@@YAXXZ$10 1006841b f   Interfaces.obj
 0001:00067426       __unwindfunclet$?Init@interfaces@@YAXXZ$12 10068426 f   Interfaces.obj
 0001:00067431       __unwindfunclet$?Init@interfaces@@YAXXZ$14 10068431 f   Interfaces.obj
 0001:0006743c       __unwindfunclet$?Init@interfaces@@YAXXZ$16 1006843c f   Interfaces.obj
 0001:00067447       __unwindfunclet$?Init@interfaces@@YAXXZ$18 10068447 f   Interfaces.obj
 0001:00067452       __unwindfunclet$?Init@interfaces@@YAXXZ$20 10068452 f   Interfaces.obj
 0001:0006745d       __unwindfunclet$?Init@interfaces@@YAXXZ$22 1006845d f   Interfaces.obj
 0001:00067468       __unwindfunclet$?Init@interfaces@@YAXXZ$24 10068468 f   Interfaces.obj
 0001:00067473       __unwindfunclet$?Init@interfaces@@YAXXZ$26 10068473 f   Interfaces.obj
 0001:0006747e       __unwindfunclet$?Init@interfaces@@YAXXZ$28 1006847e f   Interfaces.obj
 0001:00067489       __unwindfunclet$?Init@interfaces@@YAXXZ$29 10068489 f   Interfaces.obj
 0001:00067494       __ehhandler$?Init@interfaces@@YAXXZ 10068494 f   Interfaces.obj
 0001:000674c0       __unwindfunclet$??$?0H@?$_Ref_count_obj@UNode@NetvarTree@@@std@@QAE@$$QAH@Z$0 100684c0 f   NetvarManager.obj
 0001:000674c8       __ehhandler$??$?0H@?$_Ref_count_obj@UNode@NetvarTree@@@std@@QAE@$$QAH@Z 100684c8 f   NetvarManager.obj
 0001:000674f0       __ehhandler$??$_Buynode@PBDABV?$shared_ptr@UNode@NetvarTree@@@std@@@?$_List_buy@U?$pair@$$CBV?$basic_string@DU?$char_traits@D@std@@V?$allocator@D@2@@std@@V?$shared_ptr@UNode@NetvarTree@@@2@@std@@V?$allocator@U?$pair@$$CBV?$basic_string@DU?$char_traits@D@std@@V?$allocator@D@2@@std@@V?$shared_ptr@UNode@NetvarTree@@@2@@std@@@2@@std@@QAEPAU?$_List_node@U?$pair@$$CBV?$basic_string@DU?$char_traits@D@std@@V?$allocator@D@2@@std@@V?$shared_ptr@UNode@NetvarTree@@@2@@std@@PAX@1@PAU21@0$$QAPBDABV?$shared_ptr@UNode@NetvarTree@@@1@@Z 100684f0 f   NetvarManager.obj
 0001:00067510       __unwindfunclet$??$make_shared@UNode@NetvarTree@@H@std@@YA?AV?$shared_ptr@UNode@NetvarTree@@@0@$$QAH@Z$0 10068510 f   NetvarManager.obj
 0001:0006751f       __unwindfunclet$??$make_shared@UNode@NetvarTree@@H@std@@YA?AV?$shared_ptr@UNode@NetvarTree@@@0@$$QAH@Z$1 1006851f f   NetvarManager.obj
 0001:00067527       __ehhandler$??$make_shared@UNode@NetvarTree@@H@std@@YA?AV?$shared_ptr@UNode@NetvarTree@@@0@$$QAH@Z 10068527 f   NetvarManager.obj
 0001:00067550       __unwindfunclet$??0?$_Hash@V?$_Umap_traits@V?$basic_string@DU?$char_traits@D@std@@V?$allocator@D@2@@std@@V?$shared_ptr@UNode@NetvarTree@@@2@V?$_Uhash_compare@V?$basic_string@DU?$char_traits@D@std@@V?$allocator@D@2@@std@@U?$hash@V?$basic_string@DU?$char_traits@D@std@@V?$allocator@D@2@@std@@@2@U?$equal_to@V?$basic_string@DU?$char_traits@D@std@@V?$allocator@D@2@@std@@@2@@2@V?$allocator@U?$pair@$$CBV?$basic_string@DU?$char_traits@D@std@@V?$allocator@D@2@@std@@V?$shared_ptr@UNode@NetvarTree@@@2@@std@@@2@$0A@@std@@@std@@QAE@ABV?$_Uhash_compare@V?$basic_string@DU?$char_traits@D@std@@V?$allocator@D@2@@std@@U?$hash@V?$basic_string@DU?$char_traits@D@std@@V?$allocator@D@2@@std@@@2@U?$equal_to@V?$basic_string@DU?$char_traits@D@std@@V?$allocator@D@2@@std@@@2@@1@ABV?$allocator@U?$pair@$$CBV?$basic_string@DU?$char_traits@D@std@@V?$allocator@D@2@@std@@V?$shared_ptr@UNode@NetvarTree@@@2@@std@@@1@@Z$0 10068550 f   NetvarManager.obj
 0001:0006755b       __unwindfunclet$??0?$_Hash@V?$_Umap_traits@V?$basic_string@DU?$char_traits@D@std@@V?$allocator@D@2@@std@@V?$shared_ptr@UNode@NetvarTree@@@2@V?$_Uhash_compare@V?$basic_string@DU?$char_traits@D@std@@V?$allocator@D@2@@std@@U?$hash@V?$basic_string@DU?$char_traits@D@std@@V?$allocator@D@2@@std@@@2@U?$equal_to@V?$basic_string@DU?$char_traits@D@std@@V?$allocator@D@2@@std@@@2@@2@V?$allocator@U?$pair@$$CBV?$basic_string@DU?$char_traits@D@std@@V?$allocator@D@2@@std@@V?$shared_ptr@UNode@NetvarTree@@@2@@std@@@2@$0A@@std@@@std@@QAE@ABV?$_Uhash_compare@V?$basic_string@DU?$char_traits@D@std@@V?$allocator@D@2@@std@@U?$hash@V?$basic_string@DU?$char_traits@D@std@@V?$allocator@D@2@@std@@@2@U?$equal_to@V?$basic_string@DU?$char_traits@D@std@@V?$allocator@D@2@@std@@@2@@1@ABV?$allocator@U?$pair@$$CBV?$basic_string@DU?$char_traits@D@std@@V?$allocator@D@2@@std@@V?$shared_ptr@UNode@NetvarTree@@@2@@std@@@1@@Z$1 1006855b f   NetvarManager.obj
 0001:00067566       __ehhandler$??0?$_Hash@V?$_Umap_traits@V?$basic_string@DU?$char_traits@D@std@@V?$allocator@D@2@@std@@V?$shared_ptr@UNode@NetvarTree@@@2@V?$_Uhash_compare@V?$basic_string@DU?$char_traits@D@std@@V?$allocator@D@2@@std@@U?$hash@V?$basic_string@DU?$char_traits@D@std@@V?$allocator@D@2@@std@@@2@U?$equal_to@V?$basic_string@DU?$char_traits@D@std@@V?$allocator@D@2@@std@@@2@@2@V?$allocator@U?$pair@$$CBV?$basic_string@DU?$char_traits@D@std@@V?$allocator@D@2@@std@@V?$shared_ptr@UNode@NetvarTree@@@2@@std@@@2@$0A@@std@@@std@@QAE@ABV?$_Uhash_compare@V?$basic_string@DU?$char_traits@D@std@@V?$allocator@D@2@@std@@U?$hash@V?$basic_string@DU?$char_traits@D@std@@V?$allocator@D@2@@std@@@2@U?$equal_to@V?$basic_string@DU?$char_traits@D@std@@V?$allocator@D@2@@std@@@2@@1@ABV?$allocator@U?$pair@$$CBV?$basic_string@DU?$char_traits@D@std@@V?$allocator@D@2@@std@@V?$shared_ptr@UNode@NetvarTree@@@2@@std@@@1@@Z 10068566 f   NetvarManager.obj
 0001:00067590       __unwindfunclet$??0NetvarTree@@QAE@XZ$0 10068590 f   NetvarManager.obj
 0001:00067598       __unwindfunclet$??0NetvarTree@@QAE@XZ$1 10068598 f   NetvarManager.obj
 0001:000675a0       __ehhandler$??0NetvarTree@@QAE@XZ 100685a0 f   NetvarManager.obj
 0001:000675c0       __unwindfunclet$?PopulateNodes@NetvarTree@@AAEXPAVRecvTable@@PAV?$unordered_map@V?$basic_string@DU?$char_traits@D@std@@V?$allocator@D@2@@std@@V?$shared_ptr@UNode@NetvarTree@@@2@U?$hash@V?$basic_string@DU?$char_traits@D@std@@V?$allocator@D@2@@std@@@2@U?$equal_to@V?$basic_string@DU?$char_traits@D@std@@V?$allocator@D@2@@std@@@2@V?$allocator@U?$pair@$$CBV?$basic_string@DU?$char_traits@D@std@@V?$allocator@D@2@@std@@V?$shared_ptr@UNode@NetvarTree@@@2@@std@@@2@@std@@@Z$0 100685c0 f   NetvarManager.obj
 0001:000675c8       __ehhandler$?PopulateNodes@NetvarTree@@AAEXPAVRecvTable@@PAV?$unordered_map@V?$basic_string@DU?$char_traits@D@std@@V?$allocator@D@2@@std@@V?$shared_ptr@UNode@NetvarTree@@@2@U?$hash@V?$basic_string@DU?$char_traits@D@std@@V?$allocator@D@2@@std@@@2@U?$equal_to@V?$basic_string@DU?$char_traits@D@std@@V?$allocator@D@2@@std@@@2@V?$allocator@U?$pair@$$CBV?$basic_string@DU?$char_traits@D@std@@V?$allocator@D@2@@std@@V?$shared_ptr@UNode@NetvarTree@@@2@@std@@@2@@std@@@Z 100685c8 f   NetvarManager.obj
 0001:000675e3       __ehhandler$___std_fs_get_stats@16 100685e3 f   msvcprt:filesystem.obj
 0001:0006760b       __ehhandler$___std_fs_remove@4 1006860b f   msvcprt:filesystem.obj
 0001:00067630       ??__Fg_Event@@YAXXZ        10068630 f   c_hooks.obj
 0001:00067640       ??__Fhooks@@YAXXZ          10068640 f   c_hooks.obj
 0001:00067650       ??__Fg_LagComp@@YAXXZ      10068650 f   LagComp.obj
 0001:00067660       ??__Fg_Legitbot@@YAXXZ     10068660 f   Legitbot.obj
 0001:00067670       ??__FGImDefaultContext@@YAXXZ 10068670 f   imgui.obj
 0001:00067680       ??__FGImDefaultFontAtlas@@YAXXZ 10068680 f   imgui.obj
 0001:00067690       ??__Fbuf_local@?1??GetClipboardTextFn_DefaultImpl@@YAPBDPAX@Z@YAXXZ 10068690 f   imgui.obj
 0001:000676a0       ??__Fgalaxy_vars@@YAXXZ    100686a0 f   config_system.obj
 0001:000676b0       ??__Fg_pNetvars@@YAXXZ     100686b0 f   NetvarManager.obj
 0001:000676bf       ??__F_Fac_tidy_reg@std@@YAXXZ 100686bf f   msvcprt:locale0_implib.obj
 0002:00000374       ?_Fac_tidy_reg$initializer$@std@@3P6AXXZA 10069374     msvcprt:locale0_implib.obj
 0002:00000378       ?vec2_origin$initializer$@@3P6AXXZA 10069378     animation_system.obj
 0002:0000037c       ?vec2_origin$initializer$@@3P6AXXZA 1006937c     exploits.obj
 0002:00000380       ?vec2_origin$initializer$@@3P6AXXZA 10069380     premium_stuff.obj
 0002:00000384       ?vec2_origin$initializer$@@3P6AXXZA 10069384     other_esp.obj
 0002:00000388       ?vec2_origin$initializer$@@3P6AXXZA 10069388     c_hooks.obj
 0002:0000038c       ?hooks$initializer$@@3P6AXXZA 1006938c     c_hooks.obj
 0002:00000390       ?g_Event$initializer$@@3P6AXXZA 10069390     c_hooks.obj
 0002:00000394       ?vec2_origin$initializer$@@3P6AXXZA 10069394     dll_main.obj
 0002:00000398       ?vec2_origin$initializer$@@3P6AXXZA 10069398     c_ragebot.obj
 0002:0000039c       ?aimbot$initializer$@@3P6AXXZA 1006939c     c_ragebot.obj
 0002:000003a0       ?vec2_origin$initializer$@@3P6AXXZA 100693a0     Autowall.obj
 0002:000003a4       ?vec2_origin$initializer$@@3P6AXXZA 100693a4     EnginePrediction.obj
 0002:000003a8       ?vec2_origin$initializer$@@3P6AXXZA 100693a8     LagComp.obj
 0002:000003ac       ?g_LagComp$initializer$@@3P6AXXZA 100693ac     LagComp.obj
 0002:000003b0       ?vec2_origin$initializer$@@3P6AXXZA 100693b0     c_antiaim.obj
 0002:000003b4       ?m_fake_position_matrix$initializer$@@3P6AXXZA 100693b4     c_antiaim.obj
 0002:000003b8       ?vec2_origin$initializer$@@3P6AXXZA 100693b8     Legitbot.obj
 0002:000003bc       ?g_Legitbot$initializer$@@3P6AXXZA 100693bc     Legitbot.obj
 0002:000003c0       ?vec2_origin$initializer$@@3P6AXXZA 100693c0     Resolver.obj
 0002:000003c4       ?g_Resolver$initializer$@@3P6AXXZA 100693c4     Resolver.obj
 0002:000003c8       ?vec2_origin$initializer$@@3P6AXXZA 100693c8     c_esp.obj
 0002:000003cc       ?esp$initializer$@@3P6AXXZA 100693cc     c_esp.obj
 0002:000003d0       ?GImDefaultFontAtlas$initializer$@@3P6AXXZA 100693d0     imgui.obj
 0002:000003d4       ?GImDefaultContext$initializer$@@3P6AXXZA 100693d4     imgui.obj
 0002:000003d8       ?GNullClipRect$initializer$@@3P6AXXZA 100693d8     imgui_draw.obj
 0002:000003dc       ?vec2_origin$initializer$@@3P6AXXZA 100693dc     bone_processing_hook.obj
 0002:000003e0       ?vec2_origin$initializer$@@3P6AXXZA 100693e0     createmove_hook.obj
 0002:000003e4       ?vec2_origin$initializer$@@3P6AXXZA 100693e4     directx_preset_hook.obj
 0002:000003e8       ?vec2_origin$initializer$@@3P6AXXZA 100693e8     dme_hook.obj
 0002:000003ec       ?vec2_origin$initializer$@@3P6AXXZA 100693ec     event_hook.obj
 0002:000003f0       ?vec2_origin$initializer$@@3P6AXXZA 100693f0     fsn_hook.obj
 0002:000003f4       ?vec2_origin$initializer$@@3P6AXXZA 100693f4     hooking_init.obj
 0002:000003f8       ?vec2_origin$initializer$@@3P6AXXZA 100693f8     lock_cursor_hook.obj
 0002:000003fc       ?vec2_origin$initializer$@@3P6AXXZA 100693fc     oview_hook.obj
 0002:00000400       ?vec2_origin$initializer$@@3P6AXXZA 10069400     painttraverse_hook.obj
 0002:00000404       ?vec2_origin$initializer$@@3P6AXXZA 10069404     sceneend_hook.obj
 0002:00000408       ?vec2_origin$initializer$@@3P6AXXZA 10069408     wndproc_hook.obj
 0002:0000040c       ?galaxy_vars$initializer$@@3P6AXXZA 1006940c     config_system.obj
 0002:00000410       ?vec2_origin$initializer$@@3P6AXXZA 10069410     menu_system.obj
 0002:00000414       ?w_printf$initializer$@XorCompileTime@@3P6AXXZA 10069414     menu_system.obj
 0002:00000418       ?w_printf_s$initializer$@XorCompileTime@@3P6AXXZA 10069418     menu_system.obj
 0002:0000041c       ?w_sprintf$initializer$@XorCompileTime@@3P6AXXZA 1006941c     menu_system.obj
 0002:00000420       ?w_sprintf_s$initializer$@XorCompileTime@@3P6AXXZA 10069420     menu_system.obj
 0002:00000424       ?menu$initializer$@@3P6AXXZA 10069424     menu_system.obj
 0002:00000428       ?vec2_origin$initializer$@@3P6AXXZA 10069428     CEntity.obj
 0002:0000042c       ?vec2_origin$initializer$@@3P6AXXZA 1006942c     GlobalVars.obj
 0002:00000430       ?OriginalView$initializer$@g@@3P6AXXZA 10069430     GlobalVars.obj
 0002:00000434       ?EnemyEyeAngs$initializer$@g@@3P6AXXZA 10069434     GlobalVars.obj
 0002:00000438       ?AimbotHitbox$initializer$@g@@3P6AXXZA 10069438     GlobalVars.obj
 0002:0000043c       ?RealAngle$initializer$@g@@3P6AXXZA 1006943c     GlobalVars.obj
 0002:00000440       ?FakeAngle$initializer$@g@@3P6AXXZA 10069440     GlobalVars.obj
 0002:00000444       ?m_fake_matrix$initializer$@g@@3P6AXXZA 10069444     GlobalVars.obj
 0002:00000448       ?vec2_origin$initializer$@@3P6AXXZA 10069448     Interfaces.obj
 0002:0000044c       ?vec2_origin$initializer$@@3P6AXXZA 1006944c     Math.obj
 0002:00000450       ?signmask$initializer$@@3P6AXXZA 10069450     Math.obj
 0002:00000454       ?g_pNetvars$initializer$@@3P6AXXZA 10069454     NetvarManager.obj
 0002:00000460       ?__scrt_initialize_tss_var@@3P6AHXZA 10069460     MSVCRT:thread_safe_statics.obj
 0002:000005ec       $SG180580                  100695ec     other_esp.obj
 0002:00000608       $SG180584                  10069608     other_esp.obj
 0002:00000610       $SG180585                  10069610     other_esp.obj
 0002:0000061c       $SG180590                  1006961c     other_esp.obj
 0002:00000628       $SG180592                  10069628     other_esp.obj
 0002:00000630       $SG180626                  10069630     other_esp.obj
 0002:00000658       $SG183907                  10069658     c_hooks.obj
 0002:0000067c       $SG183908                  1006967c     c_hooks.obj
 0002:00000690       $SG183996                  10069690     c_hooks.obj
 0002:000006a4       $SG184002                  100696a4     c_hooks.obj
 0002:000006c0       $SG184003                  100696c0     c_hooks.obj
 0002:00000748       $SG180104                  10069748     dll_main.obj
 0002:0000076c       $SG180106                  1006976c     dll_main.obj
 0002:00000780       $SG180107                  10069780     dll_main.obj
 0002:0000078c       $SG161003                  1006978c     c_ragebot.obj
 0002:000007a0       $SG161172                  100697a0     c_ragebot.obj
 0002:000008d0       $SG142385                  100698d0     Autowall.obj
 0002:000008f0       $SG142386                  100698f0     Autowall.obj
 0002:00000910       $SG142387                  10069910     Autowall.obj
 0002:00000924       $SG142474                  10069924     Autowall.obj
 0002:00000944       $SG142475                  10069944     Autowall.obj
 0002:000009cc       $SG159041                  100699cc     EnginePrediction.obj
 0002:000009fc       $SG159042                  100699fc     EnginePrediction.obj
 0002:00000a10       $SG159043                  10069a10     EnginePrediction.obj
 0002:00000a2c       $SG159044                  10069a2c     EnginePrediction.obj
 0002:00000a54       $SG160964                  10069a54     LagComp.obj
 0002:00000a64       $SG160965                  10069a64     LagComp.obj
 0002:00000a78       $SG160966                  10069a78     LagComp.obj
 0002:00000a8c       $SG160968                  10069a8c     LagComp.obj
 0002:00000a9c       $SG160970                  10069a9c     LagComp.obj
 0002:00000aa8       $SG160971                  10069aa8     LagComp.obj
 0002:00000ac4       $SG160972                  10069ac4     LagComp.obj
 0002:00000b18       $SG161600                  10069b18     c_antiaim.obj
 0002:00000bd4       $SG161538                  10069bd4     c_esp.obj
 0002:00000bdb       $SG161590                  10069bdb     c_esp.obj
 0002:00000bdc       $SG161588                  10069bdc     c_esp.obj
 0002:00000bed       $SG161637                  10069bed     c_esp.obj
 0002:00000c38       $SG139286                  10069c38     imgui.obj
 0002:00000c46       $SG139301                  10069c46     imgui.obj
 0002:00000c47       $SG139303                  10069c47     imgui.obj
 0002:00000c48       $SG139287                  10069c48     imgui.obj
 0002:00000c51       $SG133833                  10069c51     imgui.obj
 0002:00000c52       $SG128270                  10069c52     imgui.obj
 0002:00000c53       $SG128562                  10069c53     imgui.obj
 0002:00000c54       $SG139288                  10069c54     imgui.obj
 0002:00000c81       $SG129085                  10069c81     imgui.obj
 0002:00000c82       $SG137709                  10069c82     imgui.obj
 0002:00000c83       $SG137713                  10069c83     imgui.obj
 0002:00000c84       $SG139289                  10069c84     imgui.obj
 0002:00000cac       $SG139290                  10069cac     imgui.obj
 0002:00000cbc       $SG139291                  10069cbc     imgui.obj
 0002:00000cf0       $SG139292                  10069cf0     imgui.obj
 0002:00000cf8       $SG139294                  10069cf8     imgui.obj
 0002:00000d10       $SG139295                  10069d10     imgui.obj
 0002:00000d1c       $SG139296                  10069d1c     imgui.obj
 0002:00000d28       $SG139298                  10069d28     imgui.obj
 0002:00000d40       $SG139299                  10069d40     imgui.obj
 0002:00000d48       $SG139300                  10069d48     imgui.obj
 0002:00000d54       $SG139302                  10069d54     imgui.obj
 0002:00000d64       $SG139304                  10069d64     imgui.obj
 0002:00000d6c       $SG139305                  10069d6c     imgui.obj
 0002:00000d8c       $SG139307                  10069d8c     imgui.obj
 0002:00000d98       $SG139308                  10069d98     imgui.obj
 0002:00000da0       $SG139309                  10069da0     imgui.obj
 0002:00000db4       $SG139310                  10069db4     imgui.obj
 0002:00000dbc       $SG139311                  10069dbc     imgui.obj
 0002:00000dd4       $SG139312                  10069dd4     imgui.obj
 0002:00000df0       $SG139313                  10069df0     imgui.obj
 0002:00000e08       $SG139314                  10069e08     imgui.obj
 0002:00000e10       $SG139315                  10069e10     imgui.obj
 0002:00000e28       $SG139316                  10069e28     imgui.obj
 0002:00000e30       $SG139317                  10069e30     imgui.obj
 0002:00000e40       $SG131423                  10069e40     imgui.obj
 0002:00000e48       $SG131443                  10069e48     imgui.obj
 0002:00000e4c       $SG131457                  10069e4c     imgui.obj
 0002:00000e50       $SG131471                  10069e50     imgui.obj
 0002:00000e5c       $SG131472                  10069e5c     imgui.obj
 0002:00000e68       $SG131473                  10069e68     imgui.obj
 0002:00000e74       $SG131474                  10069e74     imgui.obj
 0002:00000e88       $SG131475                  10069e88     imgui.obj
 0002:00000e90       $SG131570                  10069e90     imgui.obj
 0002:00000e94       $SG131571                  10069e94     imgui.obj
 0002:00000e98       $SG131578                  10069e98     imgui.obj
 0002:00000e9c       $SG131837                  10069e9c     imgui.obj
 0002:00000ea0       $SG131838                  10069ea0     imgui.obj
 0002:00000ea8       $SG131842                  10069ea8     imgui.obj
 0002:00000eac       $SG131843                  10069eac     imgui.obj
 0002:00000eb4       $SG131903                  10069eb4     imgui.obj
 0002:00000eb8       $SG131908                  10069eb8     imgui.obj
 0002:00000ebc       $SG131912                  10069ebc     imgui.obj
 0002:00000ec0       $SG131916                  10069ec0     imgui.obj
 0002:00000ec4       $SG131919                  10069ec4     imgui.obj
 0002:00000ec8       $SG132126                  10069ec8     imgui.obj
 0002:00000ed0       $SG132169                  10069ed0     imgui.obj
 0002:00000ed8       $SG132186                  10069ed8     imgui.obj
 0002:00000ee4       $SG132201                  10069ee4     imgui.obj
 0002:00000eec       $SG132217                  10069eec     imgui.obj
 0002:00000ef4       $SG132235                  10069ef4     imgui.obj
 0002:00000ef8       $SG132276                  10069ef8     imgui.obj
 0002:00000efc       $SG132376                  10069efc     imgui.obj
 0002:00000f04       $SG132402                  10069f04     imgui.obj
 0002:00000f08       $SG132445                  10069f08     imgui.obj
 0002:00000f10       $SG132446                  10069f10     imgui.obj
 0002:00000f18       $SG132462                  10069f18     imgui.obj
 0002:00000f20       $SG132480                  10069f20     imgui.obj
 0002:00000f24       $SG132519                  10069f24     imgui.obj
 0002:00000f2c       $SG132520                  10069f2c     imgui.obj
 0002:00000f34       $SG132608                  10069f34     imgui.obj
 0002:00000f48       $SG132610                  10069f48     imgui.obj
 0002:00000f54       $SG132729                  10069f54     imgui.obj
 0002:00000f5c       $SG132793                  10069f5c     imgui.obj
 0002:00000f60       $SG132794                  10069f60     imgui.obj
 0002:00000f64       $SG132852                  10069f64     imgui.obj
 0002:00000f68       $SG132853                  10069f68     imgui.obj
 0002:00000f6c       $SG133639                  10069f6c     imgui.obj
 0002:00000f78       $SG133745                  10069f78     imgui.obj
 0002:00000f84       $SG133836                  10069f84     imgui.obj
 0002:00000f88       $SG133838                  10069f88     imgui.obj
 0002:00000f8c       $SG133855                  10069f8c     imgui.obj
 0002:00000f90       $SG133856                  10069f90     imgui.obj
 0002:00000f98       $SG133868                  10069f98     imgui.obj
 0002:00000fa0       $SG133869                  10069fa0     imgui.obj
 0002:00000fa4       $SG133885                  10069fa4     imgui.obj
 0002:00000fa8       $SG133918                  10069fa8     imgui.obj
 0002:00000fac       $SG127379                  10069fac     imgui.obj
 0002:00000fb8       ?KeyNames@@3QBQBDB         10069fb8     imgui.obj
 0002:00001250       $SG127378                  1006a250     imgui.obj
 0002:00001258       $SG127380                  1006a258     imgui.obj
 0002:00001264       $SG127381                  1006a264     imgui.obj
 0002:00001270       $SG127382                  1006a270     imgui.obj
 0002:0000127c       $SG127383                  1006a27c     imgui.obj
 0002:00001288       $SG127384                  1006a288     imgui.obj
 0002:00001294       $SG127385                  1006a294     imgui.obj
 0002:0000129c       $SG127386                  1006a29c     imgui.obj
 0002:000012a4       $SG127387                  1006a2a4     imgui.obj
 0002:000012ac       $SG127388                  1006a2ac     imgui.obj
 0002:000012b4       $SG127389                  1006a2b4     imgui.obj
 0002:000012bc       $SG127390                  1006a2bc     imgui.obj
 0002:000012c8       $SG127391                  1006a2c8     imgui.obj
 0002:000012d4       $SG127392                  1006a2d4     imgui.obj
 0002:000012dc       $SG127393                  1006a2dc     imgui.obj
 0002:000012e4       $SG127394                  1006a2e4     imgui.obj
 0002:000012f0       $SG127395                  1006a2f0     imgui.obj
 0002:000012fc       $SG127396                  1006a2fc     imgui.obj
 0002:00001304       $SG127397                  1006a304     imgui.obj
 0002:00001310       $SG127398                  1006a310     imgui.obj
 0002:0000131c       $SG127399                  1006a31c     imgui.obj
 0002:00001324       $SG127400                  1006a324     imgui.obj
 0002:0000132c       $SG127401                  1006a32c     imgui.obj
 0002:00001338       $SG127402                  1006a338     imgui.obj
 0002:00001344       $SG127403                  1006a344     imgui.obj
 0002:00001350       $SG127404                  1006a350     imgui.obj
 0002:00001358       $SG127405                  1006a358     imgui.obj
 0002:00001364       $SG127406                  1006a364     imgui.obj
 0002:00001370       $SG127407                  1006a370     imgui.obj
 0002:00001380       $SG127408                  1006a380     imgui.obj
 0002:0000138c       $SG127409                  1006a38c     imgui.obj
 0002:0000139c       $SG127410                  1006a39c     imgui.obj
 0002:000013a8       $SG127411                  1006a3a8     imgui.obj
 0002:000013b4       $SG127412                  1006a3b4     imgui.obj
 0002:000013bc       $SG127413                  1006a3bc     imgui.obj
 0002:000013c4       $SG127414                  1006a3c4     imgui.obj
 0002:000013cc       $SG127415                  1006a3cc     imgui.obj
 0002:000013d4       $SG127416                  1006a3d4     imgui.obj
 0002:000013dc       $SG127417                  1006a3dc     imgui.obj
 0002:000013e8       $SG127418                  1006a3e8     imgui.obj
 0002:000013f0       $SG127419                  1006a3f0     imgui.obj
 0002:000013fc       $SG127420                  1006a3fc     imgui.obj
 0002:00001408       $SG127421                  1006a408     imgui.obj
 0002:00001414       $SG127422                  1006a414     imgui.obj
 0002:00001420       $SG127423                  1006a420     imgui.obj
 0002:0000142c       $SG127424                  1006a42c     imgui.obj
 0002:00001438       $SG127425                  1006a438     imgui.obj
 0002:00001440       $SG127426                  1006a440     imgui.obj
 0002:00001444       $SG127427                  1006a444     imgui.obj
 0002:00001448       $SG127428                  1006a448     imgui.obj
 0002:0000144c       $SG127429                  1006a44c     imgui.obj
 0002:00001450       $SG127430                  1006a450     imgui.obj
 0002:00001454       $SG127431                  1006a454     imgui.obj
 0002:00001458       $SG127432                  1006a458     imgui.obj
 0002:0000145c       $SG127433                  1006a45c     imgui.obj
 0002:00001460       $SG127434                  1006a460     imgui.obj
 0002:00001464       $SG127435                  1006a464     imgui.obj
 0002:00001468       $SG127436                  1006a468     imgui.obj
 0002:00001470       $SG127437                  1006a470     imgui.obj
 0002:00001478       $SG127438                  1006a478     imgui.obj
 0002:00001480       $SG127439                  1006a480     imgui.obj
 0002:00001488       $SG127440                  1006a488     imgui.obj
 0002:00001490       $SG127441                  1006a490     imgui.obj
 0002:00001498       $SG127442                  1006a498     imgui.obj
 0002:000014a0       $SG127443                  1006a4a0     imgui.obj
 0002:000014a4       $SG127444                  1006a4a4     imgui.obj
 0002:000014a8       $SG127445                  1006a4a8     imgui.obj
 0002:000014ac       $SG127446                  1006a4ac     imgui.obj
 0002:000014b0       $SG127447                  1006a4b0     imgui.obj
 0002:000014b4       $SG127448                  1006a4b4     imgui.obj
 0002:000014b8       $SG127449                  1006a4b8     imgui.obj
 0002:000014bc       $SG127450                  1006a4bc     imgui.obj
 0002:000014c0       $SG127451                  1006a4c0     imgui.obj
 0002:000014c4       $SG127452                  1006a4c4     imgui.obj
 0002:000014c8       $SG127453                  1006a4c8     imgui.obj
 0002:000014cc       $SG127454                  1006a4cc     imgui.obj
 0002:000014d0       $SG127455                  1006a4d0     imgui.obj
 0002:000014d4       $SG127456                  1006a4d4     imgui.obj
 0002:000014d8       $SG127457                  1006a4d8     imgui.obj
 0002:000014dc       $SG127458                  1006a4dc     imgui.obj
 0002:000014e0       $SG127459                  1006a4e0     imgui.obj
 0002:000014e4       $SG127460                  1006a4e4     imgui.obj
 0002:000014e8       $SG127461                  1006a4e8     imgui.obj
 0002:000014ec       $SG127462                  1006a4ec     imgui.obj
 0002:000014f0       $SG127463                  1006a4f0     imgui.obj
 0002:000014f4       $SG127464                  1006a4f4     imgui.obj
 0002:000014f8       $SG127465                  1006a4f8     imgui.obj
 0002:000014fc       $SG127466                  1006a4fc     imgui.obj
 0002:00001500       $SG127467                  1006a500     imgui.obj
 0002:00001504       $SG127468                  1006a504     imgui.obj
 0002:00001508       $SG127469                  1006a508     imgui.obj
 0002:00001510       $SG127470                  1006a510     imgui.obj
 0002:00001518       $SG127471                  1006a518     imgui.obj
 0002:00001520       $SG127472                  1006a520     imgui.obj
 0002:00001528       $SG127473                  1006a528     imgui.obj
 0002:00001534       $SG127474                  1006a534     imgui.obj
 0002:00001540       $SG127475                  1006a540     imgui.obj
 0002:0000154c       $SG127476                  1006a54c     imgui.obj
 0002:00001558       $SG127477                  1006a558     imgui.obj
 0002:00001564       $SG127478                  1006a564     imgui.obj
 0002:00001570       $SG127479                  1006a570     imgui.obj
 0002:0000157c       $SG127480                  1006a57c     imgui.obj
 0002:00001588       $SG127481                  1006a588     imgui.obj
 0002:00001594       $SG127482                  1006a594     imgui.obj
 0002:000015a0       $SG127483                  1006a5a0     imgui.obj
 0002:000015ac       $SG127484                  1006a5ac     imgui.obj
 0002:000015b8       $SG127485                  1006a5b8     imgui.obj
 0002:000015c0       $SG127486                  1006a5c0     imgui.obj
 0002:000015d0       $SG127487                  1006a5d0     imgui.obj
 0002:000015dc       $SG127488                  1006a5dc     imgui.obj
 0002:000015e8       $SG127489                  1006a5e8     imgui.obj
 0002:000015f4       $SG127490                  1006a5f4     imgui.obj
 0002:000015fc       $SG127491                  1006a5fc     imgui.obj
 0002:00001604       $SG127492                  1006a604     imgui.obj
 0002:0000160c       $SG127493                  1006a60c     imgui.obj
 0002:00001614       $SG127494                  1006a614     imgui.obj
 0002:0000161c       $SG127495                  1006a61c     imgui.obj
 0002:00001624       $SG127496                  1006a624     imgui.obj
 0002:0000162c       $SG127497                  1006a62c     imgui.obj
 0002:00001634       $SG127498                  1006a634     imgui.obj
 0002:0000163c       $SG127499                  1006a63c     imgui.obj
 0002:00001644       $SG127500                  1006a644     imgui.obj
 0002:0000164c       $SG127501                  1006a64c     imgui.obj
 0002:00001654       $SG127502                  1006a654     imgui.obj
 0002:0000165c       $SG127503                  1006a65c     imgui.obj
 0002:00001664       $SG127504                  1006a664     imgui.obj
 0002:0000166c       $SG127505                  1006a66c     imgui.obj
 0002:00001674       $SG127506                  1006a674     imgui.obj
 0002:0000167c       $SG127507                  1006a67c     imgui.obj
 0002:00001684       $SG127508                  1006a684     imgui.obj
 0002:0000168c       $SG127509                  1006a68c     imgui.obj
 0002:00001694       $SG127510                  1006a694     imgui.obj
 0002:0000169c       $SG127511                  1006a69c     imgui.obj
 0002:000016a4       $SG127512                  1006a6a4     imgui.obj
 0002:000016ac       $SG127513                  1006a6ac     imgui.obj
 0002:000016b4       $SG127514                  1006a6b4     imgui.obj
 0002:000016bc       $SG127515                  1006a6bc     imgui.obj
 0002:000016c4       $SG127516                  1006a6c4     imgui.obj
 0002:000016cc       $SG127517                  1006a6cc     imgui.obj
 0002:000016d4       $SG127518                  1006a6d4     imgui.obj
 0002:000016dc       $SG127519                  1006a6dc     imgui.obj
 0002:000016e4       $SG127520                  1006a6e4     imgui.obj
 0002:000016ec       $SG127521                  1006a6ec     imgui.obj
 0002:000016f4       $SG127522                  1006a6f4     imgui.obj
 0002:00001700       $SG127523                  1006a700     imgui.obj
 0002:0000170c       $SG127524                  1006a70c     imgui.obj
 0002:00001720       $SG127525                  1006a720     imgui.obj
 0002:00001734       $SG127526                  1006a734     imgui.obj
 0002:00001748       $SG127527                  1006a748     imgui.obj
 0002:00001758       $SG127528                  1006a758     imgui.obj
 0002:00001768       $SG127529                  1006a768     imgui.obj
 0002:00001770       $SG127530                  1006a770     imgui.obj
 0002:00001778       $SG127531                  1006a778     imgui.obj
 0002:00001780       $SG127532                  1006a780     imgui.obj
 0002:00001788       $SG127533                  1006a788     imgui.obj
 0002:00001790       $SG127534                  1006a790     imgui.obj
 0002:00001798       $SG127535                  1006a798     imgui.obj
 0002:000017a0       $SG127536                  1006a7a0     imgui.obj
 0002:000017a8       $SG127537                  1006a7a8     imgui.obj
 0002:000017b0       $SG127538                  1006a7b0     imgui.obj
 0002:000017bc       $SG127539                  1006a7bc     imgui.obj
 0002:000017c8       $SG127540                  1006a7c8     imgui.obj
 0002:000017d4       $SG127541                  1006a7d4     imgui.obj
 0002:000017e0       $SG127542                  1006a7e0     imgui.obj
 0002:000017ec       $SG127543                  1006a7ec     imgui.obj
 0002:000017f8       $SG127623                  1006a7f8     imgui.obj
 0002:00001804       $SG127624                  1006a804     imgui.obj
 0002:00001814       $SG128391                  1006a814     imgui.obj
 0002:0000181c       $SG128569                  1006a81c     imgui.obj
 0002:00001828       $SG128734                  1006a828     imgui.obj
 0002:00001830       $SG128808                  1006a830     imgui.obj
 0002:00001834       $SG128812                  1006a834     imgui.obj
 0002:0000183c       $SG128817                  1006a83c     imgui.obj
 0002:00001848       $SG128820                  1006a848     imgui.obj
 0002:00001854       $SG128822                  1006a854     imgui.obj
 0002:00001864       $SG128848                  1006a864     imgui.obj
 0002:00001868       $SG128852                  1006a868     imgui.obj
 0002:0000186c       $SG128853                  1006a86c     imgui.obj
 0002:00001874       $SG128854                  1006a874     imgui.obj
 0002:00001880       $SG128855                  1006a880     imgui.obj
 0002:0000188c       $SG128856                  1006a88c     imgui.obj
 0002:0000189c       $SG128857                  1006a89c     imgui.obj
 0002:000018a0       $SG129086                  1006a8a0     imgui.obj
 0002:000018ac       $SG129087                  1006a8ac     imgui.obj
 0002:000018b4       $SG129473                  1006a8b4     imgui.obj
 0002:000018c4       $SG129477                  1006a8c4     imgui.obj
 0002:000018d4       $SG129509                  1006a8d4     imgui.obj
 0002:000018dc       $SG137711                  1006a8dc     imgui.obj
 0002:000018e8       $SG137714                  1006a8e8     imgui.obj
 0002:000018f0       $SG129584                  1006a8f0     imgui.obj
 0002:000018fc       $SG129585                  1006a8fc     imgui.obj
 0002:0000190c       $SG129632                  1006a90c     imgui.obj
 0002:0000191c       $SG129641                  1006a91c     imgui.obj
 0002:0000192c       $SG129667                  1006a92c     imgui.obj
 0002:00001938       $SG129668                  1006a938     imgui.obj
 0002:00001940       $SG137879                  1006a940     imgui.obj
 0002:00001950       $SG138079                  1006a950     imgui.obj
 0002:00001960       $SG129888                  1006a960     imgui.obj
 0002:00001964       $SG129889                  1006a964     imgui.obj
 0002:00001968       $SG138128                  1006a968     imgui.obj
 0002:00001978       $SG138142                  1006a978     imgui.obj
 0002:00001984       $SG138207                  1006a984     imgui.obj
 0002:0000198c       $SG138248                  1006a98c     imgui.obj
 0002:00001998       $SG138251                  1006a998     imgui.obj
 0002:000019d0       $SG138252                  1006a9d0     imgui.obj
 0002:00001a14       $SG138394                  1006aa14     imgui.obj
 0002:00001a1c       $SG138397                  1006aa1c     imgui.obj
 0002:00001a20       $SG138399                  1006aa20     imgui.obj
 0002:00001a24       $SG138401                  1006aa24     imgui.obj
 0002:00001a28       $SG138405                  1006aa28     imgui.obj
 0002:00001a30       $SG138407                  1006aa30     imgui.obj
 0002:00001a3c       $SG138429                  1006aa3c     imgui.obj
 0002:00001a44       $SG138435                  1006aa44     imgui.obj
 0002:00001a54       $SG138436                  1006aa54     imgui.obj
 0002:00001a64       $SG138439                  1006aa64     imgui.obj
 0002:00001a70       $SG130283                  1006aa70     imgui.obj
 0002:00001a78       $SG138503                  1006aa78     imgui.obj
 0002:00001a80       $SG138504                  1006aa80     imgui.obj
 0002:00001a88       $SG138505                  1006aa88     imgui.obj
 0002:00001a8c       $SG130313                  1006aa8c     imgui.obj
 0002:00001a94       $SG138506                  1006aa94     imgui.obj
 0002:00001a98       $SG138507                  1006aa98     imgui.obj
 0002:00001a9c       $SG138508                  1006aa9c     imgui.obj
 0002:00001aa0       $SG138509                  1006aaa0     imgui.obj
 0002:00001aa8       $SG138510                  1006aaa8     imgui.obj
 0002:00001ab0       $SG138511                  1006aab0     imgui.obj
 0002:00001ab8       $SG138512                  1006aab8     imgui.obj
 0002:00001ac0       $SG138513                  1006aac0     imgui.obj
 0002:00001ac8       $SG138514                  1006aac8     imgui.obj
 0002:00001ad0       $SG138515                  1006aad0     imgui.obj
 0002:00001ad8       $SG138516                  1006aad8     imgui.obj
 0002:00001ae0       $SG138517                  1006aae0     imgui.obj
 0002:00001ae8       $SG138518                  1006aae8     imgui.obj
 0002:00001af0       $SG138519                  1006aaf0     imgui.obj
 0002:00001af8       $SG138520                  1006aaf8     imgui.obj
 0002:00001b00       $SG138521                  1006ab00     imgui.obj
 0002:00001b08       $SG138522                  1006ab08     imgui.obj
 0002:00001b10       $SG138523                  1006ab10     imgui.obj
 0002:00001b18       $SG138524                  1006ab18     imgui.obj
 0002:00001b20       $SG138525                  1006ab20     imgui.obj
 0002:00001b28       $SG138526                  1006ab28     imgui.obj
 0002:00001b30       $SG138527                  1006ab30     imgui.obj
 0002:00001b38       $SG138528                  1006ab38     imgui.obj
 0002:00001b40       $SG138529                  1006ab40     imgui.obj
 0002:00001b48       $SG138530                  1006ab48     imgui.obj
 0002:00001b50       $SG138531                  1006ab50     imgui.obj
 0002:00001b58       $SG138532                  1006ab58     imgui.obj
 0002:00001b60       $SG138538                  1006ab60     imgui.obj
 0002:00001b68       $SG138542                  1006ab68     imgui.obj
 0002:00001b78       $SG138544                  1006ab78     imgui.obj
 0002:00001b80       $SG138546                  1006ab80     imgui.obj
 0002:00001b88       $SG138548                  1006ab88     imgui.obj
 0002:00001b90       $SG138549                  1006ab90     imgui.obj
 0002:00001b9c       $SG130382                  1006ab9c     imgui.obj
 0002:00001ba8       $SG130383                  1006aba8     imgui.obj
 0002:00001bb4       $SG130615                  1006abb4     imgui.obj
 0002:00001bc0       ?GStyleVarInfo@@3QBUImGuiStyleVarInfo@@B 1006abc0     imgui.obj
 0002:00001c20       $SG130611                  1006ac20     imgui.obj
 0002:00001c28       $SG130613                  1006ac28     imgui.obj
 0002:00001c38       $SG130617                  1006ac38     imgui.obj
 0002:00001c48       $SG130619                  1006ac48     imgui.obj
 0002:00001c50       $SG130621                  1006ac50     imgui.obj
 0002:00001c58       $SG130623                  1006ac58     imgui.obj
 0002:00001c68       $SG130625                  1006ac68     imgui.obj
 0002:00001c70       $SG138818                  1006ac70     imgui.obj
 0002:00001c74       $SG130627                  1006ac74     imgui.obj
 0002:00001c84       $SG138820                  1006ac84     imgui.obj
 0002:00001c88       $SG130629                  1006ac88     imgui.obj
 0002:00001c98       $SG130631                  1006ac98     imgui.obj
 0002:00001ca0       $SG130633                  1006aca0     imgui.obj
 0002:00001cb4       $SG130635                  1006acb4     imgui.obj
 0002:00001cc4       $SG130637                  1006acc4     imgui.obj
 0002:00001cd0       $SG130639                  1006acd0     imgui.obj
 0002:00001cdc       $SG130641                  1006acdc     imgui.obj
 0002:00001cec       $SG138834                  1006acec     imgui.obj
 0002:00001cf4       $SG130643                  1006acf4     imgui.obj
 0002:00001d0c       $SG130645                  1006ad0c     imgui.obj
 0002:00001d20       $SG130647                  1006ad20     imgui.obj
 0002:00001d28       $SG130649                  1006ad28     imgui.obj
 0002:00001d34       $SG130651                  1006ad34     imgui.obj
 0002:00001d40       $SG130653                  1006ad40     imgui.obj
 0002:00001d54       $SG130655                  1006ad54     imgui.obj
 0002:00001d5c       $SG130657                  1006ad5c     imgui.obj
 0002:00001d6c       $SG130659                  1006ad6c     imgui.obj
 0002:00001d7c       $SG130661                  1006ad7c     imgui.obj
 0002:00001d84       $SG138854                  1006ad84     imgui.obj
 0002:00001da8       $SG130663                  1006ada8     imgui.obj
 0002:00001db8       $SG130665                  1006adb8     imgui.obj
 0002:00001dc8       $SG130667                  1006adc8     imgui.obj
 0002:00001dd4       $SG130669                  1006add4     imgui.obj
 0002:00001de8       $SG130671                  1006ade8     imgui.obj
 0002:00001df8       $SG130673                  1006adf8     imgui.obj
 0002:00001e04       $SG130675                  1006ae04     imgui.obj
 0002:00001e18       $SG130677                  1006ae18     imgui.obj
 0002:00001e2c       $SG130679                  1006ae2c     imgui.obj
 0002:00001e38       $SG130681                  1006ae38     imgui.obj
 0002:00001e4c       $SG130683                  1006ae4c     imgui.obj
 0002:00001e60       $SG130685                  1006ae60     imgui.obj
 0002:00001e6c       $SG130687                  1006ae6c     imgui.obj
 0002:00001e80       $SG130689                  1006ae80     imgui.obj
 0002:00001e90       $SG130691                  1006ae90     imgui.obj
 0002:00001ea8       $SG130693                  1006aea8     imgui.obj
 0002:00001eb8       $SG130695                  1006aeb8     imgui.obj
 0002:00001ed0       $SG130696                  1006aed0     imgui.obj
 0002:00001ed8       $SG139015                  1006aed8     imgui.obj
 0002:00001ee0       $SG139078                  1006aee0     imgui.obj
 0002:00001eec       $SG139084                  1006aeec     imgui.obj
 0002:00001ef8       $SG139096                  1006aef8     imgui.obj
 0002:00001f00       $SG139097                  1006af00     imgui.obj
 0002:00001f08       $SG139098                  1006af08     imgui.obj
 0002:00001f10       $SG139103                  1006af10     imgui.obj
 0002:00001f18       $SG139108                  1006af18     imgui.obj
 0002:00001f20       $SG139118                  1006af20     imgui.obj
 0002:00001f28       $SG139119                  1006af28     imgui.obj
 0002:00001f40       ?min_steps@?1??GetMinimumStepAtDecimalPrecision@@YAMH@Z@4QBMB 1006af40     imgui.obj
 0002:000020b8       $SG16417                   1006b0b8     imgui_draw.obj
 0002:000020c0       $SG16470                   1006b0c0     imgui_draw.obj
 0002:000020c8       $SG16472                   1006b0c8     imgui_draw.obj
 0002:000020d0       ?FONT_ATLAS_DEFAULT_TEX_DATA_PIXELS@@3QBDB 1006b0d0     imgui_draw.obj
 0002:00002a50       $SG17489                   1006ba50     imgui_draw.obj
 0002:00002a68       $SG17510                   1006ba68     imgui_draw.obj
 0002:00002a6c       $SG17513                   1006ba6c     imgui_draw.obj
 0002:00002a78       ?proggy_clean_ttf_compressed_data_base85@@3QBDB 1006ba78     imgui_draw.obj
 0002:00005948       $SG14521                   1006e948     imgui_draw.obj
 0002:00005950       $SG14522                   1006e950     imgui_draw.obj
 0002:00005958       $SG14523                   1006e958     imgui_draw.obj
 0002:00005960       $SG14524                   1006e960     imgui_draw.obj
 0002:00005968       $SG14526                   1006e968     imgui_draw.obj
 0002:00005970       $SG14527                   1006e970     imgui_draw.obj
 0002:00005978       $SG14528                   1006e978     imgui_draw.obj
 0002:00005980       $SG14529                   1006e980     imgui_draw.obj
 0002:00005988       $SG14532                   1006e988     imgui_draw.obj
 0002:00005990       $SG14533                   1006e990     imgui_draw.obj
 0002:00005998       $SG14534                   1006e998     imgui_draw.obj
 0002:000059a0       $SG14535                   1006e9a0     imgui_draw.obj
 0002:000059a8       $SG14556                   1006e9a8     imgui_draw.obj
 0002:000059b0       $SG14557                   1006e9b0     imgui_draw.obj
 0002:000059b8       $SG14558                   1006e9b8     imgui_draw.obj
 0002:000059c0       $SG14559                   1006e9c0     imgui_draw.obj
 0002:000059c8       $SG14568                   1006e9c8     imgui_draw.obj
 0002:000059d0       $SG14569                   1006e9d0     imgui_draw.obj
 0002:000059d8       $SG14570                   1006e9d8     imgui_draw.obj
 0002:000059e0       $SG14571                   1006e9e0     imgui_draw.obj
 0002:000059e8       $SG14629                   1006e9e8     imgui_draw.obj
 0002:000059f0       $SG14630                   1006e9f0     imgui_draw.obj
 0002:000059f8       $SG14631                   1006e9f8     imgui_draw.obj
 0002:00005a00       $SG14632                   1006ea00     imgui_draw.obj
 0002:00005a08       $SG14633                   1006ea08     imgui_draw.obj
 0002:00005a10       $SG14634                   1006ea10     imgui_draw.obj
 0002:00005a18       $SG14635                   1006ea18     imgui_draw.obj
 0002:00005a20       $SG14641                   1006ea20     imgui_draw.obj
 0002:00005a28       $SG14647                   1006ea28     imgui_draw.obj
 0002:00005a30       ?ranges@?1??GetGlyphRangesDefault@ImFontAtlas@@QAEPBGXZ@4QBGB 1006ea30     imgui_draw.obj
 0002:00005acc       $SG181969                  1006eacc     dme_hook.obj
 0002:00005ad8       $SG182100                  1006ead8     dme_hook.obj
 0002:00005ae0       $SG182101                  1006eae0     dme_hook.obj
 0002:00005aec       $SG182102                  1006eaec     dme_hook.obj
 0002:00005af0       $SG182103                  1006eaf0     dme_hook.obj
 0002:00005afc       $SG182174                  1006eafc     dme_hook.obj
 0002:00005b0c       $SG182175                  1006eb0c     dme_hook.obj
 0002:00005b1c       $SG182176                  1006eb1c     dme_hook.obj
 0002:00005b2c       $SG182177                  1006eb2c     dme_hook.obj
 0002:00005b3c       $SG182178                  1006eb3c     dme_hook.obj
 0002:00005b4c       $SG182179                  1006eb4c     dme_hook.obj
 0002:00005b60       $SG182205                  1006eb60     dme_hook.obj
 0002:00005b70       $SG182207                  1006eb70     dme_hook.obj
 0002:00005b80       $SG182214                  1006eb80     dme_hook.obj
 0002:00005b90       $SG181970                  1006eb90     event_hook.obj
 0002:00005b9c       $SG181973                  1006eb9c     event_hook.obj
 0002:00005ba4       $SG182005                  1006eba4     fsn_hook.obj
 0002:00005bb4       $SG182006                  1006ebb4     fsn_hook.obj
 0002:00005bcc       $SG182024                  1006ebcc     fsn_hook.obj
 0002:00005bdc       $SG182025                  1006ebdc     fsn_hook.obj
 0002:00005be8       $SG182026                  1006ebe8     fsn_hook.obj
 0002:00005c24       $SG182027                  1006ec24     fsn_hook.obj
 0002:00005c54       $SG183774                  1006ec54     hooking_init.obj
 0002:00005c60       $SG183778                  1006ec60     hooking_init.obj
 0002:00005c74       $SG183779                  1006ec74     hooking_init.obj
 0002:00005c7c       $SG183780                  1006ec7c     hooking_init.obj
 0002:00005c90       $SG183781                  1006ec90     hooking_init.obj
 0002:00005cb4       $SG181982                  1006ecb4     painttraverse_hook.obj
 0002:00005cbc       $SG181987                  1006ecbc     painttraverse_hook.obj
 0002:00005eb0       $SG159709                  1006eeb0     menu_system.obj
 0002:00005eb9       $SG179556                  1006eeb9     menu_system.obj
 0002:00005eba       $SG179558                  1006eeba     menu_system.obj
 0002:00005ec0       ?SmallestPixel_compressed_data@@3QBIB 1006eec0     menu_system.obj
 0002:00008784       $SG179263                  10071784     menu_system.obj
 0002:00008794       $SG179274                  10071794     menu_system.obj
 0002:000087b4       $SG179287                  100717b4     menu_system.obj
 0002:000087bc       $SG179288                  100717bc     menu_system.obj
 0002:000087c4       $SG179289                  100717c4     menu_system.obj
 0002:000087cc       $SG179290                  100717cc     menu_system.obj
 0002:000087d4       $SG179306                  100717d4     menu_system.obj
 0002:000087e8       $SG179307                  100717e8     menu_system.obj
 0002:000087f8       $SG179308                  100717f8     menu_system.obj
 0002:00008808       $SG179309                  10071808     menu_system.obj
 0002:00008820       $SG179310                  10071820     menu_system.obj
 0002:00008828       $SG179311                  10071828     menu_system.obj
 0002:00008834       $SG179312                  10071834     menu_system.obj
 0002:0000883c       $SG179313                  1007183c     menu_system.obj
 0002:0000884c       $SG179314                  1007184c     menu_system.obj
 0002:00008864       $SG179315                  10071864     menu_system.obj
 0002:00008870       $SG179317                  10071870     menu_system.obj
 0002:00008878       $SG179318                  10071878     menu_system.obj
 0002:00008880       $SG179319                  10071880     menu_system.obj
 0002:00008888       $SG179320                  10071888     menu_system.obj
 0002:00008890       $SG179321                  10071890     menu_system.obj
 0002:00008898       $SG179322                  10071898     menu_system.obj
 0002:000088ac       $SG179323                  100718ac     menu_system.obj
 0002:000088b4       $SG179324                  100718b4     menu_system.obj
 0002:000088c0       $SG179325                  100718c0     menu_system.obj
 0002:000088c8       $SG179326                  100718c8     menu_system.obj
 0002:000088d4       $SG179327                  100718d4     menu_system.obj
 0002:000088ec       $SG179328                  100718ec     menu_system.obj
 0002:000088f0       $SG179329                  100718f0     menu_system.obj
 0002:000088fc       $SG179330                  100718fc     menu_system.obj
 0002:0000890c       $SG179331                  1007190c     menu_system.obj
 0002:0000891c       $SG179332                  1007191c     menu_system.obj
 0002:00008928       $SG179334                  10071928     menu_system.obj
 0002:00008934       $SG179335                  10071934     menu_system.obj
 0002:0000893c       $SG179336                  1007193c     menu_system.obj
 0002:00008948       $SG179337                  10071948     menu_system.obj
 0002:00008950       $SG179338                  10071950     menu_system.obj
 0002:0000895c       $SG179339                  1007195c     menu_system.obj
 0002:00008964       $SG179340                  10071964     menu_system.obj
 0002:00008974       $SG179368                  10071974     menu_system.obj
 0002:00008988       $SG179369                  10071988     menu_system.obj
 0002:00008998       $SG179370                  10071998     menu_system.obj
 0002:000089a8       $SG179371                  100719a8     menu_system.obj
 0002:000089b8       $SG179372                  100719b8     menu_system.obj
 0002:000089c0       $SG179373                  100719c0     menu_system.obj
 0002:000089d0       $SG179374                  100719d0     menu_system.obj
 0002:000089dc       $SG179375                  100719dc     menu_system.obj
 0002:000089e4       $SG179376                  100719e4     menu_system.obj
 0002:000089f0       $SG179377                  100719f0     menu_system.obj
 0002:00008a00       $SG179378                  10071a00     menu_system.obj
 0002:00008a14       $SG179380                  10071a14     menu_system.obj
 0002:00008a1c       $SG179382                  10071a1c     menu_system.obj
 0002:00008a24       $SG179384                  10071a24     menu_system.obj
 0002:00008a2c       $SG179386                  10071a2c     menu_system.obj
 0002:00008a34       $SG179387                  10071a34     menu_system.obj
 0002:00008a40       $SG179388                  10071a40     menu_system.obj
 0002:00008a44       $SG179389                  10071a44     menu_system.obj
 0002:00008a4c       $SG179391                  10071a4c     menu_system.obj
 0002:00008a58       $SG179392                  10071a58     menu_system.obj
 0002:00008a6c       $SG179393                  10071a6c     menu_system.obj
 0002:00008a84       $SG179394                  10071a84     menu_system.obj
 0002:00008aa0       $SG179395                  10071aa0     menu_system.obj
 0002:00008ab4       $SG179396                  10071ab4     menu_system.obj
 0002:00008acc       $SG179397                  10071acc     menu_system.obj
 0002:00008ae8       $SG179399                  10071ae8     menu_system.obj
 0002:00008af4       $SG179400                  10071af4     menu_system.obj
 0002:00008b0c       $SG179401                  10071b0c     menu_system.obj
 0002:00008b28       $SG179402                  10071b28     menu_system.obj
 0002:00008b3c       $SG179403                  10071b3c     menu_system.obj
 0002:00008b50       $SG179404                  10071b50     menu_system.obj
 0002:00008b6c       $SG179405                  10071b6c     menu_system.obj
 0002:00008b7c       $SG179406                  10071b7c     menu_system.obj
 0002:00008b90       $SG179407                  10071b90     menu_system.obj
 0002:00008bac       $SG179408                  10071bac     menu_system.obj
 0002:00008bc4       $SG179409                  10071bc4     menu_system.obj
 0002:00008bdc       $SG179410                  10071bdc     menu_system.obj
 0002:00008bfc       $SG179412                  10071bfc     menu_system.obj
 0002:00008c08       $SG179413                  10071c08     menu_system.obj
 0002:00008c1c       $SG179414                  10071c1c     menu_system.obj
 0002:00008c38       $SG179415                  10071c38     menu_system.obj
 0002:00008c4c       $SG179416                  10071c4c     menu_system.obj
 0002:00008c60       $SG179417                  10071c60     menu_system.obj
 0002:00008c7c       $SG179419                  10071c7c     menu_system.obj
 0002:00008c90       $SG179420                  10071c90     menu_system.obj
 0002:00008ca4       $SG179421                  10071ca4     menu_system.obj
 0002:00008cac       $SG179422                  10071cac     menu_system.obj
 0002:00008cbc       $SG179423                  10071cbc     menu_system.obj
 0002:00008cc8       $SG179424                  10071cc8     menu_system.obj
 0002:00008cd4       $SG179425                  10071cd4     menu_system.obj
 0002:00008cdc       $SG179426                  10071cdc     menu_system.obj
 0002:00008cec       $SG179427                  10071cec     menu_system.obj
 0002:00008d04       $SG179428                  10071d04     menu_system.obj
 0002:00008d10       $SG179438                  10071d10     menu_system.obj
 0002:00008d24       $SG179439                  10071d24     menu_system.obj
 0002:00008d34       $SG179440                  10071d34     menu_system.obj
 0002:00008d48       $SG179441                  10071d48     menu_system.obj
 0002:00008d58       $SG179442                  10071d58     menu_system.obj
 0002:00008d64       $SG179444                  10071d64     menu_system.obj
 0002:00008d6c       $SG179445                  10071d6c     menu_system.obj
 0002:00008d7c       $SG179446                  10071d7c     menu_system.obj
 0002:00008d90       $SG179447                  10071d90     menu_system.obj
 0002:00008da4       $SG179449                  10071da4     menu_system.obj
 0002:00008db4       $SG179450                  10071db4     menu_system.obj
 0002:00008dc8       $SG179553                  10071dc8     menu_system.obj
 0002:00008ddc       $SG179561                  10071ddc     menu_system.obj
 0002:00008de4       $SG179563                  10071de4     menu_system.obj
 0002:00008dec       $SG179566                  10071dec     menu_system.obj
 0002:00008df4       $SG179568                  10071df4     menu_system.obj
 0002:00008dfc       $SG179570                  10071dfc     menu_system.obj
 0002:00008e04       $SG179571                  10071e04     menu_system.obj
 0002:00008e20       $SG179572                  10071e20     menu_system.obj
 0002:00008e3c       $SG179623                  10071e3c     menu_system.obj
 0002:00008e48       $SG179624                  10071e48     menu_system.obj
 0002:00008e54       $SG179625                  10071e54     menu_system.obj
 0002:00008e5c       $SG179627                  10071e5c     menu_system.obj
 0002:00008e64       $SG179629                  10071e64     menu_system.obj
 0002:00008e70       $SG179631                  10071e70     menu_system.obj
 0002:00008e78       $SG179633                  10071e78     menu_system.obj
 0002:00008e80       $SG179635                  10071e80     menu_system.obj
 0002:00008e90       $SG179637                  10071e90     menu_system.obj
 0002:00008e98       $SG179652                  10071e98     menu_system.obj
 0002:00008ea8       $SG179655                  10071ea8     menu_system.obj
 0002:00008ef4       $SG139908                  10071ef4     CEntity.obj
 0002:00008f04       $SG139909                  10071f04     CEntity.obj
 0002:00008f14       $SG139910                  10071f14     CEntity.obj
 0002:00008f28       $SG139925                  10071f28     CEntity.obj
 0002:00008f50       $SG139926                  10071f50     CEntity.obj
 0002:00008f64       $SG139941                  10071f64     CEntity.obj
 0002:00008f9c       $SG139942                  10071f9c     CEntity.obj
 0002:00008fb0       $SG139965                  10071fb0     CEntity.obj
 0002:00008fe0       $SG139966                  10071fe0     CEntity.obj
 0002:00008ff4       $SG139985                  10071ff4     CEntity.obj
 0002:0000901c       $SG139986                  1007201c     CEntity.obj
 0002:00009030       $SG140005                  10072030     CEntity.obj
 0002:00009058       $SG140006                  10072058     CEntity.obj
 0002:0000906c       $SG140110                  1007206c     CEntity.obj
 0002:00009080       $SG140114                  10072080     CEntity.obj
 0002:00009094       $SG140118                  10072094     CEntity.obj
 0002:000090a4       $SG140122                  100720a4     CEntity.obj
 0002:000090b8       $SG140126                  100720b8     CEntity.obj
 0002:000090cc       $SG140130                  100720cc     CEntity.obj
 0002:000090e0       $SG140133                  100720e0     CEntity.obj
 0002:000090f0       $SG140381                  100720f0     CEntity.obj
 0002:00009100       $SG140385                  10072100     CEntity.obj
 0002:00009110       $SG140389                  10072110     CEntity.obj
 0002:0000911c       $SG140393                  1007211c     CEntity.obj
 0002:00009128       $SG140397                  10072128     CEntity.obj
 0002:00009138       $SG140401                  10072138     CEntity.obj
 0002:0000914c       $SG140405                  1007214c     CEntity.obj
 0002:0000915c       $SG140409                  1007215c     CEntity.obj
 0002:00009168       $SG140413                  10072168     CEntity.obj
 0002:00009178       $SG140417                  10072178     CEntity.obj
 0002:00009184       $SG140421                  10072184     CEntity.obj
 0002:00009194       $SG140425                  10072194     CEntity.obj
 0002:000091a4       $SG140429                  100721a4     CEntity.obj
 0002:000091b4       $SG140433                  100721b4     CEntity.obj
 0002:000091c0       $SG140437                  100721c0     CEntity.obj
 0002:000091d0       $SG140441                  100721d0     CEntity.obj
 0002:000091dc       $SG140445                  100721dc     CEntity.obj
 0002:000091e8       $SG140449                  100721e8     CEntity.obj
 0002:000091f8       $SG140453                  100721f8     CEntity.obj
 0002:00009204       $SG140457                  10072204     CEntity.obj
 0002:00009214       $SG140461                  10072214     CEntity.obj
 0002:00009220       $SG140465                  10072220     CEntity.obj
 0002:0000922c       $SG140469                  1007222c     CEntity.obj
 0002:00009238       $SG140473                  10072238     CEntity.obj
 0002:00009248       $SG140477                  10072248     CEntity.obj
 0002:00009258       $SG140481                  10072258     CEntity.obj
 0002:00009264       $SG140485                  10072264     CEntity.obj
 0002:00009274       $SG140489                  10072274     CEntity.obj
 0002:00009284       $SG140493                  10072284     CEntity.obj
 0002:00009298       ?pulCRCTable@@3QBKB        10072298     checksum_crc.obj
 0002:00009698       $SG155650                  10072698     Interfaces.obj
 0002:000096a0       $SG155670                  100726a0     Interfaces.obj
 0002:000096b0       $SG155671                  100726b0     Interfaces.obj
 0002:000096b8       $SG155674                  100726b8     Interfaces.obj
 0002:000096c0       $SG155694                  100726c0     Interfaces.obj
 0002:000096d0       $SG155695                  100726d0     Interfaces.obj
 0002:000096d8       $SG155698                  100726d8     Interfaces.obj
 0002:000096e0       $SG155718                  100726e0     Interfaces.obj
 0002:000096f0       $SG155719                  100726f0     Interfaces.obj
 0002:000096f8       $SG155722                  100726f8     Interfaces.obj
 0002:00009700       $SG155742                  10072700     Interfaces.obj
 0002:00009710       $SG155743                  10072710     Interfaces.obj
 0002:00009718       $SG155746                  10072718     Interfaces.obj
 0002:00009720       $SG155766                  10072720     Interfaces.obj
 0002:00009730       $SG155767                  10072730     Interfaces.obj
 0002:00009738       $SG155770                  10072738     Interfaces.obj
 0002:00009740       $SG155790                  10072740     Interfaces.obj
 0002:00009750       $SG155791                  10072750     Interfaces.obj
 0002:00009758       $SG155794                  10072758     Interfaces.obj
 0002:00009760       $SG155814                  10072760     Interfaces.obj
 0002:00009770       $SG155815                  10072770     Interfaces.obj
 0002:00009778       $SG155818                  10072778     Interfaces.obj
 0002:00009780       $SG155838                  10072780     Interfaces.obj
 0002:00009790       $SG155839                  10072790     Interfaces.obj
 0002:00009798       $SG155842                  10072798     Interfaces.obj
 0002:000097a0       $SG143195                  100727a0     Interfaces.obj
 0002:000097a8       $SG143196                  100727a8     Interfaces.obj
 0002:000097bc       $SG143197                  100727bc     Interfaces.obj
 0002:000097d0       $SG143198                  100727d0     Interfaces.obj
 0002:000097e4       $SG143199                  100727e4     Interfaces.obj
 0002:000097f4       $SG143200                  100727f4     Interfaces.obj
 0002:00009800       $SG143201                  10072800     Interfaces.obj
 0002:00009814       $SG143202                  10072814     Interfaces.obj
 0002:00009828       $SG143203                  10072828     Interfaces.obj
 0002:00009838       $SG143204                  10072838     Interfaces.obj
 0002:0000984c       $SG143205                  1007284c     Interfaces.obj
 0002:00009868       $SG143206                  10072868     Interfaces.obj
 0002:0000987c       $SG143207                  1007287c     Interfaces.obj
 0002:00009894       $SG143208                  10072894     Interfaces.obj
 0002:000098a0       $SG143209                  100728a0     Interfaces.obj
 0002:000098b0       $SG143210                  100728b0     Interfaces.obj
 0002:000098c4       $SG143211                  100728c4     Interfaces.obj
 0002:000098d8       $SG143212                  100728d8     Interfaces.obj
 0002:000098e4       $SG143213                  100728e4     Interfaces.obj
 0002:000098fc       $SG143214                  100728fc     Interfaces.obj
 0002:0000990c       $SG143215                  1007290c     Interfaces.obj
 0002:00009918       $SG143216                  10072918     Interfaces.obj
 0002:00009924       $SG143217                  10072924     Interfaces.obj
 0002:00009930       $SG143218                  10072930     Interfaces.obj
 0002:0000993c       $SG143219                  1007293c     Interfaces.obj
 0002:00009950       $SG143220                  10072950     Interfaces.obj
 0002:0000995c       $SG143221                  1007295c     Interfaces.obj
 0002:0000996c       $SG143222                  1007296c     Interfaces.obj
 0002:00009978       $SG143223                  10072978     Interfaces.obj
 0002:00009988       $SG143224                  10072988     Interfaces.obj
 0002:0000999c       $SG143225                  1007299c     Interfaces.obj
 0002:000099b0       $SG143226                  100729b0     Interfaces.obj
 0002:000099bc       $SG143227                  100729bc     Interfaces.obj
 0002:000099c8       $SG143228                  100729c8     Interfaces.obj
 0002:000099d8       $SG143229                  100729d8     Interfaces.obj
 0002:00009aa8       $SG143230                  10072aa8     Interfaces.obj
 0002:00009ac8       $SG143231                  10072ac8     Interfaces.obj
 0002:00009bb0       $SG143232                  10072bb0     Interfaces.obj
 0002:00009bd4       $SG155517                  10072bd4     Interfaces.obj
 0002:00009be4       $SG155518                  10072be4     Interfaces.obj
 0002:00009bec       $SG155521                  10072bec     Interfaces.obj
 0002:00009bf4       $SG155541                  10072bf4     Interfaces.obj
 0002:00009c04       $SG155542                  10072c04     Interfaces.obj
 0002:00009c0c       $SG155545                  10072c0c     Interfaces.obj
 0002:00009c14       $SG155565                  10072c14     Interfaces.obj
 0002:00009c24       $SG155566                  10072c24     Interfaces.obj
 0002:00009c2c       $SG155569                  10072c2c     Interfaces.obj
 0002:00009c34       $SG155589                  10072c34     Interfaces.obj
 0002:00009c44       $SG155590                  10072c44     Interfaces.obj
 0002:00009c4c       $SG155593                  10072c4c     Interfaces.obj
 0002:00009c54       $SG155613                  10072c54     Interfaces.obj
 0002:00009c64       $SG155614                  10072c64     Interfaces.obj
 0002:00009c6c       $SG155617                  10072c6c     Interfaces.obj
 0002:00009c74       $SG155626                  10072c74     Interfaces.obj
 0002:00009c84       $SG155627                  10072c84     Interfaces.obj
 0002:00009ca0       $SG155646                  10072ca0     Interfaces.obj
 0002:00009cb0       $SG155647                  10072cb0     Interfaces.obj
 0002:00009cb8       $SG126151                  10072cb8     Math.obj
 0002:00009cc4       $SG126152                  10072cc4     Math.obj
 0002:00009cd0       $SG126166                  10072cd0     Math.obj
 0002:00009cdc       $SG126167                  10072cdc     Math.obj
 0002:00009e20       _Int32ToUInt32             10072e20     MSVCRT:ftol3.obj
 0002:00009e28       _DP2to32                   10072e28     MSVCRT:ftol3.obj
 0002:00009e30       _MantissaMask              10072e30     MSVCRT:ftol3.obj
 0002:00009e38       _IntegerBit                10072e38     MSVCRT:ftol3.obj
 0002:00009e40       _SignBit64                 10072e40     MSVCRT:ftol3.obj
 0002:00009e48       _MinFP64                   10072e48     MSVCRT:ftol3.obj
 0002:00009e50       _MinInt64                  10072e50     MSVCRT:ftol3.obj
 0002:00009e58       _MaxInt64                  10072e58     MSVCRT:ftol3.obj
 0002:00009e60       _MaxUInt64                 10072e60     MSVCRT:ftol3.obj
 0002:00009e68       _MaxFP32                   10072e68     MSVCRT:ftol3.obj
 0002:00009e70       _MinFP32                   10072e70     MSVCRT:ftol3.obj
 0002:00009e78       _MinSubInexact             10072e78     MSVCRT:ftol3.obj
 0002:00009e80       _FpExcptTable              10072e80     MSVCRT:ftol3.obj
 0002:00009e90       _i1075                     10072e90     MSVCRT:ftol3.obj
 0002:00009e94       _i1087                     10072e94     MSVCRT:ftol3.obj
 0002:00009e98       _x0800                     10072e98     MSVCRT:ftol3.obj
 0002:00009e9c       _x17FF                     10072e9c     MSVCRT:ftol3.obj
 0002:00009ea0       _CWMask                    10072ea0     MSVCRT:ftol3.obj
 0002:00009eac       _GS_ExceptionPointers      10072eac     MSVCRT:gs_report.obj
 0002:0000ae70       __unwindtable$??0?$basic_string@DU?$char_traits@D@std@@V?$allocator@D@2@@std@@QAE@ID@Z 10073e70     config_system.obj
 0002:0000ae70       __unwindtable$??$?0V?$basic_string_view@_WU?$char_traits@_W@std@@@std@@X@?$basic_string@_WU?$char_traits@_W@std@@V?$allocator@_W@2@@std@@QAE@ABV?$basic_string_view@_WU?$char_traits@_W@std@@@1@ABV?$allocator@_W@1@@Z 10073e70     config_system.obj
 0002:0000ae70       __unwindtable$??0?$basic_string@DU?$char_traits@D@std@@V?$allocator@D@2@@std@@QAE@QBD@Z 10073e70     animation_system.obj
 0002:0000ae78       __ehfuncinfo$??0?$basic_string@DU?$char_traits@D@std@@V?$allocator@D@2@@std@@QAE@ID@Z 10073e78     config_system.obj
 0002:0000ae78       __ehfuncinfo$??0?$basic_string@DU?$char_traits@D@std@@V?$allocator@D@2@@std@@QAE@QBD@Z 10073e78     animation_system.obj
 0002:0000ae78       __ehfuncinfo$??$?0V?$basic_string_view@_WU?$char_traits@_W@std@@@std@@X@?$basic_string@_WU?$char_traits@_W@std@@V?$allocator@_W@2@@std@@QAE@ABV?$basic_string_view@_WU?$char_traits@_W@std@@@1@ABV?$allocator@_W@1@@Z 10073e78     config_system.obj
 0002:0000ae9c       __ehfuncinfo$?_Assign_rv_contents_with_alloc_always_equal@?$basic_string@DU?$char_traits@D@std@@V?$allocator@D@2@@std@@QAEX$$QAV12@U?$integral_constant@_N$00@2@@Z 10073e9c     animation_system.obj
 0002:0000ae9c       __ehfuncinfo$??1?$basic_string@DU?$char_traits@D@std@@V?$allocator@D@2@@std@@QAE@XZ 10073e9c     animation_system.obj
 0002:0000ae9c       __ehfuncinfo$?c_str@?$basic_string@DU?$char_traits@D@std@@V?$allocator@D@2@@std@@QBEPBDXZ 10073e9c     animation_system.obj
 0002:0000ae9c       __ehfuncinfo$?_Equal@?$basic_string@DU?$char_traits@D@std@@V?$allocator@D@2@@std@@QBE_NABV12@@Z 10073e9c     animation_system.obj
 0002:0000ae9c       __ehfuncinfo$?__scrt_initialize_thread_safe_statics_platform_specific@@YAXXZ 10073e9c     MSVCRT:thread_safe_statics.obj
 0002:0000ae9c       __ehfuncinfo$??1?$deque@UPlayerRecords@@V?$allocator@UPlayerRecords@@@std@@@std@@QAE@XZ 10073e9c     LagComp.obj
 0002:0000ae9c       __ehfuncinfo$___std_fs_remove@4 10073e9c     msvcprt:filesystem.obj
 0002:0000ae9c       __ehfuncinfo$?end@?$deque@UPlayerRecords@@V?$allocator@UPlayerRecords@@@std@@@std@@QAE?AV?$_Deque_iterator@V?$_Deque_val@U?$_Deque_simple_types@UPlayerRecords@@@std@@@std@@@2@XZ 10073e9c     LagComp.obj
 0002:0000ae9c       __ehfuncinfo$??0?$vector@HV?$allocator@H@std@@@std@@QAE@XZ 10073e9c     animation_system.obj
 0002:0000ae9c       __ehfuncinfo$?_Move_from@?$vector@HV?$allocator@H@std@@@std@@AAEX$$QAV12@U?$integral_constant@_N$00@2@@Z 10073e9c     animation_system.obj
 0002:0000ae9c       __ehfuncinfo$??0?$vector@HV?$allocator@H@std@@@std@@QAE@$$QAV01@@Z 10073e9c     animation_system.obj
 0002:0000ae9c       __ehfuncinfo$??1_Fac_node@std@@QAE@XZ 10073e9c     msvcprt:locale0_implib.obj
 0002:0000ae9c       __ehfuncinfo$??1?$vector@HV?$allocator@H@std@@@std@@QAE@XZ 10073e9c     animation_system.obj
 0002:0000ae9c       __ehfuncinfo$?data@?$vector@HV?$allocator@H@std@@@std@@QAEPAHXZ 10073e9c     animation_system.obj
 0002:0000ae9c       __ehfuncinfo$?_Destroy@?$_Ref_count_obj@U_Dir_enum_impl@filesystem@std@@@std@@EAEXXZ 10073e9c     config_system.obj
 0002:0000ae9c       __ehfuncinfo$??$?0U?$default_delete@V_Facet_base@std@@@std@@$0A@@?$unique_ptr@V_Facet_base@std@@U?$default_delete@V_Facet_base@std@@@2@@std@@QAE@PAV_Facet_base@1@@Z 10073e9c     config_system.obj
 0002:0000ae9c       __ehfuncinfo$??0?$basic_string@DU?$char_traits@D@std@@V?$allocator@D@2@@std@@QAE@$$QAV01@@Z 10073e9c     animation_system.obj
 0002:0000ae9c       __ehfuncinfo$?begin@?$deque@UPlayerRecords@@V?$allocator@UPlayerRecords@@@std@@@std@@QAE?AV?$_Deque_iterator@V?$_Deque_val@U?$_Deque_simple_types@UPlayerRecords@@@std@@@std@@@2@XZ 10073e9c     c_ragebot.obj
 0002:0000ae9c       __ehfuncinfo$?begin@?$list@U?$pair@$$CBV?$basic_string@DU?$char_traits@D@std@@V?$allocator@D@2@@std@@V?$shared_ptr@UNode@NetvarTree@@@2@@std@@V?$allocator@U?$pair@$$CBV?$basic_string@DU?$char_traits@D@std@@V?$allocator@D@2@@std@@V?$shared_ptr@UNode@NetvarTree@@@2@@std@@@2@@std@@QAE?AV?$_List_iterator@V?$_List_val@U?$_List_simple_types@U?$pair@$$CBV?$basic_string@DU?$char_traits@D@std@@V?$allocator@D@2@@std@@V?$shared_ptr@UNode@NetvarTree@@@2@@std@@@std@@@std@@@2@XZ 10073e9c     animation_system.obj
 0002:0000ae9c       __ehfuncinfo$?end@?$list@U?$pair@$$CBV?$basic_string@DU?$char_traits@D@std@@V?$allocator@D@2@@std@@V?$shared_ptr@UNode@NetvarTree@@@2@@std@@V?$allocator@U?$pair@$$CBV?$basic_string@DU?$char_traits@D@std@@V?$allocator@D@2@@std@@V?$shared_ptr@UNode@NetvarTree@@@2@@std@@@2@@std@@QAE?AV?$_List_iterator@V?$_List_val@U?$_List_simple_types@U?$pair@$$CBV?$basic_string@DU?$char_traits@D@std@@V?$allocator@D@2@@std@@V?$shared_ptr@UNode@NetvarTree@@@2@@std@@@std@@@std@@@2@XZ 10073e9c     animation_system.obj
 0002:0000ae9c       __ehfuncinfo$?_Make_iter@?$list@U?$pair@$$CBV?$basic_string@DU?$char_traits@D@std@@V?$allocator@D@2@@std@@V?$shared_ptr@UNode@NetvarTree@@@2@@std@@V?$allocator@U?$pair@$$CBV?$basic_string@DU?$char_traits@D@std@@V?$allocator@D@2@@std@@V?$shared_ptr@UNode@NetvarTree@@@2@@std@@@2@@std@@QBE?AV?$_List_iterator@V?$_List_val@U?$_List_simple_types@U?$pair@$$CBV?$basic_string@DU?$char_traits@D@std@@V?$allocator@D@2@@std@@V?$shared_ptr@UNode@NetvarTree@@@2@@std@@@std@@@std@@@2@V?$_List_const_iterator@V?$_List_val@U?$_List_simple_types@U?$pair@$$CBV?$basic_string@DU?$char_traits@D@std@@V?$allocator@D@2@@std@@V?$shared_ptr@UNode@NetvarTree@@@2@@std@@@std@@@std@@@2@@Z 10073e9c     animation_system.obj
 0002:0000ae9c       __ehfuncinfo$??1?$ImVector@Ustbrp_rect@@@@QAE@XZ 10073e9c     imgui_draw.obj
 0002:0000ae9c       __ehfuncinfo$?_Destroy@?$_Ref_count_obj@UNode@NetvarTree@@@std@@EAEXXZ 10073e9c     NetvarManager.obj
 0002:0000ae9c       __ehfuncinfo$??1ImFont@@QAE@XZ 10073e9c     imgui_draw.obj
 0002:0000ae9c       __ehfuncinfo$??1?$ImVector@UGlyph@ImFont@@@@QAE@XZ 10073e9c     imgui_draw.obj
 0002:0000ae9c       __ehfuncinfo$??$?0U?$default_delete@VNetvarTree@@@std@@$0A@@?$unique_ptr@VNetvarTree@@U?$default_delete@VNetvarTree@@@std@@@std@@QAE@XZ 10073e9c     NetvarManager.obj
 0002:0000ae9c       __ehfuncinfo$??0?$shared_ptr@UNode@NetvarTree@@@std@@QAE@$$QAV01@@Z 10073e9c     NetvarManager.obj
 0002:0000ae9c       __ehfuncinfo$??0?$shared_ptr@UNode@NetvarTree@@@std@@QAE@ABV01@@Z 10073e9c     NetvarManager.obj
 0002:0000ae9c       __ehfuncinfo$??1?$ImVector@UImFontConfig@@@@QAE@XZ 10073e9c     imgui_draw.obj
 0002:0000ae9c       __ehfuncinfo$??1?$ImVector@UCustomRect@ImFontAtlas@@@@QAE@XZ 10073e9c     imgui_draw.obj
 0002:0000ae9c       __ehfuncinfo$??1ImFontAtlas@@QAE@XZ 10073e9c     imgui_draw.obj
 0002:0000ae9c       __ehfuncinfo$??1?$shared_ptr@UNode@NetvarTree@@@std@@QAE@XZ 10073e9c     animation_system.obj
 0002:0000ae9c       __ehfuncinfo$??0?$vector@V?$_List_unchecked_iterator@V?$_List_val@U?$_List_simple_types@U?$pair@$$CBV?$basic_string@DU?$char_traits@D@std@@V?$allocator@D@2@@std@@V?$shared_ptr@UNode@NetvarTree@@@2@@std@@@std@@@std@@@std@@V?$allocator@V?$_List_unchecked_iterator@V?$_List_val@U?$_List_simple_types@U?$pair@$$CBV?$basic_string@DU?$char_traits@D@std@@V?$allocator@D@2@@std@@V?$shared_ptr@UNode@NetvarTree@@@2@@std@@@std@@@std@@@std@@@2@@std@@QAE@ABV?$allocator@V?$_List_unchecked_iterator@V?$_List_val@U?$_List_simple_types@U?$pair@$$CBV?$basic_string@DU?$char_traits@D@std@@V?$allocator@D@2@@std@@V?$shared_ptr@UNode@NetvarTree@@@2@@std@@@std@@@std@@@std@@@1@@Z 10073e9c     NetvarManager.obj
 0002:0000ae9c       __ehfuncinfo$??$?6U<unnamed-type-cfg>@c_config@@@?$ArchiveX@V?$basic_ofstream@DU?$char_traits@D@std@@@std@@@@QBEABV0@ABU<unnamed-type-cfg>@c_config@@@Z 10073e9c     config_system.obj
 0002:0000ae9c       __ehfuncinfo$??0?$basic_string@DU?$char_traits@D@std@@V?$allocator@D@2@@std@@QAE@XZ 10073e9c     config_system.obj
 0002:0000ae9c       __ehfuncinfo$??0?$basic_string@DU?$char_traits@D@std@@V?$allocator@D@2@@std@@QAE@ABV?$allocator@D@1@@Z 10073e9c     config_system.obj
 0002:0000ae9c       __ehfuncinfo$??1?$basic_filebuf@DU?$char_traits@D@std@@@std@@UAE@XZ 10073e9c     config_system.obj
 0002:0000ae9c       __ehfuncinfo$??1?$_Uninitialized_backout_al@PAV?$basic_string@DU?$char_traits@D@std@@V?$allocator@D@2@@std@@V?$allocator@V?$basic_string@DU?$char_traits@D@std@@V?$allocator@D@2@@std@@@2@@std@@QAE@XZ 10073e9c     config_system.obj
 0002:0000ae9c       __ehfuncinfo$??1LagComp@@QAE@XZ 10073e9c     LagComp.obj
 0002:0000ae9c       __ehfuncinfo$??1?$_Deque_alloc@U?$_Deque_base_types@UPlayerRecords@@V?$allocator@UPlayerRecords@@@std@@@std@@@std@@QAE@XZ 10073e9c     LagComp.obj
 0002:0000ae9c       __ehfuncinfo$??1sentry@?$basic_ostream@DU?$char_traits@D@std@@@std@@QAE@XZ 10073e9c     Interfaces.obj
 0002:0000ae9c       __ehfuncinfo$??$?5U<unnamed-type-cfg>@c_config@@@?$ArchiveX@V?$basic_ifstream@DU?$char_traits@D@std@@@std@@@@QBEABV0@AAU<unnamed-type-cfg>@c_config@@@Z 10073e9c     config_system.obj
 0002:0000ae9c       __ehfuncinfo$?data@?$basic_string@DU?$char_traits@D@std@@V?$allocator@D@2@@std@@QBEPBDXZ 10073e9c     config_system.obj
 0002:0000ae9c       __ehfuncinfo$??1_Sentry_base@?$basic_ostream@DU?$char_traits@D@std@@@std@@QAE@XZ 10073e9c     Interfaces.obj
 0002:0000ae9c       __ehfuncinfo$?data@?$basic_string@DU?$char_traits@D@std@@V?$allocator@D@2@@std@@QAEPADXZ 10073e9c     config_system.obj
 0002:0000ae9c       __ehfuncinfo$?_Equal@?$basic_string@DU?$char_traits@D@std@@V?$allocator@D@2@@std@@QBE_NQBD@Z 10073e9c     config_system.obj
 0002:0000ae9c       __ehfuncinfo$??1locale@std@@QAE@XZ 10073e9c     config_system.obj
 0002:0000ae9c       __ehfuncinfo$?generic_category@std@@YAABVerror_category@1@XZ 10073e9c     config_system.obj
 0002:0000ae9c       __ehfuncinfo$?system_category@std@@YAABVerror_category@1@XZ 10073e9c     config_system.obj
 0002:0000ae9c       __ehfuncinfo$?default_error_condition@_System_error_category@std@@UBE?AVerror_condition@2@H@Z 10073e9c     config_system.obj
 0002:0000ae9c       __ehfuncinfo$??1?$_Deque_alloc@U?$_Deque_base_types@ULegitPlayerRecords@@V?$allocator@ULegitPlayerRecords@@@std@@@std@@@std@@QAE@XZ 10073e9c     Legitbot.obj
 0002:0000ae9c       __ehfuncinfo$??1?$deque@ULegitPlayerRecords@@V?$allocator@ULegitPlayerRecords@@@std@@@std@@QAE@XZ 10073e9c     Legitbot.obj
 0002:0000ae9c       __ehfuncinfo$?begin@?$deque@ULegitPlayerRecords@@V?$allocator@ULegitPlayerRecords@@@std@@@std@@QAE?AV?$_Deque_iterator@V?$_Deque_val@U?$_Deque_simple_types@ULegitPlayerRecords@@@std@@@std@@@2@XZ 10073e9c     Legitbot.obj
 0002:0000ae9c       __ehfuncinfo$?end@?$deque@ULegitPlayerRecords@@V?$allocator@ULegitPlayerRecords@@@std@@@std@@QAE?AV?$_Deque_iterator@V?$_Deque_val@U?$_Deque_simple_types@ULegitPlayerRecords@@@std@@@std@@@2@XZ 10073e9c     Legitbot.obj
 0002:0000ae9c       __ehfuncinfo$?zero@?$duration@_JU?$ratio@$00$0DOI@@std@@@chrono@std@@SA?AV123@XZ 10073e9c     dll_main.obj
 0002:0000ae9c       __ehfuncinfo$?now@system_clock@chrono@std@@SA?AV?$time_point@Usystem_clock@chrono@std@@V?$duration@_JU?$ratio@$00$0JIJGIA@@std@@@23@@23@XZ 10073e9c     dll_main.obj
 0002:0000ae9c       __ehfuncinfo$??0?$basic_string@_WU?$char_traits@_W@std@@V?$allocator@_W@2@@std@@QAE@XZ 10073e9c     config_system.obj
 0002:0000ae9c       __ehfuncinfo$??0?$basic_string@_WU?$char_traits@_W@std@@V?$allocator@_W@2@@std@@QAE@$$QAV01@@Z 10073e9c     config_system.obj
 0002:0000ae9c       __ehfuncinfo$??4?$basic_string@_WU?$char_traits@_W@std@@V?$allocator@_W@2@@std@@QAEAAV01@$$QAV01@@Z 10073e9c     config_system.obj
 0002:0000ae9c       __ehfuncinfo$??1Legitbot@@QAE@XZ 10073e9c     Legitbot.obj
 0002:0000ae9c       __ehfuncinfo$?_Assign_rv_contents_with_alloc_always_equal@?$basic_string@_WU?$char_traits@_W@std@@V?$allocator@_W@2@@std@@QAEX$$QAV12@U?$integral_constant@_N$00@2@@Z 10073e9c     config_system.obj
 0002:0000ae9c       __ehfuncinfo$??1?$basic_string@_WU?$char_traits@_W@std@@V?$allocator@_W@2@@std@@QAE@XZ 10073e9c     config_system.obj
 0002:0000ae9c       __ehfuncinfo$??$_Freenode0@V?$allocator@U?$_List_node@U?$pair@$$CBV?$basic_string@DU?$char_traits@D@std@@V?$allocator@D@2@@std@@V?$shared_ptr@UNode@NetvarTree@@@2@@std@@PAX@std@@@std@@@?$_List_node@U?$pair@$$CBV?$basic_string@DU?$char_traits@D@std@@V?$allocator@D@2@@std@@V?$shared_ptr@UNode@NetvarTree@@@2@@std@@PAX@std@@SAXAAV?$allocator@U?$_List_node@U?$pair@$$CBV?$basic_string@DU?$char_traits@D@std@@V?$allocator@D@2@@std@@V?$shared_ptr@UNode@NetvarTree@@@2@@std@@PAX@std@@@1@PAU01@@Z 10073e9c     animation_system.obj
 0002:0000ae9c       __ehfuncinfo$??B?$basic_string@_WU?$char_traits@_W@std@@V?$allocator@_W@2@@std@@QBE?AV?$basic_string_view@_WU?$char_traits@_W@std@@@1@XZ 10073e9c     config_system.obj
 0002:0000ae9c       __ehfuncinfo$??1?$ImVector@D@@QAE@XZ 10073e9c     imgui.obj
 0002:0000ae9c       __ehfuncinfo$?c_str@?$basic_string@_WU?$char_traits@_W@std@@V?$allocator@_W@2@@std@@QBEPB_WXZ 10073e9c     config_system.obj
 0002:0000ae9c       __ehfuncinfo$?data@?$basic_string@_WU?$char_traits@_W@std@@V?$allocator@_W@2@@std@@QBEPB_WXZ 10073e9c     config_system.obj
 0002:0000ae9c       __ehfuncinfo$??1?$ImVector@UPair@ImGuiStorage@@@@QAE@XZ 10073e9c     imgui.obj
 0002:0000ae9c       __ehfuncinfo$??1?$ImVector@UImDrawCmd@@@@QAE@XZ 10073e9c     imgui.obj
 0002:0000ae9c       __ehfuncinfo$??1?$ImVector@G@@QAE@XZ 10073e9c     imgui.obj
 0002:0000ae9c       __ehfuncinfo$??1?$ImVector@UImDrawVert@@@@QAE@XZ 10073e9c     imgui.obj
 0002:0000ae9c       __ehfuncinfo$??1?$ImVector@UImVec4@@@@QAE@XZ 10073e9c     imgui.obj
 0002:0000ae9c       __ehfuncinfo$??1?$ImVector@PAX@@QAE@XZ 10073e9c     imgui.obj
 0002:0000ae9c       __ehfuncinfo$??1?$ImVector@UImVec2@@@@QAE@XZ 10073e9c     imgui.obj
 0002:0000ae9c       __ehfuncinfo$??1?$ImVector@UImDrawChannel@@@@QAE@XZ 10073e9c     imgui.obj
 0002:0000ae9c       __ehfuncinfo$??$?0U?$default_delete@VNetvarTree@@@std@@$0A@@?$unique_ptr@VNetvarTree@@U?$default_delete@VNetvarTree@@@std@@@std@@QAE@PAVNetvarTree@@@Z 10073e9c     c_hooks.obj
 0002:0000ae9c       __ehfuncinfo$??$?0U?$default_delete@VVMTHook@@@std@@$0A@@?$unique_ptr@VVMTHook@@U?$default_delete@VVMTHook@@@std@@@std@@QAE@PAVVMTHook@@@Z 10073e9c     c_hooks.obj
 0002:0000ae9c       __ehfuncinfo$??1ImDrawList@@QAE@XZ 10073e9c     imgui.obj
 0002:0000ae9c       __ehfuncinfo$??1?$ImVector@PAUImFont@@@@QAE@XZ 10073e9c     imgui.obj
 0002:0000ae9c       __ehfuncinfo$??1?$ImVector@M@@QAE@XZ 10073e9c     imgui.obj
 0002:0000ae9c       __ehfuncinfo$??$?0PAIU?$default_delete@$$BY0A@I@std@@$0A@X@?$unique_ptr@$$BY0A@IU?$default_delete@$$BY0A@I@std@@@std@@QAE@PAI@Z 10073e9c     c_hooks.obj
 0002:0000ae9c       __ehfuncinfo$??1?$_Uninitialized_backout_al@PAV?$_List_unchecked_iterator@V?$_List_val@U?$_List_simple_types@U?$pair@$$CBV?$basic_string@DU?$char_traits@D@std@@V?$allocator@D@2@@std@@V?$shared_ptr@UNode@NetvarTree@@@2@@std@@@std@@@std@@@std@@V?$allocator@V?$_List_unchecked_iterator@V?$_List_val@U?$_List_simple_types@U?$pair@$$CBV?$basic_string@DU?$char_traits@D@std@@V?$allocator@D@2@@std@@V?$shared_ptr@UNode@NetvarTree@@@2@@std@@@std@@@std@@@std@@@2@@std@@QAE@XZ 10073e9c     animation_system.obj
 0002:0000ae9c       __ehfuncinfo$??$?0V?$basic_string@DU?$char_traits@D@std@@V?$allocator@D@2@@std@@$$V$0A@@?$tuple@$$QAV?$basic_string@DU?$char_traits@D@std@@V?$allocator@D@2@@std@@@std@@QAE@$$QAV?$basic_string@DU?$char_traits@D@std@@V?$allocator@D@2@@1@@Z 10073e9c     animation_system.obj
 0002:0000ae9c       __ehfuncinfo$??1ShadowVTManager@@QAE@XZ 10073e9c     c_hooks.obj
 0002:0000ae9c       __ehfuncinfo$??1?$ImVector@PAUImGuiWindow@@@@QAE@XZ 10073e9c     imgui.obj
 0002:0000ae9c       __ehfuncinfo$??1?$ImVector@UImGuiIniData@@@@QAE@XZ 10073e9c     imgui.obj
 0002:0000ae9c       __ehfuncinfo$??1?$ImVector@UImGuiColMod@@@@QAE@XZ 10073e9c     imgui.obj
 0002:0000ae9c       __ehfuncinfo$??1?$ImVector@UImGuiStyleMod@@@@QAE@XZ 10073e9c     imgui.obj
 0002:0000ae9c       __ehfuncinfo$??1?$ImVector@UImGuiPopupRef@@@@QAE@XZ 10073e9c     imgui.obj
 0002:0000ae9c       __ehfuncinfo$??1?$ImVector@PAUImDrawList@@@@QAE@XZ 10073e9c     imgui.obj
 0002:0000ae9c       __ehfuncinfo$??$?0U?$default_delete@$$BY0A@I@std@@$0A@@?$unique_ptr@$$BY0A@IU?$default_delete@$$BY0A@I@std@@@std@@QAE@$$T@Z 10073e9c     c_hooks.obj
 0002:0000ae9c       __ehfuncinfo$??1?$unique_ptr@$$BY0A@IU?$default_delete@$$BY0A@I@std@@@std@@QAE@XZ 10073e9c     c_hooks.obj
 0002:0000ae9c       __ehfuncinfo$??1ImGuiContext@@QAE@XZ 10073e9c     imgui.obj
 0002:0000ae9c       __ehfuncinfo$??1?$ImVector@_N@@QAE@XZ 10073e9c     imgui.obj
 0002:0000ae9c       __ehfuncinfo$??1c_hooks@@QAE@XZ 10073e9c     c_hooks.obj
 0002:0000ae9c       __ehfuncinfo$??0c_hooks@@QAE@XZ 10073e9c     c_hooks.obj
 0002:0000ae9c       __ehfuncinfo$??$?0U?$default_delete@VShadowVTManager@@@std@@$0A@@?$unique_ptr@VShadowVTManager@@U?$default_delete@VShadowVTManager@@@std@@@std@@QAE@XZ 10073e9c     c_hooks.obj
 0002:0000ae9c       __ehfuncinfo$??$?0U?$default_delete@VVMTHook@@@std@@$0A@@?$unique_ptr@VVMTHook@@U?$default_delete@VVMTHook@@@std@@@std@@QAE@XZ 10073e9c     c_hooks.obj
 0002:0000ae9c       __ehfuncinfo$??4?$basic_string@DU?$char_traits@D@std@@V?$allocator@D@2@@std@@QAEAAV01@$$QAV01@@Z 10073e9c     imgui.obj
 0002:0000ae9c       __ehfuncinfo$??1?$vector@V?$_List_unchecked_iterator@V?$_List_val@U?$_List_simple_types@U?$pair@$$CBV?$basic_string@DU?$char_traits@D@std@@V?$allocator@D@2@@std@@V?$shared_ptr@UNode@NetvarTree@@@2@@std@@@std@@@std@@@std@@V?$allocator@V?$_List_unchecked_iterator@V?$_List_val@U?$_List_simple_types@U?$pair@$$CBV?$basic_string@DU?$char_traits@D@std@@V?$allocator@D@2@@std@@V?$shared_ptr@UNode@NetvarTree@@@2@@std@@@std@@@std@@@std@@@2@@std@@QAE@XZ 10073e9c     c_hooks.obj
 0002:0000ae9c       __ehfuncinfo$?clear@?$list@U?$pair@$$CBV?$basic_string@DU?$char_traits@D@std@@V?$allocator@D@2@@std@@V?$shared_ptr@UNode@NetvarTree@@@2@@std@@V?$allocator@U?$pair@$$CBV?$basic_string@DU?$char_traits@D@std@@V?$allocator@D@2@@std@@V?$shared_ptr@UNode@NetvarTree@@@2@@std@@@2@@std@@QAEXXZ 10073e9c     c_hooks.obj
 0002:0000ae9c       __ehfuncinfo$??1?$ImVector@I@@QAE@XZ 10073e9c     imgui.obj
 0002:0000ae9c       __ehfuncinfo$?end@?$vector@V?$basic_string@DU?$char_traits@D@std@@V?$allocator@D@2@@std@@V?$allocator@V?$basic_string@DU?$char_traits@D@std@@V?$allocator@D@2@@std@@@2@@std@@QBE?AV?$_Vector_const_iterator@V?$_Vector_val@U?$_Simple_types@V?$basic_string@DU?$char_traits@D@std@@V?$allocator@D@2@@std@@@std@@@std@@@2@XZ 10073e9c     config_system.obj
 0002:0000ae9c       __ehfuncinfo$?begin@?$vector@V?$basic_string@DU?$char_traits@D@std@@V?$allocator@D@2@@std@@V?$allocator@V?$basic_string@DU?$char_traits@D@std@@V?$allocator@D@2@@std@@@2@@std@@QBE?AV?$_Vector_const_iterator@V?$_Vector_val@U?$_Simple_types@V?$basic_string@DU?$char_traits@D@std@@V?$allocator@D@2@@std@@@std@@@std@@@2@XZ 10073e9c     config_system.obj
 0002:0000ae9c       __ehfuncinfo$??1?$vector@V?$basic_string@DU?$char_traits@D@std@@V?$allocator@D@2@@std@@V?$allocator@V?$basic_string@DU?$char_traits@D@std@@V?$allocator@D@2@@std@@@2@@std@@QAE@XZ 10073e9c     config_system.obj
 0002:0000ae9c       __ehfuncinfo$??1?$ImVector@UImGuiGroupData@@@@QAE@XZ 10073e9c     imgui.obj
 0002:0000ae9c       __ehfuncinfo$??1?$ImVector@UImGuiColumnData@@@@QAE@XZ 10073e9c     imgui.obj
 0002:0000ae9c       __ehfuncinfo$??0?$vector@V?$basic_string@DU?$char_traits@D@std@@V?$allocator@D@2@@std@@V?$allocator@V?$basic_string@DU?$char_traits@D@std@@V?$allocator@D@2@@std@@@2@@std@@QAE@XZ 10073e9c     config_system.obj
 0002:0000ae9c       __ehfuncinfo$?rename@c_config@@QAEXIPBD@Z 10073e9c     config_system.obj
 0002:0000ae9c       __ehfuncinfo$?remove@c_config@@QAEXI@Z 10073e9c     config_system.obj
 0002:0000ae9c       __ehfuncinfo$?add@c_config@@QAEXPBD@Z 10073e9c     config_system.obj
 0002:0000ae9c       __ehfuncinfo$?save@c_config@@QBEXI@Z 10073e9c     config_system.obj
 0002:0000ae9c       __ehfuncinfo$?load@c_config@@QAEXI@Z 10073e9c     config_system.obj
 0002:0000ae9c       __ehfuncinfo$?run@c_config@@QAEXPBD@Z 10073e9c     config_system.obj
 0002:0000ae9c       __ehfuncinfo$??1?$shared_ptr@U_Dir_enum_impl@filesystem@std@@@std@@QAE@XZ 10073e9c     config_system.obj
 0002:0000ae9c       __ehfuncinfo$??0?$shared_ptr@U_Dir_enum_impl@filesystem@std@@@std@@QAE@$$QAV01@@Z 10073e9c     config_system.obj
 0002:0000ae9c       __ehfuncinfo$??0?$shared_ptr@U_Dir_enum_impl@filesystem@std@@@std@@QAE@ABV01@@Z 10073e9c     config_system.obj
 0002:0000ae9c       __ehfuncinfo$?_Skip_dots@_Dir_enum_impl@filesystem@std@@SA?AW4__std_win_error@@W4__std_fs_dir_handle@@AAU__std_fs_find_data@@@Z 10073e9c     config_system.obj
 0002:0000ae9c       __ehfuncinfo$?is_absolute@path@filesystem@std@@QBE_NXZ 10073e9c     config_system.obj
 0002:0000ae9c       __ehfuncinfo$?remove_filename@path@filesystem@std@@QAEAAV123@XZ 10073e9c     config_system.obj
 0002:0000ae9c       __ehfuncinfo$?find@?$basic_string@DU?$char_traits@D@std@@V?$allocator@D@2@@std@@QBEIQBDI@Z 10073e9c     c_esp.obj
 0002:0000ae9c       __ehfuncinfo$?end@?$basic_string@DU?$char_traits@D@std@@V?$allocator@D@2@@std@@QAE?AV?$_String_iterator@V?$_String_val@U?$_Simple_types@D@std@@@std@@@2@XZ 10073e9c     c_esp.obj
 0002:0000ae9c       __ehfuncinfo$?begin@?$basic_string@DU?$char_traits@D@std@@V?$allocator@D@2@@std@@QAE?AV?$_String_iterator@V?$_String_val@U?$_Simple_types@D@std@@@std@@@2@XZ 10073e9c     c_esp.obj
 0002:0000ae9c       __ehfuncinfo$??0_Find_file_handle@filesystem@std@@QAE@$$QAU012@@Z 10073e9c     config_system.obj
 0002:0000ae9c       __ehfuncinfo$?data@?$basic_string@_WU?$char_traits@_W@std@@V?$allocator@_W@2@@std@@QAEPA_WXZ 10073e9c     config_system.obj
 0002:0000ae9c       __ehfuncinfo$??1?$_List_alloc@U?$_List_base_types@U?$pair@$$CBV?$basic_string@DU?$char_traits@D@std@@V?$allocator@D@2@@std@@V?$shared_ptr@UNode@NetvarTree@@@2@@std@@V?$allocator@U?$pair@$$CBV?$basic_string@DU?$char_traits@D@std@@V?$allocator@D@2@@std@@V?$shared_ptr@UNode@NetvarTree@@@2@@std@@@2@@std@@@std@@QAE@XZ 10073e9c     c_hooks.obj
 0002:0000ae9c       __ehfuncinfo$??1?$list@U?$pair@$$CBV?$basic_string@DU?$char_traits@D@std@@V?$allocator@D@2@@std@@V?$shared_ptr@UNode@NetvarTree@@@2@@std@@V?$allocator@U?$pair@$$CBV?$basic_string@DU?$char_traits@D@std@@V?$allocator@D@2@@std@@V?$shared_ptr@UNode@NetvarTree@@@2@@std@@@2@@std@@QAE@XZ 10073e9c     c_hooks.obj
 0002:0000ae9c       __ehfuncinfo$??$?0U?$default_delete@VShadowVTManager@@@std@@$0A@@?$unique_ptr@VShadowVTManager@@U?$default_delete@VShadowVTManager@@@std@@@std@@QAE@PAVShadowVTManager@@@Z 10073e9c     bone_processing_hook.obj
 0002:0000aec0       __unwindtable$??R<lambda_90060b9e869af971fde551ed84c55648>@@QBE?AV?$vector@HV?$allocator@H@std@@@std@@PBD@Z 10073ec0     animation_system.obj
 0002:0000aec8       __ehfuncinfo$??R<lambda_90060b9e869af971fde551ed84c55648>@@QBE?AV?$vector@HV?$allocator@H@std@@@std@@PBD@Z 10073ec8     animation_system.obj
 0002:0000aeec       __catchsym$?_Buynode0@?$_List_alloc@U?$_List_base_types@U?$pair@$$CBV?$basic_string@DU?$char_traits@D@std@@V?$allocator@D@2@@std@@V?$shared_ptr@UNode@NetvarTree@@@2@@std@@V?$allocator@U?$pair@$$CBV?$basic_string@DU?$char_traits@D@std@@V?$allocator@D@2@@std@@V?$shared_ptr@UNode@NetvarTree@@@2@@std@@@2@@std@@@std@@QAEPAU?$_List_node@U?$pair@$$CBV?$basic_string@DU?$char_traits@D@std@@V?$allocator@D@2@@std@@V?$shared_ptr@UNode@NetvarTree@@@2@@std@@PAX@2@PAU32@0@Z$2 10073eec     animation_system.obj
 0002:0000aefc       __unwindtable$?_Buynode0@?$_List_alloc@U?$_List_base_types@U?$pair@$$CBV?$basic_string@DU?$char_traits@D@std@@V?$allocator@D@2@@std@@V?$shared_ptr@UNode@NetvarTree@@@2@@std@@V?$allocator@U?$pair@$$CBV?$basic_string@DU?$char_traits@D@std@@V?$allocator@D@2@@std@@V?$shared_ptr@UNode@NetvarTree@@@2@@std@@@2@@std@@@std@@QAEPAU?$_List_node@U?$pair@$$CBV?$basic_string@DU?$char_traits@D@std@@V?$allocator@D@2@@std@@V?$shared_ptr@UNode@NetvarTree@@@2@@std@@PAX@2@PAU32@0@Z 10073efc     animation_system.obj
 0002:0000af0c       __tryblocktable$?_Buynode0@?$_List_alloc@U?$_List_base_types@U?$pair@$$CBV?$basic_string@DU?$char_traits@D@std@@V?$allocator@D@2@@std@@V?$shared_ptr@UNode@NetvarTree@@@2@@std@@V?$allocator@U?$pair@$$CBV?$basic_string@DU?$char_traits@D@std@@V?$allocator@D@2@@std@@V?$shared_ptr@UNode@NetvarTree@@@2@@std@@@2@@std@@@std@@QAEPAU?$_List_node@U?$pair@$$CBV?$basic_string@DU?$char_traits@D@std@@V?$allocator@D@2@@std@@V?$shared_ptr@UNode@NetvarTree@@@2@@std@@PAX@2@PAU32@0@Z 10073f0c     animation_system.obj
 0002:0000af20       __ehfuncinfo$?_Buynode0@?$_List_alloc@U?$_List_base_types@U?$pair@$$CBV?$basic_string@DU?$char_traits@D@std@@V?$allocator@D@2@@std@@V?$shared_ptr@UNode@NetvarTree@@@2@@std@@V?$allocator@U?$pair@$$CBV?$basic_string@DU?$char_traits@D@std@@V?$allocator@D@2@@std@@V?$shared_ptr@UNode@NetvarTree@@@2@@std@@@2@@std@@@std@@QAEPAU?$_List_node@U?$pair@$$CBV?$basic_string@DU?$char_traits@D@std@@V?$allocator@D@2@@std@@V?$shared_ptr@UNode@NetvarTree@@@2@@std@@PAX@2@PAU32@0@Z 10073f20     animation_system.obj
 0002:0000af44       __catchsym$?_Reallocate_exactly@?$vector@V?$_List_unchecked_iterator@V?$_List_val@U?$_List_simple_types@U?$pair@$$CBV?$basic_string@DU?$char_traits@D@std@@V?$allocator@D@2@@std@@V?$shared_ptr@UNode@NetvarTree@@@2@@std@@@std@@@std@@@std@@V?$allocator@V?$_List_unchecked_iterator@V?$_List_val@U?$_List_simple_types@U?$pair@$$CBV?$basic_string@DU?$char_traits@D@std@@V?$allocator@D@2@@std@@V?$shared_ptr@UNode@NetvarTree@@@2@@std@@@std@@@std@@@std@@@2@@std@@AAEXI@Z$2 10073f44     animation_system.obj
 0002:0000af54       __unwindtable$?_Reallocate_exactly@?$vector@V?$_List_unchecked_iterator@V?$_List_val@U?$_List_simple_types@U?$pair@$$CBV?$basic_string@DU?$char_traits@D@std@@V?$allocator@D@2@@std@@V?$shared_ptr@UNode@NetvarTree@@@2@@std@@@std@@@std@@@std@@V?$allocator@V?$_List_unchecked_iterator@V?$_List_val@U?$_List_simple_types@U?$pair@$$CBV?$basic_string@DU?$char_traits@D@std@@V?$allocator@D@2@@std@@V?$shared_ptr@UNode@NetvarTree@@@2@@std@@@std@@@std@@@std@@@2@@std@@AAEXI@Z 10073f54     animation_system.obj
 0002:0000af64       __tryblocktable$?_Reallocate_exactly@?$vector@V?$_List_unchecked_iterator@V?$_List_val@U?$_List_simple_types@U?$pair@$$CBV?$basic_string@DU?$char_traits@D@std@@V?$allocator@D@2@@std@@V?$shared_ptr@UNode@NetvarTree@@@2@@std@@@std@@@std@@@std@@V?$allocator@V?$_List_unchecked_iterator@V?$_List_val@U?$_List_simple_types@U?$pair@$$CBV?$basic_string@DU?$char_traits@D@std@@V?$allocator@D@2@@std@@V?$shared_ptr@UNode@NetvarTree@@@2@@std@@@std@@@std@@@std@@@2@@std@@AAEXI@Z 10073f64     animation_system.obj
 0002:0000af78       __ehfuncinfo$?_Reallocate_exactly@?$vector@V?$_List_unchecked_iterator@V?$_List_val@U?$_List_simple_types@U?$pair@$$CBV?$basic_string@DU?$char_traits@D@std@@V?$allocator@D@2@@std@@V?$shared_ptr@UNode@NetvarTree@@@2@@std@@@std@@@std@@@std@@V?$allocator@V?$_List_unchecked_iterator@V?$_List_val@U?$_List_simple_types@U?$pair@$$CBV?$basic_string@DU?$char_traits@D@std@@V?$allocator@D@2@@std@@V?$shared_ptr@UNode@NetvarTree@@@2@@std@@@std@@@std@@@std@@@2@@std@@AAEXI@Z 10073f78     animation_system.obj
 0002:0000af9c       __unwindtable$?GetOffsetRecursive@NetvarTree@@CAHAAV?$unordered_map@V?$basic_string@DU?$char_traits@D@std@@V?$allocator@D@2@@std@@V?$shared_ptr@UNode@NetvarTree@@@2@U?$hash@V?$basic_string@DU?$char_traits@D@std@@V?$allocator@D@2@@std@@@2@U?$equal_to@V?$basic_string@DU?$char_traits@D@std@@V?$allocator@D@2@@std@@@2@V?$allocator@U?$pair@$$CBV?$basic_string@DU?$char_traits@D@std@@V?$allocator@D@2@@std@@V?$shared_ptr@UNode@NetvarTree@@@2@@std@@@2@@std@@HPBD@Z 10073f9c     animation_system.obj
 0002:0000af9c       __unwindtable$??0system_error@std@@QAE@Verror_code@1@@Z 10073f9c     config_system.obj
 0002:0000afa4       __ehfuncinfo$??0system_error@std@@QAE@Verror_code@1@@Z 10073fa4     config_system.obj
 0002:0000afa4       __ehfuncinfo$?GetOffsetRecursive@NetvarTree@@CAHAAV?$unordered_map@V?$basic_string@DU?$char_traits@D@std@@V?$allocator@D@2@@std@@V?$shared_ptr@UNode@NetvarTree@@@2@U?$hash@V?$basic_string@DU?$char_traits@D@std@@V?$allocator@D@2@@std@@@2@U?$equal_to@V?$basic_string@DU?$char_traits@D@std@@V?$allocator@D@2@@std@@@2@V?$allocator@U?$pair@$$CBV?$basic_string@DU?$char_traits@D@std@@V?$allocator@D@2@@std@@V?$shared_ptr@UNode@NetvarTree@@@2@@std@@@2@@std@@HPBD@Z 10073fa4     animation_system.obj
 0002:0000afc8       __unwindtable$?UpdateAnimationState@C_BaseEntity@@QAEXPAVCBasePlayerAnimState@@VVector@@@Z 10073fc8     animation_system.obj
 0002:0000afd0       __ehfuncinfo$?UpdateAnimationState@C_BaseEntity@@QAEXPAVCBasePlayerAnimState@@VVector@@@Z 10073fd0     animation_system.obj
 0002:0000aff4       __unwindtable$?m_flPoseParameter@C_BaseEntity@@QAEAAV?$array@M$0BI@@std@@XZ 10073ff4     animation_system.obj
 0002:0000affc       __ehfuncinfo$?m_flPoseParameter@C_BaseEntity@@QAEAAV?$array@M$0BI@@std@@XZ 10073ffc     animation_system.obj
 0002:0000b020       __unwindtable$?GetSimulationTime@C_BaseEntity@@QAEMXZ 10074020     animation_system.obj
 0002:0000b028       __ehfuncinfo$?GetSimulationTime@C_BaseEntity@@QAEMXZ 10074028     animation_system.obj
 0002:0000b04c       __unwindtable$?GetLifeState@C_BaseEntity@@QAE_NXZ 1007404c     animation_system.obj
 0002:0000b054       __ehfuncinfo$?GetLifeState@C_BaseEntity@@QAE_NXZ 10074054     animation_system.obj
 0002:0000b078       __unwindtable$?GetHealth@C_BaseEntity@@QAEHXZ 10074078     animation_system.obj
 0002:0000b080       __ehfuncinfo$?GetHealth@C_BaseEntity@@QAEHXZ 10074080     animation_system.obj
 0002:0000b0a4       __unwindtable$?GetOrigin@C_BaseEntity@@QAE?AVVector@@XZ 100740a4     animation_system.obj
 0002:0000b0ac       __ehfuncinfo$?GetOrigin@C_BaseEntity@@QAE?AVVector@@XZ 100740ac     animation_system.obj
 0002:0000b0d0       __unwindtable$?GetVelocity@C_BaseEntity@@QAE?AVVector@@XZ 100740d0     animation_system.obj
 0002:0000b0d8       __ehfuncinfo$?GetVelocity@C_BaseEntity@@QAE?AVVector@@XZ 100740d8     animation_system.obj
 0002:0000b0fc       __unwindtable$??$GetOffset@PBD@NetvarTree@@QAEHPBD0@Z 100740fc     animation_system.obj
 0002:0000b0fc       __unwindtable$??$GetOffset@PBDPBD@NetvarTree@@QAEHPBD00@Z 100740fc     animation_system.obj
 0002:0000b104       __ehfuncinfo$??$GetOffset@PBD@NetvarTree@@QAEHPBD0@Z 10074104     animation_system.obj
 0002:0000b104       __ehfuncinfo$??$GetOffset@PBDPBD@NetvarTree@@QAEHPBD00@Z 10074104     animation_system.obj
 0002:0000b128       __unwindtable$?LocalAnimFix@animations_system@@QAEXPAVC_BaseEntity@@@Z 10074128     animation_system.obj
 0002:0000b138       __ehfuncinfo$?LocalAnimFix@animations_system@@QAEXPAVC_BaseEntity@@@Z 10074138     animation_system.obj
 0002:0000b15c       __catchsym$??$_Emplace_reallocate@H@?$vector@HV?$allocator@H@std@@@std@@QAEPAHQAH$$QAH@Z$2 1007415c     animation_system.obj
 0002:0000b16c       __unwindtable$??$_Emplace_reallocate@H@?$vector@HV?$allocator@H@std@@@std@@QAEPAHQAH$$QAH@Z 1007416c     animation_system.obj
 0002:0000b17c       __tryblocktable$??$_Emplace_reallocate@H@?$vector@HV?$allocator@H@std@@@std@@QAEPAHQAH$$QAH@Z 1007417c     animation_system.obj
 0002:0000b190       __ehfuncinfo$??$_Emplace_reallocate@H@?$vector@HV?$allocator@H@std@@@std@@QAEPAHQAH$$QAH@Z 10074190     animation_system.obj
 0002:0000b1b4       __unwindtable$??0_System_error@std@@IAE@Verror_code@1@ABV?$basic_string@DU?$char_traits@D@std@@V?$allocator@D@2@@1@@Z 100741b4     config_system.obj
 0002:0000b1b4       __unwindtable$??$GetOffsetRecursive@PBD@NetvarTree@@AAEHAAV?$unordered_map@V?$basic_string@DU?$char_traits@D@std@@V?$allocator@D@2@@std@@V?$shared_ptr@UNode@NetvarTree@@@2@U?$hash@V?$basic_string@DU?$char_traits@D@std@@V?$allocator@D@2@@std@@@2@U?$equal_to@V?$basic_string@DU?$char_traits@D@std@@V?$allocator@D@2@@std@@@2@V?$allocator@U?$pair@$$CBV?$basic_string@DU?$char_traits@D@std@@V?$allocator@D@2@@std@@V?$shared_ptr@UNode@NetvarTree@@@2@@std@@@2@@std@@HPBD1@Z 100741b4     animation_system.obj
 0002:0000b1b4       __unwindtable$?IsKnifeorNade@C_BaseEntity@@QAE_NXZ 100741b4     CEntity.obj
 0002:0000b1b4       __unwindtable$?message@_System_error_category@std@@UBE?AV?$basic_string@DU?$char_traits@D@std@@V?$allocator@D@2@@2@H@Z 100741b4     config_system.obj
 0002:0000b1bc       __ehfuncinfo$??0_System_error@std@@IAE@Verror_code@1@ABV?$basic_string@DU?$char_traits@D@std@@V?$allocator@D@2@@1@@Z 100741bc     config_system.obj
 0002:0000b1bc       __ehfuncinfo$??$GetOffsetRecursive@PBD@NetvarTree@@AAEHAAV?$unordered_map@V?$basic_string@DU?$char_traits@D@std@@V?$allocator@D@2@@std@@V?$shared_ptr@UNode@NetvarTree@@@2@U?$hash@V?$basic_string@DU?$char_traits@D@std@@V?$allocator@D@2@@std@@@2@U?$equal_to@V?$basic_string@DU?$char_traits@D@std@@V?$allocator@D@2@@std@@@2@V?$allocator@U?$pair@$$CBV?$basic_string@DU?$char_traits@D@std@@V?$allocator@D@2@@std@@V?$shared_ptr@UNode@NetvarTree@@@2@@std@@@2@@std@@HPBD1@Z 100741bc     animation_system.obj
 0002:0000b1bc       __ehfuncinfo$?IsKnifeorNade@C_BaseEntity@@QAE_NXZ 100741bc     CEntity.obj
 0002:0000b1bc       __ehfuncinfo$?message@_System_error_category@std@@UBE?AV?$basic_string@DU?$char_traits@D@std@@V?$allocator@D@2@@2@H@Z 100741bc     config_system.obj
 0002:0000b1e0       __unwindtable$??$_Uninitialized_move_al_unchecked@PAV?$_List_unchecked_iterator@V?$_List_val@U?$_List_simple_types@U?$pair@$$CBV?$basic_string@DU?$char_traits@D@std@@V?$allocator@D@2@@std@@V?$shared_ptr@UNode@NetvarTree@@@2@@std@@@std@@@std@@@std@@PAV12@V?$allocator@V?$_List_unchecked_iterator@V?$_List_val@U?$_List_simple_types@U?$pair@$$CBV?$basic_string@DU?$char_traits@D@std@@V?$allocator@D@2@@std@@V?$shared_ptr@UNode@NetvarTree@@@2@@std@@@std@@@std@@@std@@@2@@std@@YAPAV?$_List_unchecked_iterator@V?$_List_val@U?$_List_simple_types@U?$pair@$$CBV?$basic_string@DU?$char_traits@D@std@@V?$allocator@D@2@@std@@V?$shared_ptr@UNode@NetvarTree@@@2@@std@@@std@@@std@@@0@PAV10@QAV10@1AAV?$allocator@V?$_List_unchecked_iterator@V?$_List_val@U?$_List_simple_types@U?$pair@$$CBV?$basic_string@DU?$char_traits@D@std@@V?$allocator@D@2@@std@@V?$shared_ptr@UNode@NetvarTree@@@2@@std@@@std@@@std@@@std@@@0@U_General_ptr_iterator_tag@0@U_Unused_parameter@0@@Z 100741e0     animation_system.obj
 0002:0000b1e0       __unwindtable$??$_Uninit_alloc_fill_n1@PAV?$_List_unchecked_iterator@V?$_List_val@U?$_List_simple_types@U?$pair@$$CBV?$basic_string@DU?$char_traits@D@std@@V?$allocator@D@2@@std@@V?$shared_ptr@UNode@NetvarTree@@@2@@std@@@std@@@std@@@std@@IV?$allocator@V?$_List_unchecked_iterator@V?$_List_val@U?$_List_simple_types@U?$pair@$$CBV?$basic_string@DU?$char_traits@D@std@@V?$allocator@D@2@@std@@V?$shared_ptr@UNode@NetvarTree@@@2@@std@@@std@@@std@@@std@@@2@@std@@YAPAV?$_List_unchecked_iterator@V?$_List_val@U?$_List_simple_types@U?$pair@$$CBV?$basic_string@DU?$char_traits@D@std@@V?$allocator@D@2@@std@@V?$shared_ptr@UNode@NetvarTree@@@2@@std@@@std@@@std@@@0@QAV10@IABV10@AAV?$allocator@V?$_List_unchecked_iterator@V?$_List_val@U?$_List_simple_types@U?$pair@$$CBV?$basic_string@DU?$char_traits@D@std@@V?$allocator@D@2@@std@@V?$shared_ptr@UNode@NetvarTree@@@2@@std@@@std@@@std@@@std@@@0@U?$integral_constant@_N$0A@@0@@Z 100741e0     animation_system.obj
 0002:0000b1e8       __ehfuncinfo$??$_Uninitialized_move_al_unchecked@PAV?$_List_unchecked_iterator@V?$_List_val@U?$_List_simple_types@U?$pair@$$CBV?$basic_string@DU?$char_traits@D@std@@V?$allocator@D@2@@std@@V?$shared_ptr@UNode@NetvarTree@@@2@@std@@@std@@@std@@@std@@PAV12@V?$allocator@V?$_List_unchecked_iterator@V?$_List_val@U?$_List_simple_types@U?$pair@$$CBV?$basic_string@DU?$char_traits@D@std@@V?$allocator@D@2@@std@@V?$shared_ptr@UNode@NetvarTree@@@2@@std@@@std@@@std@@@std@@@2@@std@@YAPAV?$_List_unchecked_iterator@V?$_List_val@U?$_List_simple_types@U?$pair@$$CBV?$basic_string@DU?$char_traits@D@std@@V?$allocator@D@2@@std@@V?$shared_ptr@UNode@NetvarTree@@@2@@std@@@std@@@std@@@0@PAV10@QAV10@1AAV?$allocator@V?$_List_unchecked_iterator@V?$_List_val@U?$_List_simple_types@U?$pair@$$CBV?$basic_string@DU?$char_traits@D@std@@V?$allocator@D@2@@std@@V?$shared_ptr@UNode@NetvarTree@@@2@@std@@@std@@@std@@@std@@@0@U_General_ptr_iterator_tag@0@U_Unused_parameter@0@@Z 100741e8     animation_system.obj
 0002:0000b1e8       __ehfuncinfo$??$_Uninit_alloc_fill_n1@PAV?$_List_unchecked_iterator@V?$_List_val@U?$_List_simple_types@U?$pair@$$CBV?$basic_string@DU?$char_traits@D@std@@V?$allocator@D@2@@std@@V?$shared_ptr@UNode@NetvarTree@@@2@@std@@@std@@@std@@@std@@IV?$allocator@V?$_List_unchecked_iterator@V?$_List_val@U?$_List_simple_types@U?$pair@$$CBV?$basic_string@DU?$char_traits@D@std@@V?$allocator@D@2@@std@@V?$shared_ptr@UNode@NetvarTree@@@2@@std@@@std@@@std@@@std@@@2@@std@@YAPAV?$_List_unchecked_iterator@V?$_List_val@U?$_List_simple_types@U?$pair@$$CBV?$basic_string@DU?$char_traits@D@std@@V?$allocator@D@2@@std@@V?$shared_ptr@UNode@NetvarTree@@@2@@std@@@std@@@std@@@0@QAV10@IABV10@AAV?$allocator@V?$_List_unchecked_iterator@V?$_List_val@U?$_List_simple_types@U?$pair@$$CBV?$basic_string@DU?$char_traits@D@std@@V?$allocator@D@2@@std@@V?$shared_ptr@UNode@NetvarTree@@@2@@std@@@std@@@std@@@std@@@0@U?$integral_constant@_N$0A@@0@@Z 100741e8     animation_system.obj
 0002:0000b20c       __catchsym$??$_Insert@AAU?$pair@$$CBV?$basic_string@DU?$char_traits@D@std@@V?$allocator@D@2@@std@@V?$shared_ptr@UNode@NetvarTree@@@2@@std@@V?$_List_unchecked_iterator@V?$_List_val@U?$_List_simple_types@U?$pair@$$CBV?$basic_string@DU?$char_traits@D@std@@V?$allocator@D@2@@std@@V?$shared_ptr@UNode@NetvarTree@@@2@@std@@@std@@@std@@@2@@?$_Hash@V?$_Umap_traits@V?$basic_string@DU?$char_traits@D@std@@V?$allocator@D@2@@std@@V?$shared_ptr@UNode@NetvarTree@@@2@V?$_Uhash_compare@V?$basic_string@DU?$char_traits@D@std@@V?$allocator@D@2@@std@@U?$hash@V?$basic_string@DU?$char_traits@D@std@@V?$allocator@D@2@@std@@@2@U?$equal_to@V?$basic_string@DU?$char_traits@D@std@@V?$allocator@D@2@@std@@@2@@2@V?$allocator@U?$pair@$$CBV?$basic_string@DU?$char_traits@D@std@@V?$allocator@D@2@@std@@V?$shared_ptr@UNode@NetvarTree@@@2@@std@@@2@$0A@@std@@@std@@IAE?AU?$pair@V?$_List_iterator@V?$_List_val@U?$_List_simple_types@U?$pair@$$CBV?$basic_string@DU?$char_traits@D@std@@V?$allocator@D@2@@std@@V?$shared_ptr@UNode@NetvarTree@@@2@@std@@@std@@@std@@@std@@_N@1@AAU?$pair@$$CBV?$basic_string@DU?$char_traits@D@std@@V?$allocator@D@2@@std@@V?$shared_ptr@UNode@NetvarTree@@@2@@1@V?$_List_unchecked_iterator@V?$_List_val@U?$_List_simple_types@U?$pair@$$CBV?$basic_string@DU?$char_traits@D@std@@V?$allocator@D@2@@std@@V?$shared_ptr@UNode@NetvarTree@@@2@@std@@@std@@@std@@@1@@Z$5 1007420c     animation_system.obj
 0002:0000b21c       __catchsym$??$_Insert@AAU?$pair@$$CBV?$basic_string@DU?$char_traits@D@std@@V?$allocator@D@2@@std@@V?$shared_ptr@UNode@NetvarTree@@@2@@std@@V?$_List_unchecked_iterator@V?$_List_val@U?$_List_simple_types@U?$pair@$$CBV?$basic_string@DU?$char_traits@D@std@@V?$allocator@D@2@@std@@V?$shared_ptr@UNode@NetvarTree@@@2@@std@@@std@@@std@@@2@@?$_Hash@V?$_Umap_traits@V?$basic_string@DU?$char_traits@D@std@@V?$allocator@D@2@@std@@V?$shared_ptr@UNode@NetvarTree@@@2@V?$_Uhash_compare@V?$basic_string@DU?$char_traits@D@std@@V?$allocator@D@2@@std@@U?$hash@V?$basic_string@DU?$char_traits@D@std@@V?$allocator@D@2@@std@@@2@U?$equal_to@V?$basic_string@DU?$char_traits@D@std@@V?$allocator@D@2@@std@@@2@@2@V?$allocator@U?$pair@$$CBV?$basic_string@DU?$char_traits@D@std@@V?$allocator@D@2@@std@@V?$shared_ptr@UNode@NetvarTree@@@2@@std@@@2@$0A@@std@@@std@@IAE?AU?$pair@V?$_List_iterator@V?$_List_val@U?$_List_simple_types@U?$pair@$$CBV?$basic_string@DU?$char_traits@D@std@@V?$allocator@D@2@@std@@V?$shared_ptr@UNode@NetvarTree@@@2@@std@@@std@@@std@@@std@@_N@1@AAU?$pair@$$CBV?$basic_string@DU?$char_traits@D@std@@V?$allocator@D@2@@std@@V?$shared_ptr@UNode@NetvarTree@@@2@@1@V?$_List_unchecked_iterator@V?$_List_val@U?$_List_simple_types@U?$pair@$$CBV?$basic_string@DU?$char_traits@D@std@@V?$allocator@D@2@@std@@V?$shared_ptr@UNode@NetvarTree@@@2@@std@@@std@@@std@@@1@@Z$4 1007421c     animation_system.obj
 0002:0000b22c       __unwindtable$??$_Insert@AAU?$pair@$$CBV?$basic_string@DU?$char_traits@D@std@@V?$allocator@D@2@@std@@V?$shared_ptr@UNode@NetvarTree@@@2@@std@@V?$_List_unchecked_iterator@V?$_List_val@U?$_List_simple_types@U?$pair@$$CBV?$basic_string@DU?$char_traits@D@std@@V?$allocator@D@2@@std@@V?$shared_ptr@UNode@NetvarTree@@@2@@std@@@std@@@std@@@2@@?$_Hash@V?$_Umap_traits@V?$basic_string@DU?$char_traits@D@std@@V?$allocator@D@2@@std@@V?$shared_ptr@UNode@NetvarTree@@@2@V?$_Uhash_compare@V?$basic_string@DU?$char_traits@D@std@@V?$allocator@D@2@@std@@U?$hash@V?$basic_string@DU?$char_traits@D@std@@V?$allocator@D@2@@std@@@2@U?$equal_to@V?$basic_string@DU?$char_traits@D@std@@V?$allocator@D@2@@std@@@2@@2@V?$allocator@U?$pair@$$CBV?$basic_string@DU?$char_traits@D@std@@V?$allocator@D@2@@std@@V?$shared_ptr@UNode@NetvarTree@@@2@@std@@@2@$0A@@std@@@std@@IAE?AU?$pair@V?$_List_iterator@V?$_List_val@U?$_List_simple_types@U?$pair@$$CBV?$basic_string@DU?$char_traits@D@std@@V?$allocator@D@2@@std@@V?$shared_ptr@UNode@NetvarTree@@@2@@std@@@std@@@std@@@std@@_N@1@AAU?$pair@$$CBV?$basic_string@DU?$char_traits@D@std@@V?$allocator@D@2@@std@@V?$shared_ptr@UNode@NetvarTree@@@2@@1@V?$_List_unchecked_iterator@V?$_List_val@U?$_List_simple_types@U?$pair@$$CBV?$basic_string@DU?$char_traits@D@std@@V?$allocator@D@2@@std@@V?$shared_ptr@UNode@NetvarTree@@@2@@std@@@std@@@std@@@1@@Z 1007422c     animation_system.obj
 0002:0000b24c       __ehfuncinfo$??$_Insert@AAU?$pair@$$CBV?$basic_string@DU?$char_traits@D@std@@V?$allocator@D@2@@std@@V?$shared_ptr@UNode@NetvarTree@@@2@@std@@V?$_List_unchecked_iterator@V?$_List_val@U?$_List_simple_types@U?$pair@$$CBV?$basic_string@DU?$char_traits@D@std@@V?$allocator@D@2@@std@@V?$shared_ptr@UNode@NetvarTree@@@2@@std@@@std@@@std@@@2@@?$_Hash@V?$_Umap_traits@V?$basic_string@DU?$char_traits@D@std@@V?$allocator@D@2@@std@@V?$shared_ptr@UNode@NetvarTree@@@2@V?$_Uhash_compare@V?$basic_string@DU?$char_traits@D@std@@V?$allocator@D@2@@std@@U?$hash@V?$basic_string@DU?$char_traits@D@std@@V?$allocator@D@2@@std@@@2@U?$equal_to@V?$basic_string@DU?$char_traits@D@std@@V?$allocator@D@2@@std@@@2@@2@V?$allocator@U?$pair@$$CBV?$basic_string@DU?$char_traits@D@std@@V?$allocator@D@2@@std@@V?$shared_ptr@UNode@NetvarTree@@@2@@std@@@2@$0A@@std@@@std@@IAE?AU?$pair@V?$_List_iterator@V?$_List_val@U?$_List_simple_types@U?$pair@$$CBV?$basic_string@DU?$char_traits@D@std@@V?$allocator@D@2@@std@@V?$shared_ptr@UNode@NetvarTree@@@2@@std@@@std@@@std@@@std@@_N@1@AAU?$pair@$$CBV?$basic_string@DU?$char_traits@D@std@@V?$allocator@D@2@@std@@V?$shared_ptr@UNode@NetvarTree@@@2@@1@V?$_List_unchecked_iterator@V?$_List_val@U?$_List_simple_types@U?$pair@$$CBV?$basic_string@DU?$char_traits@D@std@@V?$allocator@D@2@@std@@V?$shared_ptr@UNode@NetvarTree@@@2@@std@@@std@@@std@@@1@@Z 1007424c     animation_system.obj
 0002:0000b270       __tryblocktable$??$_Insert@AAU?$pair@$$CBV?$basic_string@DU?$char_traits@D@std@@V?$allocator@D@2@@std@@V?$shared_ptr@UNode@NetvarTree@@@2@@std@@V?$_List_unchecked_iterator@V?$_List_val@U?$_List_simple_types@U?$pair@$$CBV?$basic_string@DU?$char_traits@D@std@@V?$allocator@D@2@@std@@V?$shared_ptr@UNode@NetvarTree@@@2@@std@@@std@@@std@@@2@@?$_Hash@V?$_Umap_traits@V?$basic_string@DU?$char_traits@D@std@@V?$allocator@D@2@@std@@V?$shared_ptr@UNode@NetvarTree@@@2@V?$_Uhash_compare@V?$basic_string@DU?$char_traits@D@std@@V?$allocator@D@2@@std@@U?$hash@V?$basic_string@DU?$char_traits@D@std@@V?$allocator@D@2@@std@@@2@U?$equal_to@V?$basic_string@DU?$char_traits@D@std@@V?$allocator@D@2@@std@@@2@@2@V?$allocator@U?$pair@$$CBV?$basic_string@DU?$char_traits@D@std@@V?$allocator@D@2@@std@@V?$shared_ptr@UNode@NetvarTree@@@2@@std@@@2@$0A@@std@@@std@@IAE?AU?$pair@V?$_List_iterator@V?$_List_val@U?$_List_simple_types@U?$pair@$$CBV?$basic_string@DU?$char_traits@D@std@@V?$allocator@D@2@@std@@V?$shared_ptr@UNode@NetvarTree@@@2@@std@@@std@@@std@@@std@@_N@1@AAU?$pair@$$CBV?$basic_string@DU?$char_traits@D@std@@V?$allocator@D@2@@std@@V?$shared_ptr@UNode@NetvarTree@@@2@@1@V?$_List_unchecked_iterator@V?$_List_val@U?$_List_simple_types@U?$pair@$$CBV?$basic_string@DU?$char_traits@D@std@@V?$allocator@D@2@@std@@V?$shared_ptr@UNode@NetvarTree@@@2@@std@@@std@@@std@@@1@@Z 10074270     animation_system.obj
 0002:0000b298       __catchsym$??$_Buynode@ABUpiecewise_construct_t@std@@V?$tuple@$$QAV?$basic_string@DU?$char_traits@D@std@@V?$allocator@D@2@@std@@@2@V?$tuple@$$V@2@@?$_List_buy@U?$pair@$$CBV?$basic_string@DU?$char_traits@D@std@@V?$allocator@D@2@@std@@V?$shared_ptr@UNode@NetvarTree@@@2@@std@@V?$allocator@U?$pair@$$CBV?$basic_string@DU?$char_traits@D@std@@V?$allocator@D@2@@std@@V?$shared_ptr@UNode@NetvarTree@@@2@@std@@@2@@std@@QAEPAU?$_List_node@U?$pair@$$CBV?$basic_string@DU?$char_traits@D@std@@V?$allocator@D@2@@std@@V?$shared_ptr@UNode@NetvarTree@@@2@@std@@PAX@1@PAU21@0ABUpiecewise_construct_t@1@$$QAV?$tuple@$$QAV?$basic_string@DU?$char_traits@D@std@@V?$allocator@D@2@@std@@@1@$$QAV?$tuple@$$V@1@@Z$2 10074298     animation_system.obj
 0002:0000b2a8       __unwindtable$??$_Buynode@ABUpiecewise_construct_t@std@@V?$tuple@$$QAV?$basic_string@DU?$char_traits@D@std@@V?$allocator@D@2@@std@@@2@V?$tuple@$$V@2@@?$_List_buy@U?$pair@$$CBV?$basic_string@DU?$char_traits@D@std@@V?$allocator@D@2@@std@@V?$shared_ptr@UNode@NetvarTree@@@2@@std@@V?$allocator@U?$pair@$$CBV?$basic_string@DU?$char_traits@D@std@@V?$allocator@D@2@@std@@V?$shared_ptr@UNode@NetvarTree@@@2@@std@@@2@@std@@QAEPAU?$_List_node@U?$pair@$$CBV?$basic_string@DU?$char_traits@D@std@@V?$allocator@D@2@@std@@V?$shared_ptr@UNode@NetvarTree@@@2@@std@@PAX@1@PAU21@0ABUpiecewise_construct_t@1@$$QAV?$tuple@$$QAV?$basic_string@DU?$char_traits@D@std@@V?$allocator@D@2@@std@@@1@$$QAV?$tuple@$$V@1@@Z 100742a8     animation_system.obj
 0002:0000b2b8       __tryblocktable$??$_Buynode@ABUpiecewise_construct_t@std@@V?$tuple@$$QAV?$basic_string@DU?$char_traits@D@std@@V?$allocator@D@2@@std@@@2@V?$tuple@$$V@2@@?$_List_buy@U?$pair@$$CBV?$basic_string@DU?$char_traits@D@std@@V?$allocator@D@2@@std@@V?$shared_ptr@UNode@NetvarTree@@@2@@std@@V?$allocator@U?$pair@$$CBV?$basic_string@DU?$char_traits@D@std@@V?$allocator@D@2@@std@@V?$shared_ptr@UNode@NetvarTree@@@2@@std@@@2@@std@@QAEPAU?$_List_node@U?$pair@$$CBV?$basic_string@DU?$char_traits@D@std@@V?$allocator@D@2@@std@@V?$shared_ptr@UNode@NetvarTree@@@2@@std@@PAX@1@PAU21@0ABUpiecewise_construct_t@1@$$QAV?$tuple@$$QAV?$basic_string@DU?$char_traits@D@std@@V?$allocator@D@2@@std@@@1@$$QAV?$tuple@$$V@1@@Z 100742b8     animation_system.obj
 0002:0000b2cc       __ehfuncinfo$??$_Buynode@ABUpiecewise_construct_t@std@@V?$tuple@$$QAV?$basic_string@DU?$char_traits@D@std@@V?$allocator@D@2@@std@@@2@V?$tuple@$$V@2@@?$_List_buy@U?$pair@$$CBV?$basic_string@DU?$char_traits@D@std@@V?$allocator@D@2@@std@@V?$shared_ptr@UNode@NetvarTree@@@2@@std@@V?$allocator@U?$pair@$$CBV?$basic_string@DU?$char_traits@D@std@@V?$allocator@D@2@@std@@V?$shared_ptr@UNode@NetvarTree@@@2@@std@@@2@@std@@QAEPAU?$_List_node@U?$pair@$$CBV?$basic_string@DU?$char_traits@D@std@@V?$allocator@D@2@@std@@V?$shared_ptr@UNode@NetvarTree@@@2@@std@@PAX@1@PAU21@0ABUpiecewise_construct_t@1@$$QAV?$tuple@$$QAV?$basic_string@DU?$char_traits@D@std@@V?$allocator@D@2@@std@@@1@$$QAV?$tuple@$$V@1@@Z 100742cc     animation_system.obj
 0002:0000b2f0       __unwindtable$?GetFlags@C_BaseEntity@@QAE?AW4EntityFlags@@XZ 100742f0     exploits.obj
 0002:0000b2f8       __ehfuncinfo$?GetFlags@C_BaseEntity@@QAE?AW4EntityFlags@@XZ 100742f8     exploits.obj
 0002:0000b31c       __unwindtable$?Init@c_hooks@@SAXXZ 1007431c     c_hooks.obj
 0002:0000b324       __ehfuncinfo$?Init@c_hooks@@SAXXZ 10074324     c_hooks.obj
 0002:0000b348       __unwindtable$?Restore@c_hooks@@SAXXZ 10074348     c_hooks.obj
 0002:0000b358       __ehfuncinfo$?Restore@c_hooks@@SAXXZ 10074358     c_hooks.obj
 0002:0000b37c       __unwindtable$??0VMTHook@@QAE@PAX@Z 1007437c     c_hooks.obj
 0002:0000b384       __ehfuncinfo$??0VMTHook@@QAE@PAX@Z 10074384     c_hooks.obj
 0002:0000b3a8       __catchsym$?RestoreTable@ShadowVTManager@@QAEXXZ$3 100743a8     c_hooks.obj
 0002:0000b3b8       __unwindtable$?RestoreTable@ShadowVTManager@@QAEXXZ 100743b8     c_hooks.obj
 0002:0000b3c8       __tryblocktable$?RestoreTable@ShadowVTManager@@QAEXXZ 100743c8     c_hooks.obj
 0002:0000b3dc       __ehfuncinfo$?RestoreTable@ShadowVTManager@@QAEXXZ 100743dc     c_hooks.obj
 0002:0000b400       __unwindtable$??$make_unique@VVMTHook@@AAPAVIBaseClientDLL@@$0A@@std@@YA?AV?$unique_ptr@VVMTHook@@U?$default_delete@VVMTHook@@@std@@@0@AAPAVIBaseClientDLL@@@Z 10074400     c_hooks.obj
 0002:0000b400       __unwindtable$??$make_unique@VVMTHook@@AAPAVIPanel@@$0A@@std@@YA?AV?$unique_ptr@VVMTHook@@U?$default_delete@VVMTHook@@@std@@@0@AAPAVIPanel@@@Z 10074400     c_hooks.obj
 0002:0000b400       __unwindtable$??$make_unique@VVMTHook@@AAPAVISurface@@$0A@@std@@YA?AV?$unique_ptr@VVMTHook@@U?$default_delete@VVMTHook@@@std@@@0@AAPAVISurface@@@Z 10074400     c_hooks.obj
 0002:0000b400       __unwindtable$??$make_unique@VVMTHook@@AAPAVIVRenderView@@$0A@@std@@YA?AV?$unique_ptr@VVMTHook@@U?$default_delete@VVMTHook@@@std@@@0@AAPAVIVRenderView@@@Z 10074400     c_hooks.obj
 0002:0000b400       __unwindtable$??$make_unique@VVMTHook@@AAPAVIClientMode@@$0A@@std@@YA?AV?$unique_ptr@VVMTHook@@U?$default_delete@VVMTHook@@@std@@@0@AAPAVIClientMode@@@Z 10074400     c_hooks.obj
 0002:0000b400       __unwindtable$??$make_unique@VVMTHook@@AAPAVCModelRender@@$0A@@std@@YA?AV?$unique_ptr@VVMTHook@@U?$default_delete@VVMTHook@@@std@@@0@AAPAVCModelRender@@@Z 10074400     c_hooks.obj
 0002:0000b400       __unwindtable$??$make_unique@VVMTHook@@PAPAK$0A@@std@@YA?AV?$unique_ptr@VVMTHook@@U?$default_delete@VVMTHook@@@std@@@0@$$QAPAPAK@Z 10074400     c_hooks.obj
 0002:0000b408       __ehfuncinfo$??$make_unique@VVMTHook@@AAPAVIClientMode@@$0A@@std@@YA?AV?$unique_ptr@VVMTHook@@U?$default_delete@VVMTHook@@@std@@@0@AAPAVIClientMode@@@Z 10074408     c_hooks.obj
 0002:0000b408       __ehfuncinfo$??$make_unique@VVMTHook@@AAPAVIVRenderView@@$0A@@std@@YA?AV?$unique_ptr@VVMTHook@@U?$default_delete@VVMTHook@@@std@@@0@AAPAVIVRenderView@@@Z 10074408     c_hooks.obj
 0002:0000b408       __ehfuncinfo$??$make_unique@VVMTHook@@AAPAVISurface@@$0A@@std@@YA?AV?$unique_ptr@VVMTHook@@U?$default_delete@VVMTHook@@@std@@@0@AAPAVISurface@@@Z 10074408     c_hooks.obj
 0002:0000b408       __ehfuncinfo$??$make_unique@VVMTHook@@PAPAK$0A@@std@@YA?AV?$unique_ptr@VVMTHook@@U?$default_delete@VVMTHook@@@std@@@0@$$QAPAPAK@Z 10074408     c_hooks.obj
 0002:0000b408       __ehfuncinfo$??$make_unique@VVMTHook@@AAPAVIPanel@@$0A@@std@@YA?AV?$unique_ptr@VVMTHook@@U?$default_delete@VVMTHook@@@std@@@0@AAPAVIPanel@@@Z 10074408     c_hooks.obj
 0002:0000b408       __ehfuncinfo$??$make_unique@VVMTHook@@AAPAVIBaseClientDLL@@$0A@@std@@YA?AV?$unique_ptr@VVMTHook@@U?$default_delete@VVMTHook@@@std@@@0@AAPAVIBaseClientDLL@@@Z 10074408     c_hooks.obj
 0002:0000b408       __ehfuncinfo$??$make_unique@VVMTHook@@AAPAVCModelRender@@$0A@@std@@YA?AV?$unique_ptr@VVMTHook@@U?$default_delete@VVMTHook@@@std@@@0@AAPAVCModelRender@@@Z 10074408     c_hooks.obj
 0002:0000b42c       __unwindtable$??$make_unique@VNetvarTree@@$$V$0A@@std@@YA?AV?$unique_ptr@VNetvarTree@@U?$default_delete@VNetvarTree@@@std@@@0@XZ 1007442c     c_hooks.obj
 0002:0000b434       __ehfuncinfo$??$make_unique@VNetvarTree@@$$V$0A@@std@@YA?AV?$unique_ptr@VNetvarTree@@U?$default_delete@VNetvarTree@@@std@@@0@XZ 10074434     c_hooks.obj
 0002:0000b4ac       __catchsym$?attach@@YGKPAX@Z$2 100744ac     dll_main.obj
 0002:0000b4bc       __unwindtable$?attach@@YGKPAX@Z 100744bc     dll_main.obj
 0002:0000b4cc       __tryblocktable$?attach@@YGKPAX@Z 100744cc     dll_main.obj
 0002:0000b4e0       __ehfuncinfo$?attach@@YGKPAX@Z 100744e0     dll_main.obj
 0002:0000b504       __unwindtable$?GetActiveWeapon@C_BaseEntity@@QAEPAVC_BaseCombatWeapon@@XZ 10074504     c_ragebot.obj
 0002:0000b50c       __ehfuncinfo$?GetActiveWeapon@C_BaseEntity@@QAEPAVC_BaseCombatWeapon@@XZ 1007450c     c_ragebot.obj
 0002:0000b530       __unwindtable$?GetTeam@C_BaseEntity@@QAEHXZ 10074530     c_ragebot.obj
 0002:0000b538       __ehfuncinfo$?GetTeam@C_BaseEntity@@QAEHXZ 10074538     c_ragebot.obj
 0002:0000b55c       __unwindtable$?GetTickBase@C_BaseEntity@@QAEHXZ 1007455c     c_ragebot.obj
 0002:0000b564       __ehfuncinfo$?GetTickBase@C_BaseEntity@@QAEHXZ 10074564     c_ragebot.obj
 0002:0000b588       __unwindtable$?GetEyeAngles@C_BaseEntity@@QAE?AVVector@@XZ 10074588     c_ragebot.obj
 0002:0000b590       __ehfuncinfo$?GetEyeAngles@C_BaseEntity@@QAE?AVVector@@XZ 10074590     c_ragebot.obj
 0002:0000b5b4       __unwindtable$?GetNextPrimaryAttack@C_BaseCombatWeapon@@QAEMXZ 100745b4     c_ragebot.obj
 0002:0000b5bc       __ehfuncinfo$?GetNextPrimaryAttack@C_BaseCombatWeapon@@QAEMXZ 100745bc     c_ragebot.obj
 0002:0000b5e0       __unwindtable$?at@?$deque@UPlayerRecords@@V?$allocator@UPlayerRecords@@@std@@@std@@QAEAAUPlayerRecords@@I@Z 100745e0     c_ragebot.obj
 0002:0000b5e0       __unwindtable$?at@?$deque@ULegitPlayerRecords@@V?$allocator@ULegitPlayerRecords@@@std@@@std@@QAEAAULegitPlayerRecords@@I@Z 100745e0     Legitbot.obj
 0002:0000b5f0       __ehfuncinfo$?at@?$deque@UPlayerRecords@@V?$allocator@UPlayerRecords@@@std@@@std@@QAEAAUPlayerRecords@@I@Z 100745f0     c_ragebot.obj
 0002:0000b5f0       __ehfuncinfo$?at@?$deque@ULegitPlayerRecords@@V?$allocator@ULegitPlayerRecords@@@std@@@std@@QAEAAULegitPlayerRecords@@I@Z 100745f0     Legitbot.obj
 0002:0000b614       __unwindtable$?Hitscan@c_aimbot@@QAE?AVVector@@PAVC_BaseEntity@@@Z 10074614     c_ragebot.obj
 0002:0000b61c       __ehfuncinfo$?Hitscan@c_aimbot@@QAE?AVVector@@PAVC_BaseEntity@@@Z 1007461c     c_ragebot.obj
 0002:0000b640       __unwindtable$??0?$_Deque_const_iterator@V?$_Deque_val@U?$_Deque_simple_types@UPlayerRecords@@@std@@@std@@@std@@QAE@IPBU_Container_base12@1@@Z 10074640     c_ragebot.obj
 0002:0000b640       __unwindtable$??0?$_Deque_const_iterator@V?$_Deque_val@U?$_Deque_simple_types@ULegitPlayerRecords@@@std@@@std@@@std@@QAE@IPBU_Container_base12@1@@Z 10074640     Legitbot.obj
 0002:0000b648       __ehfuncinfo$??0?$_Deque_const_iterator@V?$_Deque_val@U?$_Deque_simple_types@ULegitPlayerRecords@@@std@@@std@@@std@@QAE@IPBU_Container_base12@1@@Z 10074648     Legitbot.obj
 0002:0000b648       __ehfuncinfo$??0?$_Deque_const_iterator@V?$_Deque_val@U?$_Deque_simple_types@UPlayerRecords@@@std@@@std@@@std@@QAE@IPBU_Container_base12@1@@Z 10074648     c_ragebot.obj
 0002:0000b66c       __unwindtable$??H?$_Deque_iterator@V?$_Deque_val@U?$_Deque_simple_types@UPlayerRecords@@@std@@@std@@@std@@QBE?AV01@H@Z 1007466c     c_ragebot.obj
 0002:0000b66c       __unwindtable$??H?$_Deque_iterator@V?$_Deque_val@U?$_Deque_simple_types@ULegitPlayerRecords@@@std@@@std@@@std@@QBE?AV01@H@Z 1007466c     Legitbot.obj
 0002:0000b674       __ehfuncinfo$??H?$_Deque_iterator@V?$_Deque_val@U?$_Deque_simple_types@ULegitPlayerRecords@@@std@@@std@@@std@@QBE?AV01@H@Z 10074674     Legitbot.obj
 0002:0000b674       __ehfuncinfo$??H?$_Deque_iterator@V?$_Deque_val@U?$_Deque_simple_types@UPlayerRecords@@@std@@@std@@@std@@QBE?AV01@H@Z 10074674     c_ragebot.obj
 0002:0000b698       __unwindtable$?ArmorValue@C_BaseEntity@@QAEHXZ 10074698     Autowall.obj
 0002:0000b6a0       __ehfuncinfo$?ArmorValue@C_BaseEntity@@QAEHXZ 100746a0     Autowall.obj
 0002:0000b6c4       __unwindtable$?HasHelmet@C_BaseEntity@@QAE_NXZ 100746c4     Autowall.obj
 0002:0000b6cc       __ehfuncinfo$?HasHelmet@C_BaseEntity@@QAE_NXZ 100746cc     Autowall.obj
 0002:0000b6f0       __unwindtable$?UTIL_ClipTraceToPlayers@@YAXABVVector@@0IPAVITraceFilter@@PAUC_Trace@@@Z 100746f0     Autowall.obj
 0002:0000b6f8       __ehfuncinfo$?UTIL_ClipTraceToPlayers@@YAXABVVector@@0IPAVITraceFilter@@PAUC_Trace@@@Z 100746f8     Autowall.obj
 0002:0000b71c       __unwindtable$?TraceToExitalt@@YA_NAAVVector@@AAUC_Trace@@V1@2PAU2@@Z 1007471c     Autowall.obj
 0002:0000b724       __ehfuncinfo$?TraceToExitalt@@YA_NAAVVector@@AAUC_Trace@@V1@2PAU2@@Z 10074724     Autowall.obj
 0002:0000b748       __unwindtable$?SetCurrentCommand@C_BaseEntity@@QAEXPAVCUserCmd@@@Z 10074748     EnginePrediction.obj
 0002:0000b750       __ehfuncinfo$?SetCurrentCommand@C_BaseEntity@@QAEXPAVCUserCmd@@@Z 10074750     EnginePrediction.obj
 0002:0000b774       __unwindtable$?GetLastShotTime@C_BaseCombatWeapon@@QAEMXZ 10074774     LagComp.obj
 0002:0000b77c       __ehfuncinfo$?GetLastShotTime@C_BaseCombatWeapon@@QAEMXZ 1007477c     LagComp.obj
 0002:0000b7a0       __unwindtable$?_Make_iter@?$deque@ULegitPlayerRecords@@V?$allocator@ULegitPlayerRecords@@@std@@@std@@QBE?AV?$_Deque_iterator@V?$_Deque_val@U?$_Deque_simple_types@ULegitPlayerRecords@@@std@@@std@@@2@V?$_Deque_const_iterator@V?$_Deque_val@U?$_Deque_simple_types@ULegitPlayerRecords@@@std@@@std@@@2@@Z 100747a0     Legitbot.obj
 0002:0000b7a0       __unwindtable$?_Make_iter@?$deque@UPlayerRecords@@V?$allocator@UPlayerRecords@@@std@@@std@@QBE?AV?$_Deque_iterator@V?$_Deque_val@U?$_Deque_simple_types@UPlayerRecords@@@std@@@std@@@2@V?$_Deque_const_iterator@V?$_Deque_val@U?$_Deque_simple_types@UPlayerRecords@@@std@@@std@@@2@@Z 100747a0     LagComp.obj
 0002:0000b7a8       __ehfuncinfo$?_Make_iter@?$deque@UPlayerRecords@@V?$allocator@UPlayerRecords@@@std@@@std@@QBE?AV?$_Deque_iterator@V?$_Deque_val@U?$_Deque_simple_types@UPlayerRecords@@@std@@@std@@@2@V?$_Deque_const_iterator@V?$_Deque_val@U?$_Deque_simple_types@UPlayerRecords@@@std@@@std@@@2@@Z 100747a8     LagComp.obj
 0002:0000b7a8       __ehfuncinfo$?_Make_iter@?$deque@ULegitPlayerRecords@@V?$allocator@ULegitPlayerRecords@@@std@@@std@@QBE?AV?$_Deque_iterator@V?$_Deque_val@U?$_Deque_simple_types@ULegitPlayerRecords@@@std@@@std@@@2@V?$_Deque_const_iterator@V?$_Deque_val@U?$_Deque_simple_types@ULegitPlayerRecords@@@std@@@std@@@2@@Z 100747a8     Legitbot.obj
 0002:0000b7cc       __unwindtable$?erase@?$deque@UPlayerRecords@@V?$allocator@UPlayerRecords@@@std@@@std@@QAE?AV?$_Deque_iterator@V?$_Deque_val@U?$_Deque_simple_types@UPlayerRecords@@@std@@@std@@@2@V?$_Deque_const_iterator@V?$_Deque_val@U?$_Deque_simple_types@UPlayerRecords@@@std@@@std@@@2@@Z 100747cc     LagComp.obj
 0002:0000b7cc       __unwindtable$?erase@?$deque@ULegitPlayerRecords@@V?$allocator@ULegitPlayerRecords@@@std@@@std@@QAE?AV?$_Deque_iterator@V?$_Deque_val@U?$_Deque_simple_types@ULegitPlayerRecords@@@std@@@std@@@2@V?$_Deque_const_iterator@V?$_Deque_val@U?$_Deque_simple_types@ULegitPlayerRecords@@@std@@@std@@@2@@Z 100747cc     Legitbot.obj
 0002:0000b7d4       __ehfuncinfo$?erase@?$deque@UPlayerRecords@@V?$allocator@UPlayerRecords@@@std@@@std@@QAE?AV?$_Deque_iterator@V?$_Deque_val@U?$_Deque_simple_types@UPlayerRecords@@@std@@@std@@@2@V?$_Deque_const_iterator@V?$_Deque_val@U?$_Deque_simple_types@UPlayerRecords@@@std@@@std@@@2@@Z 100747d4     LagComp.obj
 0002:0000b7d4       __ehfuncinfo$?erase@?$deque@ULegitPlayerRecords@@V?$allocator@ULegitPlayerRecords@@@std@@@std@@QAE?AV?$_Deque_iterator@V?$_Deque_val@U?$_Deque_simple_types@ULegitPlayerRecords@@@std@@@std@@@2@V?$_Deque_const_iterator@V?$_Deque_val@U?$_Deque_simple_types@ULegitPlayerRecords@@@std@@@std@@@2@@Z 100747d4     Legitbot.obj
 0002:0000b7f8       __ehfuncinfo$?erase@?$deque@ULegitPlayerRecords@@V?$allocator@ULegitPlayerRecords@@@std@@@std@@QAE?AV?$_Deque_iterator@V?$_Deque_val@U?$_Deque_simple_types@ULegitPlayerRecords@@@std@@@std@@@2@V?$_Deque_const_iterator@V?$_Deque_val@U?$_Deque_simple_types@ULegitPlayerRecords@@@std@@@std@@@2@0@Z 100747f8     Legitbot.obj
 0002:0000b7f8       __ehfuncinfo$?erase@?$deque@UPlayerRecords@@V?$allocator@UPlayerRecords@@@std@@@std@@QAE?AV?$_Deque_iterator@V?$_Deque_val@U?$_Deque_simple_types@UPlayerRecords@@@std@@@std@@@2@V?$_Deque_const_iterator@V?$_Deque_val@U?$_Deque_simple_types@UPlayerRecords@@@std@@@std@@@2@0@Z 100747f8     LagComp.obj
 0002:0000b81c       __unwindtable$?erase@?$deque@UPlayerRecords@@V?$allocator@UPlayerRecords@@@std@@@std@@QAE?AV?$_Deque_iterator@V?$_Deque_val@U?$_Deque_simple_types@UPlayerRecords@@@std@@@std@@@2@V?$_Deque_const_iterator@V?$_Deque_val@U?$_Deque_simple_types@UPlayerRecords@@@std@@@std@@@2@0@Z 1007481c     LagComp.obj
 0002:0000b81c       __unwindtable$?erase@?$deque@ULegitPlayerRecords@@V?$allocator@ULegitPlayerRecords@@@std@@@std@@QAE?AV?$_Deque_iterator@V?$_Deque_val@U?$_Deque_simple_types@ULegitPlayerRecords@@@std@@@std@@@2@V?$_Deque_const_iterator@V?$_Deque_val@U?$_Deque_simple_types@ULegitPlayerRecords@@@std@@@std@@@2@0@Z 1007481c     Legitbot.obj
 0002:0000b854       __unwindtable$?StoreRecord@LagComp@@QAEXPAVC_BaseEntity@@@Z 10074854     LagComp.obj
 0002:0000b864       __ehfuncinfo$?StoreRecord@LagComp@@QAEXPAVC_BaseEntity@@@Z 10074864     LagComp.obj
 0002:0000b888       __unwindtable$?ClearRecords@LagComp@@QAEXH@Z 10074888     LagComp.obj
 0002:0000b898       __ehfuncinfo$?ClearRecords@LagComp@@QAEXH@Z 10074898     LagComp.obj
 0002:0000b8bc       __unwindtable$??H?$_Deque_const_iterator@V?$_Deque_val@U?$_Deque_simple_types@ULegitPlayerRecords@@@std@@@std@@@std@@QBE?AV01@H@Z 100748bc     Legitbot.obj
 0002:0000b8bc       __unwindtable$??H?$_Deque_const_iterator@V?$_Deque_val@U?$_Deque_simple_types@UPlayerRecords@@@std@@@std@@@std@@QBE?AV01@H@Z 100748bc     LagComp.obj
 0002:0000b8c4       __ehfuncinfo$??H?$_Deque_const_iterator@V?$_Deque_val@U?$_Deque_simple_types@ULegitPlayerRecords@@@std@@@std@@@std@@QBE?AV01@H@Z 100748c4     Legitbot.obj
 0002:0000b8c4       __ehfuncinfo$??H?$_Deque_const_iterator@V?$_Deque_val@U?$_Deque_simple_types@UPlayerRecords@@@std@@@std@@@std@@QBE?AV01@H@Z 100748c4     LagComp.obj
 0002:0000b8e8       __unwindtable$??$move_backward@V?$_Deque_iterator@V?$_Deque_val@U?$_Deque_simple_types@UPlayerRecords@@@std@@@std@@@std@@V12@@std@@YA?AV?$_Deque_iterator@V?$_Deque_val@U?$_Deque_simple_types@UPlayerRecords@@@std@@@std@@@0@V10@00@Z 100748e8     LagComp.obj
 0002:0000b8e8       __unwindtable$??$move_backward@V?$_Deque_iterator@V?$_Deque_val@U?$_Deque_simple_types@ULegitPlayerRecords@@@std@@@std@@@std@@V12@@std@@YA?AV?$_Deque_iterator@V?$_Deque_val@U?$_Deque_simple_types@ULegitPlayerRecords@@@std@@@std@@@0@V10@00@Z 100748e8     Legitbot.obj
 0002:0000b8e8       __unwindtable$??$move@V?$_Deque_iterator@V?$_Deque_val@U?$_Deque_simple_types@ULegitPlayerRecords@@@std@@@std@@@std@@V12@@std@@YA?AV?$_Deque_iterator@V?$_Deque_val@U?$_Deque_simple_types@ULegitPlayerRecords@@@std@@@std@@@0@V10@00@Z 100748e8     Legitbot.obj
 0002:0000b8e8       __unwindtable$??$move@V?$_Deque_iterator@V?$_Deque_val@U?$_Deque_simple_types@UPlayerRecords@@@std@@@std@@@std@@V12@@std@@YA?AV?$_Deque_iterator@V?$_Deque_val@U?$_Deque_simple_types@UPlayerRecords@@@std@@@std@@@0@V10@00@Z 100748e8     LagComp.obj
 0002:0000b900       __ehfuncinfo$??$move@V?$_Deque_iterator@V?$_Deque_val@U?$_Deque_simple_types@ULegitPlayerRecords@@@std@@@std@@@std@@V12@@std@@YA?AV?$_Deque_iterator@V?$_Deque_val@U?$_Deque_simple_types@ULegitPlayerRecords@@@std@@@std@@@0@V10@00@Z 10074900     Legitbot.obj
 0002:0000b900       __ehfuncinfo$??$move_backward@V?$_Deque_iterator@V?$_Deque_val@U?$_Deque_simple_types@ULegitPlayerRecords@@@std@@@std@@@std@@V12@@std@@YA?AV?$_Deque_iterator@V?$_Deque_val@U?$_Deque_simple_types@ULegitPlayerRecords@@@std@@@std@@@0@V10@00@Z 10074900     Legitbot.obj
 0002:0000b900       __ehfuncinfo$??$move@V?$_Deque_iterator@V?$_Deque_val@U?$_Deque_simple_types@UPlayerRecords@@@std@@@std@@@std@@V12@@std@@YA?AV?$_Deque_iterator@V?$_Deque_val@U?$_Deque_simple_types@UPlayerRecords@@@std@@@std@@@0@V10@00@Z 10074900     LagComp.obj
 0002:0000b900       __ehfuncinfo$??$move_backward@V?$_Deque_iterator@V?$_Deque_val@U?$_Deque_simple_types@UPlayerRecords@@@std@@@std@@@std@@V12@@std@@YA?AV?$_Deque_iterator@V?$_Deque_val@U?$_Deque_simple_types@UPlayerRecords@@@std@@@std@@@0@V10@00@Z 10074900     LagComp.obj
 0002:0000b924       __unwindtable$?create_animation_state@C_BaseEntity@@QAEXPAVCBasePlayerAnimState@@@Z 10074924     c_antiaim.obj
 0002:0000b92c       __ehfuncinfo$?create_animation_state@C_BaseEntity@@QAEXPAVCBasePlayerAnimState@@@Z 1007492c     c_antiaim.obj
 0002:0000b950       __unwindtable$?GetMoveType@C_BaseEntity@@QAE?AW4MoveType_t@@XZ 10074950     c_antiaim.obj
 0002:0000b958       __ehfuncinfo$?GetMoveType@C_BaseEntity@@QAE?AW4MoveType_t@@XZ 10074958     c_antiaim.obj
 0002:0000b97c       __unwindtable$?desyncchams@c_antiaim@@QAEXXZ 1007497c     c_antiaim.obj
 0002:0000b984       __ehfuncinfo$?desyncchams@c_antiaim@@QAEXXZ 10074984     c_antiaim.obj
 0002:0000b9a8       __unwindtable$?OnCreateMove@Legitbot@@QAEXXZ 100749a8     Legitbot.obj
 0002:0000b9b8       __ehfuncinfo$?OnCreateMove@Legitbot@@QAEXXZ 100749b8     Legitbot.obj
 0002:0000b9dc       __unwindtable$??0?$basic_string@DU?$char_traits@D@std@@V?$allocator@D@2@@std@@QAE@ABV01@@Z 100749dc     c_esp.obj
 0002:0000b9dc       __unwindtable$??0?$basic_string@_WU?$char_traits@_W@std@@V?$allocator@_W@2@@std@@QAE@ABV01@@Z 100749dc     config_system.obj
 0002:0000b9e4       __ehfuncinfo$??0?$basic_string@DU?$char_traits@D@std@@V?$allocator@D@2@@std@@QAE@ABV01@@Z 100749e4     c_esp.obj
 0002:0000b9e4       __ehfuncinfo$??0?$basic_string@_WU?$char_traits@_W@std@@V?$allocator@_W@2@@std@@QAE@ABV01@@Z 100749e4     config_system.obj
 0002:0000ba08       __unwindtable$?GetAmmo@C_BaseCombatWeapon@@QAEHXZ 10074a08     c_esp.obj
 0002:0000ba10       __ehfuncinfo$?GetAmmo@C_BaseCombatWeapon@@QAEHXZ 10074a10     c_esp.obj
 0002:0000ba34       __unwindtable$?m_iPrimaryReserveAmmoCount@C_BaseCombatWeapon@@QAEHXZ 10074a34     c_esp.obj
 0002:0000ba3c       __ehfuncinfo$?m_iPrimaryReserveAmmoCount@C_BaseCombatWeapon@@QAEHXZ 10074a3c     c_esp.obj
 0002:0000ba60       __unwindtable$?RenderWeaponName@c_esp@@AAEXPAVC_BaseEntity@@@Z 10074a60     c_esp.obj
 0002:0000ba80       __ehfuncinfo$?RenderWeaponName@c_esp@@AAEXPAVC_BaseEntity@@@Z 10074a80     c_esp.obj
 0002:0000baa4       __unwindtable$?RenderHealth@c_esp@@AAEXPAVC_BaseEntity@@@Z 10074aa4     c_esp.obj
 0002:0000babc       __ehfuncinfo$?RenderHealth@c_esp@@AAEXPAVC_BaseEntity@@@Z 10074abc     c_esp.obj
 0002:0000bae0       __unwindtable$?clean_name@@YA?AV?$basic_string@DU?$char_traits@D@std@@V?$allocator@D@2@@std@@V12@@Z 10074ae0     c_esp.obj
 0002:0000baf0       __ehfuncinfo$?clean_name@@YA?AV?$basic_string@DU?$char_traits@D@std@@V?$allocator@D@2@@std@@V12@@Z 10074af0     c_esp.obj
 0002:0000bb14       __unwindtable$??$?0PADX@?$basic_string@DU?$char_traits@D@std@@V?$allocator@D@2@@std@@QAE@PAD0ABV?$allocator@D@1@@Z 10074b14     c_esp.obj
 0002:0000bb1c       __ehfuncinfo$??$?0PADX@?$basic_string@DU?$char_traits@D@std@@V?$allocator@D@2@@std@@QAE@PAD0ABV?$allocator@D@1@@Z 10074b1c     c_esp.obj
 0002:0000bb40       __unwindtable$?NewFrame@ImGui@@YAXXZ 10074b40     imgui.obj
 0002:0000bb48       __ehfuncinfo$?NewFrame@ImGui@@YAXXZ 10074b48     imgui.obj
 0002:0000bb6c       __unwindtable$?EndChild@ImGui@@YAX_N@Z 10074b6c     imgui.obj
 0002:0000bb74       __ehfuncinfo$?EndChild@ImGui@@YAX_N@Z 10074b74     imgui.obj
 0002:0000bb98       __unwindtable$?ListBox@ImGui@@YA_NPBDPAHP6A_NPAXHPAPBD@Z2HH@Z 10074b98     imgui.obj
 0002:0000bba0       __ehfuncinfo$?ListBox@ImGui@@YA_NPBDPAHP6A_NPAXHPAPBD@Z2HH@Z 10074ba0     imgui.obj
 0002:0000bbc4       __unwindtable$?CreateContext@ImGui@@YAPAUImGuiContext@@P6APAXI@ZP6AXPAX@Z@Z 10074bc4     imgui.obj
 0002:0000bbcc       __ehfuncinfo$?CreateContext@ImGui@@YAPAUImGuiContext@@P6APAXI@ZP6AXPAX@Z@Z 10074bcc     imgui.obj
 0002:0000bbf0       __unwindtable$??0ImGuiTextBuffer@@QAE@XZ 10074bf0     imgui.obj
 0002:0000bbf8       __ehfuncinfo$??0ImGuiTextBuffer@@QAE@XZ 10074bf8     imgui.obj
 0002:0000bc1c       __ehfuncinfo$??0ImDrawList@@QAE@XZ 10074c1c     imgui.obj
 0002:0000bc40       __unwindtable$??0ImDrawList@@QAE@XZ 10074c40     imgui.obj
 0002:0000bc78       __unwindtable$?ImFileOpen@@YAPAU_iobuf@@PBD0@Z 10074c78     imgui.obj
 0002:0000bc80       __ehfuncinfo$?ImFileOpen@@YAPAU_iobuf@@PBD0@Z 10074c80     imgui.obj
 0002:0000bca4       __unwindtable$??0ImGuiTextEditState@@QAE@XZ 10074ca4     imgui.obj
 0002:0000bcb4       __ehfuncinfo$??0ImGuiTextEditState@@QAE@XZ 10074cb4     imgui.obj
 0002:0000bcd8       __ehfuncinfo$??0ImGuiContext@@QAE@XZ 10074cd8     imgui.obj
 0002:0000bcfc       __unwindtable$??0ImGuiContext@@QAE@XZ 10074cfc     imgui.obj
 0002:0000bd6c       __ehfuncinfo$??0ImGuiDrawContext@@QAE@XZ 10074d6c     imgui.obj
 0002:0000bd90       __unwindtable$??0ImGuiDrawContext@@QAE@XZ 10074d90     imgui.obj
 0002:0000bdc8       __unwindtable$??0ImGuiWindow@@QAE@PBD@Z 10074dc8     imgui.obj
 0002:0000bde8       __ehfuncinfo$??0ImGuiWindow@@QAE@PBD@Z 10074de8     imgui.obj
 0002:0000be0c       __unwindtable$?CreateNewWindow@@YAPAUImGuiWindow@@PBDUImVec2@@H@Z 10074e0c     imgui.obj
 0002:0000be14       __ehfuncinfo$?CreateNewWindow@@YAPAUImGuiWindow@@PBDUImVec2@@H@Z 10074e14     imgui.obj
 0002:0000be38       __unwindtable$?GetClipboardTextFn_DefaultImpl@@YAPBDPAX@Z 10074e38     imgui.obj
 0002:0000be40       __ehfuncinfo$?GetClipboardTextFn_DefaultImpl@@YAPBDPAX@Z 10074e40     imgui.obj
 0002:0000be64       __unwindtable$??0ImDrawChannel@@QAE@XZ 10074e64     imgui_draw.obj
 0002:0000be6c       __ehfuncinfo$??0ImDrawChannel@@QAE@XZ 10074e6c     imgui_draw.obj
 0002:0000be90       __unwindtable$?PathArcToFast@ImDrawList@@QAEXABUImVec2@@MHH@Z 10074e90     imgui_draw.obj
 0002:0000be98       __ehfuncinfo$?PathArcToFast@ImDrawList@@QAEXABUImVec2@@MHH@Z 10074e98     imgui_draw.obj
 0002:0000bebc       __unwindtable$?ChannelsSplit@ImDrawList@@QAEXH@Z 10074ebc     imgui_draw.obj
 0002:0000bec4       __ehfuncinfo$?ChannelsSplit@ImDrawList@@QAEXH@Z 10074ec4     imgui_draw.obj
 0002:0000bee8       __unwindtable$??0ImFontAtlas@@QAE@XZ 10074ee8     imgui_draw.obj
 0002:0000bf00       __ehfuncinfo$??0ImFontAtlas@@QAE@XZ 10074f00     imgui_draw.obj
 0002:0000bf24       __unwindtable$?AddFont@ImFontAtlas@@QAEPAUImFont@@PBUImFontConfig@@@Z 10074f24     imgui_draw.obj
 0002:0000bf2c       __ehfuncinfo$?AddFont@ImFontAtlas@@QAEPAUImFont@@PBUImFontConfig@@@Z 10074f2c     imgui_draw.obj
 0002:0000bf50       __unwindtable$??0ImFont@@QAE@XZ 10074f50     imgui_draw.obj
 0002:0000bf68       __ehfuncinfo$??0ImFont@@QAE@XZ 10074f68     imgui_draw.obj
 0002:0000bf8c       __unwindtable$?ImFontAtlasBuildPackCustomRects@@YAXPAUImFontAtlas@@PAX@Z 10074f8c     imgui_draw.obj
 0002:0000bf94       __ehfuncinfo$?ImFontAtlasBuildPackCustomRects@@YAXPAUImFontAtlas@@PAX@Z 10074f94     imgui_draw.obj
 0002:0000bfb8       __catchsym$?Setup@ShadowVTManager@@QAEXPAX@Z$3 10074fb8     bone_processing_hook.obj
 0002:0000bfc8       __unwindtable$?Setup@ShadowVTManager@@QAEXPAX@Z 10074fc8     bone_processing_hook.obj
 0002:0000bfd8       __tryblocktable$?Setup@ShadowVTManager@@QAEXPAX@Z 10074fd8     bone_processing_hook.obj
 0002:0000bfec       __ehfuncinfo$?Setup@ShadowVTManager@@QAEXPAX@Z 10074fec     bone_processing_hook.obj
 0002:0000c010       __unwindtable$??$make_unique@VShadowVTManager@@$$V$0A@@std@@YA?AV?$unique_ptr@VShadowVTManager@@U?$default_delete@VShadowVTManager@@@std@@@0@XZ 10075010     bone_processing_hook.obj
 0002:0000c018       __ehfuncinfo$??$make_unique@VShadowVTManager@@$$V$0A@@std@@YA?AV?$unique_ptr@VShadowVTManager@@U?$default_delete@VShadowVTManager@@@std@@@0@XZ 10075018     bone_processing_hook.obj
 0002:0000c03c       __unwindtable$?CreateMove@c_hooks@@SI_NPAVIClientMode@@PAXMPAVCUserCmd@@@Z 1007503c     createmove_hook.obj
 0002:0000c044       __ehfuncinfo$?CreateMove@c_hooks@@SI_NPAVIClientMode@@PAXMPAVCUserCmd@@@Z 10075044     createmove_hook.obj
 0002:0000c068       __unwindtable$?DoAutostrafe@Misc@@ABEXPAVCUserCmd@@@Z 10075068     createmove_hook.obj
 0002:0000c070       __ehfuncinfo$?DoAutostrafe@Misc@@ABEXPAVCUserCmd@@@Z 10075070     createmove_hook.obj
 0002:0000c094       __unwindtable$?Hooked_EndScene@c_hooks@@SGXPAUIDirect3DDevice9@@@Z 10075094     directx_preset_hook.obj
 0002:0000c09c       __ehfuncinfo$?Hooked_EndScene@c_hooks@@SGXPAUIDirect3DDevice9@@@Z 1007509c     directx_preset_hook.obj
 0002:0000c0c0       __unwindtable$?Hooked_EndScene_Reset@c_hooks@@SGXPAUIDirect3DDevice9@@PAU_D3DPRESENT_PARAMETERS_@@@Z 100750c0     directx_preset_hook.obj
 0002:0000c0c8       __ehfuncinfo$?Hooked_EndScene_Reset@c_hooks@@SGXPAUIDirect3DDevice9@@PAU_D3DPRESENT_PARAMETERS_@@@Z 100750c8     directx_preset_hook.obj
 0002:0000c0ec       __unwindtable$?DrawModelExecute@c_hooks@@SIXPAX0PAVIMatRenderContext@@ABUDrawModelState_t@@ABUModelRenderInfo_t@@PAVmatrix3x4_t@@@Z 100750ec     dme_hook.obj
 0002:0000c0f4       __ehfuncinfo$?DrawModelExecute@c_hooks@@SIXPAX0PAVIMatRenderContext@@ABUDrawModelState_t@@ABUModelRenderInfo_t@@PAVmatrix3x4_t@@@Z 100750f4     dme_hook.obj
 0002:0000c118       __unwindtable$?FrameStageNotify@c_hooks@@SGXW4ClientFrameStage_t@@@Z 10075118     fsn_hook.obj
 0002:0000c120       __ehfuncinfo$?FrameStageNotify@c_hooks@@SGXW4ClientFrameStage_t@@@Z 10075120     fsn_hook.obj
 0002:0000c144       __unwindtable$?server_hitbox@@YAXXZ 10075144     fsn_hook.obj
 0002:0000c154       __ehfuncinfo$?server_hitbox@@YAXXZ 10075154     fsn_hook.obj
 0002:0000c178       __unwindtable$?LockCursor@c_hooks@@SIXPAVISurface@@PAX@Z 10075178     lock_cursor_hook.obj
 0002:0000c180       __ehfuncinfo$?LockCursor@c_hooks@@SIXPAVISurface@@PAX@Z 10075180     lock_cursor_hook.obj
 0002:0000c1a4       __unwindtable$?IsScoped@C_BaseEntity@@QAE_NXZ 100751a4     oview_hook.obj
 0002:0000c1ac       __ehfuncinfo$?IsScoped@C_BaseEntity@@QAE_NXZ 100751ac     oview_hook.obj
 0002:0000c1d0       __unwindtable$?OverrideView@c_hooks@@SIXPAX0PAVCViewSetup@@@Z 100751d0     oview_hook.obj
 0002:0000c1d8       __ehfuncinfo$?OverrideView@c_hooks@@SIXPAX0PAVCViewSetup@@@Z 100751d8     oview_hook.obj
 0002:0000c1fc       __unwindtable$?PaintTraverse@c_hooks@@SIXPAXHI_N1@Z 100751fc     painttraverse_hook.obj
 0002:0000c204       __ehfuncinfo$?PaintTraverse@c_hooks@@SIXPAXHI_N1@Z 10075204     painttraverse_hook.obj
 0002:0000c228       __unwindtable$?SceneEnd@c_hooks@@SIXPAX0@Z 10075228     sceneend_hook.obj
 0002:0000c230       __ehfuncinfo$?SceneEnd@c_hooks@@SIXPAX0@Z 10075230     sceneend_hook.obj
 0002:0000c254       __unwindtable$?_Makestr@_System_error@std@@CA?AV?$basic_string@DU?$char_traits@D@std@@V?$allocator@D@2@@2@Verror_code@2@V32@@Z 10075254     config_system.obj
 0002:0000c264       __ehfuncinfo$?_Makestr@_System_error@std@@CA?AV?$basic_string@DU?$char_traits@D@std@@V?$allocator@D@2@@2@Verror_code@2@V32@@Z 10075264     config_system.obj
 0002:0000c288       __unwindtable$?_Convert_narrow_to_wide@filesystem@std@@YA?AV?$basic_string@_WU?$char_traits@_W@std@@V?$allocator@_W@2@@2@W4__std_code_page@@V?$basic_string_view@DU?$char_traits@D@std@@@2@@Z 10075288     config_system.obj
 0002:0000c290       __ehfuncinfo$?_Convert_narrow_to_wide@filesystem@std@@YA?AV?$basic_string@_WU?$char_traits@_W@std@@V?$allocator@_W@2@@2@W4__std_code_page@@V?$basic_string_view@DU?$char_traits@D@std@@@2@@Z 10075290     config_system.obj
 0002:0000c2b4       __unwindtable$??Kfilesystem@std@@YA?AVpath@01@ABV201@0@Z 100752b4     config_system.obj
 0002:0000c2bc       __ehfuncinfo$??Kfilesystem@std@@YA?AVpath@01@ABV201@0@Z 100752bc     config_system.obj
 0002:0000c2e0       __unwindtable$??$_Convert_wide_to_narrow@U?$char_traits@D@std@@V?$allocator@D@2@@filesystem@std@@YA?AV?$basic_string@DU?$char_traits@D@std@@V?$allocator@D@2@@1@W4__std_code_page@@V?$basic_string_view@_WU?$char_traits@_W@std@@@1@ABV?$allocator@D@1@@Z 100752e0     config_system.obj
 0002:0000c2e8       __ehfuncinfo$??$_Convert_wide_to_narrow@U?$char_traits@D@std@@V?$allocator@D@2@@filesystem@std@@YA?AV?$basic_string@DU?$char_traits@D@std@@V?$allocator@D@2@@1@W4__std_code_page@@V?$basic_string_view@_WU?$char_traits@_W@std@@@1@ABV?$allocator@D@1@@Z 100752e8     config_system.obj
 0002:0000c30c       __unwindtable$??$?_0V?$basic_string_view@_WU?$char_traits@_W@std@@@std@@$0A@@path@filesystem@std@@QAEAAV012@ABV?$basic_string_view@_WU?$char_traits@_W@std@@@2@@Z 1007530c     config_system.obj
 0002:0000c30c       __unwindtable$??$?_0PBD$0A@@path@filesystem@std@@QAEAAV012@ABQBD@Z 1007530c     config_system.obj
 0002:0000c314       __ehfuncinfo$??$?_0V?$basic_string_view@_WU?$char_traits@_W@std@@@std@@$0A@@path@filesystem@std@@QAEAAV012@ABV?$basic_string_view@_WU?$char_traits@_W@std@@@2@@Z 10075314     config_system.obj
 0002:0000c314       __ehfuncinfo$??$?_0PBD$0A@@path@filesystem@std@@QAEAAV012@ABQBD@Z 10075314     config_system.obj
 0002:0000c338       __unwindtable$??0filesystem_error@filesystem@std@@QAE@ABV?$basic_string@DU?$char_traits@D@std@@V?$allocator@D@2@@2@Verror_code@2@@Z 10075338     config_system.obj
 0002:0000c350       __ehfuncinfo$??0filesystem_error@filesystem@std@@QAE@ABV?$basic_string@DU?$char_traits@D@std@@V?$allocator@D@2@@2@Verror_code@2@@Z 10075350     config_system.obj
 0002:0000c374       __unwindtable$??0filesystem_error@filesystem@std@@QAE@ABV?$basic_string@DU?$char_traits@D@std@@V?$allocator@D@2@@2@ABVpath@12@Verror_code@2@@Z 10075374     config_system.obj
 0002:0000c394       __ehfuncinfo$??0filesystem_error@filesystem@std@@QAE@ABV?$basic_string@DU?$char_traits@D@std@@V?$allocator@D@2@@2@ABVpath@12@Verror_code@2@@Z 10075394     config_system.obj
 0002:0000c3b8       __unwindtable$??0filesystem_error@filesystem@std@@QAE@ABV?$basic_string@DU?$char_traits@D@std@@V?$allocator@D@2@@2@ABVpath@12@1Verror_code@2@@Z 100753b8     config_system.obj
 0002:0000c3d0       __ehfuncinfo$??0filesystem_error@filesystem@std@@QAE@ABV?$basic_string@DU?$char_traits@D@std@@V?$allocator@D@2@@2@ABVpath@12@1Verror_code@2@@Z 100753d0     config_system.obj
 0002:0000c3f4       __unwindtable$?_Pretty_message@filesystem_error@filesystem@std@@CA?AV?$basic_string@DU?$char_traits@D@std@@V?$allocator@D@2@@3@V?$basic_string_view@DU?$char_traits@D@std@@@3@ABVpath@23@1@Z 100753f4     config_system.obj
 0002:0000c40c       __ehfuncinfo$?_Pretty_message@filesystem_error@filesystem@std@@CA?AV?$basic_string@DU?$char_traits@D@std@@V?$allocator@D@2@@3@V?$basic_string_view@DU?$char_traits@D@std@@@3@ABVpath@23@1@Z 1007540c     config_system.obj
 0002:0000c430       __unwindtable$??0filesystem_error@filesystem@std@@QAE@ABV012@@Z 10075430     config_system.obj
 0002:0000c448       __ehfuncinfo$??0filesystem_error@filesystem@std@@QAE@ABV012@@Z 10075448     config_system.obj
 0002:0000c46c       __unwindtable$?_Throw_fs_error@filesystem@std@@YAXPBDW4__std_win_error@@@Z 1007546c     config_system.obj
 0002:0000c474       __ehfuncinfo$?_Throw_fs_error@filesystem@std@@YAXPBDW4__std_win_error@@@Z 10075474     config_system.obj
 0002:0000c498       __unwindtable$?_Throw_fs_error@filesystem@std@@YAXPBDW4__std_win_error@@ABVpath@12@2@Z 10075498     config_system.obj
 0002:0000c498       __unwindtable$?_Throw_fs_error@filesystem@std@@YAXPBDW4__std_win_error@@ABVpath@12@@Z 10075498     config_system.obj
 0002:0000c4a0       __ehfuncinfo$?_Throw_fs_error@filesystem@std@@YAXPBDW4__std_win_error@@ABVpath@12@2@Z 100754a0     config_system.obj
 0002:0000c4a0       __ehfuncinfo$?_Throw_fs_error@filesystem@std@@YAXPBDW4__std_win_error@@ABVpath@12@@Z 100754a0     config_system.obj
 0002:0000c4c4       __unwindtable$??0_Creator@_Dir_enum_impl@filesystem@std@@QAE@ABVpath@23@W4directory_options@23@@Z 100754c4     config_system.obj
 0002:0000c4d4       __ehfuncinfo$??0_Creator@_Dir_enum_impl@filesystem@std@@QAE@ABVpath@23@W4directory_options@23@@Z 100754d4     config_system.obj
 0002:0000c4f8       __unwindtable$?_Refresh@_Dir_enum_impl@filesystem@std@@QAEXABU__std_fs_find_data@@@Z 100754f8     config_system.obj
 0002:0000c500       __ehfuncinfo$?_Refresh@_Dir_enum_impl@filesystem@std@@QAEXABU__std_fs_find_data@@@Z 10075500     config_system.obj
 0002:0000c524       __unwindtable$??0_Dir_enum_impl@filesystem@std@@QAE@$$QAU_Creator@012@W4directory_options@12@@Z 10075524     config_system.obj
 0002:0000c534       __ehfuncinfo$??0_Dir_enum_impl@filesystem@std@@QAE@$$QAU_Creator@012@W4directory_options@12@@Z 10075534     config_system.obj
 0002:0000c558       __unwindtable$??0directory_iterator@filesystem@std@@QAE@ABVpath@12@@Z 10075558     config_system.obj
 0002:0000c560       __ehfuncinfo$??0directory_iterator@filesystem@std@@QAE@ABVpath@12@@Z 10075560     config_system.obj
 0002:0000c584       __unwindtable$??$_Initialize_dir_enum@U_Dir_enum_impl@filesystem@std@@@_Dir_enum_impl@filesystem@std@@SA?AW4__std_win_error@@AAV?$shared_ptr@U_Dir_enum_impl@filesystem@std@@@2@ABVpath@12@W4directory_options@12@@Z 10075584     config_system.obj
 0002:0000c58c       __ehfuncinfo$??$_Initialize_dir_enum@U_Dir_enum_impl@filesystem@std@@@_Dir_enum_impl@filesystem@std@@SA?AW4__std_win_error@@AAV?$shared_ptr@U_Dir_enum_impl@filesystem@std@@@2@ABVpath@12@W4directory_options@12@@Z 1007558c     config_system.obj
 0002:0000c5b0       __ehfuncinfo$??$transform@Vdirectory_iterator@filesystem@std@@V?$back_insert_iterator@V?$vector@V?$basic_string@DU?$char_traits@D@std@@V?$allocator@D@2@@std@@V?$allocator@V?$basic_string@DU?$char_traits@D@std@@V?$allocator@D@2@@std@@@2@@std@@@3@V<lambda_bea2c85d2d76a7d41383a900013bf5c9>@@@std@@YA?AV?$back_insert_iterator@V?$vector@V?$basic_string@DU?$char_traits@D@std@@V?$allocator@D@2@@std@@V?$allocator@V?$basic_string@DU?$char_traits@D@std@@V?$allocator@D@2@@std@@@2@@std@@@0@Vdirectory_iterator@filesystem@0@0V10@V<lambda_bea2c85d2d76a7d41383a900013bf5c9>@@@Z 100755b0     config_system.obj
 0002:0000c5d4       __unwindtable$??$transform@Vdirectory_iterator@filesystem@std@@V?$back_insert_iterator@V?$vector@V?$basic_string@DU?$char_traits@D@std@@V?$allocator@D@2@@std@@V?$allocator@V?$basic_string@DU?$char_traits@D@std@@V?$allocator@D@2@@std@@@2@@std@@@3@V<lambda_bea2c85d2d76a7d41383a900013bf5c9>@@@std@@YA?AV?$back_insert_iterator@V?$vector@V?$basic_string@DU?$char_traits@D@std@@V?$allocator@D@2@@std@@V?$allocator@V?$basic_string@DU?$char_traits@D@std@@V?$allocator@D@2@@std@@@2@@std@@@0@Vdirectory_iterator@filesystem@0@0V10@V<lambda_bea2c85d2d76a7d41383a900013bf5c9>@@@Z 100755d4     config_system.obj
 0002:0000c5fc       __unwindtable$??0?$basic_ifstream@DU?$char_traits@D@std@@@std@@QAE@PB_WHH@Z 100755fc     config_system.obj
 0002:0000c614       __ehfuncinfo$??0?$basic_ifstream@DU?$char_traits@D@std@@@std@@QAE@PB_WHH@Z 10075614     config_system.obj
 0002:0000c638       __unwindtable$??0?$basic_filebuf@DU?$char_traits@D@std@@@std@@QAE@PAU_iobuf@@@Z 10075638     config_system.obj
 0002:0000c640       __ehfuncinfo$??0?$basic_filebuf@DU?$char_traits@D@std@@@std@@QAE@PAU_iobuf@@@Z 10075640     config_system.obj
 0002:0000c664       __unwindtable$?open@?$basic_filebuf@DU?$char_traits@D@std@@@std@@QAEPAV12@PB_WHH@Z 10075664     config_system.obj
 0002:0000c664       __unwindtable$?open@?$basic_filebuf@DU?$char_traits@D@std@@@std@@QAEPAV12@PBDHH@Z 10075664     Interfaces.obj
 0002:0000c66c       __ehfuncinfo$?open@?$basic_filebuf@DU?$char_traits@D@std@@@std@@QAEPAV12@PB_WHH@Z 1007566c     config_system.obj
 0002:0000c66c       __ehfuncinfo$?open@?$basic_filebuf@DU?$char_traits@D@std@@@std@@QAEPAV12@PBDHH@Z 1007566c     Interfaces.obj
 0002:0000c690       __unwindtable$?uflow@?$basic_filebuf@DU?$char_traits@D@std@@@std@@MAEHXZ 10075690     config_system.obj
 0002:0000c698       __ehfuncinfo$?uflow@?$basic_filebuf@DU?$char_traits@D@std@@@std@@MAEHXZ 10075698     config_system.obj
 0002:0000c6bc       __unwindtable$??0?$basic_ofstream@DU?$char_traits@D@std@@@std@@QAE@PB_WHH@Z 100756bc     config_system.obj
 0002:0000c6bc       __unwindtable$??0?$basic_ofstream@DU?$char_traits@D@std@@@std@@QAE@PBDHH@Z 100756bc     Interfaces.obj
 0002:0000c6d4       __ehfuncinfo$??0?$basic_ofstream@DU?$char_traits@D@std@@@std@@QAE@PBDHH@Z 100756d4     Interfaces.obj
 0002:0000c6d4       __ehfuncinfo$??0?$basic_ofstream@DU?$char_traits@D@std@@@std@@QAE@PB_WHH@Z 100756d4     config_system.obj
 0002:0000c6f8       __catchsym$??$_Emplace_reallocate@AAPBD@?$vector@V?$basic_string@DU?$char_traits@D@std@@V?$allocator@D@2@@std@@V?$allocator@V?$basic_string@DU?$char_traits@D@std@@V?$allocator@D@2@@std@@@2@@std@@QAEPAV?$basic_string@DU?$char_traits@D@std@@V?$allocator@D@2@@1@QAV21@AAPBD@Z$2 100756f8     config_system.obj
 0002:0000c708       __unwindtable$??$_Emplace_reallocate@AAPBD@?$vector@V?$basic_string@DU?$char_traits@D@std@@V?$allocator@D@2@@std@@V?$allocator@V?$basic_string@DU?$char_traits@D@std@@V?$allocator@D@2@@std@@@2@@std@@QAEPAV?$basic_string@DU?$char_traits@D@std@@V?$allocator@D@2@@1@QAV21@AAPBD@Z 10075708     config_system.obj
 0002:0000c718       __tryblocktable$??$_Emplace_reallocate@AAPBD@?$vector@V?$basic_string@DU?$char_traits@D@std@@V?$allocator@D@2@@std@@V?$allocator@V?$basic_string@DU?$char_traits@D@std@@V?$allocator@D@2@@std@@@2@@std@@QAEPAV?$basic_string@DU?$char_traits@D@std@@V?$allocator@D@2@@1@QAV21@AAPBD@Z 10075718     config_system.obj
 0002:0000c72c       __ehfuncinfo$??$_Emplace_reallocate@AAPBD@?$vector@V?$basic_string@DU?$char_traits@D@std@@V?$allocator@D@2@@std@@V?$allocator@V?$basic_string@DU?$char_traits@D@std@@V?$allocator@D@2@@std@@@2@@std@@QAEPAV?$basic_string@DU?$char_traits@D@std@@V?$allocator@D@2@@1@QAV21@AAPBD@Z 1007572c     config_system.obj
 0002:0000c750       __unwindtable$??$use_facet@V?$codecvt@DDU_Mbstatet@@@std@@@std@@YAABV?$codecvt@DDU_Mbstatet@@@0@ABVlocale@0@@Z 10075750     config_system.obj
 0002:0000c760       __ehfuncinfo$??$use_facet@V?$codecvt@DDU_Mbstatet@@@std@@@std@@YAABV?$codecvt@DDU_Mbstatet@@@0@ABVlocale@0@@Z 10075760     config_system.obj
 0002:0000c784       __unwindtable$??$make_shared@U_Dir_enum_impl@filesystem@std@@U_Creator@123@ABW4directory_options@23@@std@@YA?AV?$shared_ptr@U_Dir_enum_impl@filesystem@std@@@0@$$QAU_Creator@_Dir_enum_impl@filesystem@0@ABW4directory_options@40@@Z 10075784     config_system.obj
 0002:0000c794       __ehfuncinfo$??$make_shared@U_Dir_enum_impl@filesystem@std@@U_Creator@123@ABW4directory_options@23@@std@@YA?AV?$shared_ptr@U_Dir_enum_impl@filesystem@std@@@0@$$QAU_Creator@_Dir_enum_impl@filesystem@0@ABW4directory_options@40@@Z 10075794     config_system.obj
 0002:0000c7b8       __unwindtable$??$?RVdirectory_entry@filesystem@std@@@<lambda_bea2c85d2d76a7d41383a900013bf5c9>@@QBE?AV?$basic_string@DU?$char_traits@D@std@@V?$allocator@D@2@@std@@ABVdirectory_entry@filesystem@2@@Z 100757b8     config_system.obj
 0002:0000c7c0       __ehfuncinfo$??$?RVdirectory_entry@filesystem@std@@@<lambda_bea2c85d2d76a7d41383a900013bf5c9>@@QBE?AV?$basic_string@DU?$char_traits@D@std@@V?$allocator@D@2@@std@@ABVdirectory_entry@filesystem@2@@Z 100757c0     config_system.obj
 0002:0000c7e4       __catchsym$??$_Emplace_reallocate@V?$basic_string@DU?$char_traits@D@std@@V?$allocator@D@2@@std@@@?$vector@V?$basic_string@DU?$char_traits@D@std@@V?$allocator@D@2@@std@@V?$allocator@V?$basic_string@DU?$char_traits@D@std@@V?$allocator@D@2@@std@@@2@@std@@QAEPAV?$basic_string@DU?$char_traits@D@std@@V?$allocator@D@2@@1@QAV21@$$QAV21@@Z$2 100757e4     config_system.obj
 0002:0000c7f4       __unwindtable$??$_Emplace_reallocate@V?$basic_string@DU?$char_traits@D@std@@V?$allocator@D@2@@std@@@?$vector@V?$basic_string@DU?$char_traits@D@std@@V?$allocator@D@2@@std@@V?$allocator@V?$basic_string@DU?$char_traits@D@std@@V?$allocator@D@2@@std@@@2@@std@@QAEPAV?$basic_string@DU?$char_traits@D@std@@V?$allocator@D@2@@1@QAV21@$$QAV21@@Z 100757f4     config_system.obj
 0002:0000c804       __tryblocktable$??$_Emplace_reallocate@V?$basic_string@DU?$char_traits@D@std@@V?$allocator@D@2@@std@@@?$vector@V?$basic_string@DU?$char_traits@D@std@@V?$allocator@D@2@@std@@V?$allocator@V?$basic_string@DU?$char_traits@D@std@@V?$allocator@D@2@@std@@@2@@std@@QAEPAV?$basic_string@DU?$char_traits@D@std@@V?$allocator@D@2@@1@QAV21@$$QAV21@@Z 10075804     config_system.obj
 0002:0000c818       __ehfuncinfo$??$_Emplace_reallocate@V?$basic_string@DU?$char_traits@D@std@@V?$allocator@D@2@@std@@@?$vector@V?$basic_string@DU?$char_traits@D@std@@V?$allocator@D@2@@std@@V?$allocator@V?$basic_string@DU?$char_traits@D@std@@V?$allocator@D@2@@std@@@2@@std@@QAEPAV?$basic_string@DU?$char_traits@D@std@@V?$allocator@D@2@@1@QAV21@$$QAV21@@Z 10075818     config_system.obj
 0002:0000c83c       __unwindtable$??$?0U_Creator@_Dir_enum_impl@filesystem@std@@ABW4directory_options@23@@?$_Ref_count_obj@U_Dir_enum_impl@filesystem@std@@@std@@QAE@$$QAU_Creator@_Dir_enum_impl@filesystem@1@ABW4directory_options@41@@Z 1007583c     config_system.obj
 0002:0000c844       __ehfuncinfo$??$?0U_Creator@_Dir_enum_impl@filesystem@std@@ABW4directory_options@23@@?$_Ref_count_obj@U_Dir_enum_impl@filesystem@std@@@std@@QAE@$$QAU_Creator@_Dir_enum_impl@filesystem@1@ABW4directory_options@41@@Z 10075844     config_system.obj
 0002:0000c868       __unwindtable$??$_Uninitialized_move_al_unchecked@PAV?$basic_string@DU?$char_traits@D@std@@V?$allocator@D@2@@std@@PAV12@V?$allocator@V?$basic_string@DU?$char_traits@D@std@@V?$allocator@D@2@@std@@@2@@std@@YAPAV?$basic_string@DU?$char_traits@D@std@@V?$allocator@D@2@@0@PAV10@QAV10@1AAV?$allocator@V?$basic_string@DU?$char_traits@D@std@@V?$allocator@D@2@@std@@@0@U_General_ptr_iterator_tag@0@U_Unused_parameter@0@@Z 10075868     config_system.obj
 0002:0000c870       __ehfuncinfo$??$_Uninitialized_move_al_unchecked@PAV?$basic_string@DU?$char_traits@D@std@@V?$allocator@D@2@@std@@PAV12@V?$allocator@V?$basic_string@DU?$char_traits@D@std@@V?$allocator@D@2@@std@@@2@@std@@YAPAV?$basic_string@DU?$char_traits@D@std@@V?$allocator@D@2@@0@PAV10@QAV10@1AAV?$allocator@V?$basic_string@DU?$char_traits@D@std@@V?$allocator@D@2@@std@@@0@U_General_ptr_iterator_tag@0@U_Unused_parameter@0@@Z 10075870     config_system.obj
 0002:0000c96c       __unwindtable$?SetAbsAngles@C_BaseEntity@@QAEXVVector@@@Z 1007596c     CEntity.obj
 0002:0000c974       __ehfuncinfo$?SetAbsAngles@C_BaseEntity@@QAEXVVector@@@Z 10075974     CEntity.obj
 0002:0000c998       __unwindtable$?SetAbsOrigin@C_BaseEntity@@QAEXVVector@@@Z 10075998     CEntity.obj
 0002:0000c9a0       __ehfuncinfo$?SetAbsOrigin@C_BaseEntity@@QAEXVVector@@@Z 100759a0     CEntity.obj
 0002:0000c9c4       __ehfuncinfo$?Init@interfaces@@YAXXZ 100759c4     Interfaces.obj
 0002:0000c9e8       __unwindtable$?Init@interfaces@@YAXXZ 100759e8     Interfaces.obj
 0002:0000ca68       __unwindtable$??$FindClass@VIPhysicsSurfaceProps@@@interfaces@@YAPAVIPhysicsSurfaceProps@@V?$basic_string@DU?$char_traits@D@std@@V?$allocator@D@2@@std@@0_N@Z 10075a68     Interfaces.obj
 0002:0000ca68       __unwindtable$??$FindClass@VICVar@@@interfaces@@YAPAVICVar@@V?$basic_string@DU?$char_traits@D@std@@V?$allocator@D@2@@std@@0_N@Z 10075a68     Interfaces.obj
 0002:0000ca68       __unwindtable$??$FindClass@VIClientEntityList@@@interfaces@@YAPAVIClientEntityList@@V?$basic_string@DU?$char_traits@D@std@@V?$allocator@D@2@@std@@0_N@Z 10075a68     Interfaces.obj
 0002:0000ca68       __unwindtable$??$FindClass@VCModelRender@@@interfaces@@YAPAVCModelRender@@V?$basic_string@DU?$char_traits@D@std@@V?$allocator@D@2@@std@@0_N@Z 10075a68     Interfaces.obj
 0002:0000ca68       __unwindtable$??$FindClass@VISurface@@@interfaces@@YAPAVISurface@@V?$basic_string@DU?$char_traits@D@std@@V?$allocator@D@2@@std@@0_N@Z 10075a68     Interfaces.obj
 0002:0000ca68       __unwindtable$??$FindClass@VIVModelInfo@@@interfaces@@YAPAVIVModelInfo@@V?$basic_string@DU?$char_traits@D@std@@V?$allocator@D@2@@std@@0_N@Z 10075a68     Interfaces.obj
 0002:0000ca68       __unwindtable$??$FindClass@VIPanel@@@interfaces@@YAPAVIPanel@@V?$basic_string@DU?$char_traits@D@std@@V?$allocator@D@2@@std@@0_N@Z 10075a68     Interfaces.obj
 0002:0000ca68       __unwindtable$??$FindClass@VIBaseClientDLL@@@interfaces@@YAPAVIBaseClientDLL@@V?$basic_string@DU?$char_traits@D@std@@V?$allocator@D@2@@std@@0_N@Z 10075a68     Interfaces.obj
 0002:0000ca68       __unwindtable$??$FindClass@VIVEngineClient@@@interfaces@@YAPAVIVEngineClient@@V?$basic_string@DU?$char_traits@D@std@@V?$allocator@D@2@@std@@0_N@Z 10075a68     Interfaces.obj
 0002:0000ca68       __unwindtable$??$FindClass@VIGameMovement@@@interfaces@@YAPAVIGameMovement@@V?$basic_string@DU?$char_traits@D@std@@V?$allocator@D@2@@std@@0_N@Z 10075a68     Interfaces.obj
 0002:0000ca68       __unwindtable$??$FindClass@VIMaterialSystem@@@interfaces@@YAPAVIMaterialSystem@@V?$basic_string@DU?$char_traits@D@std@@V?$allocator@D@2@@std@@0_N@Z 10075a68     Interfaces.obj
 0002:0000ca68       __unwindtable$??$FindClass@VIVRenderView@@@interfaces@@YAPAVIVRenderView@@V?$basic_string@DU?$char_traits@D@std@@V?$allocator@D@2@@std@@0_N@Z 10075a68     Interfaces.obj
 0002:0000ca68       __unwindtable$??$FindClass@VIEngineTrace@@@interfaces@@YAPAVIEngineTrace@@V?$basic_string@DU?$char_traits@D@std@@V?$allocator@D@2@@std@@0_N@Z 10075a68     Interfaces.obj
 0002:0000ca68       __unwindtable$??$FindClass@VCPrediction@@@interfaces@@YAPAVCPrediction@@V?$basic_string@DU?$char_traits@D@std@@V?$allocator@D@2@@std@@0_N@Z 10075a68     Interfaces.obj
 0002:0000ca78       __ehfuncinfo$??$FindClass@VIVRenderView@@@interfaces@@YAPAVIVRenderView@@V?$basic_string@DU?$char_traits@D@std@@V?$allocator@D@2@@std@@0_N@Z 10075a78     Interfaces.obj
 0002:0000ca78       __ehfuncinfo$??$FindClass@VIGameMovement@@@interfaces@@YAPAVIGameMovement@@V?$basic_string@DU?$char_traits@D@std@@V?$allocator@D@2@@std@@0_N@Z 10075a78     Interfaces.obj
 0002:0000ca78       __ehfuncinfo$??$FindClass@VIVEngineClient@@@interfaces@@YAPAVIVEngineClient@@V?$basic_string@DU?$char_traits@D@std@@V?$allocator@D@2@@std@@0_N@Z 10075a78     Interfaces.obj
 0002:0000ca78       __ehfuncinfo$??$FindClass@VISurface@@@interfaces@@YAPAVISurface@@V?$basic_string@DU?$char_traits@D@std@@V?$allocator@D@2@@std@@0_N@Z 10075a78     Interfaces.obj
 0002:0000ca78       __ehfuncinfo$??$FindClass@VIMaterialSystem@@@interfaces@@YAPAVIMaterialSystem@@V?$basic_string@DU?$char_traits@D@std@@V?$allocator@D@2@@std@@0_N@Z 10075a78     Interfaces.obj
 0002:0000ca78       __ehfuncinfo$??$FindClass@VIBaseClientDLL@@@interfaces@@YAPAVIBaseClientDLL@@V?$basic_string@DU?$char_traits@D@std@@V?$allocator@D@2@@std@@0_N@Z 10075a78     Interfaces.obj
 0002:0000ca78       __ehfuncinfo$??$FindClass@VIClientEntityList@@@interfaces@@YAPAVIClientEntityList@@V?$basic_string@DU?$char_traits@D@std@@V?$allocator@D@2@@std@@0_N@Z 10075a78     Interfaces.obj
 0002:0000ca78       __ehfuncinfo$??$FindClass@VCPrediction@@@interfaces@@YAPAVCPrediction@@V?$basic_string@DU?$char_traits@D@std@@V?$allocator@D@2@@std@@0_N@Z 10075a78     Interfaces.obj
 0002:0000ca78       __ehfuncinfo$??$FindClass@VCModelRender@@@interfaces@@YAPAVCModelRender@@V?$basic_string@DU?$char_traits@D@std@@V?$allocator@D@2@@std@@0_N@Z 10075a78     Interfaces.obj
 0002:0000ca78       __ehfuncinfo$??$FindClass@VIVModelInfo@@@interfaces@@YAPAVIVModelInfo@@V?$basic_string@DU?$char_traits@D@std@@V?$allocator@D@2@@std@@0_N@Z 10075a78     Interfaces.obj
 0002:0000ca78       __ehfuncinfo$??$FindClass@VIPanel@@@interfaces@@YAPAVIPanel@@V?$basic_string@DU?$char_traits@D@std@@V?$allocator@D@2@@std@@0_N@Z 10075a78     Interfaces.obj
 0002:0000ca78       __ehfuncinfo$??$FindClass@VICVar@@@interfaces@@YAPAVICVar@@V?$basic_string@DU?$char_traits@D@std@@V?$allocator@D@2@@std@@0_N@Z 10075a78     Interfaces.obj
 0002:0000ca78       __ehfuncinfo$??$FindClass@VIPhysicsSurfaceProps@@@interfaces@@YAPAVIPhysicsSurfaceProps@@V?$basic_string@DU?$char_traits@D@std@@V?$allocator@D@2@@std@@0_N@Z 10075a78     Interfaces.obj
 0002:0000ca78       __ehfuncinfo$??$FindClass@VIEngineTrace@@@interfaces@@YAPAVIEngineTrace@@V?$basic_string@DU?$char_traits@D@std@@V?$allocator@D@2@@std@@0_N@Z 10075a78     Interfaces.obj
 0002:0000ca9c       __unwindtable$??$CaptureInterface@VIGameEventManager@@@interfaces@@YAPAVIGameEventManager@@PBD0@Z 10075a9c     Interfaces.obj
 0002:0000caa4       __ehfuncinfo$??$CaptureInterface@VIGameEventManager@@@interfaces@@YAPAVIGameEventManager@@PBD0@Z 10075aa4     Interfaces.obj
 0002:0000cac8       __catchsym$??$?6U?$char_traits@D@std@@@std@@YAAAV?$basic_ostream@DU?$char_traits@D@std@@@0@AAV10@PBD@Z$3 10075ac8     Interfaces.obj
 0002:0000cad8       __tryblocktable$??$?6U?$char_traits@D@std@@@std@@YAAAV?$basic_ostream@DU?$char_traits@D@std@@@0@AAV10@PBD@Z 10075ad8     Interfaces.obj
 0002:0000caec       __unwindtable$??$?6U?$char_traits@D@std@@@std@@YAAAV?$basic_ostream@DU?$char_traits@D@std@@@0@AAV10@PBD@Z 10075aec     Interfaces.obj
 0002:0000cb04       __ehfuncinfo$??$?6U?$char_traits@D@std@@@std@@YAAAV?$basic_ostream@DU?$char_traits@D@std@@@0@AAV10@PBD@Z 10075b04     Interfaces.obj
 0002:0000cb28       __unwindtable$??0sentry@?$basic_ostream@DU?$char_traits@D@std@@@std@@QAE@AAV12@@Z 10075b28     Interfaces.obj
 0002:0000cb30       __ehfuncinfo$??0sentry@?$basic_ostream@DU?$char_traits@D@std@@@std@@QAE@AAV12@@Z 10075b30     Interfaces.obj
 0002:0000cb54       __unwindtable$??0?$_Hash@V?$_Umap_traits@V?$basic_string@DU?$char_traits@D@std@@V?$allocator@D@2@@std@@V?$shared_ptr@UNode@NetvarTree@@@2@V?$_Uhash_compare@V?$basic_string@DU?$char_traits@D@std@@V?$allocator@D@2@@std@@U?$hash@V?$basic_string@DU?$char_traits@D@std@@V?$allocator@D@2@@std@@@2@U?$equal_to@V?$basic_string@DU?$char_traits@D@std@@V?$allocator@D@2@@std@@@2@@2@V?$allocator@U?$pair@$$CBV?$basic_string@DU?$char_traits@D@std@@V?$allocator@D@2@@std@@V?$shared_ptr@UNode@NetvarTree@@@2@@std@@@2@$0A@@std@@@std@@QAE@ABV?$_Uhash_compare@V?$basic_string@DU?$char_traits@D@std@@V?$allocator@D@2@@std@@U?$hash@V?$basic_string@DU?$char_traits@D@std@@V?$allocator@D@2@@std@@@2@U?$equal_to@V?$basic_string@DU?$char_traits@D@std@@V?$allocator@D@2@@std@@@2@@1@ABV?$allocator@U?$pair@$$CBV?$basic_string@DU?$char_traits@D@std@@V?$allocator@D@2@@std@@V?$shared_ptr@UNode@NetvarTree@@@2@@std@@@1@@Z 10075b54     NetvarManager.obj
 0002:0000cb64       __ehfuncinfo$??0?$_Hash@V?$_Umap_traits@V?$basic_string@DU?$char_traits@D@std@@V?$allocator@D@2@@std@@V?$shared_ptr@UNode@NetvarTree@@@2@V?$_Uhash_compare@V?$basic_string@DU?$char_traits@D@std@@V?$allocator@D@2@@std@@U?$hash@V?$basic_string@DU?$char_traits@D@std@@V?$allocator@D@2@@std@@@2@U?$equal_to@V?$basic_string@DU?$char_traits@D@std@@V?$allocator@D@2@@std@@@2@@2@V?$allocator@U?$pair@$$CBV?$basic_string@DU?$char_traits@D@std@@V?$allocator@D@2@@std@@V?$shared_ptr@UNode@NetvarTree@@@2@@std@@@2@$0A@@std@@@std@@QAE@ABV?$_Uhash_compare@V?$basic_string@DU?$char_traits@D@std@@V?$allocator@D@2@@std@@U?$hash@V?$basic_string@DU?$char_traits@D@std@@V?$allocator@D@2@@std@@@2@U?$equal_to@V?$basic_string@DU?$char_traits@D@std@@V?$allocator@D@2@@std@@@2@@1@ABV?$allocator@U?$pair@$$CBV?$basic_string@DU?$char_traits@D@std@@V?$allocator@D@2@@std@@V?$shared_ptr@UNode@NetvarTree@@@2@@std@@@1@@Z 10075b64     NetvarManager.obj
 0002:0000cb88       __unwindtable$??0NetvarTree@@QAE@XZ 10075b88     NetvarManager.obj
 0002:0000cb98       __ehfuncinfo$??0NetvarTree@@QAE@XZ 10075b98     NetvarManager.obj
 0002:0000cbbc       __unwindtable$?PopulateNodes@NetvarTree@@AAEXPAVRecvTable@@PAV?$unordered_map@V?$basic_string@DU?$char_traits@D@std@@V?$allocator@D@2@@std@@V?$shared_ptr@UNode@NetvarTree@@@2@U?$hash@V?$basic_string@DU?$char_traits@D@std@@V?$allocator@D@2@@std@@@2@U?$equal_to@V?$basic_string@DU?$char_traits@D@std@@V?$allocator@D@2@@std@@@2@V?$allocator@U?$pair@$$CBV?$basic_string@DU?$char_traits@D@std@@V?$allocator@D@2@@std@@V?$shared_ptr@UNode@NetvarTree@@@2@@std@@@2@@std@@@Z 10075bbc     NetvarManager.obj
 0002:0000cbc4       __ehfuncinfo$?PopulateNodes@NetvarTree@@AAEXPAVRecvTable@@PAV?$unordered_map@V?$basic_string@DU?$char_traits@D@std@@V?$allocator@D@2@@std@@V?$shared_ptr@UNode@NetvarTree@@@2@U?$hash@V?$basic_string@DU?$char_traits@D@std@@V?$allocator@D@2@@std@@@2@U?$equal_to@V?$basic_string@DU?$char_traits@D@std@@V?$allocator@D@2@@std@@@2@V?$allocator@U?$pair@$$CBV?$basic_string@DU?$char_traits@D@std@@V?$allocator@D@2@@std@@V?$shared_ptr@UNode@NetvarTree@@@2@@std@@@2@@std@@@Z 10075bc4     NetvarManager.obj
 0002:0000cbe8       __unwindtable$??$make_shared@UNode@NetvarTree@@H@std@@YA?AV?$shared_ptr@UNode@NetvarTree@@@0@$$QAH@Z 10075be8     NetvarManager.obj
 0002:0000cbf8       __ehfuncinfo$??$make_shared@UNode@NetvarTree@@H@std@@YA?AV?$shared_ptr@UNode@NetvarTree@@@0@$$QAH@Z 10075bf8     NetvarManager.obj
 0002:0000cc1c       __unwindtable$??$?0H@?$_Ref_count_obj@UNode@NetvarTree@@@std@@QAE@$$QAH@Z 10075c1c     NetvarManager.obj
 0002:0000cc24       __ehfuncinfo$??$?0H@?$_Ref_count_obj@UNode@NetvarTree@@@std@@QAE@$$QAH@Z 10075c24     NetvarManager.obj
 0002:0000cc48       __catchsym$??$_Buynode@PBDABV?$shared_ptr@UNode@NetvarTree@@@std@@@?$_List_buy@U?$pair@$$CBV?$basic_string@DU?$char_traits@D@std@@V?$allocator@D@2@@std@@V?$shared_ptr@UNode@NetvarTree@@@2@@std@@V?$allocator@U?$pair@$$CBV?$basic_string@DU?$char_traits@D@std@@V?$allocator@D@2@@std@@V?$shared_ptr@UNode@NetvarTree@@@2@@std@@@2@@std@@QAEPAU?$_List_node@U?$pair@$$CBV?$basic_string@DU?$char_traits@D@std@@V?$allocator@D@2@@std@@V?$shared_ptr@UNode@NetvarTree@@@2@@std@@PAX@1@PAU21@0$$QAPBDABV?$shared_ptr@UNode@NetvarTree@@@1@@Z$2 10075c48     NetvarManager.obj
 0002:0000cc58       __unwindtable$??$_Buynode@PBDABV?$shared_ptr@UNode@NetvarTree@@@std@@@?$_List_buy@U?$pair@$$CBV?$basic_string@DU?$char_traits@D@std@@V?$allocator@D@2@@std@@V?$shared_ptr@UNode@NetvarTree@@@2@@std@@V?$allocator@U?$pair@$$CBV?$basic_string@DU?$char_traits@D@std@@V?$allocator@D@2@@std@@V?$shared_ptr@UNode@NetvarTree@@@2@@std@@@2@@std@@QAEPAU?$_List_node@U?$pair@$$CBV?$basic_string@DU?$char_traits@D@std@@V?$allocator@D@2@@std@@V?$shared_ptr@UNode@NetvarTree@@@2@@std@@PAX@1@PAU21@0$$QAPBDABV?$shared_ptr@UNode@NetvarTree@@@1@@Z 10075c58     NetvarManager.obj
 0002:0000cc68       __tryblocktable$??$_Buynode@PBDABV?$shared_ptr@UNode@NetvarTree@@@std@@@?$_List_buy@U?$pair@$$CBV?$basic_string@DU?$char_traits@D@std@@V?$allocator@D@2@@std@@V?$shared_ptr@UNode@NetvarTree@@@2@@std@@V?$allocator@U?$pair@$$CBV?$basic_string@DU?$char_traits@D@std@@V?$allocator@D@2@@std@@V?$shared_ptr@UNode@NetvarTree@@@2@@std@@@2@@std@@QAEPAU?$_List_node@U?$pair@$$CBV?$basic_string@DU?$char_traits@D@std@@V?$allocator@D@2@@std@@V?$shared_ptr@UNode@NetvarTree@@@2@@std@@PAX@1@PAU21@0$$QAPBDABV?$shared_ptr@UNode@NetvarTree@@@1@@Z 10075c68     NetvarManager.obj
 0002:0000cc7c       __ehfuncinfo$??$_Buynode@PBDABV?$shared_ptr@UNode@NetvarTree@@@std@@@?$_List_buy@U?$pair@$$CBV?$basic_string@DU?$char_traits@D@std@@V?$allocator@D@2@@std@@V?$shared_ptr@UNode@NetvarTree@@@2@@std@@V?$allocator@U?$pair@$$CBV?$basic_string@DU?$char_traits@D@std@@V?$allocator@D@2@@std@@V?$shared_ptr@UNode@NetvarTree@@@2@@std@@@2@@std@@QAEPAU?$_List_node@U?$pair@$$CBV?$basic_string@DU?$char_traits@D@std@@V?$allocator@D@2@@std@@V?$shared_ptr@UNode@NetvarTree@@@2@@std@@PAX@1@PAU21@0$$QAPBDABV?$shared_ptr@UNode@NetvarTree@@@1@@Z 10075c7c     NetvarManager.obj
 0002:0000cca0       __unwindtable$___std_fs_get_stats@16 10075ca0     msvcprt:filesystem.obj
 0002:0000ccb8       __ehfuncinfo$___std_fs_get_stats@16 10075cb8     msvcprt:filesystem.obj
 0002:0000cce0       __sehtable$??_L@YGXPAXIIP6EX0@Z1@Z 10075ce0     MSVCRT:ehvecctr.obj
 0002:0000cd00       __sehtable$??_M@YGXPAXIIP6EX0@Z@Z 10075d00     MSVCRT:ehvecdtr.obj
 0002:0000cd20       __sehtable$?__ArrayUnwind@@YGXPAXIIP6EX0@Z@Z 10075d20     MSVCRT:ehvecdtr.obj
 0002:0000cd40       __sehtable$___scrt_is_nonwritable_in_current_image 10075d40     MSVCRT:utility.obj
 0002:0000cd60       __sehtable$?dllmain_crt_process_attach@@YAHQAUHINSTANCE__@@QAX@Z 10075d60     MSVCRT:dll_dllmain.obj
 0002:0000cd80       __sehtable$?dllmain_crt_process_detach@@YAH_N@Z 10075d80     MSVCRT:dll_dllmain.obj
 0002:0000cda0       __sehtable$?dllmain_dispatch@@YAHQAUHINSTANCE__@@KQAX@Z 10075da0     MSVCRT:dll_dllmain.obj
 0002:0000d42c       .idata$6                   1007642c     kernel32:KERNEL32.dll
 0002:0000d514       .idata$6                   10076514     user32:USER32.dll
 0002:0000d538       .idata$6                   10076538     shell32:SHELL32.dll
 0002:0000d554       .idata$6                   10076554     ole32:ole32.dll
 0002:0000e35c       .idata$6                   1007735c     msvcprt:MSVCP140.dll
 0002:0000e394       .idata$6                   10077394     imm32:IMM32.dll
 0002:0000e49a       .idata$6                   1007749a     vcruntime:VCRUNTIME140.dll
 0002:0000e844       .idata$6                   10077844     ucrt:api-ms-win-crt-runtime-l1-1-0.dll
 0002:0000e866       .idata$6                   10077866     ucrt:api-ms-win-crt-heap-l1-1-0.dll
 0002:0000e886       .idata$6                   10077886     ucrt:api-ms-win-crt-convert-l1-1-0.dll
 0002:0000e8a8       .idata$6                   100778a8     ucrt:api-ms-win-crt-stdio-l1-1-0.dll
 0002:0000e8c8       .idata$6                   100778c8     ucrt:api-ms-win-crt-math-l1-1-0.dll
 0002:0000e8e8       .idata$6                   100778e8     ucrt:api-ms-win-crt-string-l1-1-0.dll
 0002:0000e90a       .idata$6                   1007790a     ucrt:api-ms-win-crt-utility-l1-1-0.dll
 0002:0000e92c       .idata$6                   1007792c     ucrt:api-ms-win-crt-filesystem-l1-1-0.dll
 0002:0000e952       .idata$6                   10077952     ucrt:api-ms-win-crt-locale-l1-1-0.dll
 0003:00000000       ?Speed@?1??Autostop@c_aimbot@@QAEXXZ@4MA 10078000     c_ragebot.obj
 0003:00000004       ?HitboxForMuti@?1??Hitscan@c_aimbot@@QAE?AVVector@@PAVC_BaseEntity@@@Z@4PAHA 10078004     c_ragebot.obj
 0003:0000001c       ?g_VertexBufferSize@@3HA   1007801c     imgui_impl_dx9.obj
 0003:00000020       ?g_IndexBufferSize@@3HA    10078020     imgui_impl_dx9.obj
 0003:00000028       ?STB_TEXTEDIT_NEWLINE@ImGuiStb@@3GA 10078028     imgui.obj
 0003:00000038       ?old_time@?1??begin_popup@ImGui@@YAXPBDHPA_N@Z@4JA 10078038     menu_system.obj
 0003:0000003c       ?current_config@?2??config_tab@@YAXXZ@4HA 1007803c     menu_system.obj
 0003:00000504       ?vec2_origin@@3VVector2D@@B 10078504     animation_system.obj
 0003:0000054c       ?old_tick_count@?1??fresh_tick@@YA_NXZ@4HA 1007854c     animation_system.obj
 0003:00000550       ?proper_abs@?1??LocalAnimFix@animations_system@@QAEXPAVC_BaseEntity@@@Z@4MA 10078550     animation_system.obj
 0003:00000554       ?$TSS0@?1??LocalAnimFix@animations_system@@QAEXPAVC_BaseEntity@@@Z@4HA 10078554     animation_system.obj
 0003:00000558       ?sent_pose_params@?1??LocalAnimFix@animations_system@@QAEXPAVC_BaseEntity@@@Z@4V?$array@M$0BI@@std@@A 10078558     animation_system.obj
 0003:000005b8       ?$TSS1@?1??LocalAnimFix@animations_system@@QAEXPAVC_BaseEntity@@@Z@4HA 100785b8     animation_system.obj
 0003:000005c0       ?backup_layers@?1??LocalAnimFix@animations_system@@QAEXPAVC_BaseEntity@@@Z@4PAVAnimationLayer@@A 100785c0     animation_system.obj
 0003:0000090c       ?vec2_origin@@3VVector2D@@B 1007890c     exploits.obj
 0003:00000920       ?vec2_origin@@3VVector2D@@B 10078920     premium_stuff.obj
 0003:0000092c       ?vec2_origin@@3VVector2D@@B 1007892c     other_esp.obj
 0003:00000940       ?OldNightmode@?1??night_mode@other_esp@@QAEXXZ@4_NA 10078940     other_esp.obj
 0003:00000a80       ?vec2_origin@@3VVector2D@@B 10078a80     c_hooks.obj
 0003:00000a94       ?vec2_origin@@3VVector2D@@B 10078a94     dll_main.obj
 0003:00000aa0       ?vec2_origin@@3VVector2D@@B 10078aa0     c_ragebot.obj
 0003:0006235c       ?shot@?1??OnCreateMove@c_aimbot@@QAEXXZ@4_NA 100da35c     c_ragebot.obj
 0003:00062364       ?vec2_origin@@3VVector2D@@B 100da364     Autowall.obj
 0003:0006237c       ?dwAddress@?1??UTIL_ClipTraceToPlayers@@YAXABVVector@@0IPAVITraceFilter@@PAUC_Trace@@@Z@4KA 100da37c     Autowall.obj
 0003:00062380       ?$TSS0@?1??UTIL_ClipTraceToPlayers@@YAXABVVector@@0IPAVITraceFilter@@PAUC_Trace@@@Z@4HA 100da380     Autowall.obj
 0003:00062384       ?oTraceToExit@?1??TraceToExitalt@@YA_NAAVVector@@AAUC_Trace@@V2@2PAU3@@Z@4P6I_N01MMMMMM3@ZA 100da384     Autowall.obj
 0003:00062388       ?$TSS0@?1??TraceToExitalt@@YA_NAAVVector@@AAUC_Trace@@V2@2PAU3@@Z@4HA 100da388     Autowall.obj
 0003:0006239c       ?vec2_origin@@3VVector2D@@B 100da39c     EnginePrediction.obj
 0003:000623b0       ?vec2_origin@@3VVector2D@@B 100da3b0     LagComp.obj
 0003:000629d8       ?ShotTime@?1??StoreRecord@LagComp@@QAEXPAVC_BaseEntity@@@Z@4PAMA 100da9d8     LagComp.obj
 0003:00062ae0       ?OldSimtime@?1??StoreRecord@LagComp@@QAEXPAVC_BaseEntity@@@Z@4PAMA 100daae0     LagComp.obj
 0003:000647a0       ?vec2_origin@@3VVector2D@@B 100dc7a0     c_antiaim.obj
 0003:000647b8       ?host_timescale@?BA@??desyncchams@c_antiaim@@QAEXXZ@4PAVConVar@@A 100dc7b8     c_antiaim.obj
 0003:000647bc       ?$TSS0@?BA@??desyncchams@c_antiaim@@QAEXXZ@4HA 100dc7bc     c_antiaim.obj
 0003:000647c0       ?next_lby@?1??LbyUpdate@@YA_NXZ@4MA 100dc7c0     c_antiaim.obj
 0003:000647c4       ?inverter@?1??DoFake@@YAXPAVCUserCmd@@@Z@4_NA 100dc7c4     c_antiaim.obj
 0003:000647c8       ?lastTime@?1??DoFake@@YAXPAVCUserCmd@@@Z@4IA 100dc7c8     c_antiaim.obj
 0003:000647cc       ?flip_movement@?BA@??smallmovements@c_antiaim@@QAEXXZ@4_NA 100dc7cc     c_antiaim.obj
 0003:000647cd       ?flip_movement@?BF@??smallmovements@c_antiaim@@QAEXXZ@4_NA 100dc7cd     c_antiaim.obj
 0003:000647d0       ?vec2_origin@@3VVector2D@@B 100dc7d0     Legitbot.obj
 0003:00064cf0       ?bestEntTick@?1??OnCreateMove@Legitbot@@QAEXXZ@4PAHA 100dccf0     Legitbot.obj
 0003:00064df8       ?StoredSimTime@?9??OnCreateMove@Legitbot@@QAEXXZ@4PAMA 100dcdf8     Legitbot.obj
 0003:00064f00       ?vec2_origin@@3VVector2D@@B 100dcf00     Resolver.obj
 0003:00065160       ?predTime@?1??HandleHits@@YAXPAVC_BaseEntity@@@Z@4PAMA 100dd160     Resolver.obj
 0003:00065268       ?init@?1??HandleHits@@YAXPAVC_BaseEntity@@@Z@4PA_NA 100dd268     Resolver.obj
 0003:000652b0       ?wasDormant@?1??FrameStage@Resolver@@QAEXW4ClientFrameStage_t@@@Z@4PA_NA 100dd2b0     Resolver.obj
 0003:00065340       ?vec2_origin@@3VVector2D@@B 100dd340     c_esp.obj
 0003:00065358       ?g_hWnd@@3PAUHWND__@@A     100dd358     imgui_impl_dx9.obj
 0003:0006535c       ?g_pd3dDevice@@3PAUIDirect3DDevice9@@A 100dd35c     imgui_impl_dx9.obj
 0003:00065360       ?g_Time@@3_JA              100dd360     imgui_impl_dx9.obj
 0003:00065368       ?g_TicksPerSecond@@3_JA    100dd368     imgui_impl_dx9.obj
 0003:00065370       ?g_pVB@@3PAUIDirect3DVertexBuffer9@@A 100dd370     imgui_impl_dx9.obj
 0003:00065374       ?g_pIB@@3PAUIDirect3DIndexBuffer9@@A 100dd374     imgui_impl_dx9.obj
 0003:00065378       ?g_FontTexture@@3PAUIDirect3DTexture9@@A 100dd378     imgui_impl_dx9.obj
 0003:00065388       ?GImDefaultFontAtlas@@3UImFontAtlas@@A 100dd388     imgui.obj
 0003:000653d0       ?GImDefaultContext@@3UImGuiContext@@A 100dd3d0     imgui.obj
 0003:00068990       ?crc32_lut@?1??ImHash@@YAIPBXHI@Z@4PAIA 100e0990     imgui.obj
 0003:00068d90       ?timeStamp@?1??Hotkey@ImGui@@YA_NPBDPAHABUImVec2@@@Z@4JA 100e0d90     imgui.obj
 0003:00068d94       ?$TSS0@?1??Hotkey@ImGui@@YA_NPBDPAHABUImVec2@@@Z@4HA 100e0d94     imgui.obj
 0003:00068d98       ?buf_local@?1??GetClipboardTextFn_DefaultImpl@@YAPBDPAX@Z@4V?$ImVector@D@@A 100e0d98     imgui.obj
 0003:00068da4       ?$TSS0@?1??GetClipboardTextFn_DefaultImpl@@YAPBDPAX@Z@4HA 100e0da4     imgui.obj
 0003:00068da8       ?GNullClipRect@@3UImVec4@@B 100e0da8     imgui_draw.obj
 0003:00068db8       ?stb__barrier@@3PAEA       100e0db8     imgui_draw.obj
 0003:00068dbc       ?stb__barrier2@@3PAEA      100e0dbc     imgui_draw.obj
 0003:00068dc0       ?stb__barrier3@@3PAEA      100e0dc0     imgui_draw.obj
 0003:00068dc4       ?stb__barrier4@@3PAEA      100e0dc4     imgui_draw.obj
 0003:00068dc8       ?stb__dout@@3PAEA          100e0dc8     imgui_draw.obj
 0003:00068dd0       ?circle_vtx@?1??PathArcToFast@ImDrawList@@QAEXABUImVec2@@MHH@Z@4PAU3@A 100e0dd0     imgui_draw.obj
 0003:00068e30       ?$TSS0@?1??PathArcToFast@ImDrawList@@QAEXABUImVec2@@MHH@Z@4HA 100e0e30     imgui_draw.obj
 0003:00068e34       ?circle_vtx_builds@?1??PathArcToFast@ImDrawList@@QAEXABUImVec2@@MHH@Z@4_NA 100e0e34     imgui_draw.obj
 0003:00068e38       ?vec2_origin@@3VVector2D@@B 100e0e38     bone_processing_hook.obj
 0003:00068e40       ?Init@?1??HookPlayers@c_hooks@@SAXXZ@4PA_NA 100e0e40     bone_processing_hook.obj
 0003:00068e88       ?Hooked@?1??HookPlayers@c_hooks@@SAXXZ@4PA_NA 100e0e88     bone_processing_hook.obj
 0003:00068ecc       ?vec2_origin@@3VVector2D@@B 100e0ecc     createmove_hook.obj
 0003:00068ee0       ?oCreateMove@?1??CreateMove@c_hooks@@SI_NPAVIClientMode@@PAXMPAVCUserCmd@@@Z@4P6I_N01M2@ZA 100e0ee0     createmove_hook.obj
 0003:00068ee4       ?$TSS0@?1??CreateMove@c_hooks@@SI_NPAVIClientMode@@PAXMPAVCUserCmd@@@Z@4HA 100e0ee4     createmove_hook.obj
 0003:00068ef8       ?vec2_origin@@3VVector2D@@B 100e0ef8     directx_preset_hook.obj
 0003:00068f00       ?initialized@@3_NA         100e0f00     directx_preset_hook.obj
 0003:00068f04       ?oEndScene@?1??Hooked_EndScene@c_hooks@@SGXPAUIDirect3DDevice9@@@Z@4P6GX0@ZA 100e0f04     directx_preset_hook.obj
 0003:00068f08       ?$TSS0@?1??Hooked_EndScene@c_hooks@@SGXPAUIDirect3DDevice9@@@Z@4HA 100e0f08     directx_preset_hook.obj
 0003:00068f0c       ?oEndSceneReset@?1??Hooked_EndScene_Reset@c_hooks@@SGXPAUIDirect3DDevice9@@PAU_D3DPRESENT_PARAMETERS_@@@Z@4P6GX01@ZA 100e0f0c     directx_preset_hook.obj
 0003:00068f10       ?$TSS0@?1??Hooked_EndScene_Reset@c_hooks@@SGXPAUIDirect3DDevice9@@PAU_D3DPRESENT_PARAMETERS_@@@Z@4HA 100e0f10     directx_preset_hook.obj
 0003:00068f14       ?vec2_origin@@3VVector2D@@B 100e0f14     dme_hook.obj
 0003:00068f1c       ?glowOverlay@@3PAVIMaterial@@A 100e0f1c     dme_hook.obj
 0003:00068f20       ?materialRegular@@3PAVIMaterial@@A 100e0f20     dme_hook.obj
 0003:00068f24       ?rifk_glow@@3PAVIMaterial@@A 100e0f24     dme_hook.obj
 0003:00068f28       ?oDrawModelExecute@?1??DrawModelExecute@c_hooks@@SIXPAX0PAVIMatRenderContext@@ABUDrawModelState_t@@ABUModelRenderInfo_t@@PAVmatrix3x4_t@@@Z@4P6EX01234@ZA 100e0f28     dme_hook.obj
 0003:00068f2c       ?$TSS0@?1??DrawModelExecute@c_hooks@@SIXPAX0PAVIMatRenderContext@@ABUDrawModelState_t@@ABUModelRenderInfo_t@@PAVmatrix3x4_t@@@Z@4HA 100e0f2c     dme_hook.obj
 0003:00068f30       ?normal_enemy@?1??DrawModelExecute@c_hooks@@SIXPAX0PAVIMatRenderContext@@ABUDrawModelState_t@@ABUModelRenderInfo_t@@PAVmatrix3x4_t@@@Z@4PAVIMaterial@@A 100e0f30     dme_hook.obj
 0003:00068f34       ?overide_enemy@?1??DrawModelExecute@c_hooks@@SIXPAX0PAVIMatRenderContext@@ABUDrawModelState_t@@ABUModelRenderInfo_t@@PAVmatrix3x4_t@@@Z@4PAVIMaterial@@A 100e0f34     dme_hook.obj
 0003:00068f38       ?normal_local@?1??DrawModelExecute@c_hooks@@SIXPAX0PAVIMatRenderContext@@ABUDrawModelState_t@@ABUModelRenderInfo_t@@PAVmatrix3x4_t@@@Z@4PAVIMaterial@@A 100e0f38     dme_hook.obj
 0003:00068f3c       ?overide_local@?1??DrawModelExecute@c_hooks@@SIXPAX0PAVIMatRenderContext@@ABUDrawModelState_t@@ABUModelRenderInfo_t@@PAVmatrix3x4_t@@@Z@4PAVIMaterial@@A 100e0f3c     dme_hook.obj
 0003:00068f40       ?desync_material@?1??DrawModelExecute@c_hooks@@SIXPAX0PAVIMatRenderContext@@ABUDrawModelState_t@@ABUModelRenderInfo_t@@PAVmatrix3x4_t@@@Z@4PAVIMaterial@@A 100e0f40     dme_hook.obj
 0003:00068f44       ?desync_overide@?1??DrawModelExecute@c_hooks@@SIXPAX0PAVIMatRenderContext@@ABUDrawModelState_t@@ABUModelRenderInfo_t@@PAVmatrix3x4_t@@@Z@4PAVIMaterial@@A 100e0f44     dme_hook.obj
 0003:00068f48       ?hand_normal@?1??DrawModelExecute@c_hooks@@SIXPAX0PAVIMatRenderContext@@ABUDrawModelState_t@@ABUModelRenderInfo_t@@PAVmatrix3x4_t@@@Z@4PAVIMaterial@@A 100e0f48     dme_hook.obj
 0003:00068f4c       ?hand_overide@?1??DrawModelExecute@c_hooks@@SIXPAX0PAVIMatRenderContext@@ABUDrawModelState_t@@ABUModelRenderInfo_t@@PAVmatrix3x4_t@@@Z@4PAVIMaterial@@A 100e0f4c     dme_hook.obj
 0003:00068f50       ?vec2_origin@@3VVector2D@@B 100e0f50     event_hook.obj
 0003:00068f58       ?vec2_origin@@3VVector2D@@B 100e0f58     fsn_hook.obj
 0003:00068f64       ?util_playerbyindex@?4??server_hitbox@@YAXXZ@4IA 100e0f64     fsn_hook.obj
 0003:00068f68       ?$TSS0@?4??server_hitbox@@YAXXZ@4HA 100e0f68     fsn_hook.obj
 0003:00068f6c       ?draw_server_hitboxes@?4??server_hitbox@@YAXXZ@4IA 100e0f6c     fsn_hook.obj
 0003:00068f70       ?$TSS1@?4??server_hitbox@@YAXXZ@4HA 100e0f70     fsn_hook.obj
 0003:00068f74       ?oFrameStage@?1??FrameStageNotify@c_hooks@@SGXW4ClientFrameStage_t@@@Z@4P6GX0@ZA 100e0f74     fsn_hook.obj
 0003:00068f78       ?$TSS0@?1??FrameStageNotify@c_hooks@@SGXW4ClientFrameStage_t@@@Z@4HA 100e0f78     fsn_hook.obj
 0003:00068f80       ?vec2_origin@@3VVector2D@@B 100e0f80     hooking_init.obj
 0003:00068f88       ?vec2_origin@@3VVector2D@@B 100e0f88     lock_cursor_hook.obj
 0003:00068f90       ?oLockCursor@?1??LockCursor@c_hooks@@SIXPAVISurface@@PAX@Z@4P6IX01@ZA 100e0f90     lock_cursor_hook.obj
 0003:00068f94       ?$TSS0@?1??LockCursor@c_hooks@@SIXPAVISurface@@PAX@Z@4HA 100e0f94     lock_cursor_hook.obj
 0003:00068f98       ?vec2_origin@@3VVector2D@@B 100e0f98     oview_hook.obj
 0003:00068fa8       ?oOverrideView@?1??OverrideView@c_hooks@@SIXPAX0PAVCViewSetup@@@Z@4P6IX001@ZA 100e0fa8     oview_hook.obj
 0003:00068fac       ?$TSS0@?1??OverrideView@c_hooks@@SIXPAX0PAVCViewSetup@@@Z@4HA 100e0fac     oview_hook.obj
 0003:00068fb0       ?vec2_origin@@3VVector2D@@B 100e0fb0     painttraverse_hook.obj
 0003:00068fbc       ?oPaintTraverse@?1??PaintTraverse@c_hooks@@SIXPAXHI_N1@Z@4P6EX0I11@ZA 100e0fbc     painttraverse_hook.obj
 0003:00068fc0       ?$TSS0@?1??PaintTraverse@c_hooks@@SIXPAXHI_N1@Z@4HA 100e0fc0     painttraverse_hook.obj
 0003:00068fc4       ?panelID@?1??PaintTraverse@c_hooks@@SIXPAXHI_N1@Z@4IA 100e0fc4     painttraverse_hook.obj
 0003:00068fc8       ?panelHudID@?1??PaintTraverse@c_hooks@@SIXPAXHI_N1@Z@4IA 100e0fc8     painttraverse_hook.obj
 0003:00068fcc       ?vec2_origin@@3VVector2D@@B 100e0fcc     sceneend_hook.obj
 0003:00068fd4       ?oSceneEnd@?1??SceneEnd@c_hooks@@SIXPAX0@Z@4P6IX00@ZA 100e0fd4     sceneend_hook.obj
 0003:00068fd8       ?$TSS0@?1??SceneEnd@c_hooks@@SIXPAX0@Z@4HA 100e0fd8     sceneend_hook.obj
 0003:00068fdc       ?vec2_origin@@3VVector2D@@B 100e0fdc     wndproc_hook.obj
 0003:00068fe4       ?pressed@?1??WndProc@c_hooks@@SGJPAUHWND__@@IIJ@Z@4_NA 100e0fe4     wndproc_hook.obj
 0003:000691c8       ?vec2_origin@@3VVector2D@@B 100e11c8     menu_system.obj
 0003:000691d1       ?w_printf@XorCompileTime@@3V<lambda>@@A 100e11d1     menu_system.obj
 0003:000691d2       ?w_printf_s@XorCompileTime@@3V<lambda>@@A 100e11d2     menu_system.obj
 0003:000691d3       ?w_sprintf_s@XorCompileTime@@3V<lambda>@@A 100e11d3     menu_system.obj
 0003:000691d4       ?w_sprintf@XorCompileTime@@3V<lambda>@@A 100e11d4     menu_system.obj
 0003:000691d8       ?chams_sub@?3??visuals_tab@@YAXXZ@4HA 100e11d8     menu_system.obj
 0003:000691dc       ?buffer@?2??config_tab@@YAXXZ@4PADA 100e11dc     menu_system.obj
 0003:000691ec       ?page@?1??Render@c_menu@@QAEXXZ@4HA 100e11ec     menu_system.obj
 0003:000691f0       ?vec2_origin@@3VVector2D@@B 100e11f0     CEntity.obj
 0003:000691f8       ?AbsAngles@?1??SetAbsAngles@C_BaseEntity@@QAEXVVector@@@Z@4P6EXPAV2@ABV3@@ZA 100e11f8     CEntity.obj
 0003:000691fc       ?$TSS0@?1??SetAbsAngles@C_BaseEntity@@QAEXVVector@@@Z@4HA 100e11fc     CEntity.obj
 0003:00069200       ?AbsOrigin@?1??SetAbsOrigin@C_BaseEntity@@QAEXVVector@@@Z@4P6EXPAXABV3@@ZA 100e1200     CEntity.obj
 0003:00069204       ?$TSS0@?1??SetAbsOrigin@C_BaseEntity@@QAEXVVector@@@Z@4HA 100e1204     CEntity.obj
 0003:0006e928       ?vec2_origin@@3VVector2D@@B 100e6928     GlobalVars.obj
 0003:00070488       ?vec2_origin@@3VVector2D@@B 100e8488     Interfaces.obj
 0003:000704a0       ?signmask@@3T__m128@@B     100e84a0     Math.obj
 0003:000704b0       ?vec2_origin@@3VVector2D@@B 100e84b0     Math.obj
 0003:000704b8       ?random_float@?1??RandomFloat@Math@@QAEMMM@Z@4P6AMMM@ZA 100e84b8     Math.obj
 0003:000704bc       ?$TSS0@?1??RandomFloat@Math@@QAEMMM@Z@4HA 100e84bc     Math.obj
 0003:000704c4       ?_Fac_tidy_reg@std@@3U_Fac_tidy_reg_t@1@B 100e84c4     msvcprt:locale0_implib.obj
 0003:000704c8       ?_Fac_head@std@@3PAU_Fac_node@1@A 100e84c8     msvcprt:locale0_implib.obj
 0003:000704dc       ?_Tss_mutex@@3U_RTL_CRITICAL_SECTION@@A 100e84dc     MSVCRT:thread_safe_statics.obj
 0003:000704f4       ?_Tss_cv@@3U_RTL_CONDITION_VARIABLE@@A 100e84f4     MSVCRT:thread_safe_statics.obj
 0003:000704f8       ?_Tss_event@@3PAXA         100e84f8     MSVCRT:thread_safe_statics.obj
 0003:000704fc       ?encoded_sleep_condition_variable_cs@@3P6GHPAU_RTL_CONDITION_VARIABLE@@PAU_RTL_CRITICAL_SECTION@@K@ZA 100e84fc     MSVCRT:thread_safe_statics.obj
 0003:00070500       ?encoded_wake_all_condition_variable@@3P6GXPAU_RTL_CONDITION_VARIABLE@@@ZA 100e8500     MSVCRT:thread_safe_statics.obj
 0003:00070510       ?is_initialized_as_dll@@3_NA 100e8510     MSVCRT:utility.obj
 0003:00070511       ?module_local_atexit_table_initialized@@3_NA 100e8511     MSVCRT:utility.obj
 0003:00070514       ?module_local_atexit_table@@3U_onexit_table_t@@A 100e8514     MSVCRT:utility.obj
 0003:00070520       ?module_local_at_quick_exit_table@@3U_onexit_table_t@@A 100e8520     MSVCRT:utility.obj
 0003:00070530       _GS_ExceptionRecord        100e8530     MSVCRT:gs_report.obj
 0003:00070580       _GS_ContextRecord          100e8580     MSVCRT:gs_report.obj
 0003:0007084c       ?__proc_attached@@3HA      100e884c     MSVCRT:dll_dllmain.obj
 0004:00000060       $R000000                   100e9060     * linker generated manifest res *

 Exports

  ordinal    name

